ARM GAS  C:\Users\NICOMA~1\AppData\Local\Temp\ccMMVzOB.s 			page 1


   1              		.cpu arm1176jz-s
   2              		.fpu softvfp
   3              		.eabi_attribute 20, 1
   4              		.eabi_attribute 21, 1
   5              		.eabi_attribute 23, 3
   6              		.eabi_attribute 24, 1
   7              		.eabi_attribute 25, 1
   8              		.eabi_attribute 26, 1
   9              		.eabi_attribute 30, 2
  10              		.eabi_attribute 34, 1
  11              		.eabi_attribute 18, 4
  12              		.file	"chcond.c"
  13              		.text
  14              	.Ltext0:
  15              		.cfi_sections	.debug_frame
  16              		.section	.text.chCondInit,"ax",%progbits
  17              		.align	2
  18              		.global	chCondInit
  19              		.type	chCondInit, %function
  20              	chCondInit:
  21              	.LFB7:
  22              		.file 1 "../../os/kernel/src/chcond.c"
  23              		.loc 1 59 0
  24              		.cfi_startproc
  25              		@ args = 0, pretend = 0, frame = 0
  26              		@ frame_needed = 0, uses_anonymous_args = 0
  27              		@ link register save eliminated.
  28              	.LVL0:
  29              		.loc 1 63 0
  30 0000 040080E5 		str	r0, [r0, #4]
  31 0004 000080E5 		str	r0, [r0, #0]
  32 0008 1EFF2FE1 		bx	lr
  33              		.cfi_endproc
  34              	.LFE7:
  35              		.size	chCondInit, .-chCondInit
  36              		.section	.text.chCondSignal,"ax",%progbits
  37              		.align	2
  38              		.global	chCondSignal
  39              		.type	chCondSignal, %function
  40              	chCondSignal:
  41              	.LFB8:
  42              		.loc 1 73 0
  43              		.cfi_startproc
  44              		@ args = 0, pretend = 0, frame = 0
  45              		@ frame_needed = 0, uses_anonymous_args = 0
  46              	.LVL1:
  47 0000 08402DE9 		stmfd	sp!, {r3, lr}
  48              	.LCFI0:
  49              		.cfi_def_cfa_offset 8
  50              		.cfi_offset 3, -8
  51              		.cfi_offset 14, -4
  52              		.loc 1 73 0
  53 0004 0030A0E1 		mov	r3, r0
  54              		.loc 1 77 0
  55              	@ 77 "../../os/kernel/src/chcond.c" 1
  56 0008 9FF021E3 		msr     CPSR_c, #0x9F
  57              	@ 0 "" 2
ARM GAS  C:\Users\NICOMA~1\AppData\Local\Temp\ccMMVzOB.s 			page 2


  58              		.loc 1 78 0
  59 000c 000090E5 		ldr	r0, [r0, #0]
  60              	.LVL2:
  61 0010 030050E1 		cmp	r0, r3
  62 0014 0400000A 		beq	.L3
  63              	.LVL3:
  64              	.LBB12:
  65              	.LBB13:
  66              		.file 2 "../../os/kernel/include/chinline.h"
  67              		.loc 2 62 0
  68 0018 002090E5 		ldr	r2, [r0, #0]
  69              	.LBE13:
  70              	.LBE12:
  71              		.loc 1 79 0
  72 001c 0010A0E3 		mov	r1, #0
  73              	.LBB15:
  74              	.LBB14:
  75              		.loc 2 62 0
  76 0020 002083E5 		str	r2, [r3, #0]
  77 0024 043082E5 		str	r3, [r2, #4]
  78              	.LBE14:
  79              	.LBE15:
  80              		.loc 1 79 0
  81 0028 FEFFFFEB 		bl	chSchWakeupS
  82              	.LVL4:
  83              	.L3:
  84              		.loc 1 80 0
  85              	@ 80 "../../os/kernel/src/chcond.c" 1
  86 002c 1FF021E3 		msr     CPSR_c, #0x1F
  87              	@ 0 "" 2
  88 0030 0880BDE8 		ldmfd	sp!, {r3, pc}
  89              		.cfi_endproc
  90              	.LFE8:
  91              		.size	chCondSignal, .-chCondSignal
  92              		.section	.text.chCondSignalI,"ax",%progbits
  93              		.align	2
  94              		.global	chCondSignalI
  95              		.type	chCondSignalI, %function
  96              	chCondSignalI:
  97              	.LFB9:
  98              		.loc 1 94 0
  99              		.cfi_startproc
 100              		@ args = 0, pretend = 0, frame = 0
 101              		@ frame_needed = 0, uses_anonymous_args = 0
 102              	.LVL5:
 103 0000 08402DE9 		stmfd	sp!, {r3, lr}
 104              	.LCFI1:
 105              		.cfi_def_cfa_offset 8
 106              		.cfi_offset 3, -8
 107              		.cfi_offset 14, -4
 108              		.loc 1 94 0
 109 0004 0030A0E1 		mov	r3, r0
 110              		.loc 1 99 0
 111 0008 000090E5 		ldr	r0, [r0, #0]
 112              	.LVL6:
 113 000c 030050E1 		cmp	r0, r3
 114 0010 0880BD08 		ldmeqfd	sp!, {r3, pc}
ARM GAS  C:\Users\NICOMA~1\AppData\Local\Temp\ccMMVzOB.s 			page 3


 115              	.LVL7:
 116              	.LBB16:
 117              	.LBB17:
 118              		.loc 2 62 0
 119 0014 002090E5 		ldr	r2, [r0, #0]
 120 0018 002083E5 		str	r2, [r3, #0]
 121 001c 043082E5 		str	r3, [r2, #4]
 122              	.LBE17:
 123              	.LBE16:
 124              		.loc 1 100 0
 125 0020 FEFFFFEB 		bl	chSchReadyI
 126              	.LVL8:
 127 0024 0030A0E3 		mov	r3, #0
 128 0028 243080E5 		str	r3, [r0, #36]
 129 002c 0880BDE8 		ldmfd	sp!, {r3, pc}
 130              		.cfi_endproc
 131              	.LFE9:
 132              		.size	chCondSignalI, .-chCondSignalI
 133              		.section	.text.chCondBroadcastI,"ax",%progbits
 134              		.align	2
 135              		.global	chCondBroadcastI
 136              		.type	chCondBroadcastI, %function
 137              	chCondBroadcastI:
 138              	.LFB11:
 139              		.loc 1 129 0
 140              		.cfi_startproc
 141              		@ args = 0, pretend = 0, frame = 0
 142              		@ frame_needed = 0, uses_anonymous_args = 0
 143              	.LVL9:
 144 0000 38402DE9 		stmfd	sp!, {r3, r4, r5, lr}
 145              	.LCFI2:
 146              		.cfi_def_cfa_offset 16
 147              		.cfi_offset 3, -16
 148              		.cfi_offset 4, -12
 149              		.cfi_offset 5, -8
 150              		.cfi_offset 14, -4
 151              		.loc 1 129 0
 152 0004 0040A0E1 		mov	r4, r0
 153              		.loc 1 137 0
 154 0008 000090E5 		ldr	r0, [r0, #0]
 155              	.LVL10:
 156 000c 040050E1 		cmp	r0, r4
 157 0010 3880BD08 		ldmeqfd	sp!, {r3, r4, r5, pc}
 158              		.loc 1 138 0
 159 0014 0150E0E3 		mvn	r5, #1
 160              	.L11:
 161              	.LVL11:
 162              	.LBB18:
 163              	.LBB19:
 164              		.loc 2 62 0
 165 0018 003090E5 		ldr	r3, [r0, #0]
 166 001c 003084E5 		str	r3, [r4, #0]
 167 0020 044083E5 		str	r4, [r3, #4]
 168              	.LBE19:
 169              	.LBE18:
 170              		.loc 1 138 0
 171 0024 FEFFFFEB 		bl	chSchReadyI
ARM GAS  C:\Users\NICOMA~1\AppData\Local\Temp\ccMMVzOB.s 			page 4


 172              	.LVL12:
 173 0028 245080E5 		str	r5, [r0, #36]
 174              		.loc 1 137 0
 175 002c 000094E5 		ldr	r0, [r4, #0]
 176 0030 040050E1 		cmp	r0, r4
 177 0034 F7FFFF1A 		bne	.L11
 178 0038 3880BDE8 		ldmfd	sp!, {r3, r4, r5, pc}
 179              		.cfi_endproc
 180              	.LFE11:
 181              		.size	chCondBroadcastI, .-chCondBroadcastI
 182              		.section	.text.chCondBroadcast,"ax",%progbits
 183              		.align	2
 184              		.global	chCondBroadcast
 185              		.type	chCondBroadcast, %function
 186              	chCondBroadcast:
 187              	.LFB10:
 188              		.loc 1 110 0
 189              		.cfi_startproc
 190              		@ args = 0, pretend = 0, frame = 0
 191              		@ frame_needed = 0, uses_anonymous_args = 0
 192              	.LVL13:
 193 0000 08402DE9 		stmfd	sp!, {r3, lr}
 194              	.LCFI3:
 195              		.cfi_def_cfa_offset 8
 196              		.cfi_offset 3, -8
 197              		.cfi_offset 14, -4
 198              		.loc 1 112 0
 199              	@ 112 "../../os/kernel/src/chcond.c" 1
 200 0004 9FF021E3 		msr     CPSR_c, #0x9F
 201              	@ 0 "" 2
 202              		.loc 1 113 0
 203 0008 FEFFFFEB 		bl	chCondBroadcastI
 204              	.LVL14:
 205              		.loc 1 114 0
 206 000c FEFFFFEB 		bl	chSchRescheduleS
 207              	.LVL15:
 208              		.loc 1 115 0
 209              	@ 115 "../../os/kernel/src/chcond.c" 1
 210 0010 1FF021E3 		msr     CPSR_c, #0x1F
 211              	@ 0 "" 2
 212 0014 0880BDE8 		ldmfd	sp!, {r3, pc}
 213              		.cfi_endproc
 214              	.LFE10:
 215              		.size	chCondBroadcast, .-chCondBroadcast
 216              		.section	.text.chCondWaitS,"ax",%progbits
 217              		.align	2
 218              		.global	chCondWaitS
 219              		.type	chCondWaitS, %function
 220              	chCondWaitS:
 221              	.LFB13:
 222              		.loc 1 184 0
 223              		.cfi_startproc
 224              		@ args = 0, pretend = 0, frame = 0
 225              		@ frame_needed = 0, uses_anonymous_args = 0
 226              	.LVL16:
 227              		.loc 1 185 0
 228 0000 74309FE5 		ldr	r3, .L22
ARM GAS  C:\Users\NICOMA~1\AppData\Local\Temp\ccMMVzOB.s 			page 5


 229              		.loc 1 184 0
 230 0004 70402DE9 		stmfd	sp!, {r4, r5, r6, lr}
 231              	.LCFI4:
 232              		.cfi_def_cfa_offset 16
 233              		.cfi_offset 4, -16
 234              		.cfi_offset 5, -12
 235              		.cfi_offset 6, -8
 236              		.cfi_offset 14, -4
 237              		.loc 1 184 0
 238 0008 0050A0E1 		mov	r5, r0
 239              		.loc 1 185 0
 240 000c 184093E5 		ldr	r4, [r3, #24]
 241              	.LVL17:
 242              		.loc 1 195 0
 243 0010 FEFFFFEB 		bl	chMtxUnlockS
 244              	.LVL18:
 245              		.loc 1 196 0
 246 0014 245084E5 		str	r5, [r4, #36]
 247              		.loc 1 195 0
 248 0018 0060A0E1 		mov	r6, r0
 249              	.LVL19:
 250              		.loc 1 197 0
 251 001c 05C0A0E1 		mov	ip, r5
 252              	.LVL20:
 253              		.loc 2 43 0
 254 0020 0530A0E1 		mov	r3, r5
 255 0024 030000EA 		b	.L16
 256              	.LVL21:
 257              	.L21:
 258              	.LBB20:
 259              	.LBB21:
 260              		.loc 2 46 0
 261 0028 081093E5 		ldr	r1, [r3, #8]
 262 002c 082094E5 		ldr	r2, [r4, #8]
 263 0030 020051E1 		cmp	r1, r2
 264 0034 0E00003A 		bcc	.L20
 265              	.L16:
 266              		.loc 2 45 0
 267 0038 003093E5 		ldr	r3, [r3, #0]
 268              	.LVL22:
 269              		.loc 2 46 0
 270 003c 030055E1 		cmp	r5, r3
 271 0040 F8FFFF1A 		bne	.L21
 272              	.L17:
 273              		.loc 2 48 0
 274 0044 04309CE5 		ldr	r3, [ip, #4]
 275              	.LVL23:
 276              		.loc 2 47 0
 277 0048 00C084E5 		str	ip, [r4, #0]
 278              		.loc 2 48 0
 279 004c 043084E5 		str	r3, [r4, #4]
 280              		.loc 2 49 0
 281 0050 004083E5 		str	r4, [r3, #0]
 282 0054 04408CE5 		str	r4, [ip, #4]
 283              	.LBE21:
 284              	.LBE20:
 285              		.loc 1 198 0
ARM GAS  C:\Users\NICOMA~1\AppData\Local\Temp\ccMMVzOB.s 			page 6


 286 0058 0500A0E3 		mov	r0, #5
 287              	.LVL24:
 288 005c FEFFFFEB 		bl	chSchGoSleepS
 289              	.LVL25:
 290              		.loc 1 199 0
 291 0060 244094E5 		ldr	r4, [r4, #36]
 292              	.LVL26:
 293              		.loc 1 200 0
 294 0064 0600A0E1 		mov	r0, r6
 295 0068 FEFFFFEB 		bl	chMtxLockS
 296              	.LVL27:
 297              		.loc 1 202 0
 298 006c 0400A0E1 		mov	r0, r4
 299 0070 7080BDE8 		ldmfd	sp!, {r4, r5, r6, pc}
 300              	.LVL28:
 301              	.L20:
 302              	.LBB23:
 303              	.LBB22:
 304              		.loc 2 46 0
 305 0074 03C0A0E1 		mov	ip, r3
 306 0078 F1FFFFEA 		b	.L17
 307              	.L23:
 308              		.align	2
 309              	.L22:
 310 007c 00000000 		.word	rlist
 311              	.LBE22:
 312              	.LBE23:
 313              		.cfi_endproc
 314              	.LFE13:
 315              		.size	chCondWaitS, .-chCondWaitS
 316              		.section	.text.chCondWait,"ax",%progbits
 317              		.align	2
 318              		.global	chCondWait
 319              		.type	chCondWait, %function
 320              	chCondWait:
 321              	.LFB12:
 322              		.loc 1 158 0
 323              		.cfi_startproc
 324              		@ args = 0, pretend = 0, frame = 0
 325              		@ frame_needed = 0, uses_anonymous_args = 0
 326              	.LVL29:
 327 0000 08402DE9 		stmfd	sp!, {r3, lr}
 328              	.LCFI5:
 329              		.cfi_def_cfa_offset 8
 330              		.cfi_offset 3, -8
 331              		.cfi_offset 14, -4
 332              		.loc 1 161 0
 333              	@ 161 "../../os/kernel/src/chcond.c" 1
 334 0004 9FF021E3 		msr     CPSR_c, #0x9F
 335              	@ 0 "" 2
 336              		.loc 1 162 0
 337 0008 FEFFFFEB 		bl	chCondWaitS
 338              	.LVL30:
 339              		.loc 1 163 0
 340              	@ 163 "../../os/kernel/src/chcond.c" 1
 341 000c 1FF021E3 		msr     CPSR_c, #0x1F
 342              	@ 0 "" 2
ARM GAS  C:\Users\NICOMA~1\AppData\Local\Temp\ccMMVzOB.s 			page 7


 343              		.loc 1 165 0
 344 0010 0880BDE8 		ldmfd	sp!, {r3, pc}
 345              		.cfi_endproc
 346              	.LFE12:
 347              		.size	chCondWait, .-chCondWait
 348              		.section	.text.chCondWaitTimeoutS,"ax",%progbits
 349              		.align	2
 350              		.global	chCondWaitTimeoutS
 351              		.type	chCondWaitTimeoutS, %function
 352              	chCondWaitTimeoutS:
 353              	.LFB15:
 354              		.loc 1 270 0
 355              		.cfi_startproc
 356              		@ args = 0, pretend = 0, frame = 0
 357              		@ frame_needed = 0, uses_anonymous_args = 0
 358              	.LVL31:
 359 0000 70402DE9 		stmfd	sp!, {r4, r5, r6, lr}
 360              	.LCFI6:
 361              		.cfi_def_cfa_offset 16
 362              		.cfi_offset 4, -16
 363              		.cfi_offset 5, -12
 364              		.cfi_offset 6, -8
 365              		.cfi_offset 14, -4
 366              		.loc 1 270 0
 367 0004 0040A0E1 		mov	r4, r0
 368 0008 0160A0E1 		mov	r6, r1
 369              		.loc 1 280 0
 370 000c FEFFFFEB 		bl	chMtxUnlockS
 371              	.LVL32:
 372              		.loc 1 281 0
 373 0010 60209FE5 		ldr	r2, .L32
 374              		.loc 1 280 0
 375 0014 0050A0E1 		mov	r5, r0
 376              	.LVL33:
 377              		.loc 1 281 0
 378 0018 182092E5 		ldr	r2, [r2, #24]
 379              		.loc 2 43 0
 380 001c 0430A0E1 		mov	r3, r4
 381              		.loc 1 281 0
 382 0020 244082E5 		str	r4, [r2, #36]
 383              	.LVL34:
 384              	.L29:
 385              	.LBB24:
 386              	.LBB25:
 387              		.loc 2 45 0
 388 0024 003093E5 		ldr	r3, [r3, #0]
 389              	.LVL35:
 390              		.loc 2 46 0
 391 0028 030054E1 		cmp	r4, r3
 392 002c 0300000A 		beq	.L30
 393 0030 08E093E5 		ldr	lr, [r3, #8]
 394 0034 08C092E5 		ldr	ip, [r2, #8]
 395 0038 0C005EE1 		cmp	lr, ip
 396 003c F8FFFF2A 		bcs	.L29
 397              	.L30:
 398              		.loc 2 48 0
 399 0040 04C093E5 		ldr	ip, [r3, #4]
ARM GAS  C:\Users\NICOMA~1\AppData\Local\Temp\ccMMVzOB.s 			page 8


 400              	.LBE25:
 401              	.LBE24:
 402              		.loc 1 283 0
 403 0044 0500A0E3 		mov	r0, #5
 404              	.LVL36:
 405              	.LBB28:
 406              	.LBB26:
 407              		.loc 2 48 0
 408 0048 081082E8 		stmia	r2, {r3, ip}
 409              	.LBE26:
 410              	.LBE28:
 411              		.loc 1 283 0
 412 004c 0610A0E1 		mov	r1, r6
 413              	.LBB29:
 414              	.LBB27:
 415              		.loc 2 49 0
 416 0050 00208CE5 		str	r2, [ip, #0]
 417 0054 042083E5 		str	r2, [r3, #4]
 418              	.LBE27:
 419              	.LBE29:
 420              		.loc 1 283 0
 421 0058 FEFFFFEB 		bl	chSchGoSleepTimeoutS
 422              	.LVL37:
 423              		.loc 1 284 0
 424 005c 010070E3 		cmn	r0, #1
 425              		.loc 1 283 0
 426 0060 0040A0E1 		mov	r4, r0
 427              	.LVL38:
 428              		.loc 1 284 0
 429 0064 0100000A 		beq	.L28
 430              		.loc 1 285 0
 431 0068 0500A0E1 		mov	r0, r5
 432              	.LVL39:
 433 006c FEFFFFEB 		bl	chMtxLockS
 434              	.LVL40:
 435              	.L28:
 436              		.loc 1 287 0
 437 0070 0400A0E1 		mov	r0, r4
 438 0074 7080BDE8 		ldmfd	sp!, {r4, r5, r6, pc}
 439              	.L33:
 440              		.align	2
 441              	.L32:
 442 0078 00000000 		.word	rlist
 443              		.cfi_endproc
 444              	.LFE15:
 445              		.size	chCondWaitTimeoutS, .-chCondWaitTimeoutS
 446              		.section	.text.chCondWaitTimeout,"ax",%progbits
 447              		.align	2
 448              		.global	chCondWaitTimeout
 449              		.type	chCondWaitTimeout, %function
 450              	chCondWaitTimeout:
 451              	.LFB14:
 452              		.loc 1 233 0
 453              		.cfi_startproc
 454              		@ args = 0, pretend = 0, frame = 0
 455              		@ frame_needed = 0, uses_anonymous_args = 0
 456              	.LVL41:
ARM GAS  C:\Users\NICOMA~1\AppData\Local\Temp\ccMMVzOB.s 			page 9


 457 0000 08402DE9 		stmfd	sp!, {r3, lr}
 458              	.LCFI7:
 459              		.cfi_def_cfa_offset 8
 460              		.cfi_offset 3, -8
 461              		.cfi_offset 14, -4
 462              		.loc 1 236 0
 463              	@ 236 "../../os/kernel/src/chcond.c" 1
 464 0004 9FF021E3 		msr     CPSR_c, #0x9F
 465              	@ 0 "" 2
 466              		.loc 1 237 0
 467 0008 FEFFFFEB 		bl	chCondWaitTimeoutS
 468              	.LVL42:
 469              		.loc 1 238 0
 470              	@ 238 "../../os/kernel/src/chcond.c" 1
 471 000c 1FF021E3 		msr     CPSR_c, #0x1F
 472              	@ 0 "" 2
 473              		.loc 1 240 0
 474 0010 0880BDE8 		ldmfd	sp!, {r3, pc}
 475              		.cfi_endproc
 476              	.LFE14:
 477              		.size	chCondWaitTimeout, .-chCondWaitTimeout
 478              		.text
 479              	.Letext0:
 480              		.file 3 "c:/yagarto-20121222/lib/gcc/../../arm-none-eabi/sys-include/stdint.h"
 481              		.file 4 "../../os/ports/GCC/ARM/chtypes.h"
 482              		.file 5 "../../os/kernel/include/chlists.h"
 483              		.file 6 "../../os/kernel/include/chthreads.h"
 484              		.file 7 "../../os/ports/GCC/ARM/chcore.h"
 485              		.file 8 "../../os/kernel/include/chschd.h"
 486              		.file 9 "../../os/kernel/include/chmtx.h"
 487              		.file 10 "../../os/kernel/include/chcond.h"