ARM GAS  C:\Users\NICOMA~1\AppData\Local\Temp\ccMMVzOB.s 			page 1


   1              		.cpu arm1176jz-s
   2              		.fpu softvfp
   3              		.eabi_attribute 20, 1
   4              		.eabi_attribute 21, 1
   5              		.eabi_attribute 23, 3
   6              		.eabi_attribute 24, 1
   7              		.eabi_attribute 25, 1
   8              		.eabi_attribute 26, 1
   9              		.eabi_attribute 30, 2
  10              		.eabi_attribute 34, 1
  11              		.eabi_attribute 18, 4
  12              		.file	"chcond.c"
  13              		.text
  14              	.Ltext0:
  15              		.cfi_sections	.debug_frame
  16              		.section	.text.chCondInit,"ax",%progbits
  17              		.align	2
  18              		.global	chCondInit
  19              		.type	chCondInit, %function
  20              	chCondInit:
  21              	.LFB7:
  22              		.file 1 "../../os/kernel/src/chcond.c"
  23              		.loc 1 59 0
  24              		.cfi_startproc
  25              		@ args = 0, pretend = 0, frame = 0
  26              		@ frame_needed = 0, uses_anonymous_args = 0
  27              		@ link register save eliminated.
  28              	.LVL0:
  29              		.loc 1 63 0
  30 0000 040080E5 		str	r0, [r0, #4]
  31 0004 000080E5 		str	r0, [r0, #0]
  32 0008 1EFF2FE1 		bx	lr
  33              		.cfi_endproc
  34              	.LFE7:
  35              		.size	chCondInit, .-chCondInit
  36              		.section	.text.chCondSignal,"ax",%progbits
  37              		.align	2
  38              		.global	chCondSignal
  39              		.type	chCondSignal, %function
  40              	chCondSignal:
  41              	.LFB8:
  42              		.loc 1 73 0
  43              		.cfi_startproc
  44              		@ args = 0, pretend = 0, frame = 0
  45              		@ frame_needed = 0, uses_anonymous_args = 0
  46              	.LVL1:
  47 0000 08402DE9 		stmfd	sp!, {r3, lr}
  48              	.LCFI0:
  49              		.cfi_def_cfa_offset 8
  50              		.cfi_offset 3, -8
  51              		.cfi_offset 14, -4
  52              		.loc 1 73 0
  53 0004 0030A0E1 		mov	r3, r0
  54              		.loc 1 77 0
  55              	@ 77 "../../os/kernel/src/chcond.c" 1
  56 0008 9FF021E3 		msr     CPSR_c, #0x9F
  57              	@ 0 "" 2
ARM GAS  C:\Users\NICOMA~1\AppData\Local\Temp\ccMMVzOB.s 			page 2


  58              		.loc 1 78 0
  59 000c 000090E5 		ldr	r0, [r0, #0]
  60              	.LVL2:
  61 0010 030050E1 		cmp	r0, r3
  62 0014 0400000A 		beq	.L3
  63              	.LVL3:
  64              	.LBB12:
  65              	.LBB13:
  66              		.file 2 "../../os/kernel/include/chinline.h"
  67              		.loc 2 62 0
  68 0018 002090E5 		ldr	r2, [r0, #0]
  69              	.LBE13:
  70              	.LBE12:
  71              		.loc 1 79 0
  72 001c 0010A0E3 		mov	r1, #0
  73              	.LBB15:
  74              	.LBB14:
  75              		.loc 2 62 0
  76 0020 002083E5 		str	r2, [r3, #0]
  77 0024 043082E5 		str	r3, [r2, #4]
  78              	.LBE14:
  79              	.LBE15:
  80              		.loc 1 79 0
  81 0028 FEFFFFEB 		bl	chSchWakeupS
  82              	.LVL4:
  83              	.L3:
  84              		.loc 1 80 0
  85              	@ 80 "../../os/kernel/src/chcond.c" 1
  86 002c 1FF021E3 		msr     CPSR_c, #0x1F
  87              	@ 0 "" 2
  88 0030 0880BDE8 		ldmfd	sp!, {r3, pc}
  89              		.cfi_endproc
  90              	.LFE8:
  91              		.size	chCondSignal, .-chCondSignal
  92              		.section	.text.chCondSignalI,"ax",%progbits
  93              		.align	2
  94              		.global	chCondSignalI
  95              		.type	chCondSignalI, %function
  96              	chCondSignalI:
  97              	.LFB9:
  98              		.loc 1 94 0
  99              		.cfi_startproc
 100              		@ args = 0, pretend = 0, frame = 0
 101              		@ frame_needed = 0, uses_anonymous_args = 0
 102              	.LVL5:
 103 0000 08402DE9 		stmfd	sp!, {r3, lr}
 104              	.LCFI1:
 105              		.cfi_def_cfa_offset 8
 106              		.cfi_offset 3, -8
 107              		.cfi_offset 14, -4
 108              		.loc 1 94 0
 109 0004 0030A0E1 		mov	r3, r0
 110              		.loc 1 99 0
 111 0008 000090E5 		ldr	r0, [r0, #0]
 112              	.LVL6:
 113 000c 030050E1 		cmp	r0, r3
 114 0010 0880BD08 		ldmeqfd	sp!, {r3, pc}
ARM GAS  C:\Users\NICOMA~1\AppData\Local\Temp\ccMMVzOB.s 			page 3


 115              	.LVL7:
 116              	.LBB16:
 117              	.LBB17:
 118              		.loc 2 62 0
 119 0014 002090E5 		ldr	r2, [r0, #0]
 120 0018 002083E5 		str	r2, [r3, #0]
 121 001c 043082E5 		str	r3, [r2, #4]
 122              	.LBE17:
 123              	.LBE16:
 124              		.loc 1 100 0
 125 0020 FEFFFFEB 		bl	chSchReadyI
 126              	.LVL8:
 127 0024 0030A0E3 		mov	r3, #0
 128 0028 243080E5 		str	r3, [r0, #36]
 129 002c 0880BDE8 		ldmfd	sp!, {r3, pc}
 130              		.cfi_endproc
 131              	.LFE9:
 132              		.size	chCondSignalI, .-chCondSignalI
 133              		.section	.text.chCondBroadcastI,"ax",%progbits
 134              		.align	2
 135              		.global	chCondBroadcastI
 136              		.type	chCondBroadcastI, %function
 137              	chCondBroadcastI:
 138              	.LFB11:
 139              		.loc 1 129 0
 140              		.cfi_startproc
 141              		@ args = 0, pretend = 0, frame = 0
 142              		@ frame_needed = 0, uses_anonymous_args = 0
 143              	.LVL9:
 144 0000 38402DE9 		stmfd	sp!, {r3, r4, r5, lr}
 145              	.LCFI2:
 146              		.cfi_def_cfa_offset 16
 147              		.cfi_offset 3, -16
 148              		.cfi_offset 4, -12
 149              		.cfi_offset 5, -8
 150              		.cfi_offset 14, -4
 151              		.loc 1 129 0
 152 0004 0040A0E1 		mov	r4, r0
 153              		.loc 1 137 0
 154 0008 000090E5 		ldr	r0, [r0, #0]
 155              	.LVL10:
 156 000c 040050E1 		cmp	r0, r4
 157 0010 3880BD08 		ldmeqfd	sp!, {r3, r4, r5, pc}
 158              		.loc 1 138 0
 159 0014 0150E0E3 		mvn	r5, #1
 160              	.L11:
 161              	.LVL11:
 162              	.LBB18:
 163              	.LBB19:
 164              		.loc 2 62 0
 165 0018 003090E5 		ldr	r3, [r0, #0]
 166 001c 003084E5 		str	r3, [r4, #0]
 167 0020 044083E5 		str	r4, [r3, #4]
 168              	.LBE19:
 169              	.LBE18:
 170              		.loc 1 138 0
 171 0024 FEFFFFEB 		bl	chSchReadyI
ARM GAS  C:\Users\NICOMA~1\AppData\Local\Temp\ccMMVzOB.s 			page 4


 172              	.LVL12:
 173 0028 245080E5 		str	r5, [r0, #36]
 174              		.loc 1 137 0
 175 002c 000094E5 		ldr	r0, [r4, #0]
 176 0030 040050E1 		cmp	r0, r4
 177 0034 F7FFFF1A 		bne	.L11
 178 0038 3880BDE8 		ldmfd	sp!, {r3, r4, r5, pc}
 179              		.cfi_endproc
 180              	.LFE11:
 181              		.size	chCondBroadcastI, .-chCondBroadcastI
 182              		.section	.text.chCondBroadcast,"ax",%progbits
 183              		.align	2
 184              		.global	chCondBroadcast
 185              		.type	chCondBroadcast, %function
 186              	chCondBroadcast:
 187              	.LFB10:
 188              		.loc 1 110 0
 189              		.cfi_startproc
 190              		@ args = 0, pretend = 0, frame = 0
 191              		@ frame_needed = 0, uses_anonymous_args = 0
 192              	.LVL13:
 193 0000 08402DE9 		stmfd	sp!, {r3, lr}
 194              	.LCFI3:
 195              		.cfi_def_cfa_offset 8
 196              		.cfi_offset 3, -8
 197              		.cfi_offset 14, -4
 198              		.loc 1 112 0
 199              	@ 112 "../../os/kernel/src/chcond.c" 1
 200 0004 9FF021E3 		msr     CPSR_c, #0x9F
 201              	@ 0 "" 2
 202              		.loc 1 113 0
 203 0008 FEFFFFEB 		bl	chCondBroadcastI
 204              	.LVL14:
 205              		.loc 1 114 0
 206 000c FEFFFFEB 		bl	chSchRescheduleS
 207              	.LVL15:
 208              		.loc 1 115 0
 209              	@ 115 "../../os/kernel/src/chcond.c" 1
 210 0010 1FF021E3 		msr     CPSR_c, #0x1F
 211              	@ 0 "" 2
 212 0014 0880BDE8 		ldmfd	sp!, {r3, pc}
 213              		.cfi_endproc
 214              	.LFE10:
 215              		.size	chCondBroadcast, .-chCondBroadcast
 216              		.section	.text.chCondWaitS,"ax",%progbits
 217              		.align	2
 218              		.global	chCondWaitS
 219              		.type	chCondWaitS, %function
 220              	chCondWaitS:
 221              	.LFB13:
 222              		.loc 1 184 0
 223              		.cfi_startproc
 224              		@ args = 0, pretend = 0, frame = 0
 225              		@ frame_needed = 0, uses_anonymous_args = 0
 226              	.LVL16:
 227              		.loc 1 185 0
 228 0000 74309FE5 		ldr	r3, .L22
ARM GAS  C:\Users\NICOMA~1\AppData\Local\Temp\ccMMVzOB.s 			page 5


 229              		.loc 1 184 0
 230 0004 70402DE9 		stmfd	sp!, {r4, r5, r6, lr}
 231              	.LCFI4:
 232              		.cfi_def_cfa_offset 16
 233              		.cfi_offset 4, -16
 234              		.cfi_offset 5, -12
 235              		.cfi_offset 6, -8
 236              		.cfi_offset 14, -4
 237              		.loc 1 184 0
 238 0008 0050A0E1 		mov	r5, r0
 239              		.loc 1 185 0
 240 000c 184093E5 		ldr	r4, [r3, #24]
 241              	.LVL17:
 242              		.loc 1 195 0
 243 0010 FEFFFFEB 		bl	chMtxUnlockS
 244              	.LVL18:
 245              		.loc 1 196 0
 246 0014 245084E5 		str	r5, [r4, #36]
 247              		.loc 1 195 0
 248 0018 0060A0E1 		mov	r6, r0
 249              	.LVL19:
 250              		.loc 1 197 0
 251 001c 05C0A0E1 		mov	ip, r5
 252              	.LVL20:
 253              		.loc 2 43 0
 254 0020 0530A0E1 		mov	r3, r5
 255 0024 030000EA 		b	.L16
 256              	.LVL21:
 257              	.L21:
 258              	.LBB20:
 259              	.LBB21:
 260              		.loc 2 46 0
 261 0028 081093E5 		ldr	r1, [r3, #8]
 262 002c 082094E5 		ldr	r2, [r4, #8]
 263 0030 020051E1 		cmp	r1, r2
 264 0034 0E00003A 		bcc	.L20
 265              	.L16:
 266              		.loc 2 45 0
 267 0038 003093E5 		ldr	r3, [r3, #0]
 268              	.LVL22:
 269              		.loc 2 46 0
 270 003c 030055E1 		cmp	r5, r3
 271 0040 F8FFFF1A 		bne	.L21
 272              	.L17:
 273              		.loc 2 48 0
 274 0044 04309CE5 		ldr	r3, [ip, #4]
 275              	.LVL23:
 276              		.loc 2 47 0
 277 0048 00C084E5 		str	ip, [r4, #0]
 278              		.loc 2 48 0
 279 004c 043084E5 		str	r3, [r4, #4]
 280              		.loc 2 49 0
 281 0050 004083E5 		str	r4, [r3, #0]
 282 0054 04408CE5 		str	r4, [ip, #4]
 283              	.LBE21:
 284              	.LBE20:
 285              		.loc 1 198 0
ARM GAS  C:\Users\NICOMA~1\AppData\Local\Temp\ccMMVzOB.s 			page 6


 286 0058 0500A0E3 		mov	r0, #5
 287              	.LVL24:
 288 005c FEFFFFEB 		bl	chSchGoSleepS
 289              	.LVL25:
 290              		.loc 1 199 0
 291 0060 244094E5 		ldr	r4, [r4, #36]
 292              	.LVL26:
 293              		.loc 1 200 0
 294 0064 0600A0E1 		mov	r0, r6
 295 0068 FEFFFFEB 		bl	chMtxLockS
 296              	.LVL27:
 297              		.loc 1 202 0
 298 006c 0400A0E1 		mov	r0, r4
 299 0070 7080BDE8 		ldmfd	sp!, {r4, r5, r6, pc}
 300              	.LVL28:
 301              	.L20:
 302              	.LBB23:
 303              	.LBB22:
 304              		.loc 2 46 0
 305 0074 03C0A0E1 		mov	ip, r3
 306 0078 F1FFFFEA 		b	.L17
 307              	.L23:
 308              		.align	2
 309              	.L22:
 310 007c 00000000 		.word	rlist
 311              	.LBE22:
 312              	.LBE23:
 313              		.cfi_endproc
 314              	.LFE13:
 315              		.size	chCondWaitS, .-chCondWaitS
 316              		.section	.text.chCondWait,"ax",%progbits
 317              		.align	2
 318              		.global	chCondWait
 319              		.type	chCondWait, %function
 320              	chCondWait:
 321              	.LFB12:
 322              		.loc 1 158 0
 323              		.cfi_startproc
 324              		@ args = 0, pretend = 0, frame = 0
 325              		@ frame_needed = 0, uses_anonymous_args = 0
 326              	.LVL29:
 327 0000 08402DE9 		stmfd	sp!, {r3, lr}
 328              	.LCFI5:
 329              		.cfi_def_cfa_offset 8
 330              		.cfi_offset 3, -8
 331              		.cfi_offset 14, -4
 332              		.loc 1 161 0
 333              	@ 161 "../../os/kernel/src/chcond.c" 1
 334 0004 9FF021E3 		msr     CPSR_c, #0x9F
 335              	@ 0 "" 2
 336              		.loc 1 162 0
 337 0008 FEFFFFEB 		bl	chCondWaitS
 338              	.LVL30:
 339              		.loc 1 163 0
 340              	@ 163 "../../os/kernel/src/chcond.c" 1
 341 000c 1FF021E3 		msr     CPSR_c, #0x1F
 342              	@ 0 "" 2
ARM GAS  C:\Users\NICOMA~1\AppData\Local\Temp\ccMMVzOB.s 			page 7


 343              		.loc 1 165 0
 344 0010 0880BDE8 		ldmfd	sp!, {r3, pc}
 345              		.cfi_endproc
 346              	.LFE12:
 347              		.size	chCondWait, .-chCondWait
 348              		.section	.text.chCondWaitTimeoutS,"ax",%progbits
 349              		.align	2
 350              		.global	chCondWaitTimeoutS
 351              		.type	chCondWaitTimeoutS, %function
 352              	chCondWaitTimeoutS:
 353              	.LFB15:
 354              		.loc 1 270 0
 355              		.cfi_startproc
 356              		@ args = 0, pretend = 0, frame = 0
 357              		@ frame_needed = 0, uses_anonymous_args = 0
 358              	.LVL31:
 359 0000 70402DE9 		stmfd	sp!, {r4, r5, r6, lr}
 360              	.LCFI6:
 361              		.cfi_def_cfa_offset 16
 362              		.cfi_offset 4, -16
 363              		.cfi_offset 5, -12
 364              		.cfi_offset 6, -8
 365              		.cfi_offset 14, -4
 366              		.loc 1 270 0
 367 0004 0040A0E1 		mov	r4, r0
 368 0008 0160A0E1 		mov	r6, r1
 369              		.loc 1 280 0
 370 000c FEFFFFEB 		bl	chMtxUnlockS
 371              	.LVL32:
 372              		.loc 1 281 0
 373 0010 60209FE5 		ldr	r2, .L32
 374              		.loc 1 280 0
 375 0014 0050A0E1 		mov	r5, r0
 376              	.LVL33:
 377              		.loc 1 281 0
 378 0018 182092E5 		ldr	r2, [r2, #24]
 379              		.loc 2 43 0
 380 001c 0430A0E1 		mov	r3, r4
 381              		.loc 1 281 0
 382 0020 244082E5 		str	r4, [r2, #36]
 383              	.LVL34:
 384              	.L29:
 385              	.LBB24:
 386              	.LBB25:
 387              		.loc 2 45 0
 388 0024 003093E5 		ldr	r3, [r3, #0]
 389              	.LVL35:
 390              		.loc 2 46 0
 391 0028 030054E1 		cmp	r4, r3
 392 002c 0300000A 		beq	.L30
 393 0030 08E093E5 		ldr	lr, [r3, #8]
 394 0034 08C092E5 		ldr	ip, [r2, #8]
 395 0038 0C005EE1 		cmp	lr, ip
 396 003c F8FFFF2A 		bcs	.L29
 397              	.L30:
 398              		.loc 2 48 0
 399 0040 04C093E5 		ldr	ip, [r3, #4]
ARM GAS  C:\Users\NICOMA~1\AppData\Local\Temp\ccMMVzOB.s 			page 8


 400              	.LBE25:
 401              	.LBE24:
 402              		.loc 1 283 0
 403 0044 0500A0E3 		mov	r0, #5
 404              	.LVL36:
 405              	.LBB28:
 406              	.LBB26:
 407              		.loc 2 48 0
 408 0048 081082E8 		stmia	r2, {r3, ip}
 409              	.LBE26:
 410              	.LBE28:
 411              		.loc 1 283 0
 412 004c 0610A0E1 		mov	r1, r6
 413              	.LBB29:
 414              	.LBB27:
 415              		.loc 2 49 0
 416 0050 00208CE5 		str	r2, [ip, #0]
 417 0054 042083E5 		str	r2, [r3, #4]
 418              	.LBE27:
 419              	.LBE29:
 420              		.loc 1 283 0
 421 0058 FEFFFFEB 		bl	chSchGoSleepTimeoutS
 422              	.LVL37:
 423              		.loc 1 284 0
 424 005c 010070E3 		cmn	r0, #1
 425              		.loc 1 283 0
 426 0060 0040A0E1 		mov	r4, r0
 427              	.LVL38:
 428              		.loc 1 284 0
 429 0064 0100000A 		beq	.L28
 430              		.loc 1 285 0
 431 0068 0500A0E1 		mov	r0, r5
 432              	.LVL39:
 433 006c FEFFFFEB 		bl	chMtxLockS
 434              	.LVL40:
 435              	.L28:
 436              		.loc 1 287 0
 437 0070 0400A0E1 		mov	r0, r4
 438 0074 7080BDE8 		ldmfd	sp!, {r4, r5, r6, pc}
 439              	.L33:
 440              		.align	2
 441              	.L32:
 442 0078 00000000 		.word	rlist
 443              		.cfi_endproc
 444              	.LFE15:
 445              		.size	chCondWaitTimeoutS, .-chCondWaitTimeoutS
 446              		.section	.text.chCondWaitTimeout,"ax",%progbits
 447              		.align	2
 448              		.global	chCondWaitTimeout
 449              		.type	chCondWaitTimeout, %function
 450              	chCondWaitTimeout:
 451              	.LFB14:
 452              		.loc 1 233 0
 453              		.cfi_startproc
 454              		@ args = 0, pretend = 0, frame = 0
 455              		@ frame_needed = 0, uses_anonymous_args = 0
 456              	.LVL41:
ARM GAS  C:\Users\NICOMA~1\AppData\Local\Temp\ccMMVzOB.s 			page 9


 457 0000 08402DE9 		stmfd	sp!, {r3, lr}
 458              	.LCFI7:
 459              		.cfi_def_cfa_offset 8
 460              		.cfi_offset 3, -8
 461              		.cfi_offset 14, -4
 462              		.loc 1 236 0
 463              	@ 236 "../../os/kernel/src/chcond.c" 1
 464 0004 9FF021E3 		msr     CPSR_c, #0x9F
 465              	@ 0 "" 2
 466              		.loc 1 237 0
 467 0008 FEFFFFEB 		bl	chCondWaitTimeoutS
 468              	.LVL42:
 469              		.loc 1 238 0
 470              	@ 238 "../../os/kernel/src/chcond.c" 1
 471 000c 1FF021E3 		msr     CPSR_c, #0x1F
 472              	@ 0 "" 2
 473              		.loc 1 240 0
 474 0010 0880BDE8 		ldmfd	sp!, {r3, pc}
 475              		.cfi_endproc
 476              	.LFE14:
 477              		.size	chCondWaitTimeout, .-chCondWaitTimeout
 478              		.text
 479              	.Letext0:
 480              		.file 3 "c:/yagarto-20121222/lib/gcc/../../arm-none-eabi/sys-include/stdint.h"
 481              		.file 4 "../../os/ports/GCC/ARM/chtypes.h"
 482              		.file 5 "../../os/kernel/include/chlists.h"
 483              		.file 6 "../../os/kernel/include/chthreads.h"
 484              		.file 7 "../../os/ports/GCC/ARM/chcore.h"
 485              		.file 8 "../../os/kernel/include/chschd.h"
 486              		.file 9 "../../os/kernel/include/chmtx.h"
 487              		.file 10 "../../os/kernel/include/chcond.h"
 488              		.section	.debug_info,"",%progbits
 489              	.Ldebug_info0:
 490 0000 FB080000 		.4byte	0x8fb
 491 0004 0200     		.2byte	0x2
 492 0006 00000000 		.4byte	.Ldebug_abbrev0
 493 000a 04       		.byte	0x4
 494 000b 01       		.uleb128 0x1
 495 000c EB010000 		.4byte	.LASF78
 496 0010 01       		.byte	0x1
 497 0011 06010000 		.4byte	.LASF79
 498 0015 A9000000 		.4byte	.LASF80
 499 0019 A0000000 		.4byte	.Ldebug_ranges0+0xa0
 500 001d 00000000 		.4byte	0
 501 0021 00000000 		.4byte	0
 502 0025 00000000 		.4byte	.Ldebug_line0
 503 0029 02       		.uleb128 0x2
 504 002a 04       		.byte	0x4
 505 002b 05       		.byte	0x5
 506 002c 696E7400 		.ascii	"int\000"
 507 0030 03       		.uleb128 0x3
 508 0031 04       		.byte	0x4
 509 0032 07       		.byte	0x7
 510 0033 3D010000 		.4byte	.LASF0
 511 0037 03       		.uleb128 0x3
 512 0038 01       		.byte	0x1
 513 0039 06       		.byte	0x6
ARM GAS  C:\Users\NICOMA~1\AppData\Local\Temp\ccMMVzOB.s 			page 10


 514 003a 5E000000 		.4byte	.LASF1
 515 003e 04       		.uleb128 0x4
 516 003f 63030000 		.4byte	.LASF5
 517 0043 03       		.byte	0x3
 518 0044 2A       		.byte	0x2a
 519 0045 49000000 		.4byte	0x49
 520 0049 03       		.uleb128 0x3
 521 004a 01       		.byte	0x1
 522 004b 08       		.byte	0x8
 523 004c 4C020000 		.4byte	.LASF2
 524 0050 03       		.uleb128 0x3
 525 0051 02       		.byte	0x2
 526 0052 05       		.byte	0x5
 527 0053 64020000 		.4byte	.LASF3
 528 0057 03       		.uleb128 0x3
 529 0058 02       		.byte	0x2
 530 0059 07       		.byte	0x7
 531 005a 64010000 		.4byte	.LASF4
 532 005e 04       		.uleb128 0x4
 533 005f 44020000 		.4byte	.LASF6
 534 0063 03       		.byte	0x3
 535 0064 4F       		.byte	0x4f
 536 0065 69000000 		.4byte	0x69
 537 0069 03       		.uleb128 0x3
 538 006a 04       		.byte	0x4
 539 006b 05       		.byte	0x5
 540 006c 84000000 		.4byte	.LASF7
 541 0070 04       		.uleb128 0x4
 542 0071 C5020000 		.4byte	.LASF8
 543 0075 03       		.byte	0x3
 544 0076 50       		.byte	0x50
 545 0077 7B000000 		.4byte	0x7b
 546 007b 03       		.uleb128 0x3
 547 007c 04       		.byte	0x4
 548 007d 07       		.byte	0x7
 549 007e 4A010000 		.4byte	.LASF9
 550 0082 03       		.uleb128 0x3
 551 0083 08       		.byte	0x8
 552 0084 05       		.byte	0x5
 553 0085 50000000 		.4byte	.LASF10
 554 0089 03       		.uleb128 0x3
 555 008a 08       		.byte	0x8
 556 008b 07       		.byte	0x7
 557 008c 18000000 		.4byte	.LASF11
 558 0090 03       		.uleb128 0x3
 559 0091 01       		.byte	0x1
 560 0092 02       		.byte	0x2
 561 0093 3E020000 		.4byte	.LASF12
 562 0097 04       		.uleb128 0x4
 563 0098 89010000 		.4byte	.LASF13
 564 009c 04       		.byte	0x4
 565 009d 2C       		.byte	0x2c
 566 009e 3E000000 		.4byte	0x3e
 567 00a2 04       		.uleb128 0x4
 568 00a3 8D000000 		.4byte	.LASF14
 569 00a7 04       		.byte	0x4
 570 00a8 2D       		.byte	0x2d
ARM GAS  C:\Users\NICOMA~1\AppData\Local\Temp\ccMMVzOB.s 			page 11


 571 00a9 3E000000 		.4byte	0x3e
 572 00ad 04       		.uleb128 0x4
 573 00ae 19020000 		.4byte	.LASF15
 574 00b2 04       		.byte	0x4
 575 00b3 2E       		.byte	0x2e
 576 00b4 3E000000 		.4byte	0x3e
 577 00b8 04       		.uleb128 0x4
 578 00b9 72000000 		.4byte	.LASF16
 579 00bd 04       		.byte	0x4
 580 00be 2F       		.byte	0x2f
 581 00bf 3E000000 		.4byte	0x3e
 582 00c3 04       		.uleb128 0x4
 583 00c4 28020000 		.4byte	.LASF17
 584 00c8 04       		.byte	0x4
 585 00c9 30       		.byte	0x30
 586 00ca 70000000 		.4byte	0x70
 587 00ce 04       		.uleb128 0x4
 588 00cf 77010000 		.4byte	.LASF18
 589 00d3 04       		.byte	0x4
 590 00d4 31       		.byte	0x31
 591 00d5 5E000000 		.4byte	0x5e
 592 00d9 04       		.uleb128 0x4
 593 00da 9D010000 		.4byte	.LASF19
 594 00de 04       		.byte	0x4
 595 00df 33       		.byte	0x33
 596 00e0 70000000 		.4byte	0x70
 597 00e4 04       		.uleb128 0x4
 598 00e5 06030000 		.4byte	.LASF20
 599 00e9 04       		.byte	0x4
 600 00ea 35       		.byte	0x35
 601 00eb 70000000 		.4byte	0x70
 602 00ef 04       		.uleb128 0x4
 603 00f0 9D020000 		.4byte	.LASF21
 604 00f4 05       		.byte	0x5
 605 00f5 2A       		.byte	0x2a
 606 00f6 FA000000 		.4byte	0xfa
 607 00fa 05       		.uleb128 0x5
 608 00fb 9D020000 		.4byte	.LASF21
 609 00ff 44       		.byte	0x44
 610 0100 06       		.byte	0x6
 611 0101 5E       		.byte	0x5e
 612 0102 11020000 		.4byte	0x211
 613 0106 06       		.uleb128 0x6
 614 0107 8E020000 		.4byte	.LASF22
 615 010b 06       		.byte	0x6
 616 010c 5F       		.byte	0x5f
 617 010d 36020000 		.4byte	0x236
 618 0111 02       		.byte	0x2
 619 0112 23       		.byte	0x23
 620 0113 00       		.uleb128 0
 621 0114 06       		.uleb128 0x6
 622 0115 21020000 		.4byte	.LASF23
 623 0119 06       		.byte	0x6
 624 011a 61       		.byte	0x61
 625 011b 36020000 		.4byte	0x236
 626 011f 02       		.byte	0x2
 627 0120 23       		.byte	0x23
ARM GAS  C:\Users\NICOMA~1\AppData\Local\Temp\ccMMVzOB.s 			page 12


 628 0121 04       		.uleb128 0x4
 629 0122 06       		.uleb128 0x6
 630 0123 49000000 		.4byte	.LASF24
 631 0127 06       		.byte	0x6
 632 0128 63       		.byte	0x63
 633 0129 C3000000 		.4byte	0xc3
 634 012d 02       		.byte	0x2
 635 012e 23       		.byte	0x23
 636 012f 08       		.uleb128 0x8
 637 0130 06       		.uleb128 0x6
 638 0131 A8030000 		.4byte	.LASF25
 639 0135 06       		.byte	0x6
 640 0136 64       		.byte	0x64
 641 0137 FA020000 		.4byte	0x2fa
 642 013b 02       		.byte	0x2
 643 013c 23       		.byte	0x23
 644 013d 0C       		.uleb128 0xc
 645 013e 06       		.uleb128 0x6
 646 013f A1000000 		.4byte	.LASF26
 647 0143 06       		.byte	0x6
 648 0144 66       		.byte	0x66
 649 0145 36020000 		.4byte	0x236
 650 0149 02       		.byte	0x2
 651 014a 23       		.byte	0x23
 652 014b 10       		.uleb128 0x10
 653 014c 06       		.uleb128 0x6
 654 014d CB010000 		.4byte	.LASF27
 655 0151 06       		.byte	0x6
 656 0152 67       		.byte	0x67
 657 0153 36020000 		.4byte	0x236
 658 0157 02       		.byte	0x2
 659 0158 23       		.byte	0x23
 660 0159 14       		.uleb128 0x14
 661 015a 06       		.uleb128 0x6
 662 015b 72030000 		.4byte	.LASF28
 663 015f 06       		.byte	0x6
 664 0160 6E       		.byte	0x6e
 665 0161 2B040000 		.4byte	0x42b
 666 0165 02       		.byte	0x2
 667 0166 23       		.byte	0x23
 668 0167 18       		.uleb128 0x18
 669 0168 06       		.uleb128 0x6
 670 0169 6E020000 		.4byte	.LASF29
 671 016d 06       		.byte	0x6
 672 016e 79       		.byte	0x79
 673 016f A2000000 		.4byte	0xa2
 674 0173 02       		.byte	0x2
 675 0174 23       		.byte	0x23
 676 0175 1C       		.uleb128 0x1c
 677 0176 06       		.uleb128 0x6
 678 0177 95020000 		.4byte	.LASF30
 679 017b 06       		.byte	0x6
 680 017c 7D       		.byte	0x7d
 681 017d 97000000 		.4byte	0x97
 682 0181 02       		.byte	0x2
 683 0182 23       		.byte	0x23
 684 0183 1D       		.uleb128 0x1d
ARM GAS  C:\Users\NICOMA~1\AppData\Local\Temp\ccMMVzOB.s 			page 13


 685 0184 06       		.uleb128 0x6
 686 0185 4C030000 		.4byte	.LASF31
 687 0189 06       		.byte	0x6
 688 018a 82       		.byte	0x82
 689 018b AD000000 		.4byte	0xad
 690 018f 02       		.byte	0x2
 691 0190 23       		.byte	0x23
 692 0191 1E       		.uleb128 0x1e
 693 0192 06       		.uleb128 0x6
 694 0193 76020000 		.4byte	.LASF32
 695 0197 06       		.byte	0x6
 696 0198 88       		.byte	0x88
 697 0199 B8000000 		.4byte	0xb8
 698 019d 02       		.byte	0x2
 699 019e 23       		.byte	0x23
 700 019f 1F       		.uleb128 0x1f
 701 01a0 06       		.uleb128 0x6
 702 01a1 26030000 		.4byte	.LASF33
 703 01a5 06       		.byte	0x6
 704 01a6 8F       		.byte	0x8f
 705 01a7 1B030000 		.4byte	0x31b
 706 01ab 02       		.byte	0x2
 707 01ac 23       		.byte	0x23
 708 01ad 20       		.uleb128 0x20
 709 01ae 07       		.uleb128 0x7
 710 01af 705F7500 		.ascii	"p_u\000"
 711 01b3 06       		.byte	0x6
 712 01b4 B4       		.byte	0xb4
 713 01b5 F6030000 		.4byte	0x3f6
 714 01b9 02       		.byte	0x2
 715 01ba 23       		.byte	0x23
 716 01bb 24       		.uleb128 0x24
 717 01bc 06       		.uleb128 0x6
 718 01bd AE030000 		.4byte	.LASF34
 719 01c1 06       		.byte	0x6
 720 01c2 B9       		.byte	0xb9
 721 01c3 5E020000 		.4byte	0x25e
 722 01c7 02       		.byte	0x2
 723 01c8 23       		.byte	0x23
 724 01c9 28       		.uleb128 0x28
 725 01ca 06       		.uleb128 0x6
 726 01cb 34030000 		.4byte	.LASF35
 727 01cf 06       		.byte	0x6
 728 01d0 BF       		.byte	0xbf
 729 01d1 3C020000 		.4byte	0x23c
 730 01d5 02       		.byte	0x2
 731 01d6 23       		.byte	0x23
 732 01d7 2C       		.uleb128 0x2c
 733 01d8 06       		.uleb128 0x6
 734 01d9 00000000 		.4byte	.LASF36
 735 01dd 06       		.byte	0x6
 736 01de C3       		.byte	0xc3
 737 01df CE000000 		.4byte	0xce
 738 01e3 02       		.byte	0x2
 739 01e4 23       		.byte	0x23
 740 01e5 34       		.uleb128 0x34
 741 01e6 06       		.uleb128 0x6
ARM GAS  C:\Users\NICOMA~1\AppData\Local\Temp\ccMMVzOB.s 			page 14


 742 01e7 BA020000 		.4byte	.LASF37
 743 01eb 06       		.byte	0x6
 744 01ec C9       		.byte	0xc9
 745 01ed D9000000 		.4byte	0xd9
 746 01f1 02       		.byte	0x2
 747 01f2 23       		.byte	0x23
 748 01f3 38       		.uleb128 0x38
 749 01f4 06       		.uleb128 0x6
 750 01f5 5A020000 		.4byte	.LASF38
 751 01f9 06       		.byte	0x6
 752 01fa D0       		.byte	0xd0
 753 01fb 3D040000 		.4byte	0x43d
 754 01ff 02       		.byte	0x2
 755 0200 23       		.byte	0x23
 756 0201 3C       		.uleb128 0x3c
 757 0202 06       		.uleb128 0x6
 758 0203 10030000 		.4byte	.LASF39
 759 0207 06       		.byte	0x6
 760 0208 D4       		.byte	0xd4
 761 0209 C3000000 		.4byte	0xc3
 762 020d 02       		.byte	0x2
 763 020e 23       		.byte	0x23
 764 020f 40       		.uleb128 0x40
 765 0210 00       		.byte	0
 766 0211 08       		.uleb128 0x8
 767 0212 08       		.byte	0x8
 768 0213 05       		.byte	0x5
 769 0214 61       		.byte	0x61
 770 0215 36020000 		.4byte	0x236
 771 0219 06       		.uleb128 0x6
 772 021a 8E020000 		.4byte	.LASF22
 773 021e 05       		.byte	0x5
 774 021f 62       		.byte	0x62
 775 0220 36020000 		.4byte	0x236
 776 0224 02       		.byte	0x2
 777 0225 23       		.byte	0x23
 778 0226 00       		.uleb128 0
 779 0227 06       		.uleb128 0x6
 780 0228 21020000 		.4byte	.LASF23
 781 022c 05       		.byte	0x5
 782 022d 64       		.byte	0x64
 783 022e 36020000 		.4byte	0x236
 784 0232 02       		.byte	0x2
 785 0233 23       		.byte	0x23
 786 0234 04       		.uleb128 0x4
 787 0235 00       		.byte	0
 788 0236 09       		.uleb128 0x9
 789 0237 04       		.byte	0x4
 790 0238 EF000000 		.4byte	0xef
 791 023c 04       		.uleb128 0x4
 792 023d D9010000 		.4byte	.LASF40
 793 0241 05       		.byte	0x5
 794 0242 66       		.byte	0x66
 795 0243 11020000 		.4byte	0x211
 796 0247 08       		.uleb128 0x8
 797 0248 04       		.byte	0x4
 798 0249 05       		.byte	0x5
ARM GAS  C:\Users\NICOMA~1\AppData\Local\Temp\ccMMVzOB.s 			page 15


 799 024a 6B       		.byte	0x6b
 800 024b 5E020000 		.4byte	0x25e
 801 024f 06       		.uleb128 0x6
 802 0250 8E020000 		.4byte	.LASF22
 803 0254 05       		.byte	0x5
 804 0255 6D       		.byte	0x6d
 805 0256 36020000 		.4byte	0x236
 806 025a 02       		.byte	0x2
 807 025b 23       		.byte	0x23
 808 025c 00       		.uleb128 0
 809 025d 00       		.byte	0
 810 025e 04       		.uleb128 0x4
 811 025f 91010000 		.4byte	.LASF41
 812 0263 05       		.byte	0x5
 813 0264 70       		.byte	0x70
 814 0265 47020000 		.4byte	0x247
 815 0269 04       		.uleb128 0x4
 816 026a FD000000 		.4byte	.LASF42
 817 026e 07       		.byte	0x7
 818 026f A9       		.byte	0xa9
 819 0270 74020000 		.4byte	0x274
 820 0274 0A       		.uleb128 0xa
 821 0275 04       		.byte	0x4
 822 0276 05       		.uleb128 0x5
 823 0277 2D030000 		.4byte	.LASF43
 824 027b 24       		.byte	0x24
 825 027c 07       		.byte	0x7
 826 027d C0       		.byte	0xc0
 827 027e FA020000 		.4byte	0x2fa
 828 0282 07       		.uleb128 0x7
 829 0283 723400   		.ascii	"r4\000"
 830 0286 07       		.byte	0x7
 831 0287 C1       		.byte	0xc1
 832 0288 69020000 		.4byte	0x269
 833 028c 02       		.byte	0x2
 834 028d 23       		.byte	0x23
 835 028e 00       		.uleb128 0
 836 028f 07       		.uleb128 0x7
 837 0290 723500   		.ascii	"r5\000"
 838 0293 07       		.byte	0x7
 839 0294 C2       		.byte	0xc2
 840 0295 69020000 		.4byte	0x269
 841 0299 02       		.byte	0x2
 842 029a 23       		.byte	0x23
 843 029b 04       		.uleb128 0x4
 844 029c 07       		.uleb128 0x7
 845 029d 723600   		.ascii	"r6\000"
 846 02a0 07       		.byte	0x7
 847 02a1 C3       		.byte	0xc3
 848 02a2 69020000 		.4byte	0x269
 849 02a6 02       		.byte	0x2
 850 02a7 23       		.byte	0x23
 851 02a8 08       		.uleb128 0x8
 852 02a9 07       		.uleb128 0x7
 853 02aa 723700   		.ascii	"r7\000"
 854 02ad 07       		.byte	0x7
 855 02ae C4       		.byte	0xc4
ARM GAS  C:\Users\NICOMA~1\AppData\Local\Temp\ccMMVzOB.s 			page 16


 856 02af 69020000 		.4byte	0x269
 857 02b3 02       		.byte	0x2
 858 02b4 23       		.byte	0x23
 859 02b5 0C       		.uleb128 0xc
 860 02b6 07       		.uleb128 0x7
 861 02b7 723800   		.ascii	"r8\000"
 862 02ba 07       		.byte	0x7
 863 02bb C5       		.byte	0xc5
 864 02bc 69020000 		.4byte	0x269
 865 02c0 02       		.byte	0x2
 866 02c1 23       		.byte	0x23
 867 02c2 10       		.uleb128 0x10
 868 02c3 07       		.uleb128 0x7
 869 02c4 723900   		.ascii	"r9\000"
 870 02c7 07       		.byte	0x7
 871 02c8 C6       		.byte	0xc6
 872 02c9 69020000 		.4byte	0x269
 873 02cd 02       		.byte	0x2
 874 02ce 23       		.byte	0x23
 875 02cf 14       		.uleb128 0x14
 876 02d0 07       		.uleb128 0x7
 877 02d1 72313000 		.ascii	"r10\000"
 878 02d5 07       		.byte	0x7
 879 02d6 C7       		.byte	0xc7
 880 02d7 69020000 		.4byte	0x269
 881 02db 02       		.byte	0x2
 882 02dc 23       		.byte	0x23
 883 02dd 18       		.uleb128 0x18
 884 02de 07       		.uleb128 0x7
 885 02df 72313100 		.ascii	"r11\000"
 886 02e3 07       		.byte	0x7
 887 02e4 C8       		.byte	0xc8
 888 02e5 69020000 		.4byte	0x269
 889 02e9 02       		.byte	0x2
 890 02ea 23       		.byte	0x23
 891 02eb 1C       		.uleb128 0x1c
 892 02ec 07       		.uleb128 0x7
 893 02ed 6C7200   		.ascii	"lr\000"
 894 02f0 07       		.byte	0x7
 895 02f1 C9       		.byte	0xc9
 896 02f2 69020000 		.4byte	0x269
 897 02f6 02       		.byte	0x2
 898 02f7 23       		.byte	0x23
 899 02f8 20       		.uleb128 0x20
 900 02f9 00       		.byte	0
 901 02fa 05       		.uleb128 0x5
 902 02fb 5C010000 		.4byte	.LASF44
 903 02ff 04       		.byte	0x4
 904 0300 07       		.byte	0x7
 905 0301 D1       		.byte	0xd1
 906 0302 15030000 		.4byte	0x315
 907 0306 07       		.uleb128 0x7
 908 0307 72313300 		.ascii	"r13\000"
 909 030b 07       		.byte	0x7
 910 030c D2       		.byte	0xd2
 911 030d 15030000 		.4byte	0x315
 912 0311 02       		.byte	0x2
ARM GAS  C:\Users\NICOMA~1\AppData\Local\Temp\ccMMVzOB.s 			page 17


 913 0312 23       		.byte	0x23
 914 0313 00       		.uleb128 0
 915 0314 00       		.byte	0
 916 0315 09       		.uleb128 0x9
 917 0316 04       		.byte	0x4
 918 0317 76020000 		.4byte	0x276
 919 031b 0B       		.uleb128 0xb
 920 031c E4000000 		.4byte	0xe4
 921 0320 08       		.uleb128 0x8
 922 0321 1C       		.byte	0x1c
 923 0322 08       		.byte	0x8
 924 0323 5E       		.byte	0x5e
 925 0324 7D030000 		.4byte	0x37d
 926 0328 06       		.uleb128 0x6
 927 0329 CE020000 		.4byte	.LASF45
 928 032d 08       		.byte	0x8
 929 032e 5F       		.byte	0x5f
 930 032f 3C020000 		.4byte	0x23c
 931 0333 02       		.byte	0x2
 932 0334 23       		.byte	0x23
 933 0335 00       		.uleb128 0
 934 0336 06       		.uleb128 0x6
 935 0337 80020000 		.4byte	.LASF46
 936 033b 08       		.byte	0x8
 937 033c 60       		.byte	0x60
 938 033d C3000000 		.4byte	0xc3
 939 0341 02       		.byte	0x2
 940 0342 23       		.byte	0x23
 941 0343 08       		.uleb128 0x8
 942 0344 06       		.uleb128 0x6
 943 0345 D3010000 		.4byte	.LASF47
 944 0349 08       		.byte	0x8
 945 034a 62       		.byte	0x62
 946 034b FA020000 		.4byte	0x2fa
 947 034f 02       		.byte	0x2
 948 0350 23       		.byte	0x23
 949 0351 0C       		.uleb128 0xc
 950 0352 06       		.uleb128 0x6
 951 0353 F5000000 		.4byte	.LASF48
 952 0357 08       		.byte	0x8
 953 0358 65       		.byte	0x65
 954 0359 36020000 		.4byte	0x236
 955 035d 02       		.byte	0x2
 956 035e 23       		.byte	0x23
 957 035f 10       		.uleb128 0x10
 958 0360 06       		.uleb128 0x6
 959 0361 01020000 		.4byte	.LASF49
 960 0365 08       		.byte	0x8
 961 0366 66       		.byte	0x66
 962 0367 36020000 		.4byte	0x236
 963 036b 02       		.byte	0x2
 964 036c 23       		.byte	0x23
 965 036d 14       		.uleb128 0x14
 966 036e 06       		.uleb128 0x6
 967 036f F7010000 		.4byte	.LASF50
 968 0373 08       		.byte	0x8
 969 0374 69       		.byte	0x69
ARM GAS  C:\Users\NICOMA~1\AppData\Local\Temp\ccMMVzOB.s 			page 18


 970 0375 36020000 		.4byte	0x236
 971 0379 02       		.byte	0x2
 972 037a 23       		.byte	0x23
 973 037b 18       		.uleb128 0x18
 974 037c 00       		.byte	0
 975 037d 04       		.uleb128 0x4
 976 037e 53030000 		.4byte	.LASF51
 977 0382 08       		.byte	0x8
 978 0383 6B       		.byte	0x6b
 979 0384 20030000 		.4byte	0x320
 980 0388 05       		.uleb128 0x5
 981 0389 A9010000 		.4byte	.LASF52
 982 038d 10       		.byte	0x10
 983 038e 09       		.byte	0x9
 984 038f 2C       		.byte	0x2c
 985 0390 BF030000 		.4byte	0x3bf
 986 0394 06       		.uleb128 0x6
 987 0395 6A000000 		.4byte	.LASF53
 988 0399 09       		.byte	0x9
 989 039a 2D       		.byte	0x2d
 990 039b 3C020000 		.4byte	0x23c
 991 039f 02       		.byte	0x2
 992 03a0 23       		.byte	0x23
 993 03a1 00       		.uleb128 0
 994 03a2 06       		.uleb128 0x6
 995 03a3 A0030000 		.4byte	.LASF54
 996 03a7 09       		.byte	0x9
 997 03a8 2F       		.byte	0x2f
 998 03a9 36020000 		.4byte	0x236
 999 03ad 02       		.byte	0x2
 1000 03ae 23       		.byte	0x23
 1001 03af 08       		.uleb128 0x8
 1002 03b0 06       		.uleb128 0x6
 1003 03b1 FF020000 		.4byte	.LASF55
 1004 03b5 09       		.byte	0x9
 1005 03b6 31       		.byte	0x31
 1006 03b7 BF030000 		.4byte	0x3bf
 1007 03bb 02       		.byte	0x2
 1008 03bc 23       		.byte	0x23
 1009 03bd 0C       		.uleb128 0xc
 1010 03be 00       		.byte	0
 1011 03bf 09       		.uleb128 0x9
 1012 03c0 04       		.byte	0x4
 1013 03c1 88030000 		.4byte	0x388
 1014 03c5 04       		.uleb128 0x4
 1015 03c6 A9010000 		.4byte	.LASF52
 1016 03ca 09       		.byte	0x9
 1017 03cb 33       		.byte	0x33
 1018 03cc 88030000 		.4byte	0x388
 1019 03d0 05       		.uleb128 0x5
 1020 03d1 7C000000 		.4byte	.LASF56
 1021 03d5 08       		.byte	0x8
 1022 03d6 0A       		.byte	0xa
 1023 03d7 36       		.byte	0x36
 1024 03d8 EB030000 		.4byte	0x3eb
 1025 03dc 06       		.uleb128 0x6
 1026 03dd A4020000 		.4byte	.LASF57
ARM GAS  C:\Users\NICOMA~1\AppData\Local\Temp\ccMMVzOB.s 			page 19


 1027 03e1 0A       		.byte	0xa
 1028 03e2 37       		.byte	0x37
 1029 03e3 3C020000 		.4byte	0x23c
 1030 03e7 02       		.byte	0x2
 1031 03e8 23       		.byte	0x23
 1032 03e9 00       		.uleb128 0
 1033 03ea 00       		.byte	0
 1034 03eb 04       		.uleb128 0x4
 1035 03ec 7C000000 		.4byte	.LASF56
 1036 03f0 0A       		.byte	0xa
 1037 03f1 38       		.byte	0x38
 1038 03f2 D0030000 		.4byte	0x3d0
 1039 03f6 0C       		.uleb128 0xc
 1040 03f7 04       		.byte	0x4
 1041 03f8 06       		.byte	0x6
 1042 03f9 96       		.byte	0x96
 1043 03fa 2B040000 		.4byte	0x42b
 1044 03fe 0D       		.uleb128 0xd
 1045 03ff 11000000 		.4byte	.LASF58
 1046 0403 06       		.byte	0x6
 1047 0404 9D       		.byte	0x9d
 1048 0405 CE000000 		.4byte	0xce
 1049 0409 0D       		.uleb128 0xd
 1050 040a 2F000000 		.4byte	.LASF59
 1051 040e 06       		.byte	0x6
 1052 040f A4       		.byte	0xa4
 1053 0410 CE000000 		.4byte	0xce
 1054 0414 0D       		.uleb128 0xd
 1055 0415 6B030000 		.4byte	.LASF60
 1056 0419 06       		.byte	0x6
 1057 041a AB       		.byte	0xab
 1058 041b 74020000 		.4byte	0x274
 1059 041f 0D       		.uleb128 0xd
 1060 0420 87020000 		.4byte	.LASF61
 1061 0424 06       		.byte	0x6
 1062 0425 B2       		.byte	0xb2
 1063 0426 D9000000 		.4byte	0xd9
 1064 042a 00       		.byte	0
 1065 042b 09       		.uleb128 0x9
 1066 042c 04       		.byte	0x4
 1067 042d 31040000 		.4byte	0x431
 1068 0431 0E       		.uleb128 0xe
 1069 0432 36040000 		.4byte	0x436
 1070 0436 03       		.uleb128 0x3
 1071 0437 01       		.byte	0x1
 1072 0438 08       		.byte	0x8
 1073 0439 E2020000 		.4byte	.LASF62
 1074 043d 09       		.uleb128 0x9
 1075 043e 04       		.byte	0x4
 1076 043f C5030000 		.4byte	0x3c5
 1077 0443 03       		.uleb128 0x3
 1078 0444 04       		.byte	0x4
 1079 0445 07       		.byte	0x7
 1080 0446 AF010000 		.4byte	.LASF63
 1081 044a 0F       		.uleb128 0xf
 1082 044b E7020000 		.4byte	.LASF81
 1083 044f 02       		.byte	0x2
ARM GAS  C:\Users\NICOMA~1\AppData\Local\Temp\ccMMVzOB.s 			page 20


 1084 0450 3B       		.byte	0x3b
 1085 0451 01       		.byte	0x1
 1086 0452 36020000 		.4byte	0x236
 1087 0456 03       		.byte	0x3
 1088 0457 71040000 		.4byte	0x471
 1089 045b 10       		.uleb128 0x10
 1090 045c 74717000 		.ascii	"tqp\000"
 1091 0460 02       		.byte	0x2
 1092 0461 3B       		.byte	0x3b
 1093 0462 71040000 		.4byte	0x471
 1094 0466 11       		.uleb128 0x11
 1095 0467 747000   		.ascii	"tp\000"
 1096 046a 02       		.byte	0x2
 1097 046b 3C       		.byte	0x3c
 1098 046c 36020000 		.4byte	0x236
 1099 0470 00       		.byte	0
 1100 0471 09       		.uleb128 0x9
 1101 0472 04       		.byte	0x4
 1102 0473 3C020000 		.4byte	0x23c
 1103 0477 12       		.uleb128 0x12
 1104 0478 7D010000 		.4byte	.LASF82
 1105 047c 02       		.byte	0x2
 1106 047d 29       		.byte	0x29
 1107 047e 01       		.byte	0x1
 1108 047f 03       		.byte	0x3
 1109 0480 A4040000 		.4byte	0x4a4
 1110 0484 10       		.uleb128 0x10
 1111 0485 747000   		.ascii	"tp\000"
 1112 0488 02       		.byte	0x2
 1113 0489 29       		.byte	0x29
 1114 048a 36020000 		.4byte	0x236
 1115 048e 10       		.uleb128 0x10
 1116 048f 74717000 		.ascii	"tqp\000"
 1117 0493 02       		.byte	0x2
 1118 0494 29       		.byte	0x29
 1119 0495 71040000 		.4byte	0x471
 1120 0499 11       		.uleb128 0x11
 1121 049a 637000   		.ascii	"cp\000"
 1122 049d 02       		.byte	0x2
 1123 049e 2B       		.byte	0x2b
 1124 049f 36020000 		.4byte	0x236
 1125 04a3 00       		.byte	0
 1126 04a4 13       		.uleb128 0x13
 1127 04a5 01       		.byte	0x1
 1128 04a6 06000000 		.4byte	.LASF64
 1129 04aa 01       		.byte	0x1
 1130 04ab 3B       		.byte	0x3b
 1131 04ac 01       		.byte	0x1
 1132 04ad 00000000 		.4byte	.LFB7
 1133 04b1 0C000000 		.4byte	.LFE7
 1134 04b5 02       		.byte	0x2
 1135 04b6 7D       		.byte	0x7d
 1136 04b7 00       		.sleb128 0
 1137 04b8 01       		.byte	0x1
 1138 04b9 CA040000 		.4byte	0x4ca
 1139 04bd 14       		.uleb128 0x14
 1140 04be 637000   		.ascii	"cp\000"
ARM GAS  C:\Users\NICOMA~1\AppData\Local\Temp\ccMMVzOB.s 			page 21


 1141 04c1 01       		.byte	0x1
 1142 04c2 3B       		.byte	0x3b
 1143 04c3 CA040000 		.4byte	0x4ca
 1144 04c7 01       		.byte	0x1
 1145 04c8 50       		.byte	0x50
 1146 04c9 00       		.byte	0
 1147 04ca 09       		.uleb128 0x9
 1148 04cb 04       		.byte	0x4
 1149 04cc EB030000 		.4byte	0x3eb
 1150 04d0 15       		.uleb128 0x15
 1151 04d1 01       		.byte	0x1
 1152 04d2 23010000 		.4byte	.LASF65
 1153 04d6 01       		.byte	0x1
 1154 04d7 49       		.byte	0x49
 1155 04d8 01       		.byte	0x1
 1156 04d9 00000000 		.4byte	.LFB8
 1157 04dd 34000000 		.4byte	.LFE8
 1158 04e1 00000000 		.4byte	.LLST0
 1159 04e5 01       		.byte	0x1
 1160 04e6 34050000 		.4byte	0x534
 1161 04ea 16       		.uleb128 0x16
 1162 04eb 637000   		.ascii	"cp\000"
 1163 04ee 01       		.byte	0x1
 1164 04ef 49       		.byte	0x49
 1165 04f0 CA040000 		.4byte	0x4ca
 1166 04f4 20000000 		.4byte	.LLST1
 1167 04f8 17       		.uleb128 0x17
 1168 04f9 4A040000 		.4byte	0x44a
 1169 04fd 18000000 		.4byte	.LBB12
 1170 0501 00000000 		.4byte	.Ldebug_ranges0+0
 1171 0505 01       		.byte	0x1
 1172 0506 4F       		.byte	0x4f
 1173 0507 24050000 		.4byte	0x524
 1174 050b 18       		.uleb128 0x18
 1175 050c 5B040000 		.4byte	0x45b
 1176 0510 4C000000 		.4byte	.LLST2
 1177 0514 19       		.uleb128 0x19
 1178 0515 18000000 		.4byte	.Ldebug_ranges0+0x18
 1179 0519 1A       		.uleb128 0x1a
 1180 051a 66040000 		.4byte	0x466
 1181 051e 6D000000 		.4byte	.LLST3
 1182 0522 00       		.byte	0
 1183 0523 00       		.byte	0
 1184 0524 1B       		.uleb128 0x1b
 1185 0525 2C000000 		.4byte	.LVL4
 1186 0529 74080000 		.4byte	0x874
 1187 052d 1C       		.uleb128 0x1c
 1188 052e 01       		.byte	0x1
 1189 052f 51       		.byte	0x51
 1190 0530 01       		.byte	0x1
 1191 0531 30       		.byte	0x30
 1192 0532 00       		.byte	0
 1193 0533 00       		.byte	0
 1194 0534 15       		.uleb128 0x15
 1195 0535 01       		.byte	0x1
 1196 0536 30020000 		.4byte	.LASF66
 1197 053a 01       		.byte	0x1
ARM GAS  C:\Users\NICOMA~1\AppData\Local\Temp\ccMMVzOB.s 			page 22


 1198 053b 5E       		.byte	0x5e
 1199 053c 01       		.byte	0x1
 1200 053d 00000000 		.4byte	.LFB9
 1201 0541 30000000 		.4byte	.LFE9
 1202 0545 80000000 		.4byte	.LLST4
 1203 0549 01       		.byte	0x1
 1204 054a 96050000 		.4byte	0x596
 1205 054e 16       		.uleb128 0x16
 1206 054f 637000   		.ascii	"cp\000"
 1207 0552 01       		.byte	0x1
 1208 0553 5E       		.byte	0x5e
 1209 0554 CA040000 		.4byte	0x4ca
 1210 0558 A0000000 		.4byte	.LLST5
 1211 055c 1D       		.uleb128 0x1d
 1212 055d 4A040000 		.4byte	0x44a
 1213 0561 14000000 		.4byte	.LBB16
 1214 0565 20000000 		.4byte	.LBE16
 1215 0569 01       		.byte	0x1
 1216 056a 64       		.byte	0x64
 1217 056b 8C050000 		.4byte	0x58c
 1218 056f 18       		.uleb128 0x18
 1219 0570 5B040000 		.4byte	0x45b
 1220 0574 CC000000 		.4byte	.LLST6
 1221 0578 1E       		.uleb128 0x1e
 1222 0579 14000000 		.4byte	.LBB17
 1223 057d 20000000 		.4byte	.LBE17
 1224 0581 1A       		.uleb128 0x1a
 1225 0582 66040000 		.4byte	0x466
 1226 0586 ED000000 		.4byte	.LLST7
 1227 058a 00       		.byte	0
 1228 058b 00       		.byte	0
 1229 058c 1F       		.uleb128 0x1f
 1230 058d 24000000 		.4byte	.LVL8
 1231 0591 8D080000 		.4byte	0x88d
 1232 0595 00       		.byte	0
 1233 0596 15       		.uleb128 0x15
 1234 0597 01       		.byte	0x1
 1235 0598 38000000 		.4byte	.LASF67
 1236 059c 01       		.byte	0x1
 1237 059d 81       		.byte	0x81
 1238 059e 01       		.byte	0x1
 1239 059f 00000000 		.4byte	.LFB11
 1240 05a3 3C000000 		.4byte	.LFE11
 1241 05a7 00010000 		.4byte	.LLST8
 1242 05ab 01       		.byte	0x1
 1243 05ac F6050000 		.4byte	0x5f6
 1244 05b0 16       		.uleb128 0x16
 1245 05b1 637000   		.ascii	"cp\000"
 1246 05b4 01       		.byte	0x1
 1247 05b5 81       		.byte	0x81
 1248 05b6 CA040000 		.4byte	0x4ca
 1249 05ba 20010000 		.4byte	.LLST9
 1250 05be 1D       		.uleb128 0x1d
 1251 05bf 4A040000 		.4byte	0x44a
 1252 05c3 18000000 		.4byte	.LBB18
 1253 05c7 24000000 		.4byte	.LBE18
 1254 05cb 01       		.byte	0x1
ARM GAS  C:\Users\NICOMA~1\AppData\Local\Temp\ccMMVzOB.s 			page 23


 1255 05cc 8A       		.byte	0x8a
 1256 05cd EC050000 		.4byte	0x5ec
 1257 05d1 20       		.uleb128 0x20
 1258 05d2 5B040000 		.4byte	0x45b
 1259 05d6 01       		.byte	0x1
 1260 05d7 54       		.byte	0x54
 1261 05d8 1E       		.uleb128 0x1e
 1262 05d9 18000000 		.4byte	.LBB19
 1263 05dd 24000000 		.4byte	.LBE19
 1264 05e1 1A       		.uleb128 0x1a
 1265 05e2 66040000 		.4byte	0x466
 1266 05e6 3E010000 		.4byte	.LLST10
 1267 05ea 00       		.byte	0
 1268 05eb 00       		.byte	0
 1269 05ec 1F       		.uleb128 0x1f
 1270 05ed 28000000 		.4byte	.LVL12
 1271 05f1 8D080000 		.4byte	0x88d
 1272 05f5 00       		.byte	0
 1273 05f6 15       		.uleb128 0x15
 1274 05f7 01       		.byte	0x1
 1275 05f8 09020000 		.4byte	.LASF68
 1276 05fc 01       		.byte	0x1
 1277 05fd 6E       		.byte	0x6e
 1278 05fe 01       		.byte	0x1
 1279 05ff 00000000 		.4byte	.LFB10
 1280 0603 18000000 		.4byte	.LFE10
 1281 0607 51010000 		.4byte	.LLST11
 1282 060b 01       		.byte	0x1
 1283 060c 3D060000 		.4byte	0x63d
 1284 0610 16       		.uleb128 0x16
 1285 0611 637000   		.ascii	"cp\000"
 1286 0614 01       		.byte	0x1
 1287 0615 6E       		.byte	0x6e
 1288 0616 CA040000 		.4byte	0x4ca
 1289 061a 71010000 		.4byte	.LLST12
 1290 061e 21       		.uleb128 0x21
 1291 061f 0C000000 		.4byte	.LVL14
 1292 0623 96050000 		.4byte	0x596
 1293 0627 33060000 		.4byte	0x633
 1294 062b 1C       		.uleb128 0x1c
 1295 062c 01       		.byte	0x1
 1296 062d 50       		.byte	0x50
 1297 062e 03       		.byte	0x3
 1298 062f F3       		.byte	0xf3
 1299 0630 01       		.uleb128 0x1
 1300 0631 50       		.byte	0x50
 1301 0632 00       		.byte	0
 1302 0633 1F       		.uleb128 0x1f
 1303 0634 10000000 		.4byte	.LVL15
 1304 0638 A5080000 		.4byte	0x8a5
 1305 063c 00       		.byte	0
 1306 063d 22       		.uleb128 0x22
 1307 063e 01       		.byte	0x1
 1308 063f F3020000 		.4byte	.LASF69
 1309 0643 01       		.byte	0x1
 1310 0644 B8       		.byte	0xb8
 1311 0645 01       		.byte	0x1
ARM GAS  C:\Users\NICOMA~1\AppData\Local\Temp\ccMMVzOB.s 			page 24


 1312 0646 CE000000 		.4byte	0xce
 1313 064a 00000000 		.4byte	.LFB13
 1314 064e 80000000 		.4byte	.LFE13
 1315 0652 92010000 		.4byte	.LLST13
 1316 0656 01       		.byte	0x1
 1317 0657 F5060000 		.4byte	0x6f5
 1318 065b 16       		.uleb128 0x16
 1319 065c 637000   		.ascii	"cp\000"
 1320 065f 01       		.byte	0x1
 1321 0660 B8       		.byte	0xb8
 1322 0661 CA040000 		.4byte	0x4ca
 1323 0665 B2010000 		.4byte	.LLST14
 1324 0669 23       		.uleb128 0x23
 1325 066a 63747000 		.ascii	"ctp\000"
 1326 066e 01       		.byte	0x1
 1327 066f B9       		.byte	0xb9
 1328 0670 36020000 		.4byte	0x236
 1329 0674 D0010000 		.4byte	.LLST15
 1330 0678 23       		.uleb128 0x23
 1331 0679 6D7000   		.ascii	"mp\000"
 1332 067c 01       		.byte	0x1
 1333 067d BA       		.byte	0xba
 1334 067e 3D040000 		.4byte	0x43d
 1335 0682 EE010000 		.4byte	.LLST16
 1336 0686 23       		.uleb128 0x23
 1337 0687 6D736700 		.ascii	"msg\000"
 1338 068b 01       		.byte	0x1
 1339 068c BB       		.byte	0xbb
 1340 068d CE000000 		.4byte	0xce
 1341 0691 17020000 		.4byte	.LLST17
 1342 0695 17       		.uleb128 0x17
 1343 0696 77040000 		.4byte	0x477
 1344 069a 28000000 		.4byte	.LBB20
 1345 069e 30000000 		.4byte	.Ldebug_ranges0+0x30
 1346 06a2 01       		.byte	0x1
 1347 06a3 C5       		.byte	0xc5
 1348 06a4 C8060000 		.4byte	0x6c8
 1349 06a8 20       		.uleb128 0x20
 1350 06a9 8E040000 		.4byte	0x48e
 1351 06ad 01       		.byte	0x1
 1352 06ae 55       		.byte	0x55
 1353 06af 18       		.uleb128 0x18
 1354 06b0 84040000 		.4byte	0x484
 1355 06b4 2A020000 		.4byte	.LLST18
 1356 06b8 19       		.uleb128 0x19
 1357 06b9 48000000 		.4byte	.Ldebug_ranges0+0x48
 1358 06bd 1A       		.uleb128 0x1a
 1359 06be 99040000 		.4byte	0x499
 1360 06c2 48020000 		.4byte	.LLST19
 1361 06c6 00       		.byte	0
 1362 06c7 00       		.byte	0
 1363 06c8 1F       		.uleb128 0x1f
 1364 06c9 14000000 		.4byte	.LVL18
 1365 06cd AF080000 		.4byte	0x8af
 1366 06d1 21       		.uleb128 0x21
 1367 06d2 60000000 		.4byte	.LVL25
 1368 06d6 BD080000 		.4byte	0x8bd
ARM GAS  C:\Users\NICOMA~1\AppData\Local\Temp\ccMMVzOB.s 			page 25


 1369 06da E4060000 		.4byte	0x6e4
 1370 06de 1C       		.uleb128 0x1c
 1371 06df 01       		.byte	0x1
 1372 06e0 50       		.byte	0x50
 1373 06e1 01       		.byte	0x1
 1374 06e2 35       		.byte	0x35
 1375 06e3 00       		.byte	0
 1376 06e4 1B       		.uleb128 0x1b
 1377 06e5 6C000000 		.4byte	.LVL27
 1378 06e9 D1080000 		.4byte	0x8d1
 1379 06ed 1C       		.uleb128 0x1c
 1380 06ee 01       		.byte	0x1
 1381 06ef 50       		.byte	0x50
 1382 06f0 02       		.byte	0x2
 1383 06f1 76       		.byte	0x76
 1384 06f2 00       		.sleb128 0
 1385 06f3 00       		.byte	0
 1386 06f4 00       		.byte	0
 1387 06f5 22       		.uleb128 0x22
 1388 06f6 01       		.byte	0x1
 1389 06f7 1B030000 		.4byte	.LASF70
 1390 06fb 01       		.byte	0x1
 1391 06fc 9E       		.byte	0x9e
 1392 06fd 01       		.byte	0x1
 1393 06fe CE000000 		.4byte	0xce
 1394 0702 00000000 		.4byte	.LFB12
 1395 0706 14000000 		.4byte	.LFE12
 1396 070a 71020000 		.4byte	.LLST20
 1397 070e 01       		.byte	0x1
 1398 070f 40070000 		.4byte	0x740
 1399 0713 16       		.uleb128 0x16
 1400 0714 637000   		.ascii	"cp\000"
 1401 0717 01       		.byte	0x1
 1402 0718 9E       		.byte	0x9e
 1403 0719 CA040000 		.4byte	0x4ca
 1404 071d 91020000 		.4byte	.LLST21
 1405 0721 24       		.uleb128 0x24
 1406 0722 6D736700 		.ascii	"msg\000"
 1407 0726 01       		.byte	0x1
 1408 0727 9F       		.byte	0x9f
 1409 0728 CE000000 		.4byte	0xce
 1410 072c 01       		.byte	0x1
 1411 072d 50       		.byte	0x50
 1412 072e 1B       		.uleb128 0x1b
 1413 072f 0C000000 		.4byte	.LVL30
 1414 0733 3D060000 		.4byte	0x63d
 1415 0737 1C       		.uleb128 0x1c
 1416 0738 01       		.byte	0x1
 1417 0739 50       		.byte	0x50
 1418 073a 03       		.byte	0x3
 1419 073b F3       		.byte	0xf3
 1420 073c 01       		.uleb128 0x1
 1421 073d 50       		.byte	0x50
 1422 073e 00       		.byte	0
 1423 073f 00       		.byte	0
 1424 0740 25       		.uleb128 0x25
 1425 0741 01       		.byte	0x1
ARM GAS  C:\Users\NICOMA~1\AppData\Local\Temp\ccMMVzOB.s 			page 26


 1426 0742 B8010000 		.4byte	.LASF71
 1427 0746 01       		.byte	0x1
 1428 0747 0E01     		.2byte	0x10e
 1429 0749 01       		.byte	0x1
 1430 074a CE000000 		.4byte	0xce
 1431 074e 00000000 		.4byte	.LFB15
 1432 0752 7C000000 		.4byte	.LFE15
 1433 0756 B2020000 		.4byte	.LLST22
 1434 075a 01       		.byte	0x1
 1435 075b 06080000 		.4byte	0x806
 1436 075f 26       		.uleb128 0x26
 1437 0760 637000   		.ascii	"cp\000"
 1438 0763 01       		.byte	0x1
 1439 0764 0E01     		.2byte	0x10e
 1440 0766 CA040000 		.4byte	0x4ca
 1441 076a D2020000 		.4byte	.LLST23
 1442 076e 27       		.uleb128 0x27
 1443 076f E6010000 		.4byte	.LASF72
 1444 0773 01       		.byte	0x1
 1445 0774 0E01     		.2byte	0x10e
 1446 0776 E4000000 		.4byte	0xe4
 1447 077a FE020000 		.4byte	.LLST24
 1448 077e 28       		.uleb128 0x28
 1449 077f 6D7000   		.ascii	"mp\000"
 1450 0782 01       		.byte	0x1
 1451 0783 0F01     		.2byte	0x10f
 1452 0785 3D040000 		.4byte	0x43d
 1453 0789 1C030000 		.4byte	.LLST25
 1454 078d 28       		.uleb128 0x28
 1455 078e 6D736700 		.ascii	"msg\000"
 1456 0792 01       		.byte	0x1
 1457 0793 1001     		.2byte	0x110
 1458 0795 CE000000 		.4byte	0xce
 1459 0799 3A030000 		.4byte	.LLST26
 1460 079d 29       		.uleb128 0x29
 1461 079e 77040000 		.4byte	0x477
 1462 07a2 24000000 		.4byte	.LBB24
 1463 07a6 60000000 		.4byte	.Ldebug_ranges0+0x60
 1464 07aa 01       		.byte	0x1
 1465 07ab 1A01     		.2byte	0x11a
 1466 07ad D3070000 		.4byte	0x7d3
 1467 07b1 18       		.uleb128 0x18
 1468 07b2 8E040000 		.4byte	0x48e
 1469 07b6 58030000 		.4byte	.LLST27
 1470 07ba 18       		.uleb128 0x18
 1471 07bb 84040000 		.4byte	0x484
 1472 07bf 79030000 		.4byte	.LLST28
 1473 07c3 19       		.uleb128 0x19
 1474 07c4 80000000 		.4byte	.Ldebug_ranges0+0x80
 1475 07c8 1A       		.uleb128 0x1a
 1476 07c9 99040000 		.4byte	0x499
 1477 07cd 8C030000 		.4byte	.LLST29
 1478 07d1 00       		.byte	0
 1479 07d2 00       		.byte	0
 1480 07d3 1F       		.uleb128 0x1f
 1481 07d4 10000000 		.4byte	.LVL32
 1482 07d8 AF080000 		.4byte	0x8af
ARM GAS  C:\Users\NICOMA~1\AppData\Local\Temp\ccMMVzOB.s 			page 27


 1483 07dc 21       		.uleb128 0x21
 1484 07dd 5C000000 		.4byte	.LVL37
 1485 07e1 E5080000 		.4byte	0x8e5
 1486 07e5 F5070000 		.4byte	0x7f5
 1487 07e9 1C       		.uleb128 0x1c
 1488 07ea 01       		.byte	0x1
 1489 07eb 51       		.byte	0x51
 1490 07ec 02       		.byte	0x2
 1491 07ed 76       		.byte	0x76
 1492 07ee 00       		.sleb128 0
 1493 07ef 1C       		.uleb128 0x1c
 1494 07f0 01       		.byte	0x1
 1495 07f1 50       		.byte	0x50
 1496 07f2 01       		.byte	0x1
 1497 07f3 35       		.byte	0x35
 1498 07f4 00       		.byte	0
 1499 07f5 1B       		.uleb128 0x1b
 1500 07f6 70000000 		.4byte	.LVL40
 1501 07fa D1080000 		.4byte	0x8d1
 1502 07fe 1C       		.uleb128 0x1c
 1503 07ff 01       		.byte	0x1
 1504 0800 50       		.byte	0x50
 1505 0801 02       		.byte	0x2
 1506 0802 75       		.byte	0x75
 1507 0803 00       		.sleb128 0
 1508 0804 00       		.byte	0
 1509 0805 00       		.byte	0
 1510 0806 22       		.uleb128 0x22
 1511 0807 01       		.byte	0x1
 1512 0808 79030000 		.4byte	.LASF73
 1513 080c 01       		.byte	0x1
 1514 080d E9       		.byte	0xe9
 1515 080e 01       		.byte	0x1
 1516 080f CE000000 		.4byte	0xce
 1517 0813 00000000 		.4byte	.LFB14
 1518 0817 14000000 		.4byte	.LFE14
 1519 081b 9F030000 		.4byte	.LLST30
 1520 081f 01       		.byte	0x1
 1521 0820 67080000 		.4byte	0x867
 1522 0824 16       		.uleb128 0x16
 1523 0825 637000   		.ascii	"cp\000"
 1524 0828 01       		.byte	0x1
 1525 0829 E9       		.byte	0xe9
 1526 082a CA040000 		.4byte	0x4ca
 1527 082e BF030000 		.4byte	.LLST31
 1528 0832 2A       		.uleb128 0x2a
 1529 0833 E6010000 		.4byte	.LASF72
 1530 0837 01       		.byte	0x1
 1531 0838 E9       		.byte	0xe9
 1532 0839 E4000000 		.4byte	0xe4
 1533 083d E0030000 		.4byte	.LLST32
 1534 0841 24       		.uleb128 0x24
 1535 0842 6D736700 		.ascii	"msg\000"
 1536 0846 01       		.byte	0x1
 1537 0847 EA       		.byte	0xea
 1538 0848 CE000000 		.4byte	0xce
 1539 084c 01       		.byte	0x1
ARM GAS  C:\Users\NICOMA~1\AppData\Local\Temp\ccMMVzOB.s 			page 28


 1540 084d 50       		.byte	0x50
 1541 084e 1B       		.uleb128 0x1b
 1542 084f 0C000000 		.4byte	.LVL42
 1543 0853 40070000 		.4byte	0x740
 1544 0857 1C       		.uleb128 0x1c
 1545 0858 01       		.byte	0x1
 1546 0859 51       		.byte	0x51
 1547 085a 03       		.byte	0x3
 1548 085b F3       		.byte	0xf3
 1549 085c 01       		.uleb128 0x1
 1550 085d 51       		.byte	0x51
 1551 085e 1C       		.uleb128 0x1c
 1552 085f 01       		.byte	0x1
 1553 0860 50       		.byte	0x50
 1554 0861 03       		.byte	0x3
 1555 0862 F3       		.byte	0xf3
 1556 0863 01       		.uleb128 0x1
 1557 0864 50       		.byte	0x50
 1558 0865 00       		.byte	0
 1559 0866 00       		.byte	0
 1560 0867 2B       		.uleb128 0x2b
 1561 0868 5D030000 		.4byte	.LASF83
 1562 086c 08       		.byte	0x8
 1563 086d 6F       		.byte	0x6f
 1564 086e 7D030000 		.4byte	0x37d
 1565 0872 01       		.byte	0x1
 1566 0873 01       		.byte	0x1
 1567 0874 2C       		.uleb128 0x2c
 1568 0875 01       		.byte	0x1
 1569 0876 3F030000 		.4byte	.LASF74
 1570 087a 08       		.byte	0x8
 1571 087b 99       		.byte	0x99
 1572 087c 01       		.byte	0x1
 1573 087d 01       		.byte	0x1
 1574 087e 8D080000 		.4byte	0x88d
 1575 0882 2D       		.uleb128 0x2d
 1576 0883 36020000 		.4byte	0x236
 1577 0887 2D       		.uleb128 0x2d
 1578 0888 CE000000 		.4byte	0xce
 1579 088c 00       		.byte	0
 1580 088d 2E       		.uleb128 0x2e
 1581 088e 01       		.byte	0x1
 1582 088f D6020000 		.4byte	.LASF84
 1583 0893 08       		.byte	0x8
 1584 0894 90       		.byte	0x90
 1585 0895 01       		.byte	0x1
 1586 0896 36020000 		.4byte	0x236
 1587 089a 01       		.byte	0x1
 1588 089b A5080000 		.4byte	0x8a5
 1589 089f 2D       		.uleb128 0x2d
 1590 08a0 36020000 		.4byte	0x236
 1591 08a4 00       		.byte	0
 1592 08a5 2F       		.uleb128 0x2f
 1593 08a6 01       		.byte	0x1
 1594 08a7 E4000000 		.4byte	.LASF85
 1595 08ab 08       		.byte	0x8
 1596 08ac 9C       		.byte	0x9c
ARM GAS  C:\Users\NICOMA~1\AppData\Local\Temp\ccMMVzOB.s 			page 29


 1597 08ad 01       		.byte	0x1
 1598 08ae 01       		.byte	0x1
 1599 08af 30       		.uleb128 0x30
 1600 08b0 01       		.byte	0x1
 1601 08b1 30010000 		.4byte	.LASF86
 1602 08b5 09       		.byte	0x9
 1603 08b6 3E       		.byte	0x3e
 1604 08b7 01       		.byte	0x1
 1605 08b8 3D040000 		.4byte	0x43d
 1606 08bc 01       		.byte	0x1
 1607 08bd 2C       		.uleb128 0x2c
 1608 08be 01       		.byte	0x1
 1609 08bf AC020000 		.4byte	.LASF75
 1610 08c3 08       		.byte	0x8
 1611 08c4 93       		.byte	0x93
 1612 08c5 01       		.byte	0x1
 1613 08c6 01       		.byte	0x1
 1614 08c7 D1080000 		.4byte	0x8d1
 1615 08cb 2D       		.uleb128 0x2d
 1616 08cc A2000000 		.4byte	0xa2
 1617 08d0 00       		.byte	0
 1618 08d1 2C       		.uleb128 0x2c
 1619 08d2 01       		.byte	0x1
 1620 08d3 96000000 		.4byte	.LASF76
 1621 08d7 09       		.byte	0x9
 1622 08d8 3A       		.byte	0x3a
 1623 08d9 01       		.byte	0x1
 1624 08da 01       		.byte	0x1
 1625 08db E5080000 		.4byte	0x8e5
 1626 08df 2D       		.uleb128 0x2d
 1627 08e0 3D040000 		.4byte	0x43d
 1628 08e4 00       		.byte	0
 1629 08e5 31       		.uleb128 0x31
 1630 08e6 01       		.byte	0x1
 1631 08e7 8B030000 		.4byte	.LASF77
 1632 08eb 08       		.byte	0x8
 1633 08ec 96       		.byte	0x96
 1634 08ed 01       		.byte	0x1
 1635 08ee CE000000 		.4byte	0xce
 1636 08f2 01       		.byte	0x1
 1637 08f3 2D       		.uleb128 0x2d
 1638 08f4 A2000000 		.4byte	0xa2
 1639 08f8 2D       		.uleb128 0x2d
 1640 08f9 E4000000 		.4byte	0xe4
 1641 08fd 00       		.byte	0
 1642 08fe 00       		.byte	0
 1643              		.section	.debug_abbrev,"",%progbits
 1644              	.Ldebug_abbrev0:
 1645 0000 01       		.uleb128 0x1
 1646 0001 11       		.uleb128 0x11
 1647 0002 01       		.byte	0x1
 1648 0003 25       		.uleb128 0x25
 1649 0004 0E       		.uleb128 0xe
 1650 0005 13       		.uleb128 0x13
 1651 0006 0B       		.uleb128 0xb
 1652 0007 03       		.uleb128 0x3
 1653 0008 0E       		.uleb128 0xe
ARM GAS  C:\Users\NICOMA~1\AppData\Local\Temp\ccMMVzOB.s 			page 30


 1654 0009 1B       		.uleb128 0x1b
 1655 000a 0E       		.uleb128 0xe
 1656 000b 55       		.uleb128 0x55
 1657 000c 06       		.uleb128 0x6
 1658 000d 11       		.uleb128 0x11
 1659 000e 01       		.uleb128 0x1
 1660 000f 52       		.uleb128 0x52
 1661 0010 01       		.uleb128 0x1
 1662 0011 10       		.uleb128 0x10
 1663 0012 06       		.uleb128 0x6
 1664 0013 00       		.byte	0
 1665 0014 00       		.byte	0
 1666 0015 02       		.uleb128 0x2
 1667 0016 24       		.uleb128 0x24
 1668 0017 00       		.byte	0
 1669 0018 0B       		.uleb128 0xb
 1670 0019 0B       		.uleb128 0xb
 1671 001a 3E       		.uleb128 0x3e
 1672 001b 0B       		.uleb128 0xb
 1673 001c 03       		.uleb128 0x3
 1674 001d 08       		.uleb128 0x8
 1675 001e 00       		.byte	0
 1676 001f 00       		.byte	0
 1677 0020 03       		.uleb128 0x3
 1678 0021 24       		.uleb128 0x24
 1679 0022 00       		.byte	0
 1680 0023 0B       		.uleb128 0xb
 1681 0024 0B       		.uleb128 0xb
 1682 0025 3E       		.uleb128 0x3e
 1683 0026 0B       		.uleb128 0xb
 1684 0027 03       		.uleb128 0x3
 1685 0028 0E       		.uleb128 0xe
 1686 0029 00       		.byte	0
 1687 002a 00       		.byte	0
 1688 002b 04       		.uleb128 0x4
 1689 002c 16       		.uleb128 0x16
 1690 002d 00       		.byte	0
 1691 002e 03       		.uleb128 0x3
 1692 002f 0E       		.uleb128 0xe
 1693 0030 3A       		.uleb128 0x3a
 1694 0031 0B       		.uleb128 0xb
 1695 0032 3B       		.uleb128 0x3b
 1696 0033 0B       		.uleb128 0xb
 1697 0034 49       		.uleb128 0x49
 1698 0035 13       		.uleb128 0x13
 1699 0036 00       		.byte	0
 1700 0037 00       		.byte	0
 1701 0038 05       		.uleb128 0x5
 1702 0039 13       		.uleb128 0x13
 1703 003a 01       		.byte	0x1
 1704 003b 03       		.uleb128 0x3
 1705 003c 0E       		.uleb128 0xe
 1706 003d 0B       		.uleb128 0xb
 1707 003e 0B       		.uleb128 0xb
 1708 003f 3A       		.uleb128 0x3a
 1709 0040 0B       		.uleb128 0xb
 1710 0041 3B       		.uleb128 0x3b
ARM GAS  C:\Users\NICOMA~1\AppData\Local\Temp\ccMMVzOB.s 			page 31


 1711 0042 0B       		.uleb128 0xb
 1712 0043 01       		.uleb128 0x1
 1713 0044 13       		.uleb128 0x13
 1714 0045 00       		.byte	0
 1715 0046 00       		.byte	0
 1716 0047 06       		.uleb128 0x6
 1717 0048 0D       		.uleb128 0xd
 1718 0049 00       		.byte	0
 1719 004a 03       		.uleb128 0x3
 1720 004b 0E       		.uleb128 0xe
 1721 004c 3A       		.uleb128 0x3a
 1722 004d 0B       		.uleb128 0xb
 1723 004e 3B       		.uleb128 0x3b
 1724 004f 0B       		.uleb128 0xb
 1725 0050 49       		.uleb128 0x49
 1726 0051 13       		.uleb128 0x13
 1727 0052 38       		.uleb128 0x38
 1728 0053 0A       		.uleb128 0xa
 1729 0054 00       		.byte	0
 1730 0055 00       		.byte	0
 1731 0056 07       		.uleb128 0x7
 1732 0057 0D       		.uleb128 0xd
 1733 0058 00       		.byte	0
 1734 0059 03       		.uleb128 0x3
 1735 005a 08       		.uleb128 0x8
 1736 005b 3A       		.uleb128 0x3a
 1737 005c 0B       		.uleb128 0xb
 1738 005d 3B       		.uleb128 0x3b
 1739 005e 0B       		.uleb128 0xb
 1740 005f 49       		.uleb128 0x49
 1741 0060 13       		.uleb128 0x13
 1742 0061 38       		.uleb128 0x38
 1743 0062 0A       		.uleb128 0xa
 1744 0063 00       		.byte	0
 1745 0064 00       		.byte	0
 1746 0065 08       		.uleb128 0x8
 1747 0066 13       		.uleb128 0x13
 1748 0067 01       		.byte	0x1
 1749 0068 0B       		.uleb128 0xb
 1750 0069 0B       		.uleb128 0xb
 1751 006a 3A       		.uleb128 0x3a
 1752 006b 0B       		.uleb128 0xb
 1753 006c 3B       		.uleb128 0x3b
 1754 006d 0B       		.uleb128 0xb
 1755 006e 01       		.uleb128 0x1
 1756 006f 13       		.uleb128 0x13
 1757 0070 00       		.byte	0
 1758 0071 00       		.byte	0
 1759 0072 09       		.uleb128 0x9
 1760 0073 0F       		.uleb128 0xf
 1761 0074 00       		.byte	0
 1762 0075 0B       		.uleb128 0xb
 1763 0076 0B       		.uleb128 0xb
 1764 0077 49       		.uleb128 0x49
 1765 0078 13       		.uleb128 0x13
 1766 0079 00       		.byte	0
 1767 007a 00       		.byte	0
ARM GAS  C:\Users\NICOMA~1\AppData\Local\Temp\ccMMVzOB.s 			page 32


 1768 007b 0A       		.uleb128 0xa
 1769 007c 0F       		.uleb128 0xf
 1770 007d 00       		.byte	0
 1771 007e 0B       		.uleb128 0xb
 1772 007f 0B       		.uleb128 0xb
 1773 0080 00       		.byte	0
 1774 0081 00       		.byte	0
 1775 0082 0B       		.uleb128 0xb
 1776 0083 35       		.uleb128 0x35
 1777 0084 00       		.byte	0
 1778 0085 49       		.uleb128 0x49
 1779 0086 13       		.uleb128 0x13
 1780 0087 00       		.byte	0
 1781 0088 00       		.byte	0
 1782 0089 0C       		.uleb128 0xc
 1783 008a 17       		.uleb128 0x17
 1784 008b 01       		.byte	0x1
 1785 008c 0B       		.uleb128 0xb
 1786 008d 0B       		.uleb128 0xb
 1787 008e 3A       		.uleb128 0x3a
 1788 008f 0B       		.uleb128 0xb
 1789 0090 3B       		.uleb128 0x3b
 1790 0091 0B       		.uleb128 0xb
 1791 0092 01       		.uleb128 0x1
 1792 0093 13       		.uleb128 0x13
 1793 0094 00       		.byte	0
 1794 0095 00       		.byte	0
 1795 0096 0D       		.uleb128 0xd
 1796 0097 0D       		.uleb128 0xd
 1797 0098 00       		.byte	0
 1798 0099 03       		.uleb128 0x3
 1799 009a 0E       		.uleb128 0xe
 1800 009b 3A       		.uleb128 0x3a
 1801 009c 0B       		.uleb128 0xb
 1802 009d 3B       		.uleb128 0x3b
 1803 009e 0B       		.uleb128 0xb
 1804 009f 49       		.uleb128 0x49
 1805 00a0 13       		.uleb128 0x13
 1806 00a1 00       		.byte	0
 1807 00a2 00       		.byte	0
 1808 00a3 0E       		.uleb128 0xe
 1809 00a4 26       		.uleb128 0x26
 1810 00a5 00       		.byte	0
 1811 00a6 49       		.uleb128 0x49
 1812 00a7 13       		.uleb128 0x13
 1813 00a8 00       		.byte	0
 1814 00a9 00       		.byte	0
 1815 00aa 0F       		.uleb128 0xf
 1816 00ab 2E       		.uleb128 0x2e
 1817 00ac 01       		.byte	0x1
 1818 00ad 03       		.uleb128 0x3
 1819 00ae 0E       		.uleb128 0xe
 1820 00af 3A       		.uleb128 0x3a
 1821 00b0 0B       		.uleb128 0xb
 1822 00b1 3B       		.uleb128 0x3b
 1823 00b2 0B       		.uleb128 0xb
 1824 00b3 27       		.uleb128 0x27
ARM GAS  C:\Users\NICOMA~1\AppData\Local\Temp\ccMMVzOB.s 			page 33


 1825 00b4 0C       		.uleb128 0xc
 1826 00b5 49       		.uleb128 0x49
 1827 00b6 13       		.uleb128 0x13
 1828 00b7 20       		.uleb128 0x20
 1829 00b8 0B       		.uleb128 0xb
 1830 00b9 01       		.uleb128 0x1
 1831 00ba 13       		.uleb128 0x13
 1832 00bb 00       		.byte	0
 1833 00bc 00       		.byte	0
 1834 00bd 10       		.uleb128 0x10
 1835 00be 05       		.uleb128 0x5
 1836 00bf 00       		.byte	0
 1837 00c0 03       		.uleb128 0x3
 1838 00c1 08       		.uleb128 0x8
 1839 00c2 3A       		.uleb128 0x3a
 1840 00c3 0B       		.uleb128 0xb
 1841 00c4 3B       		.uleb128 0x3b
 1842 00c5 0B       		.uleb128 0xb
 1843 00c6 49       		.uleb128 0x49
 1844 00c7 13       		.uleb128 0x13
 1845 00c8 00       		.byte	0
 1846 00c9 00       		.byte	0
 1847 00ca 11       		.uleb128 0x11
 1848 00cb 34       		.uleb128 0x34
 1849 00cc 00       		.byte	0
 1850 00cd 03       		.uleb128 0x3
 1851 00ce 08       		.uleb128 0x8
 1852 00cf 3A       		.uleb128 0x3a
 1853 00d0 0B       		.uleb128 0xb
 1854 00d1 3B       		.uleb128 0x3b
 1855 00d2 0B       		.uleb128 0xb
 1856 00d3 49       		.uleb128 0x49
 1857 00d4 13       		.uleb128 0x13
 1858 00d5 00       		.byte	0
 1859 00d6 00       		.byte	0
 1860 00d7 12       		.uleb128 0x12
 1861 00d8 2E       		.uleb128 0x2e
 1862 00d9 01       		.byte	0x1
 1863 00da 03       		.uleb128 0x3
 1864 00db 0E       		.uleb128 0xe
 1865 00dc 3A       		.uleb128 0x3a
 1866 00dd 0B       		.uleb128 0xb
 1867 00de 3B       		.uleb128 0x3b
 1868 00df 0B       		.uleb128 0xb
 1869 00e0 27       		.uleb128 0x27
 1870 00e1 0C       		.uleb128 0xc
 1871 00e2 20       		.uleb128 0x20
 1872 00e3 0B       		.uleb128 0xb
 1873 00e4 01       		.uleb128 0x1
 1874 00e5 13       		.uleb128 0x13
 1875 00e6 00       		.byte	0
 1876 00e7 00       		.byte	0
 1877 00e8 13       		.uleb128 0x13
 1878 00e9 2E       		.uleb128 0x2e
 1879 00ea 01       		.byte	0x1
 1880 00eb 3F       		.uleb128 0x3f
 1881 00ec 0C       		.uleb128 0xc
ARM GAS  C:\Users\NICOMA~1\AppData\Local\Temp\ccMMVzOB.s 			page 34


 1882 00ed 03       		.uleb128 0x3
 1883 00ee 0E       		.uleb128 0xe
 1884 00ef 3A       		.uleb128 0x3a
 1885 00f0 0B       		.uleb128 0xb
 1886 00f1 3B       		.uleb128 0x3b
 1887 00f2 0B       		.uleb128 0xb
 1888 00f3 27       		.uleb128 0x27
 1889 00f4 0C       		.uleb128 0xc
 1890 00f5 11       		.uleb128 0x11
 1891 00f6 01       		.uleb128 0x1
 1892 00f7 12       		.uleb128 0x12
 1893 00f8 01       		.uleb128 0x1
 1894 00f9 40       		.uleb128 0x40
 1895 00fa 0A       		.uleb128 0xa
 1896 00fb 9742     		.uleb128 0x2117
 1897 00fd 0C       		.uleb128 0xc
 1898 00fe 01       		.uleb128 0x1
 1899 00ff 13       		.uleb128 0x13
 1900 0100 00       		.byte	0
 1901 0101 00       		.byte	0
 1902 0102 14       		.uleb128 0x14
 1903 0103 05       		.uleb128 0x5
 1904 0104 00       		.byte	0
 1905 0105 03       		.uleb128 0x3
 1906 0106 08       		.uleb128 0x8
 1907 0107 3A       		.uleb128 0x3a
 1908 0108 0B       		.uleb128 0xb
 1909 0109 3B       		.uleb128 0x3b
 1910 010a 0B       		.uleb128 0xb
 1911 010b 49       		.uleb128 0x49
 1912 010c 13       		.uleb128 0x13
 1913 010d 02       		.uleb128 0x2
 1914 010e 0A       		.uleb128 0xa
 1915 010f 00       		.byte	0
 1916 0110 00       		.byte	0
 1917 0111 15       		.uleb128 0x15
 1918 0112 2E       		.uleb128 0x2e
 1919 0113 01       		.byte	0x1
 1920 0114 3F       		.uleb128 0x3f
 1921 0115 0C       		.uleb128 0xc
 1922 0116 03       		.uleb128 0x3
 1923 0117 0E       		.uleb128 0xe
 1924 0118 3A       		.uleb128 0x3a
 1925 0119 0B       		.uleb128 0xb
 1926 011a 3B       		.uleb128 0x3b
 1927 011b 0B       		.uleb128 0xb
 1928 011c 27       		.uleb128 0x27
 1929 011d 0C       		.uleb128 0xc
 1930 011e 11       		.uleb128 0x11
 1931 011f 01       		.uleb128 0x1
 1932 0120 12       		.uleb128 0x12
 1933 0121 01       		.uleb128 0x1
 1934 0122 40       		.uleb128 0x40
 1935 0123 06       		.uleb128 0x6
 1936 0124 9742     		.uleb128 0x2117
 1937 0126 0C       		.uleb128 0xc
 1938 0127 01       		.uleb128 0x1
ARM GAS  C:\Users\NICOMA~1\AppData\Local\Temp\ccMMVzOB.s 			page 35


 1939 0128 13       		.uleb128 0x13
 1940 0129 00       		.byte	0
 1941 012a 00       		.byte	0
 1942 012b 16       		.uleb128 0x16
 1943 012c 05       		.uleb128 0x5
 1944 012d 00       		.byte	0
 1945 012e 03       		.uleb128 0x3
 1946 012f 08       		.uleb128 0x8
 1947 0130 3A       		.uleb128 0x3a
 1948 0131 0B       		.uleb128 0xb
 1949 0132 3B       		.uleb128 0x3b
 1950 0133 0B       		.uleb128 0xb
 1951 0134 49       		.uleb128 0x49
 1952 0135 13       		.uleb128 0x13
 1953 0136 02       		.uleb128 0x2
 1954 0137 06       		.uleb128 0x6
 1955 0138 00       		.byte	0
 1956 0139 00       		.byte	0
 1957 013a 17       		.uleb128 0x17
 1958 013b 1D       		.uleb128 0x1d
 1959 013c 01       		.byte	0x1
 1960 013d 31       		.uleb128 0x31
 1961 013e 13       		.uleb128 0x13
 1962 013f 52       		.uleb128 0x52
 1963 0140 01       		.uleb128 0x1
 1964 0141 55       		.uleb128 0x55
 1965 0142 06       		.uleb128 0x6
 1966 0143 58       		.uleb128 0x58
 1967 0144 0B       		.uleb128 0xb
 1968 0145 59       		.uleb128 0x59
 1969 0146 0B       		.uleb128 0xb
 1970 0147 01       		.uleb128 0x1
 1971 0148 13       		.uleb128 0x13
 1972 0149 00       		.byte	0
 1973 014a 00       		.byte	0
 1974 014b 18       		.uleb128 0x18
 1975 014c 05       		.uleb128 0x5
 1976 014d 00       		.byte	0
 1977 014e 31       		.uleb128 0x31
 1978 014f 13       		.uleb128 0x13
 1979 0150 02       		.uleb128 0x2
 1980 0151 06       		.uleb128 0x6
 1981 0152 00       		.byte	0
 1982 0153 00       		.byte	0
 1983 0154 19       		.uleb128 0x19
 1984 0155 0B       		.uleb128 0xb
 1985 0156 01       		.byte	0x1
 1986 0157 55       		.uleb128 0x55
 1987 0158 06       		.uleb128 0x6
 1988 0159 00       		.byte	0
 1989 015a 00       		.byte	0
 1990 015b 1A       		.uleb128 0x1a
 1991 015c 34       		.uleb128 0x34
 1992 015d 00       		.byte	0
 1993 015e 31       		.uleb128 0x31
 1994 015f 13       		.uleb128 0x13
 1995 0160 02       		.uleb128 0x2
ARM GAS  C:\Users\NICOMA~1\AppData\Local\Temp\ccMMVzOB.s 			page 36


 1996 0161 06       		.uleb128 0x6
 1997 0162 00       		.byte	0
 1998 0163 00       		.byte	0
 1999 0164 1B       		.uleb128 0x1b
 2000 0165 898201   		.uleb128 0x4109
 2001 0168 01       		.byte	0x1
 2002 0169 11       		.uleb128 0x11
 2003 016a 01       		.uleb128 0x1
 2004 016b 31       		.uleb128 0x31
 2005 016c 13       		.uleb128 0x13
 2006 016d 00       		.byte	0
 2007 016e 00       		.byte	0
 2008 016f 1C       		.uleb128 0x1c
 2009 0170 8A8201   		.uleb128 0x410a
 2010 0173 00       		.byte	0
 2011 0174 02       		.uleb128 0x2
 2012 0175 0A       		.uleb128 0xa
 2013 0176 9142     		.uleb128 0x2111
 2014 0178 0A       		.uleb128 0xa
 2015 0179 00       		.byte	0
 2016 017a 00       		.byte	0
 2017 017b 1D       		.uleb128 0x1d
 2018 017c 1D       		.uleb128 0x1d
 2019 017d 01       		.byte	0x1
 2020 017e 31       		.uleb128 0x31
 2021 017f 13       		.uleb128 0x13
 2022 0180 11       		.uleb128 0x11
 2023 0181 01       		.uleb128 0x1
 2024 0182 12       		.uleb128 0x12
 2025 0183 01       		.uleb128 0x1
 2026 0184 58       		.uleb128 0x58
 2027 0185 0B       		.uleb128 0xb
 2028 0186 59       		.uleb128 0x59
 2029 0187 0B       		.uleb128 0xb
 2030 0188 01       		.uleb128 0x1
 2031 0189 13       		.uleb128 0x13
 2032 018a 00       		.byte	0
 2033 018b 00       		.byte	0
 2034 018c 1E       		.uleb128 0x1e
 2035 018d 0B       		.uleb128 0xb
 2036 018e 01       		.byte	0x1
 2037 018f 11       		.uleb128 0x11
 2038 0190 01       		.uleb128 0x1
 2039 0191 12       		.uleb128 0x12
 2040 0192 01       		.uleb128 0x1
 2041 0193 00       		.byte	0
 2042 0194 00       		.byte	0
 2043 0195 1F       		.uleb128 0x1f
 2044 0196 898201   		.uleb128 0x4109
 2045 0199 00       		.byte	0
 2046 019a 11       		.uleb128 0x11
 2047 019b 01       		.uleb128 0x1
 2048 019c 31       		.uleb128 0x31
 2049 019d 13       		.uleb128 0x13
 2050 019e 00       		.byte	0
 2051 019f 00       		.byte	0
 2052 01a0 20       		.uleb128 0x20
ARM GAS  C:\Users\NICOMA~1\AppData\Local\Temp\ccMMVzOB.s 			page 37


 2053 01a1 05       		.uleb128 0x5
 2054 01a2 00       		.byte	0
 2055 01a3 31       		.uleb128 0x31
 2056 01a4 13       		.uleb128 0x13
 2057 01a5 02       		.uleb128 0x2
 2058 01a6 0A       		.uleb128 0xa
 2059 01a7 00       		.byte	0
 2060 01a8 00       		.byte	0
 2061 01a9 21       		.uleb128 0x21
 2062 01aa 898201   		.uleb128 0x4109
 2063 01ad 01       		.byte	0x1
 2064 01ae 11       		.uleb128 0x11
 2065 01af 01       		.uleb128 0x1
 2066 01b0 31       		.uleb128 0x31
 2067 01b1 13       		.uleb128 0x13
 2068 01b2 01       		.uleb128 0x1
 2069 01b3 13       		.uleb128 0x13
 2070 01b4 00       		.byte	0
 2071 01b5 00       		.byte	0
 2072 01b6 22       		.uleb128 0x22
 2073 01b7 2E       		.uleb128 0x2e
 2074 01b8 01       		.byte	0x1
 2075 01b9 3F       		.uleb128 0x3f
 2076 01ba 0C       		.uleb128 0xc
 2077 01bb 03       		.uleb128 0x3
 2078 01bc 0E       		.uleb128 0xe
 2079 01bd 3A       		.uleb128 0x3a
 2080 01be 0B       		.uleb128 0xb
 2081 01bf 3B       		.uleb128 0x3b
 2082 01c0 0B       		.uleb128 0xb
 2083 01c1 27       		.uleb128 0x27
 2084 01c2 0C       		.uleb128 0xc
 2085 01c3 49       		.uleb128 0x49
 2086 01c4 13       		.uleb128 0x13
 2087 01c5 11       		.uleb128 0x11
 2088 01c6 01       		.uleb128 0x1
 2089 01c7 12       		.uleb128 0x12
 2090 01c8 01       		.uleb128 0x1
 2091 01c9 40       		.uleb128 0x40
 2092 01ca 06       		.uleb128 0x6
 2093 01cb 9742     		.uleb128 0x2117
 2094 01cd 0C       		.uleb128 0xc
 2095 01ce 01       		.uleb128 0x1
 2096 01cf 13       		.uleb128 0x13
 2097 01d0 00       		.byte	0
 2098 01d1 00       		.byte	0
 2099 01d2 23       		.uleb128 0x23
 2100 01d3 34       		.uleb128 0x34
 2101 01d4 00       		.byte	0
 2102 01d5 03       		.uleb128 0x3
 2103 01d6 08       		.uleb128 0x8
 2104 01d7 3A       		.uleb128 0x3a
 2105 01d8 0B       		.uleb128 0xb
 2106 01d9 3B       		.uleb128 0x3b
 2107 01da 0B       		.uleb128 0xb
 2108 01db 49       		.uleb128 0x49
 2109 01dc 13       		.uleb128 0x13
ARM GAS  C:\Users\NICOMA~1\AppData\Local\Temp\ccMMVzOB.s 			page 38


 2110 01dd 02       		.uleb128 0x2
 2111 01de 06       		.uleb128 0x6
 2112 01df 00       		.byte	0
 2113 01e0 00       		.byte	0
 2114 01e1 24       		.uleb128 0x24
 2115 01e2 34       		.uleb128 0x34
 2116 01e3 00       		.byte	0
 2117 01e4 03       		.uleb128 0x3
 2118 01e5 08       		.uleb128 0x8
 2119 01e6 3A       		.uleb128 0x3a
 2120 01e7 0B       		.uleb128 0xb
 2121 01e8 3B       		.uleb128 0x3b
 2122 01e9 0B       		.uleb128 0xb
 2123 01ea 49       		.uleb128 0x49
 2124 01eb 13       		.uleb128 0x13
 2125 01ec 02       		.uleb128 0x2
 2126 01ed 0A       		.uleb128 0xa
 2127 01ee 00       		.byte	0
 2128 01ef 00       		.byte	0
 2129 01f0 25       		.uleb128 0x25
 2130 01f1 2E       		.uleb128 0x2e
 2131 01f2 01       		.byte	0x1
 2132 01f3 3F       		.uleb128 0x3f
 2133 01f4 0C       		.uleb128 0xc
 2134 01f5 03       		.uleb128 0x3
 2135 01f6 0E       		.uleb128 0xe
 2136 01f7 3A       		.uleb128 0x3a
 2137 01f8 0B       		.uleb128 0xb
 2138 01f9 3B       		.uleb128 0x3b
 2139 01fa 05       		.uleb128 0x5
 2140 01fb 27       		.uleb128 0x27
 2141 01fc 0C       		.uleb128 0xc
 2142 01fd 49       		.uleb128 0x49
 2143 01fe 13       		.uleb128 0x13
 2144 01ff 11       		.uleb128 0x11
 2145 0200 01       		.uleb128 0x1
 2146 0201 12       		.uleb128 0x12
 2147 0202 01       		.uleb128 0x1
 2148 0203 40       		.uleb128 0x40
 2149 0204 06       		.uleb128 0x6
 2150 0205 9742     		.uleb128 0x2117
 2151 0207 0C       		.uleb128 0xc
 2152 0208 01       		.uleb128 0x1
 2153 0209 13       		.uleb128 0x13
 2154 020a 00       		.byte	0
 2155 020b 00       		.byte	0
 2156 020c 26       		.uleb128 0x26
 2157 020d 05       		.uleb128 0x5
 2158 020e 00       		.byte	0
 2159 020f 03       		.uleb128 0x3
 2160 0210 08       		.uleb128 0x8
 2161 0211 3A       		.uleb128 0x3a
 2162 0212 0B       		.uleb128 0xb
 2163 0213 3B       		.uleb128 0x3b
 2164 0214 05       		.uleb128 0x5
 2165 0215 49       		.uleb128 0x49
 2166 0216 13       		.uleb128 0x13
ARM GAS  C:\Users\NICOMA~1\AppData\Local\Temp\ccMMVzOB.s 			page 39


 2167 0217 02       		.uleb128 0x2
 2168 0218 06       		.uleb128 0x6
 2169 0219 00       		.byte	0
 2170 021a 00       		.byte	0
 2171 021b 27       		.uleb128 0x27
 2172 021c 05       		.uleb128 0x5
 2173 021d 00       		.byte	0
 2174 021e 03       		.uleb128 0x3
 2175 021f 0E       		.uleb128 0xe
 2176 0220 3A       		.uleb128 0x3a
 2177 0221 0B       		.uleb128 0xb
 2178 0222 3B       		.uleb128 0x3b
 2179 0223 05       		.uleb128 0x5
 2180 0224 49       		.uleb128 0x49
 2181 0225 13       		.uleb128 0x13
 2182 0226 02       		.uleb128 0x2
 2183 0227 06       		.uleb128 0x6
 2184 0228 00       		.byte	0
 2185 0229 00       		.byte	0
 2186 022a 28       		.uleb128 0x28
 2187 022b 34       		.uleb128 0x34
 2188 022c 00       		.byte	0
 2189 022d 03       		.uleb128 0x3
 2190 022e 08       		.uleb128 0x8
 2191 022f 3A       		.uleb128 0x3a
 2192 0230 0B       		.uleb128 0xb
 2193 0231 3B       		.uleb128 0x3b
 2194 0232 05       		.uleb128 0x5
 2195 0233 49       		.uleb128 0x49
 2196 0234 13       		.uleb128 0x13
 2197 0235 02       		.uleb128 0x2
 2198 0236 06       		.uleb128 0x6
 2199 0237 00       		.byte	0
 2200 0238 00       		.byte	0
 2201 0239 29       		.uleb128 0x29
 2202 023a 1D       		.uleb128 0x1d
 2203 023b 01       		.byte	0x1
 2204 023c 31       		.uleb128 0x31
 2205 023d 13       		.uleb128 0x13
 2206 023e 52       		.uleb128 0x52
 2207 023f 01       		.uleb128 0x1
 2208 0240 55       		.uleb128 0x55
 2209 0241 06       		.uleb128 0x6
 2210 0242 58       		.uleb128 0x58
 2211 0243 0B       		.uleb128 0xb
 2212 0244 59       		.uleb128 0x59
 2213 0245 05       		.uleb128 0x5
 2214 0246 01       		.uleb128 0x1
 2215 0247 13       		.uleb128 0x13
 2216 0248 00       		.byte	0
 2217 0249 00       		.byte	0
 2218 024a 2A       		.uleb128 0x2a
 2219 024b 05       		.uleb128 0x5
 2220 024c 00       		.byte	0
 2221 024d 03       		.uleb128 0x3
 2222 024e 0E       		.uleb128 0xe
 2223 024f 3A       		.uleb128 0x3a
ARM GAS  C:\Users\NICOMA~1\AppData\Local\Temp\ccMMVzOB.s 			page 40


 2224 0250 0B       		.uleb128 0xb
 2225 0251 3B       		.uleb128 0x3b
 2226 0252 0B       		.uleb128 0xb
 2227 0253 49       		.uleb128 0x49
 2228 0254 13       		.uleb128 0x13
 2229 0255 02       		.uleb128 0x2
 2230 0256 06       		.uleb128 0x6
 2231 0257 00       		.byte	0
 2232 0258 00       		.byte	0
 2233 0259 2B       		.uleb128 0x2b
 2234 025a 34       		.uleb128 0x34
 2235 025b 00       		.byte	0
 2236 025c 03       		.uleb128 0x3
 2237 025d 0E       		.uleb128 0xe
 2238 025e 3A       		.uleb128 0x3a
 2239 025f 0B       		.uleb128 0xb
 2240 0260 3B       		.uleb128 0x3b
 2241 0261 0B       		.uleb128 0xb
 2242 0262 49       		.uleb128 0x49
 2243 0263 13       		.uleb128 0x13
 2244 0264 3F       		.uleb128 0x3f
 2245 0265 0C       		.uleb128 0xc
 2246 0266 3C       		.uleb128 0x3c
 2247 0267 0C       		.uleb128 0xc
 2248 0268 00       		.byte	0
 2249 0269 00       		.byte	0
 2250 026a 2C       		.uleb128 0x2c
 2251 026b 2E       		.uleb128 0x2e
 2252 026c 01       		.byte	0x1
 2253 026d 3F       		.uleb128 0x3f
 2254 026e 0C       		.uleb128 0xc
 2255 026f 03       		.uleb128 0x3
 2256 0270 0E       		.uleb128 0xe
 2257 0271 3A       		.uleb128 0x3a
 2258 0272 0B       		.uleb128 0xb
 2259 0273 3B       		.uleb128 0x3b
 2260 0274 0B       		.uleb128 0xb
 2261 0275 27       		.uleb128 0x27
 2262 0276 0C       		.uleb128 0xc
 2263 0277 3C       		.uleb128 0x3c
 2264 0278 0C       		.uleb128 0xc
 2265 0279 01       		.uleb128 0x1
 2266 027a 13       		.uleb128 0x13
 2267 027b 00       		.byte	0
 2268 027c 00       		.byte	0
 2269 027d 2D       		.uleb128 0x2d
 2270 027e 05       		.uleb128 0x5
 2271 027f 00       		.byte	0
 2272 0280 49       		.uleb128 0x49
 2273 0281 13       		.uleb128 0x13
 2274 0282 00       		.byte	0
 2275 0283 00       		.byte	0
 2276 0284 2E       		.uleb128 0x2e
 2277 0285 2E       		.uleb128 0x2e
 2278 0286 01       		.byte	0x1
 2279 0287 3F       		.uleb128 0x3f
 2280 0288 0C       		.uleb128 0xc
ARM GAS  C:\Users\NICOMA~1\AppData\Local\Temp\ccMMVzOB.s 			page 41


 2281 0289 03       		.uleb128 0x3
 2282 028a 0E       		.uleb128 0xe
 2283 028b 3A       		.uleb128 0x3a
 2284 028c 0B       		.uleb128 0xb
 2285 028d 3B       		.uleb128 0x3b
 2286 028e 0B       		.uleb128 0xb
 2287 028f 27       		.uleb128 0x27
 2288 0290 0C       		.uleb128 0xc
 2289 0291 49       		.uleb128 0x49
 2290 0292 13       		.uleb128 0x13
 2291 0293 3C       		.uleb128 0x3c
 2292 0294 0C       		.uleb128 0xc
 2293 0295 01       		.uleb128 0x1
 2294 0296 13       		.uleb128 0x13
 2295 0297 00       		.byte	0
 2296 0298 00       		.byte	0
 2297 0299 2F       		.uleb128 0x2f
 2298 029a 2E       		.uleb128 0x2e
 2299 029b 00       		.byte	0
 2300 029c 3F       		.uleb128 0x3f
 2301 029d 0C       		.uleb128 0xc
 2302 029e 03       		.uleb128 0x3
 2303 029f 0E       		.uleb128 0xe
 2304 02a0 3A       		.uleb128 0x3a
 2305 02a1 0B       		.uleb128 0xb
 2306 02a2 3B       		.uleb128 0x3b
 2307 02a3 0B       		.uleb128 0xb
 2308 02a4 27       		.uleb128 0x27
 2309 02a5 0C       		.uleb128 0xc
 2310 02a6 3C       		.uleb128 0x3c
 2311 02a7 0C       		.uleb128 0xc
 2312 02a8 00       		.byte	0
 2313 02a9 00       		.byte	0
 2314 02aa 30       		.uleb128 0x30
 2315 02ab 2E       		.uleb128 0x2e
 2316 02ac 00       		.byte	0
 2317 02ad 3F       		.uleb128 0x3f
 2318 02ae 0C       		.uleb128 0xc
 2319 02af 03       		.uleb128 0x3
 2320 02b0 0E       		.uleb128 0xe
 2321 02b1 3A       		.uleb128 0x3a
 2322 02b2 0B       		.uleb128 0xb
 2323 02b3 3B       		.uleb128 0x3b
 2324 02b4 0B       		.uleb128 0xb
 2325 02b5 27       		.uleb128 0x27
 2326 02b6 0C       		.uleb128 0xc
 2327 02b7 49       		.uleb128 0x49
 2328 02b8 13       		.uleb128 0x13
 2329 02b9 3C       		.uleb128 0x3c
 2330 02ba 0C       		.uleb128 0xc
 2331 02bb 00       		.byte	0
 2332 02bc 00       		.byte	0
 2333 02bd 31       		.uleb128 0x31
 2334 02be 2E       		.uleb128 0x2e
 2335 02bf 01       		.byte	0x1
 2336 02c0 3F       		.uleb128 0x3f
 2337 02c1 0C       		.uleb128 0xc
ARM GAS  C:\Users\NICOMA~1\AppData\Local\Temp\ccMMVzOB.s 			page 42


 2338 02c2 03       		.uleb128 0x3
 2339 02c3 0E       		.uleb128 0xe
 2340 02c4 3A       		.uleb128 0x3a
 2341 02c5 0B       		.uleb128 0xb
 2342 02c6 3B       		.uleb128 0x3b
 2343 02c7 0B       		.uleb128 0xb
 2344 02c8 27       		.uleb128 0x27
 2345 02c9 0C       		.uleb128 0xc
 2346 02ca 49       		.uleb128 0x49
 2347 02cb 13       		.uleb128 0x13
 2348 02cc 3C       		.uleb128 0x3c
 2349 02cd 0C       		.uleb128 0xc
 2350 02ce 00       		.byte	0
 2351 02cf 00       		.byte	0
 2352 02d0 00       		.byte	0
 2353              		.section	.debug_loc,"",%progbits
 2354              	.Ldebug_loc0:
 2355              	.LLST0:
 2356 0000 00000000 		.4byte	.LFB8
 2357 0004 04000000 		.4byte	.LCFI0
 2358 0008 0200     		.2byte	0x2
 2359 000a 7D       		.byte	0x7d
 2360 000b 00       		.sleb128 0
 2361 000c 04000000 		.4byte	.LCFI0
 2362 0010 34000000 		.4byte	.LFE8
 2363 0014 0200     		.2byte	0x2
 2364 0016 7D       		.byte	0x7d
 2365 0017 08       		.sleb128 8
 2366 0018 00000000 		.4byte	0
 2367 001c 00000000 		.4byte	0
 2368              	.LLST1:
 2369 0020 00000000 		.4byte	.LVL1
 2370 0024 10000000 		.4byte	.LVL2
 2371 0028 0100     		.2byte	0x1
 2372 002a 50       		.byte	0x50
 2373 002b 10000000 		.4byte	.LVL2
 2374 002f 2B000000 		.4byte	.LVL4-1
 2375 0033 0100     		.2byte	0x1
 2376 0035 53       		.byte	0x53
 2377 0036 2B000000 		.4byte	.LVL4-1
 2378 003a 34000000 		.4byte	.LFE8
 2379 003e 0400     		.2byte	0x4
 2380 0040 F3       		.byte	0xf3
 2381 0041 01       		.uleb128 0x1
 2382 0042 50       		.byte	0x50
 2383 0043 9F       		.byte	0x9f
 2384 0044 00000000 		.4byte	0
 2385 0048 00000000 		.4byte	0
 2386              	.LLST2:
 2387 004c 18000000 		.4byte	.LVL3
 2388 0050 2B000000 		.4byte	.LVL4-1
 2389 0054 0100     		.2byte	0x1
 2390 0056 53       		.byte	0x53
 2391 0057 2B000000 		.4byte	.LVL4-1
 2392 005b 2C000000 		.4byte	.LVL4
 2393 005f 0400     		.2byte	0x4
 2394 0061 F3       		.byte	0xf3
ARM GAS  C:\Users\NICOMA~1\AppData\Local\Temp\ccMMVzOB.s 			page 43


 2395 0062 01       		.uleb128 0x1
 2396 0063 50       		.byte	0x50
 2397 0064 9F       		.byte	0x9f
 2398 0065 00000000 		.4byte	0
 2399 0069 00000000 		.4byte	0
 2400              	.LLST3:
 2401 006d 18000000 		.4byte	.LVL3
 2402 0071 2B000000 		.4byte	.LVL4-1
 2403 0075 0100     		.2byte	0x1
 2404 0077 50       		.byte	0x50
 2405 0078 00000000 		.4byte	0
 2406 007c 00000000 		.4byte	0
 2407              	.LLST4:
 2408 0080 00000000 		.4byte	.LFB9
 2409 0084 04000000 		.4byte	.LCFI1
 2410 0088 0200     		.2byte	0x2
 2411 008a 7D       		.byte	0x7d
 2412 008b 00       		.sleb128 0
 2413 008c 04000000 		.4byte	.LCFI1
 2414 0090 30000000 		.4byte	.LFE9
 2415 0094 0200     		.2byte	0x2
 2416 0096 7D       		.byte	0x7d
 2417 0097 08       		.sleb128 8
 2418 0098 00000000 		.4byte	0
 2419 009c 00000000 		.4byte	0
 2420              	.LLST5:
 2421 00a0 00000000 		.4byte	.LVL5
 2422 00a4 0C000000 		.4byte	.LVL6
 2423 00a8 0100     		.2byte	0x1
 2424 00aa 50       		.byte	0x50
 2425 00ab 0C000000 		.4byte	.LVL6
 2426 00af 23000000 		.4byte	.LVL8-1
 2427 00b3 0100     		.2byte	0x1
 2428 00b5 53       		.byte	0x53
 2429 00b6 23000000 		.4byte	.LVL8-1
 2430 00ba 30000000 		.4byte	.LFE9
 2431 00be 0400     		.2byte	0x4
 2432 00c0 F3       		.byte	0xf3
 2433 00c1 01       		.uleb128 0x1
 2434 00c2 50       		.byte	0x50
 2435 00c3 9F       		.byte	0x9f
 2436 00c4 00000000 		.4byte	0
 2437 00c8 00000000 		.4byte	0
 2438              	.LLST6:
 2439 00cc 14000000 		.4byte	.LVL7
 2440 00d0 23000000 		.4byte	.LVL8-1
 2441 00d4 0100     		.2byte	0x1
 2442 00d6 53       		.byte	0x53
 2443 00d7 23000000 		.4byte	.LVL8-1
 2444 00db 30000000 		.4byte	.LFE9
 2445 00df 0400     		.2byte	0x4
 2446 00e1 F3       		.byte	0xf3
 2447 00e2 01       		.uleb128 0x1
 2448 00e3 50       		.byte	0x50
 2449 00e4 9F       		.byte	0x9f
 2450 00e5 00000000 		.4byte	0
 2451 00e9 00000000 		.4byte	0
ARM GAS  C:\Users\NICOMA~1\AppData\Local\Temp\ccMMVzOB.s 			page 44


 2452              	.LLST7:
 2453 00ed 14000000 		.4byte	.LVL7
 2454 00f1 23000000 		.4byte	.LVL8-1
 2455 00f5 0100     		.2byte	0x1
 2456 00f7 50       		.byte	0x50
 2457 00f8 00000000 		.4byte	0
 2458 00fc 00000000 		.4byte	0
 2459              	.LLST8:
 2460 0100 00000000 		.4byte	.LFB11
 2461 0104 04000000 		.4byte	.LCFI2
 2462 0108 0200     		.2byte	0x2
 2463 010a 7D       		.byte	0x7d
 2464 010b 00       		.sleb128 0
 2465 010c 04000000 		.4byte	.LCFI2
 2466 0110 3C000000 		.4byte	.LFE11
 2467 0114 0200     		.2byte	0x2
 2468 0116 7D       		.byte	0x7d
 2469 0117 10       		.sleb128 16
 2470 0118 00000000 		.4byte	0
 2471 011c 00000000 		.4byte	0
 2472              	.LLST9:
 2473 0120 00000000 		.4byte	.LVL9
 2474 0124 0C000000 		.4byte	.LVL10
 2475 0128 0100     		.2byte	0x1
 2476 012a 50       		.byte	0x50
 2477 012b 0C000000 		.4byte	.LVL10
 2478 012f 3C000000 		.4byte	.LFE11
 2479 0133 0100     		.2byte	0x1
 2480 0135 54       		.byte	0x54
 2481 0136 00000000 		.4byte	0
 2482 013a 00000000 		.4byte	0
 2483              	.LLST10:
 2484 013e 18000000 		.4byte	.LVL11
 2485 0142 27000000 		.4byte	.LVL12-1
 2486 0146 0100     		.2byte	0x1
 2487 0148 50       		.byte	0x50
 2488 0149 00000000 		.4byte	0
 2489 014d 00000000 		.4byte	0
 2490              	.LLST11:
 2491 0151 00000000 		.4byte	.LFB10
 2492 0155 04000000 		.4byte	.LCFI3
 2493 0159 0200     		.2byte	0x2
 2494 015b 7D       		.byte	0x7d
 2495 015c 00       		.sleb128 0
 2496 015d 04000000 		.4byte	.LCFI3
 2497 0161 18000000 		.4byte	.LFE10
 2498 0165 0200     		.2byte	0x2
 2499 0167 7D       		.byte	0x7d
 2500 0168 08       		.sleb128 8
 2501 0169 00000000 		.4byte	0
 2502 016d 00000000 		.4byte	0
 2503              	.LLST12:
 2504 0171 00000000 		.4byte	.LVL13
 2505 0175 0B000000 		.4byte	.LVL14-1
 2506 0179 0100     		.2byte	0x1
 2507 017b 50       		.byte	0x50
 2508 017c 0B000000 		.4byte	.LVL14-1
ARM GAS  C:\Users\NICOMA~1\AppData\Local\Temp\ccMMVzOB.s 			page 45


 2509 0180 18000000 		.4byte	.LFE10
 2510 0184 0400     		.2byte	0x4
 2511 0186 F3       		.byte	0xf3
 2512 0187 01       		.uleb128 0x1
 2513 0188 50       		.byte	0x50
 2514 0189 9F       		.byte	0x9f
 2515 018a 00000000 		.4byte	0
 2516 018e 00000000 		.4byte	0
 2517              	.LLST13:
 2518 0192 00000000 		.4byte	.LFB13
 2519 0196 08000000 		.4byte	.LCFI4
 2520 019a 0200     		.2byte	0x2
 2521 019c 7D       		.byte	0x7d
 2522 019d 00       		.sleb128 0
 2523 019e 08000000 		.4byte	.LCFI4
 2524 01a2 80000000 		.4byte	.LFE13
 2525 01a6 0200     		.2byte	0x2
 2526 01a8 7D       		.byte	0x7d
 2527 01a9 10       		.sleb128 16
 2528 01aa 00000000 		.4byte	0
 2529 01ae 00000000 		.4byte	0
 2530              	.LLST14:
 2531 01b2 00000000 		.4byte	.LVL16
 2532 01b6 13000000 		.4byte	.LVL18-1
 2533 01ba 0100     		.2byte	0x1
 2534 01bc 50       		.byte	0x50
 2535 01bd 13000000 		.4byte	.LVL18-1
 2536 01c1 80000000 		.4byte	.LFE13
 2537 01c5 0100     		.2byte	0x1
 2538 01c7 55       		.byte	0x55
 2539 01c8 00000000 		.4byte	0
 2540 01cc 00000000 		.4byte	0
 2541              	.LLST15:
 2542 01d0 10000000 		.4byte	.LVL17
 2543 01d4 64000000 		.4byte	.LVL26
 2544 01d8 0100     		.2byte	0x1
 2545 01da 54       		.byte	0x54
 2546 01db 74000000 		.4byte	.LVL28
 2547 01df 80000000 		.4byte	.LFE13
 2548 01e3 0100     		.2byte	0x1
 2549 01e5 54       		.byte	0x54
 2550 01e6 00000000 		.4byte	0
 2551 01ea 00000000 		.4byte	0
 2552              	.LLST16:
 2553 01ee 1C000000 		.4byte	.LVL19
 2554 01f2 5C000000 		.4byte	.LVL24
 2555 01f6 0100     		.2byte	0x1
 2556 01f8 50       		.byte	0x50
 2557 01f9 5C000000 		.4byte	.LVL24
 2558 01fd 74000000 		.4byte	.LVL28
 2559 0201 0100     		.2byte	0x1
 2560 0203 56       		.byte	0x56
 2561 0204 74000000 		.4byte	.LVL28
 2562 0208 80000000 		.4byte	.LFE13
 2563 020c 0100     		.2byte	0x1
 2564 020e 50       		.byte	0x50
 2565 020f 00000000 		.4byte	0
ARM GAS  C:\Users\NICOMA~1\AppData\Local\Temp\ccMMVzOB.s 			page 46


 2566 0213 00000000 		.4byte	0
 2567              	.LLST17:
 2568 0217 64000000 		.4byte	.LVL26
 2569 021b 74000000 		.4byte	.LVL28
 2570 021f 0100     		.2byte	0x1
 2571 0221 54       		.byte	0x54
 2572 0222 00000000 		.4byte	0
 2573 0226 00000000 		.4byte	0
 2574              	.LLST18:
 2575 022a 20000000 		.4byte	.LVL20
 2576 022e 64000000 		.4byte	.LVL26
 2577 0232 0100     		.2byte	0x1
 2578 0234 54       		.byte	0x54
 2579 0235 74000000 		.4byte	.LVL28
 2580 0239 80000000 		.4byte	.LFE13
 2581 023d 0100     		.2byte	0x1
 2582 023f 54       		.byte	0x54
 2583 0240 00000000 		.4byte	0
 2584 0244 00000000 		.4byte	0
 2585              	.LLST19:
 2586 0248 20000000 		.4byte	.LVL20
 2587 024c 28000000 		.4byte	.LVL21
 2588 0250 0100     		.2byte	0x1
 2589 0252 55       		.byte	0x55
 2590 0253 28000000 		.4byte	.LVL21
 2591 0257 48000000 		.4byte	.LVL23
 2592 025b 0100     		.2byte	0x1
 2593 025d 53       		.byte	0x53
 2594 025e 74000000 		.4byte	.LVL28
 2595 0262 80000000 		.4byte	.LFE13
 2596 0266 0100     		.2byte	0x1
 2597 0268 53       		.byte	0x53
 2598 0269 00000000 		.4byte	0
 2599 026d 00000000 		.4byte	0
 2600              	.LLST20:
 2601 0271 00000000 		.4byte	.LFB12
 2602 0275 04000000 		.4byte	.LCFI5
 2603 0279 0200     		.2byte	0x2
 2604 027b 7D       		.byte	0x7d
 2605 027c 00       		.sleb128 0
 2606 027d 04000000 		.4byte	.LCFI5
 2607 0281 14000000 		.4byte	.LFE12
 2608 0285 0200     		.2byte	0x2
 2609 0287 7D       		.byte	0x7d
 2610 0288 08       		.sleb128 8
 2611 0289 00000000 		.4byte	0
 2612 028d 00000000 		.4byte	0
 2613              	.LLST21:
 2614 0291 00000000 		.4byte	.LVL29
 2615 0295 0B000000 		.4byte	.LVL30-1
 2616 0299 0100     		.2byte	0x1
 2617 029b 50       		.byte	0x50
 2618 029c 0B000000 		.4byte	.LVL30-1
 2619 02a0 14000000 		.4byte	.LFE12
 2620 02a4 0400     		.2byte	0x4
 2621 02a6 F3       		.byte	0xf3
 2622 02a7 01       		.uleb128 0x1
ARM GAS  C:\Users\NICOMA~1\AppData\Local\Temp\ccMMVzOB.s 			page 47


 2623 02a8 50       		.byte	0x50
 2624 02a9 9F       		.byte	0x9f
 2625 02aa 00000000 		.4byte	0
 2626 02ae 00000000 		.4byte	0
 2627              	.LLST22:
 2628 02b2 00000000 		.4byte	.LFB15
 2629 02b6 04000000 		.4byte	.LCFI6
 2630 02ba 0200     		.2byte	0x2
 2631 02bc 7D       		.byte	0x7d
 2632 02bd 00       		.sleb128 0
 2633 02be 04000000 		.4byte	.LCFI6
 2634 02c2 7C000000 		.4byte	.LFE15
 2635 02c6 0200     		.2byte	0x2
 2636 02c8 7D       		.byte	0x7d
 2637 02c9 10       		.sleb128 16
 2638 02ca 00000000 		.4byte	0
 2639 02ce 00000000 		.4byte	0
 2640              	.LLST23:
 2641 02d2 00000000 		.4byte	.LVL31
 2642 02d6 0F000000 		.4byte	.LVL32-1
 2643 02da 0100     		.2byte	0x1
 2644 02dc 50       		.byte	0x50
 2645 02dd 0F000000 		.4byte	.LVL32-1
 2646 02e1 64000000 		.4byte	.LVL38
 2647 02e5 0100     		.2byte	0x1
 2648 02e7 54       		.byte	0x54
 2649 02e8 64000000 		.4byte	.LVL38
 2650 02ec 7C000000 		.4byte	.LFE15
 2651 02f0 0400     		.2byte	0x4
 2652 02f2 F3       		.byte	0xf3
 2653 02f3 01       		.uleb128 0x1
 2654 02f4 50       		.byte	0x50
 2655 02f5 9F       		.byte	0x9f
 2656 02f6 00000000 		.4byte	0
 2657 02fa 00000000 		.4byte	0
 2658              	.LLST24:
 2659 02fe 00000000 		.4byte	.LVL31
 2660 0302 0F000000 		.4byte	.LVL32-1
 2661 0306 0100     		.2byte	0x1
 2662 0308 51       		.byte	0x51
 2663 0309 0F000000 		.4byte	.LVL32-1
 2664 030d 7C000000 		.4byte	.LFE15
 2665 0311 0100     		.2byte	0x1
 2666 0313 56       		.byte	0x56
 2667 0314 00000000 		.4byte	0
 2668 0318 00000000 		.4byte	0
 2669              	.LLST25:
 2670 031c 18000000 		.4byte	.LVL33
 2671 0320 48000000 		.4byte	.LVL36
 2672 0324 0100     		.2byte	0x1
 2673 0326 50       		.byte	0x50
 2674 0327 48000000 		.4byte	.LVL36
 2675 032b 7C000000 		.4byte	.LFE15
 2676 032f 0100     		.2byte	0x1
 2677 0331 55       		.byte	0x55
 2678 0332 00000000 		.4byte	0
 2679 0336 00000000 		.4byte	0
ARM GAS  C:\Users\NICOMA~1\AppData\Local\Temp\ccMMVzOB.s 			page 48


 2680              	.LLST26:
 2681 033a 64000000 		.4byte	.LVL38
 2682 033e 6C000000 		.4byte	.LVL39
 2683 0342 0100     		.2byte	0x1
 2684 0344 50       		.byte	0x50
 2685 0345 6C000000 		.4byte	.LVL39
 2686 0349 7C000000 		.4byte	.LFE15
 2687 034d 0100     		.2byte	0x1
 2688 034f 54       		.byte	0x54
 2689 0350 00000000 		.4byte	0
 2690 0354 00000000 		.4byte	0
 2691              	.LLST27:
 2692 0358 24000000 		.4byte	.LVL34
 2693 035c 64000000 		.4byte	.LVL38
 2694 0360 0100     		.2byte	0x1
 2695 0362 54       		.byte	0x54
 2696 0363 64000000 		.4byte	.LVL38
 2697 0367 7C000000 		.4byte	.LFE15
 2698 036b 0400     		.2byte	0x4
 2699 036d F3       		.byte	0xf3
 2700 036e 01       		.uleb128 0x1
 2701 036f 50       		.byte	0x50
 2702 0370 9F       		.byte	0x9f
 2703 0371 00000000 		.4byte	0
 2704 0375 00000000 		.4byte	0
 2705              	.LLST28:
 2706 0379 24000000 		.4byte	.LVL34
 2707 037d 5B000000 		.4byte	.LVL37-1
 2708 0381 0100     		.2byte	0x1
 2709 0383 52       		.byte	0x52
 2710 0384 00000000 		.4byte	0
 2711 0388 00000000 		.4byte	0
 2712              	.LLST29:
 2713 038c 24000000 		.4byte	.LVL34
 2714 0390 5B000000 		.4byte	.LVL37-1
 2715 0394 0100     		.2byte	0x1
 2716 0396 53       		.byte	0x53
 2717 0397 00000000 		.4byte	0
 2718 039b 00000000 		.4byte	0
 2719              	.LLST30:
 2720 039f 00000000 		.4byte	.LFB14
 2721 03a3 04000000 		.4byte	.LCFI7
 2722 03a7 0200     		.2byte	0x2
 2723 03a9 7D       		.byte	0x7d
 2724 03aa 00       		.sleb128 0
 2725 03ab 04000000 		.4byte	.LCFI7
 2726 03af 14000000 		.4byte	.LFE14
 2727 03b3 0200     		.2byte	0x2
 2728 03b5 7D       		.byte	0x7d
 2729 03b6 08       		.sleb128 8
 2730 03b7 00000000 		.4byte	0
 2731 03bb 00000000 		.4byte	0
 2732              	.LLST31:
 2733 03bf 00000000 		.4byte	.LVL41
 2734 03c3 0B000000 		.4byte	.LVL42-1
 2735 03c7 0100     		.2byte	0x1
 2736 03c9 50       		.byte	0x50
ARM GAS  C:\Users\NICOMA~1\AppData\Local\Temp\ccMMVzOB.s 			page 49


 2737 03ca 0B000000 		.4byte	.LVL42-1
 2738 03ce 14000000 		.4byte	.LFE14
 2739 03d2 0400     		.2byte	0x4
 2740 03d4 F3       		.byte	0xf3
 2741 03d5 01       		.uleb128 0x1
 2742 03d6 50       		.byte	0x50
 2743 03d7 9F       		.byte	0x9f
 2744 03d8 00000000 		.4byte	0
 2745 03dc 00000000 		.4byte	0
 2746              	.LLST32:
 2747 03e0 00000000 		.4byte	.LVL41
 2748 03e4 0B000000 		.4byte	.LVL42-1
 2749 03e8 0100     		.2byte	0x1
 2750 03ea 51       		.byte	0x51
 2751 03eb 0B000000 		.4byte	.LVL42-1
 2752 03ef 14000000 		.4byte	.LFE14
 2753 03f3 0400     		.2byte	0x4
 2754 03f5 F3       		.byte	0xf3
 2755 03f6 01       		.uleb128 0x1
 2756 03f7 51       		.byte	0x51
 2757 03f8 9F       		.byte	0x9f
 2758 03f9 00000000 		.4byte	0
 2759 03fd 00000000 		.4byte	0
 2760              		.section	.debug_aranges,"",%progbits
 2761 0000 5C000000 		.4byte	0x5c
 2762 0004 0200     		.2byte	0x2
 2763 0006 00000000 		.4byte	.Ldebug_info0
 2764 000a 04       		.byte	0x4
 2765 000b 00       		.byte	0
 2766 000c 0000     		.2byte	0
 2767 000e 0000     		.2byte	0
 2768 0010 00000000 		.4byte	.LFB7
 2769 0014 0C000000 		.4byte	.LFE7-.LFB7
 2770 0018 00000000 		.4byte	.LFB8
 2771 001c 34000000 		.4byte	.LFE8-.LFB8
 2772 0020 00000000 		.4byte	.LFB9
 2773 0024 30000000 		.4byte	.LFE9-.LFB9
 2774 0028 00000000 		.4byte	.LFB11
 2775 002c 3C000000 		.4byte	.LFE11-.LFB11
 2776 0030 00000000 		.4byte	.LFB10
 2777 0034 18000000 		.4byte	.LFE10-.LFB10
 2778 0038 00000000 		.4byte	.LFB13
 2779 003c 80000000 		.4byte	.LFE13-.LFB13
 2780 0040 00000000 		.4byte	.LFB12
 2781 0044 14000000 		.4byte	.LFE12-.LFB12
 2782 0048 00000000 		.4byte	.LFB15
 2783 004c 7C000000 		.4byte	.LFE15-.LFB15
 2784 0050 00000000 		.4byte	.LFB14
 2785 0054 14000000 		.4byte	.LFE14-.LFB14
 2786 0058 00000000 		.4byte	0
 2787 005c 00000000 		.4byte	0
 2788              		.section	.debug_ranges,"",%progbits
 2789              	.Ldebug_ranges0:
 2790 0000 18000000 		.4byte	.LBB12
 2791 0004 1C000000 		.4byte	.LBE12
 2792 0008 20000000 		.4byte	.LBB15
 2793 000c 28000000 		.4byte	.LBE15
ARM GAS  C:\Users\NICOMA~1\AppData\Local\Temp\ccMMVzOB.s 			page 50


 2794 0010 00000000 		.4byte	0
 2795 0014 00000000 		.4byte	0
 2796 0018 18000000 		.4byte	.LBB13
 2797 001c 1C000000 		.4byte	.LBE13
 2798 0020 20000000 		.4byte	.LBB14
 2799 0024 28000000 		.4byte	.LBE14
 2800 0028 00000000 		.4byte	0
 2801 002c 00000000 		.4byte	0
 2802 0030 28000000 		.4byte	.LBB20
 2803 0034 58000000 		.4byte	.LBE20
 2804 0038 74000000 		.4byte	.LBB23
 2805 003c 80000000 		.4byte	.LBE23
 2806 0040 00000000 		.4byte	0
 2807 0044 00000000 		.4byte	0
 2808 0048 28000000 		.4byte	.LBB21
 2809 004c 58000000 		.4byte	.LBE21
 2810 0050 74000000 		.4byte	.LBB22
 2811 0054 80000000 		.4byte	.LBE22
 2812 0058 00000000 		.4byte	0
 2813 005c 00000000 		.4byte	0
 2814 0060 24000000 		.4byte	.LBB24
 2815 0064 44000000 		.4byte	.LBE24
 2816 0068 48000000 		.4byte	.LBB28
 2817 006c 4C000000 		.4byte	.LBE28
 2818 0070 50000000 		.4byte	.LBB29
 2819 0074 58000000 		.4byte	.LBE29
 2820 0078 00000000 		.4byte	0
 2821 007c 00000000 		.4byte	0
 2822 0080 24000000 		.4byte	.LBB25
 2823 0084 44000000 		.4byte	.LBE25
 2824 0088 48000000 		.4byte	.LBB26
 2825 008c 4C000000 		.4byte	.LBE26
 2826 0090 50000000 		.4byte	.LBB27
 2827 0094 58000000 		.4byte	.LBE27
 2828 0098 00000000 		.4byte	0
 2829 009c 00000000 		.4byte	0
 2830 00a0 00000000 		.4byte	.LFB7
 2831 00a4 0C000000 		.4byte	.LFE7
 2832 00a8 00000000 		.4byte	.LFB8
 2833 00ac 34000000 		.4byte	.LFE8
 2834 00b0 00000000 		.4byte	.LFB9
 2835 00b4 30000000 		.4byte	.LFE9
 2836 00b8 00000000 		.4byte	.LFB11
 2837 00bc 3C000000 		.4byte	.LFE11
 2838 00c0 00000000 		.4byte	.LFB10
 2839 00c4 18000000 		.4byte	.LFE10
 2840 00c8 00000000 		.4byte	.LFB13
 2841 00cc 80000000 		.4byte	.LFE13
 2842 00d0 00000000 		.4byte	.LFB12
 2843 00d4 14000000 		.4byte	.LFE12
 2844 00d8 00000000 		.4byte	.LFB15
 2845 00dc 7C000000 		.4byte	.LFE15
 2846 00e0 00000000 		.4byte	.LFB14
 2847 00e4 14000000 		.4byte	.LFE14
 2848 00e8 00000000 		.4byte	0
 2849 00ec 00000000 		.4byte	0
 2850              		.section	.debug_line,"",%progbits
ARM GAS  C:\Users\NICOMA~1\AppData\Local\Temp\ccMMVzOB.s 			page 51


 2851              	.Ldebug_line0:
 2852 0000 4A020000 		.section	.debug_str,"MS",%progbits,1
 2852      02001001 
 2852      00000201 
 2852      FB0E0D00 
 2852      01010101 
 2853              	.LASF36:
 2854 0000 705F6D73 		.ascii	"p_msg\000"
 2854      6700
 2855              	.LASF64:
 2856 0006 6368436F 		.ascii	"chCondInit\000"
 2856      6E64496E 
 2856      697400
 2857              	.LASF58:
 2858 0011 7264796D 		.ascii	"rdymsg\000"
 2858      736700
 2859              	.LASF11:
 2860 0018 6C6F6E67 		.ascii	"long long unsigned int\000"
 2860      206C6F6E 
 2860      6720756E 
 2860      7369676E 
 2860      65642069 
 2861              	.LASF59:
 2862 002f 65786974 		.ascii	"exitcode\000"
 2862      636F6465 
 2862      00
 2863              	.LASF67:
 2864 0038 6368436F 		.ascii	"chCondBroadcastI\000"
 2864      6E644272 
 2864      6F616463 
 2864      61737449 
 2864      00
 2865              	.LASF24:
 2866 0049 705F7072 		.ascii	"p_prio\000"
 2866      696F00
 2867              	.LASF10:
 2868 0050 6C6F6E67 		.ascii	"long long int\000"
 2868      206C6F6E 
 2868      6720696E 
 2868      7400
 2869              	.LASF1:
 2870 005e 7369676E 		.ascii	"signed char\000"
 2870      65642063 
 2870      68617200 
 2871              	.LASF53:
 2872 006a 6D5F7175 		.ascii	"m_queue\000"
 2872      65756500 
 2873              	.LASF16:
 2874 0072 74736C69 		.ascii	"tslices_t\000"
 2874      6365735F 
 2874      7400
 2875              	.LASF56:
 2876 007c 436F6E64 		.ascii	"CondVar\000"
 2876      56617200 
 2877              	.LASF7:
 2878 0084 6C6F6E67 		.ascii	"long int\000"
 2878      20696E74 
ARM GAS  C:\Users\NICOMA~1\AppData\Local\Temp\ccMMVzOB.s 			page 52


 2878      00
 2879              	.LASF14:
 2880 008d 74737461 		.ascii	"tstate_t\000"
 2880      74655F74 
 2880      00
 2881              	.LASF76:
 2882 0096 63684D74 		.ascii	"chMtxLockS\000"
 2882      784C6F63 
 2882      6B5300
 2883              	.LASF26:
 2884 00a1 705F6E65 		.ascii	"p_newer\000"
 2884      77657200 
 2885              	.LASF80:
 2886 00a9 433A5C55 		.ascii	"C:\\Users\\Nico Maas\\Desktop\\ChibiOS\\demos\\ARM1"
 2886      73657273 
 2886      5C4E6963 
 2886      6F204D61 
 2886      61735C44 
 2887 00d6 312D4243 		.ascii	"1-BCM2835-GCC\000"
 2887      4D323833 
 2887      352D4743 
 2887      4300
 2888              	.LASF85:
 2889 00e4 63685363 		.ascii	"chSchRescheduleS\000"
 2889      68526573 
 2889      63686564 
 2889      756C6553 
 2889      00
 2890              	.LASF48:
 2891 00f5 725F6E65 		.ascii	"r_newer\000"
 2891      77657200 
 2892              	.LASF42:
 2893 00fd 72656761 		.ascii	"regarm_t\000"
 2893      726D5F74 
 2893      00
 2894              	.LASF79:
 2895 0106 2E2E2F2E 		.ascii	"../../os/kernel/src/chcond.c\000"
 2895      2E2F6F73 
 2895      2F6B6572 
 2895      6E656C2F 
 2895      7372632F 
 2896              	.LASF65:
 2897 0123 6368436F 		.ascii	"chCondSignal\000"
 2897      6E645369 
 2897      676E616C 
 2897      00
 2898              	.LASF86:
 2899 0130 63684D74 		.ascii	"chMtxUnlockS\000"
 2899      78556E6C 
 2899      6F636B53 
 2899      00
 2900              	.LASF0:
 2901 013d 756E7369 		.ascii	"unsigned int\000"
 2901      676E6564 
 2901      20696E74 
 2901      00
 2902              	.LASF9:
ARM GAS  C:\Users\NICOMA~1\AppData\Local\Temp\ccMMVzOB.s 			page 53


 2903 014a 6C6F6E67 		.ascii	"long unsigned int\000"
 2903      20756E73 
 2903      69676E65 
 2903      6420696E 
 2903      7400
 2904              	.LASF44:
 2905 015c 636F6E74 		.ascii	"context\000"
 2905      65787400 
 2906              	.LASF4:
 2907 0164 73686F72 		.ascii	"short unsigned int\000"
 2907      7420756E 
 2907      7369676E 
 2907      65642069 
 2907      6E7400
 2908              	.LASF18:
 2909 0177 6D73675F 		.ascii	"msg_t\000"
 2909      7400
 2910              	.LASF82:
 2911 017d 7072696F 		.ascii	"prio_insert\000"
 2911      5F696E73 
 2911      65727400 
 2912              	.LASF13:
 2913 0189 746D6F64 		.ascii	"tmode_t\000"
 2913      655F7400 
 2914              	.LASF41:
 2915 0191 54687265 		.ascii	"ThreadsList\000"
 2915      6164734C 
 2915      69737400 
 2916              	.LASF19:
 2917 019d 6576656E 		.ascii	"eventmask_t\000"
 2917      746D6173 
 2917      6B5F7400 
 2918              	.LASF52:
 2919 01a9 4D757465 		.ascii	"Mutex\000"
 2919      7800
 2920              	.LASF63:
 2921 01af 73697A65 		.ascii	"sizetype\000"
 2921      74797065 
 2921      00
 2922              	.LASF71:
 2923 01b8 6368436F 		.ascii	"chCondWaitTimeoutS\000"
 2923      6E645761 
 2923      69745469 
 2923      6D656F75 
 2923      745300
 2924              	.LASF27:
 2925 01cb 705F6F6C 		.ascii	"p_older\000"
 2925      64657200 
 2926              	.LASF47:
 2927 01d3 725F6374 		.ascii	"r_ctx\000"
 2927      7800
 2928              	.LASF40:
 2929 01d9 54687265 		.ascii	"ThreadsQueue\000"
 2929      61647351 
 2929      75657565 
 2929      00
 2930              	.LASF72:
ARM GAS  C:\Users\NICOMA~1\AppData\Local\Temp\ccMMVzOB.s 			page 54


 2931 01e6 74696D65 		.ascii	"time\000"
 2931      00
 2932              	.LASF78:
 2933 01eb 474E5520 		.ascii	"GNU C 4.7.2\000"
 2933      4320342E 
 2933      372E3200 
 2934              	.LASF50:
 2935 01f7 725F6375 		.ascii	"r_current\000"
 2935      7272656E 
 2935      7400
 2936              	.LASF49:
 2937 0201 725F6F6C 		.ascii	"r_older\000"
 2937      64657200 
 2938              	.LASF68:
 2939 0209 6368436F 		.ascii	"chCondBroadcast\000"
 2939      6E644272 
 2939      6F616463 
 2939      61737400 
 2940              	.LASF15:
 2941 0219 74726566 		.ascii	"trefs_t\000"
 2941      735F7400 
 2942              	.LASF23:
 2943 0221 705F7072 		.ascii	"p_prev\000"
 2943      657600
 2944              	.LASF17:
 2945 0228 74707269 		.ascii	"tprio_t\000"
 2945      6F5F7400 
 2946              	.LASF66:
 2947 0230 6368436F 		.ascii	"chCondSignalI\000"
 2947      6E645369 
 2947      676E616C 
 2947      4900
 2948              	.LASF12:
 2949 023e 5F426F6F 		.ascii	"_Bool\000"
 2949      6C00
 2950              	.LASF6:
 2951 0244 696E7433 		.ascii	"int32_t\000"
 2951      325F7400 
 2952              	.LASF2:
 2953 024c 756E7369 		.ascii	"unsigned char\000"
 2953      676E6564 
 2953      20636861 
 2953      7200
 2954              	.LASF38:
 2955 025a 705F6D74 		.ascii	"p_mtxlist\000"
 2955      786C6973 
 2955      7400
 2956              	.LASF3:
 2957 0264 73686F72 		.ascii	"short int\000"
 2957      7420696E 
 2957      7400
 2958              	.LASF29:
 2959 026e 705F7374 		.ascii	"p_state\000"
 2959      61746500 
 2960              	.LASF32:
 2961 0276 705F7072 		.ascii	"p_preempt\000"
 2961      65656D70 
ARM GAS  C:\Users\NICOMA~1\AppData\Local\Temp\ccMMVzOB.s 			page 55


 2961      7400
 2962              	.LASF46:
 2963 0280 725F7072 		.ascii	"r_prio\000"
 2963      696F00
 2964              	.LASF61:
 2965 0287 65776D61 		.ascii	"ewmask\000"
 2965      736B00
 2966              	.LASF22:
 2967 028e 705F6E65 		.ascii	"p_next\000"
 2967      787400
 2968              	.LASF30:
 2969 0295 705F666C 		.ascii	"p_flags\000"
 2969      61677300 
 2970              	.LASF21:
 2971 029d 54687265 		.ascii	"Thread\000"
 2971      616400
 2972              	.LASF57:
 2973 02a4 635F7175 		.ascii	"c_queue\000"
 2973      65756500 
 2974              	.LASF75:
 2975 02ac 63685363 		.ascii	"chSchGoSleepS\000"
 2975      68476F53 
 2975      6C656570 
 2975      5300
 2976              	.LASF37:
 2977 02ba 705F6570 		.ascii	"p_epending\000"
 2977      656E6469 
 2977      6E6700
 2978              	.LASF8:
 2979 02c5 75696E74 		.ascii	"uint32_t\000"
 2979      33325F74 
 2979      00
 2980              	.LASF45:
 2981 02ce 725F7175 		.ascii	"r_queue\000"
 2981      65756500 
 2982              	.LASF84:
 2983 02d6 63685363 		.ascii	"chSchReadyI\000"
 2983      68526561 
 2983      64794900 
 2984              	.LASF62:
 2985 02e2 63686172 		.ascii	"char\000"
 2985      00
 2986              	.LASF81:
 2987 02e7 6669666F 		.ascii	"fifo_remove\000"
 2987      5F72656D 
 2987      6F766500 
 2988              	.LASF69:
 2989 02f3 6368436F 		.ascii	"chCondWaitS\000"
 2989      6E645761 
 2989      69745300 
 2990              	.LASF55:
 2991 02ff 6D5F6E65 		.ascii	"m_next\000"
 2991      787400
 2992              	.LASF20:
 2993 0306 73797374 		.ascii	"systime_t\000"
 2993      696D655F 
 2993      7400
ARM GAS  C:\Users\NICOMA~1\AppData\Local\Temp\ccMMVzOB.s 			page 56


 2994              	.LASF39:
 2995 0310 705F7265 		.ascii	"p_realprio\000"
 2995      616C7072 
 2995      696F00
 2996              	.LASF70:
 2997 031b 6368436F 		.ascii	"chCondWait\000"
 2997      6E645761 
 2997      697400
 2998              	.LASF33:
 2999 0326 705F7469 		.ascii	"p_time\000"
 2999      6D6500
 3000              	.LASF43:
 3001 032d 696E7463 		.ascii	"intctx\000"
 3001      747800
 3002              	.LASF35:
 3003 0334 705F6D73 		.ascii	"p_msgqueue\000"
 3003      67717565 
 3003      756500
 3004              	.LASF74:
 3005 033f 63685363 		.ascii	"chSchWakeupS\000"
 3005      6857616B 
 3005      65757053 
 3005      00
 3006              	.LASF31:
 3007 034c 705F7265 		.ascii	"p_refs\000"
 3007      667300
 3008              	.LASF51:
 3009 0353 52656164 		.ascii	"ReadyList\000"
 3009      794C6973 
 3009      7400
 3010              	.LASF83:
 3011 035d 726C6973 		.ascii	"rlist\000"
 3011      7400
 3012              	.LASF5:
 3013 0363 75696E74 		.ascii	"uint8_t\000"
 3013      385F7400 
 3014              	.LASF60:
 3015 036b 77746F62 		.ascii	"wtobjp\000"
 3015      6A7000
 3016              	.LASF28:
 3017 0372 705F6E61 		.ascii	"p_name\000"
 3017      6D6500
 3018              	.LASF73:
 3019 0379 6368436F 		.ascii	"chCondWaitTimeout\000"
 3019      6E645761 
 3019      69745469 
 3019      6D656F75 
 3019      7400
 3020              	.LASF77:
 3021 038b 63685363 		.ascii	"chSchGoSleepTimeoutS\000"
 3021      68476F53 
 3021      6C656570 
 3021      54696D65 
 3021      6F757453 
 3022              	.LASF54:
 3023 03a0 6D5F6F77 		.ascii	"m_owner\000"
 3023      6E657200 
ARM GAS  C:\Users\NICOMA~1\AppData\Local\Temp\ccMMVzOB.s 			page 57


 3024              	.LASF25:
 3025 03a8 705F6374 		.ascii	"p_ctx\000"
 3025      7800
 3026              	.LASF34:
 3027 03ae 705F7761 		.ascii	"p_waiting\000"
 3027      6974696E 
 3027      6700
 3028              		.ident	"GCC: (GNU) 4.7.2"
ARM GAS  C:\Users\NICOMA~1\AppData\Local\Temp\ccMMVzOB.s 			page 58


DEFINED SYMBOLS
                            *ABS*:00000000 chcond.c
C:\Users\NICOMA~1\AppData\Local\Temp\ccMMVzOB.s:17     .text.chCondInit:00000000 $a
C:\Users\NICOMA~1\AppData\Local\Temp\ccMMVzOB.s:20     .text.chCondInit:00000000 chCondInit
C:\Users\NICOMA~1\AppData\Local\Temp\ccMMVzOB.s:37     .text.chCondSignal:00000000 $a
C:\Users\NICOMA~1\AppData\Local\Temp\ccMMVzOB.s:40     .text.chCondSignal:00000000 chCondSignal
C:\Users\NICOMA~1\AppData\Local\Temp\ccMMVzOB.s:93     .text.chCondSignalI:00000000 $a
C:\Users\NICOMA~1\AppData\Local\Temp\ccMMVzOB.s:96     .text.chCondSignalI:00000000 chCondSignalI
C:\Users\NICOMA~1\AppData\Local\Temp\ccMMVzOB.s:134    .text.chCondBroadcastI:00000000 $a
C:\Users\NICOMA~1\AppData\Local\Temp\ccMMVzOB.s:137    .text.chCondBroadcastI:00000000 chCondBroadcastI
C:\Users\NICOMA~1\AppData\Local\Temp\ccMMVzOB.s:183    .text.chCondBroadcast:00000000 $a
C:\Users\NICOMA~1\AppData\Local\Temp\ccMMVzOB.s:186    .text.chCondBroadcast:00000000 chCondBroadcast
C:\Users\NICOMA~1\AppData\Local\Temp\ccMMVzOB.s:217    .text.chCondWaitS:00000000 $a
C:\Users\NICOMA~1\AppData\Local\Temp\ccMMVzOB.s:220    .text.chCondWaitS:00000000 chCondWaitS
C:\Users\NICOMA~1\AppData\Local\Temp\ccMMVzOB.s:310    .text.chCondWaitS:0000007c $d
C:\Users\NICOMA~1\AppData\Local\Temp\ccMMVzOB.s:317    .text.chCondWait:00000000 $a
C:\Users\NICOMA~1\AppData\Local\Temp\ccMMVzOB.s:320    .text.chCondWait:00000000 chCondWait
C:\Users\NICOMA~1\AppData\Local\Temp\ccMMVzOB.s:349    .text.chCondWaitTimeoutS:00000000 $a
C:\Users\NICOMA~1\AppData\Local\Temp\ccMMVzOB.s:352    .text.chCondWaitTimeoutS:00000000 chCondWaitTimeoutS
C:\Users\NICOMA~1\AppData\Local\Temp\ccMMVzOB.s:442    .text.chCondWaitTimeoutS:00000078 $d
C:\Users\NICOMA~1\AppData\Local\Temp\ccMMVzOB.s:447    .text.chCondWaitTimeout:00000000 $a
C:\Users\NICOMA~1\AppData\Local\Temp\ccMMVzOB.s:450    .text.chCondWaitTimeout:00000000 chCondWaitTimeout
                     .debug_frame:00000010 $d

UNDEFINED SYMBOLS
chSchWakeupS
chSchReadyI
chSchRescheduleS
chMtxUnlockS
chSchGoSleepS
chMtxLockS
rlist
chSchGoSleepTimeoutS
