ARM GAS  C:\Users\NICOMA~1\AppData\Local\Temp\ccDkav1F.s 			page 1


   1              		.cpu arm1176jz-s
   2              		.fpu softvfp
   3              		.eabi_attribute 20, 1
   4              		.eabi_attribute 21, 1
   5              		.eabi_attribute 23, 3
   6              		.eabi_attribute 24, 1
   7              		.eabi_attribute 25, 1
   8              		.eabi_attribute 26, 1
   9              		.eabi_attribute 30, 2
  10              		.eabi_attribute 34, 1
  11              		.eabi_attribute 18, 4
  12              		.file	"chdynamic.c"
  13              		.text
  14              	.Ltext0:
  15              		.cfi_sections	.debug_frame
  16              		.section	.text.chThdAddRef,"ax",%progbits
  17              		.align	2
  18              		.global	chThdAddRef
  19              		.type	chThdAddRef, %function
  20              	chThdAddRef:
  21              	.LFB7:
  22              		.file 1 "../../os/kernel/src/chdynamic.c"
  23              		.loc 1 52 0
  24              		.cfi_startproc
  25              		@ args = 0, pretend = 0, frame = 0
  26              		@ frame_needed = 0, uses_anonymous_args = 0
  27              		@ link register save eliminated.
  28              	.LVL0:
  29              		.loc 1 54 0
  30              	@ 54 "../../os/kernel/src/chdynamic.c" 1
  31 0000 9FF021E3 		msr     CPSR_c, #0x9F
  32              	@ 0 "" 2
  33              		.loc 1 56 0
  34 0004 1E20D0E5 		ldrb	r2, [r0, #30]	@ zero_extendqisi2
  35 0008 012082E2 		add	r2, r2, #1
  36 000c 1E20C0E5 		strb	r2, [r0, #30]
  37              		.loc 1 57 0
  38              	@ 57 "../../os/kernel/src/chdynamic.c" 1
  39 0010 1FF021E3 		msr     CPSR_c, #0x1F
  40              	@ 0 "" 2
  41              		.loc 1 59 0
  42 0014 1EFF2FE1 		bx	lr
  43              		.cfi_endproc
  44              	.LFE7:
  45              		.size	chThdAddRef, .-chThdAddRef
  46              		.section	.text.chThdRelease,"ax",%progbits
  47              		.align	2
  48              		.global	chThdRelease
  49              		.type	chThdRelease, %function
  50              	chThdRelease:
  51              	.LFB8:
  52              		.loc 1 74 0
  53              		.cfi_startproc
  54              		@ args = 0, pretend = 0, frame = 0
  55              		@ frame_needed = 0, uses_anonymous_args = 0
  56              		@ link register save eliminated.
  57              	.LVL1:
ARM GAS  C:\Users\NICOMA~1\AppData\Local\Temp\ccDkav1F.s 			page 2


  58              		.loc 1 77 0
  59              	@ 77 "../../os/kernel/src/chdynamic.c" 1
  60 0000 9FF021E3 		msr     CPSR_c, #0x9F
  61              	@ 0 "" 2
  62              		.loc 1 79 0
  63 0004 1E20D0E5 		ldrb	r2, [r0, #30]	@ zero_extendqisi2
  64 0008 012042E2 		sub	r2, r2, #1
  65 000c 7220EFE6 		uxtb	r2, r2
  66 0010 1E20C0E5 		strb	r2, [r0, #30]
  67              	.LVL2:
  68              		.loc 1 80 0
  69              	@ 80 "../../os/kernel/src/chdynamic.c" 1
  70 0014 1FF021E3 		msr     CPSR_c, #0x1F
  71              	@ 0 "" 2
  72              		.loc 1 85 0
  73 0018 000052E3 		cmp	r2, #0
  74 001c 1EFF2F11 		bxne	lr
  75              		.loc 1 85 0 is_stmt 0 discriminator 1
  76 0020 1C20D0E5 		ldrb	r2, [r0, #28]	@ zero_extendqisi2
  77              	.LVL3:
  78 0024 0E0052E3 		cmp	r2, #14
  79 0028 1EFF2F11 		bxne	lr
  80              		.loc 1 86 0 is_stmt 1
  81 002c 1D20D0E5 		ldrb	r2, [r0, #29]	@ zero_extendqisi2
  82 0030 032002E2 		and	r2, r2, #3
  83 0034 010052E3 		cmp	r2, #1
  84 0038 1EFF2F11 		bxne	lr
  85              		.loc 1 90 0
  86 003c 142090E5 		ldr	r2, [r0, #20]
  87 0040 101090E5 		ldr	r1, [r0, #16]
  88 0044 101082E5 		str	r1, [r2, #16]
  89 0048 103090E5 		ldr	r3, [r0, #16]
  90 004c 142083E5 		str	r2, [r3, #20]
  91              		.loc 1 105 0
  92              		.loc 1 92 0
  93 0050 FEFFFFEA 		b	chHeapFree
  94              	.LVL4:
  95              		.cfi_endproc
  96              	.LFE8:
  97              		.size	chThdRelease, .-chThdRelease
  98              		.section	.text.chThdCreateFromHeap,"ax",%progbits
  99              		.align	2
 100              		.global	chThdCreateFromHeap
 101              		.type	chThdCreateFromHeap, %function
 102              	chThdCreateFromHeap:
 103              	.LFB9:
 104              		.loc 1 131 0
 105              		.cfi_startproc
 106              		@ args = 4, pretend = 0, frame = 0
 107              		@ frame_needed = 0, uses_anonymous_args = 0
 108              	.LVL5:
 109 0000 F0402DE9 		stmfd	sp!, {r4, r5, r6, r7, lr}
 110              	.LCFI0:
 111              		.cfi_def_cfa_offset 20
 112              		.cfi_offset 4, -20
 113              		.cfi_offset 5, -16
 114              		.cfi_offset 6, -12
ARM GAS  C:\Users\NICOMA~1\AppData\Local\Temp\ccDkav1F.s 			page 3


 115              		.cfi_offset 7, -8
 116              		.cfi_offset 14, -4
 117 0004 0CD04DE2 		sub	sp, sp, #12
 118              	.LCFI1:
 119              		.cfi_def_cfa_offset 32
 120              		.loc 1 131 0
 121 0008 0150A0E1 		mov	r5, r1
 122 000c 0270A0E1 		mov	r7, r2
 123 0010 0360A0E1 		mov	r6, r3
 124              		.loc 1 135 0
 125 0014 FEFFFFEB 		bl	chHeapAlloc
 126              	.LVL6:
 127              		.loc 1 136 0
 128 0018 004050E2 		subs	r4, r0, #0
 129 001c 0C00000A 		beq	.L7
 130              		.loc 1 148 0
 131              	@ 148 "../../os/kernel/src/chdynamic.c" 1
 132 0020 9FF021E3 		msr     CPSR_c, #0x9F
 133              	@ 0 "" 2
 134              		.loc 1 149 0
 135 0024 20C09DE5 		ldr	ip, [sp, #32]
 136 0028 0510A0E1 		mov	r1, r5
 137 002c 0720A0E1 		mov	r2, r7
 138 0030 0630A0E1 		mov	r3, r6
 139 0034 00C08DE5 		str	ip, [sp, #0]
 140 0038 FEFFFFEB 		bl	chThdCreateI
 141              	.LVL7:
 142              		.loc 1 150 0
 143 003c 0130A0E3 		mov	r3, #1
 144 0040 1D30C0E5 		strb	r3, [r0, #29]
 145              		.loc 1 151 0
 146 0044 0010A0E3 		mov	r1, #0
 147              		.loc 1 149 0
 148 0048 0040A0E1 		mov	r4, r0
 149              	.LVL8:
 150              		.loc 1 151 0
 151 004c FEFFFFEB 		bl	chSchWakeupS
 152              	.LVL9:
 153              		.loc 1 152 0
 154              	@ 152 "../../os/kernel/src/chdynamic.c" 1
 155 0050 1FF021E3 		msr     CPSR_c, #0x1F
 156              	@ 0 "" 2
 157              	.LVL10:
 158              	.L7:
 159              		.loc 1 154 0
 160 0054 0400A0E1 		mov	r0, r4
 161 0058 0CD08DE2 		add	sp, sp, #12
 162 005c F080BDE8 		ldmfd	sp!, {r4, r5, r6, r7, pc}
 163              		.cfi_endproc
 164              	.LFE9:
 165              		.size	chThdCreateFromHeap, .-chThdCreateFromHeap
 166              		.text
 167              	.Letext0:
 168              		.file 2 "c:\\yagarto-20121222\\bin\\../lib/gcc/arm-none-eabi/4.7.2/include/stddef.h"
 169              		.file 3 "c:/yagarto-20121222/lib/gcc/../../arm-none-eabi/sys-include/stdint.h"
 170              		.file 4 "../../os/ports/GCC/ARM/chtypes.h"
 171              		.file 5 "../../os/kernel/include/chlists.h"
ARM GAS  C:\Users\NICOMA~1\AppData\Local\Temp\ccDkav1F.s 			page 4


 172              		.file 6 "../../os/kernel/include/chthreads.h"
 173              		.file 7 "../../os/ports/GCC/ARM/chcore.h"
 174              		.file 8 "../../os/kernel/include/chmtx.h"
 175              		.file 9 "../../os/kernel/include/chmemcore.h"
 176              		.file 10 "../../os/kernel/include/chheap.h"
 177              		.file 11 "../../os/kernel/include/chschd.h"