ARM GAS  C:\Users\NICOMA~1\AppData\Local\Temp\ccxAmMsf.s 			page 1


   1              		.cpu arm1176jz-s
   2              		.fpu softvfp
   3              		.eabi_attribute 20, 1
   4              		.eabi_attribute 21, 1
   5              		.eabi_attribute 23, 3
   6              		.eabi_attribute 24, 1
   7              		.eabi_attribute 25, 1
   8              		.eabi_attribute 26, 1
   9              		.eabi_attribute 30, 2
  10              		.eabi_attribute 34, 1
  11              		.eabi_attribute 18, 4
  12              		.file	"chheap.c"
  13              		.text
  14              	.Ltext0:
  15              		.cfi_sections	.debug_frame
  16              		.section	.text._heap_init,"ax",%progbits
  17              		.align	2
  18              		.global	_heap_init
  19              		.type	_heap_init, %function
  20              	_heap_init:
  21              	.LFB7:
  22              		.file 1 "../../os/kernel/src/chheap.c"
  23              		.loc 1 75 0
  24              		.cfi_startproc
  25              		@ args = 0, pretend = 0, frame = 0
  26              		@ frame_needed = 0, uses_anonymous_args = 0
  27              		@ link register save eliminated.
  28              		.loc 1 76 0
  29 0000 14309FE5 		ldr	r3, .L2
  30 0004 14109FE5 		ldr	r1, .L2+4
  31              		.loc 1 77 0
  32 0008 0020A0E3 		mov	r2, #0
  33              		.loc 1 80 0
  34 000c 0C0083E2 		add	r0, r3, #12
  35              		.loc 1 77 0
  36 0010 060083E8 		stmia	r3, {r1, r2}
  37              		.loc 1 78 0
  38 0014 082083E5 		str	r2, [r3, #8]
  39              		.loc 1 84 0
  40              		.loc 1 80 0
  41 0018 FEFFFFEA 		b	chMtxInit
  42              	.LVL0:
  43              	.L3:
  44              		.align	2
  45              	.L2:
  46 001c 00000000 		.word	.LANCHOR0
  47 0020 00000000 		.word	chCoreAlloc
  48              		.cfi_endproc
  49              	.LFE7:
  50              		.size	_heap_init, .-_heap_init
  51              		.section	.text.chHeapInit,"ax",%progbits
  52              		.align	2
  53              		.global	chHeapInit
  54              		.type	chHeapInit, %function
  55              	chHeapInit:
  56              	.LFB8:
  57              		.loc 1 99 0
ARM GAS  C:\Users\NICOMA~1\AppData\Local\Temp\ccxAmMsf.s 			page 2


  58              		.cfi_startproc
  59              		@ args = 0, pretend = 0, frame = 0
  60              		@ frame_needed = 0, uses_anonymous_args = 0
  61              		@ link register save eliminated.
  62              	.LVL1:
  63              		.loc 1 104 0
  64 0000 0030A0E3 		mov	r3, #0
  65 0004 003080E5 		str	r3, [r0, #0]
  66              	.LVL2:
  67              		.loc 1 106 0
  68 0008 0A0080E9 		stmib	r0, {r1, r3}
  69              		.loc 1 108 0
  70 000c 082042E2 		sub	r2, r2, #8
  71              	.LVL3:
  72              		.loc 1 110 0
  73 0010 0C0080E2 		add	r0, r0, #12
  74              	.LVL4:
  75              		.loc 1 107 0
  76 0014 003081E5 		str	r3, [r1, #0]
  77              		.loc 1 108 0
  78 0018 042081E5 		str	r2, [r1, #4]
  79              		.loc 1 114 0
  80              		.loc 1 110 0
  81 001c FEFFFFEA 		b	chMtxInit
  82              	.LVL5:
  83              		.cfi_endproc
  84              	.LFE8:
  85              		.size	chHeapInit, .-chHeapInit
  86              		.section	.text.chHeapAlloc,"ax",%progbits
  87              		.align	2
  88              		.global	chHeapAlloc
  89              		.type	chHeapAlloc, %function
  90              	chHeapAlloc:
  91              	.LFB9:
  92              		.loc 1 132 0
  93              		.cfi_startproc
  94              		@ args = 0, pretend = 0, frame = 0
  95              		@ frame_needed = 0, uses_anonymous_args = 0
  96              	.LVL6:
  97 0000 70402DE9 		stmfd	sp!, {r4, r5, r6, lr}
  98              	.LCFI0:
  99              		.cfi_def_cfa_offset 16
 100              		.cfi_offset 4, -16
 101              		.cfi_offset 5, -12
 102              		.cfi_offset 6, -8
 103              		.cfi_offset 14, -4
 104              		.loc 1 136 0
 105 0004 000050E3 		cmp	r0, #0
 106 0008 C0609FE5 		ldr	r6, .L22
 107 000c 0060A011 		movne	r6, r0
 108              	.LVL7:
 109              		.loc 1 138 0
 110 0010 031081E2 		add	r1, r1, #3
 111              	.LVL8:
 112              		.loc 1 140 0
 113 0014 0C0086E2 		add	r0, r6, #12
 114              		.loc 1 138 0
ARM GAS  C:\Users\NICOMA~1\AppData\Local\Temp\ccxAmMsf.s 			page 3


 115 0018 0350C1E3 		bic	r5, r1, #3
 116              	.LVL9:
 117              		.loc 1 139 0
 118 001c 044086E2 		add	r4, r6, #4
 119              	.LVL10:
 120              		.loc 1 140 0
 121 0020 FEFFFFEB 		bl	chMtxLock
 122              	.LVL11:
 123              		.loc 1 142 0
 124 0024 000000EA 		b	.L7
 125              	.LVL12:
 126              	.L15:
 127              		.loc 1 144 0
 128 0028 0340A0E1 		mov	r4, r3
 129              	.LVL13:
 130              	.L7:
 131              		.loc 1 142 0 discriminator 1
 132 002c 003094E5 		ldr	r3, [r4, #0]
 133              	.LVL14:
 134 0030 000053E3 		cmp	r3, #0
 135 0034 1600000A 		beq	.L20
 136              		.loc 1 144 0
 137 0038 042093E5 		ldr	r2, [r3, #4]
 138 003c 020055E1 		cmp	r5, r2
 139 0040 F8FFFF8A 		bhi	.L15
 140              		.loc 1 145 0
 141 0044 081085E2 		add	r1, r5, #8
 142 0048 020051E1 		cmp	r1, r2
 143 004c 0D00008A 		bhi	.L21
 144              		.loc 1 155 0
 145 0050 0700E0E3 		mvn	r0, #7
 146              		.loc 1 154 0
 147 0054 00E093E5 		ldr	lr, [r3, #0]
 148              		.loc 1 155 0
 149 0058 000065E0 		rsb	r0, r5, r0
 150              		.loc 1 153 0
 151 005c 01C083E0 		add	ip, r3, r1
 152              	.LVL15:
 153              		.loc 1 155 0
 154 0060 022080E0 		add	r2, r0, r2
 155              		.loc 1 154 0
 156 0064 01E083E7 		str	lr, [r3, r1]
 157              		.loc 1 155 0
 158 0068 04208CE5 		str	r2, [ip, #4]
 159              		.loc 1 156 0
 160 006c 00C084E5 		str	ip, [r4, #0]
 161              		.loc 1 157 0
 162 0070 045083E5 		str	r5, [r3, #4]
 163              	.LVL16:
 164              	.L9:
 165              		.loc 1 159 0
 166 0074 0340A0E1 		mov	r4, r3
 167              	.LVL17:
 168 0078 086084E4 		str	r6, [r4], #8
 169              		.loc 1 161 0
 170 007c FEFFFFEB 		bl	chMtxUnlock
 171              	.LVL18:
ARM GAS  C:\Users\NICOMA~1\AppData\Local\Temp\ccxAmMsf.s 			page 4


 172              	.L10:
 173              		.loc 1 181 0
 174 0080 0400A0E1 		mov	r0, r4
 175 0084 7080BDE8 		ldmfd	sp!, {r4, r5, r6, pc}
 176              	.LVL19:
 177              	.L21:
 178              		.loc 1 149 0
 179 0088 002093E5 		ldr	r2, [r3, #0]
 180 008c 002084E5 		str	r2, [r4, #0]
 181 0090 F7FFFFEA 		b	.L9
 182              	.L20:
 183              		.loc 1 167 0
 184 0094 FEFFFFEB 		bl	chMtxUnlock
 185              	.LVL20:
 186              		.loc 1 171 0
 187 0098 003096E5 		ldr	r3, [r6, #0]
 188 009c 000053E3 		cmp	r3, #0
 189 00a0 0800000A 		beq	.L13
 190              		.loc 1 172 0
 191 00a4 080085E2 		add	r0, r5, #8
 192 00a8 33FF2FE1 		blx	r3
 193              	.LVL21:
 194              		.loc 1 173 0
 195 00ac 000050E3 		cmp	r0, #0
 196 00b0 0400000A 		beq	.L13
 197              		.loc 1 177 0
 198 00b4 084080E2 		add	r4, r0, #8
 199              	.LVL22:
 200              		.loc 1 174 0
 201 00b8 006080E5 		str	r6, [r0, #0]
 202              		.loc 1 175 0
 203 00bc 045080E5 		str	r5, [r0, #4]
 204              	.LVL23:
 205              		.loc 1 181 0
 206 00c0 0400A0E1 		mov	r0, r4
 207 00c4 7080BDE8 		ldmfd	sp!, {r4, r5, r6, pc}
 208              	.LVL24:
 209              	.L13:
 210              		.loc 1 180 0
 211 00c8 0040A0E3 		mov	r4, #0
 212              	.LVL25:
 213 00cc EBFFFFEA 		b	.L10
 214              	.L23:
 215              		.align	2
 216              	.L22:
 217 00d0 00000000 		.word	.LANCHOR0
 218              		.cfi_endproc
 219              	.LFE9:
 220              		.size	chHeapAlloc, .-chHeapAlloc
 221              		.section	.text.chHeapFree,"ax",%progbits
 222              		.align	2
 223              		.global	chHeapFree
 224              		.type	chHeapFree, %function
 225              	chHeapFree:
 226              	.LFB10:
 227              		.loc 1 194 0
 228              		.cfi_startproc
ARM GAS  C:\Users\NICOMA~1\AppData\Local\Temp\ccxAmMsf.s 			page 5


 229              		@ args = 0, pretend = 0, frame = 0
 230              		@ frame_needed = 0, uses_anonymous_args = 0
 231              	.LVL26:
 232 0000 70402DE9 		stmfd	sp!, {r4, r5, r6, lr}
 233              	.LCFI1:
 234              		.cfi_def_cfa_offset 16
 235              		.cfi_offset 4, -16
 236              		.cfi_offset 5, -12
 237              		.cfi_offset 6, -8
 238              		.cfi_offset 14, -4
 239              		.loc 1 194 0
 240 0004 0060A0E1 		mov	r6, r0
 241              		.loc 1 201 0
 242 0008 080010E5 		ldr	r0, [r0, #-8]
 243              	.LVL27:
 244              		.loc 1 200 0
 245 000c 084046E2 		sub	r4, r6, #8
 246              	.LVL28:
 247              		.loc 1 202 0
 248 0010 045080E2 		add	r5, r0, #4
 249              	.LVL29:
 250              		.loc 1 203 0
 251 0014 0C0080E2 		add	r0, r0, #12
 252              	.LVL30:
 253 0018 FEFFFFEB 		bl	chMtxLock
 254              	.LVL31:
 255              		.loc 1 202 0
 256 001c 0530A0E1 		mov	r3, r5
 257 0020 020000EA 		b	.L31
 258              	.LVL32:
 259              	.L35:
 260              		.loc 1 211 0
 261 0024 020054E1 		cmp	r4, r2
 262 0028 0700003A 		bcc	.L27
 263              	.L28:
 264              	.LVL33:
 265              		.loc 1 228 0
 266 002c 0230A0E1 		mov	r3, r2
 267              	.LVL34:
 268              	.L31:
 269              		.loc 1 210 0
 270 0030 050053E1 		cmp	r3, r5
 271              		.loc 1 211 0
 272 0034 002093E5 		ldr	r2, [r3, #0]
 273              		.loc 1 210 0
 274 0038 0100000A 		beq	.L25
 275              		.loc 1 210 0 is_stmt 0 discriminator 2
 276 003c 040053E1 		cmp	r3, r4
 277 0040 F9FFFF2A 		bcs	.L28
 278              	.L25:
 279              		.loc 1 210 0 discriminator 1
 280 0044 000052E3 		cmp	r2, #0
 281 0048 F5FFFF1A 		bne	.L35
 282              	.L27:
 283              		.loc 1 216 0 is_stmt 1
 284 004c 041016E5 		ldr	r1, [r6, #-4]
 285              		.loc 1 213 0
ARM GAS  C:\Users\NICOMA~1\AppData\Local\Temp\ccxAmMsf.s 			page 6


 286 0050 082006E5 		str	r2, [r6, #-8]
 287              		.loc 1 214 0
 288 0054 004083E5 		str	r4, [r3, #0]
 289              		.loc 1 216 0
 290 0058 082081E2 		add	r2, r1, #8
 291 005c 08C016E5 		ldr	ip, [r6, #-8]
 292 0060 020084E0 		add	r0, r4, r2
 293 0064 0C0050E1 		cmp	r0, ip
 294 0068 0600000A 		beq	.L36
 295              	.L29:
 296              		.loc 1 221 0
 297 006c 042093E5 		ldr	r2, [r3, #4]
 298 0070 081082E2 		add	r1, r2, #8
 299 0074 011083E0 		add	r1, r3, r1
 300 0078 010054E1 		cmp	r4, r1
 301 007c 0800000A 		beq	.L37
 302              	.L30:
 303              		.loc 1 233 0
 304 0080 7040BDE8 		ldmfd	sp!, {r4, r5, r6, lr}
 305              		.loc 1 231 0
 306 0084 FEFFFFEA 		b	chMtxUnlock
 307              	.LVL35:
 308              	.L36:
 309              		.loc 1 218 0
 310 0088 040090E5 		ldr	r0, [r0, #4]
 311              		.loc 1 219 0
 312 008c 022094E7 		ldr	r2, [r4, r2]
 313              		.loc 1 218 0
 314 0090 001081E0 		add	r1, r1, r0
 315 0094 081081E2 		add	r1, r1, #8
 316 0098 041006E5 		str	r1, [r6, #-4]
 317              		.loc 1 219 0
 318 009c 082006E5 		str	r2, [r6, #-8]
 319 00a0 F1FFFFEA 		b	.L29
 320              	.L37:
 321              		.loc 1 223 0
 322 00a4 040016E5 		ldr	r0, [r6, #-4]
 323              		.loc 1 224 0
 324 00a8 081016E5 		ldr	r1, [r6, #-8]
 325              		.loc 1 223 0
 326 00ac 002082E0 		add	r2, r2, r0
 327 00b0 082082E2 		add	r2, r2, #8
 328              		.loc 1 224 0
 329 00b4 060083E8 		stmia	r3, {r1, r2}
 330 00b8 F0FFFFEA 		b	.L30
 331              		.cfi_endproc
 332              	.LFE10:
 333              		.size	chHeapFree, .-chHeapFree
 334              		.section	.text.chHeapStatus,"ax",%progbits
 335              		.align	2
 336              		.global	chHeapStatus
 337              		.type	chHeapStatus, %function
 338              	chHeapStatus:
 339              	.LFB11:
 340              		.loc 1 250 0
 341              		.cfi_startproc
 342              		@ args = 0, pretend = 0, frame = 0
ARM GAS  C:\Users\NICOMA~1\AppData\Local\Temp\ccxAmMsf.s 			page 7


 343              		@ frame_needed = 0, uses_anonymous_args = 0
 344              	.LVL36:
 345 0000 38402DE9 		stmfd	sp!, {r3, r4, r5, lr}
 346              	.LCFI2:
 347              		.cfi_def_cfa_offset 16
 348              		.cfi_offset 3, -16
 349              		.cfi_offset 4, -12
 350              		.cfi_offset 5, -8
 351              		.cfi_offset 14, -4
 352              		.loc 1 255 0
 353 0004 000050E3 		cmp	r0, #0
 354 0008 58409FE5 		ldr	r4, .L49
 355 000c 0040A011 		movne	r4, r0
 356              	.LVL37:
 357              		.loc 1 257 0
 358 0010 0C0084E2 		add	r0, r4, #12
 359              		.loc 1 250 0
 360 0014 0150A0E1 		mov	r5, r1
 361              		.loc 1 257 0
 362 0018 FEFFFFEB 		bl	chMtxLock
 363              	.LVL38:
 364              		.loc 1 260 0
 365 001c 043094E5 		ldr	r3, [r4, #4]
 366 0020 000053E3 		cmp	r3, #0
 367 0024 0C00000A 		beq	.L44
 368 0028 0020A0E3 		mov	r2, #0
 369 002c 0240A0E1 		mov	r4, r2
 370              	.LVL39:
 371              	.L41:
 372              		.loc 1 261 0 discriminator 2
 373 0030 040093E5 		ldr	r0, [r3, #4]
 374              		.loc 1 260 0 discriminator 2
 375 0034 003093E5 		ldr	r3, [r3, #0]
 376              		.loc 1 261 0 discriminator 2
 377 0038 002082E0 		add	r2, r2, r0
 378              	.LVL40:
 379              		.loc 1 260 0 discriminator 2
 380 003c 000053E3 		cmp	r3, #0
 381 0040 014084E2 		add	r4, r4, #1
 382              	.LVL41:
 383 0044 F9FFFF1A 		bne	.L41
 384              	.LVL42:
 385              	.L40:
 386              		.loc 1 262 0
 387 0048 000055E3 		cmp	r5, #0
 388              		.loc 1 263 0
 389 004c 00208515 		strne	r2, [r5, #0]
 390              		.loc 1 265 0
 391 0050 FEFFFFEB 		bl	chMtxUnlock
 392              	.LVL43:
 393              		.loc 1 267 0
 394 0054 0400A0E1 		mov	r0, r4
 395 0058 3880BDE8 		ldmfd	sp!, {r3, r4, r5, pc}
 396              	.LVL44:
 397              	.L44:
 398              		.loc 1 259 0
 399 005c 0320A0E1 		mov	r2, r3
ARM GAS  C:\Users\NICOMA~1\AppData\Local\Temp\ccxAmMsf.s 			page 8


 400              		.loc 1 260 0
 401 0060 0340A0E1 		mov	r4, r3
 402              	.LVL45:
 403 0064 F7FFFFEA 		b	.L40
 404              	.L50:
 405              		.align	2
 406              	.L49:
 407 0068 00000000 		.word	.LANCHOR0
 408              		.cfi_endproc
 409              	.LFE11:
 410              		.size	chHeapStatus, .-chHeapStatus
 411              		.section	.bss.default_heap,"aw",%nobits
 412              		.align	2
 413              		.set	.LANCHOR0,. + 0
 414              		.type	default_heap, %object
 415              		.size	default_heap, 28
 416              	default_heap:
 417 0000 00000000 		.space	28
 417      00000000 
 417      00000000 
 417      00000000 
 417      00000000 
 418              		.text
 419              	.Letext0:
 420              		.file 2 "c:\\yagarto-20121222\\bin\\../lib/gcc/arm-none-eabi/4.7.2/include/stddef.h"
 421              		.file 3 "c:/yagarto-20121222/lib/gcc/../../arm-none-eabi/sys-include/stdint.h"
 422              		.file 4 "../../os/ports/GCC/ARM/chtypes.h"
 423              		.file 5 "../../os/kernel/include/chlists.h"
 424              		.file 6 "../../os/kernel/include/chthreads.h"
 425              		.file 7 "../../os/ports/GCC/ARM/chcore.h"
 426              		.file 8 "../../os/kernel/include/chmtx.h"
 427              		.file 9 "../../os/kernel/include/chmemcore.h"
 428              		.file 10 "../../os/kernel/include/chheap.h"