ARM GAS  C:\Users\NICOMA~1\AppData\Local\Temp\ccVKYZNl.s 			page 1


   1              		.cpu arm1176jz-s
   2              		.fpu softvfp
   3              		.eabi_attribute 20, 1
   4              		.eabi_attribute 21, 1
   5              		.eabi_attribute 23, 3
   6              		.eabi_attribute 24, 1
   7              		.eabi_attribute 25, 1
   8              		.eabi_attribute 26, 1
   9              		.eabi_attribute 30, 2
  10              		.eabi_attribute 34, 1
  11              		.eabi_attribute 18, 4
  12              		.file	"chmboxes.c"
  13              		.text
  14              	.Ltext0:
  15              		.cfi_sections	.debug_frame
  16              		.section	.text.chMBInit,"ax",%progbits
  17              		.align	2
  18              		.global	chMBInit
  19              		.type	chMBInit, %function
  20              	chMBInit:
  21              	.LFB7:
  22              		.file 1 "../../os/kernel/src/chmboxes.c"
  23              		.loc 1 72 0
  24              		.cfi_startproc
  25              		@ args = 0, pretend = 0, frame = 0
  26              		@ frame_needed = 0, uses_anonymous_args = 0
  27              	.LVL0:
  28 0000 10402DE9 		stmfd	sp!, {r4, lr}
  29              	.LCFI0:
  30              		.cfi_def_cfa_offset 8
  31              		.cfi_offset 4, -8
  32              		.cfi_offset 14, -4
  33              		.loc 1 72 0
  34 0004 0130A0E1 		mov	r3, r1
  35 0008 0040A0E1 		mov	r4, r0
  36              		.loc 1 77 0
  37 000c 02C181E0 		add	ip, r1, r2, asl #2
  38              		.loc 1 78 0
  39 0010 1C0080E2 		add	r0, r0, #28
  40              	.LVL1:
  41 0014 0210A0E1 		mov	r1, r2
  42              	.LVL2:
  43              		.loc 1 76 0
  44 0018 0C3084E5 		str	r3, [r4, #12]
  45 001c 083084E5 		str	r3, [r4, #8]
  46              		.loc 1 77 0
  47 0020 081084E8 		stmia	r4, {r3, ip}
  48              		.loc 1 78 0
  49 0024 FEFFFFEB 		bl	chSemInit
  50              	.LVL3:
  51              		.loc 1 79 0
  52 0028 100084E2 		add	r0, r4, #16
  53 002c 0010A0E3 		mov	r1, #0
  54              		.loc 1 80 0
  55 0030 1040BDE8 		ldmfd	sp!, {r4, lr}
  56              		.loc 1 79 0
  57 0034 FEFFFFEA 		b	chSemInit
ARM GAS  C:\Users\NICOMA~1\AppData\Local\Temp\ccVKYZNl.s 			page 2


  58              	.LVL4:
  59              		.cfi_endproc
  60              	.LFE7:
  61              		.size	chMBInit, .-chMBInit
  62              		.section	.text.chMBReset,"ax",%progbits
  63              		.align	2
  64              		.global	chMBReset
  65              		.type	chMBReset, %function
  66              	chMBReset:
  67              	.LFB8:
  68              		.loc 1 91 0
  69              		.cfi_startproc
  70              		@ args = 0, pretend = 0, frame = 0
  71              		@ frame_needed = 0, uses_anonymous_args = 0
  72              	.LVL5:
  73 0000 10402DE9 		stmfd	sp!, {r4, lr}
  74              	.LCFI1:
  75              		.cfi_def_cfa_offset 8
  76              		.cfi_offset 4, -8
  77              		.cfi_offset 14, -4
  78              		.loc 1 91 0
  79 0004 0040A0E1 		mov	r4, r0
  80              		.loc 1 95 0
  81              	@ 95 "../../os/kernel/src/chmboxes.c" 1
  82 0008 9FF021E3 		msr     CPSR_c, #0x9F
  83              	@ 0 "" 2
  84              		.loc 1 96 0
  85 000c 003090E5 		ldr	r3, [r0, #0]
  86              		.loc 1 97 0
  87 0010 041090E5 		ldr	r1, [r0, #4]
  88              		.loc 1 96 0
  89 0014 0C3084E5 		str	r3, [r4, #12]
  90              		.loc 1 97 0
  91 0018 011063E0 		rsb	r1, r3, r1
  92              		.loc 1 96 0
  93 001c 083084E5 		str	r3, [r4, #8]
  94              		.loc 1 97 0
  95 0020 1C0080E2 		add	r0, r0, #28
  96              	.LVL6:
  97 0024 4111A0E1 		mov	r1, r1, asr #2
  98 0028 FEFFFFEB 		bl	chSemResetI
  99              	.LVL7:
 100              		.loc 1 98 0
 101 002c 100084E2 		add	r0, r4, #16
 102 0030 0010A0E3 		mov	r1, #0
 103 0034 FEFFFFEB 		bl	chSemResetI
 104              	.LVL8:
 105              		.loc 1 99 0
 106 0038 FEFFFFEB 		bl	chSchRescheduleS
 107              	.LVL9:
 108              		.loc 1 100 0
 109              	@ 100 "../../os/kernel/src/chmboxes.c" 1
 110 003c 1FF021E3 		msr     CPSR_c, #0x1F
 111              	@ 0 "" 2
 112 0040 1080BDE8 		ldmfd	sp!, {r4, pc}
 113              		.cfi_endproc
 114              	.LFE8:
ARM GAS  C:\Users\NICOMA~1\AppData\Local\Temp\ccVKYZNl.s 			page 3


 115              		.size	chMBReset, .-chMBReset
 116              		.section	.text.chMBPostS,"ax",%progbits
 117              		.align	2
 118              		.global	chMBPostS
 119              		.type	chMBPostS, %function
 120              	chMBPostS:
 121              	.LFB10:
 122              		.loc 1 150 0
 123              		.cfi_startproc
 124              		@ args = 0, pretend = 0, frame = 0
 125              		@ frame_needed = 0, uses_anonymous_args = 0
 126              	.LVL10:
 127 0000 70402DE9 		stmfd	sp!, {r4, r5, r6, lr}
 128              	.LCFI2:
 129              		.cfi_def_cfa_offset 16
 130              		.cfi_offset 4, -16
 131              		.cfi_offset 5, -12
 132              		.cfi_offset 6, -8
 133              		.cfi_offset 14, -4
 134              		.loc 1 150 0
 135 0004 0040A0E1 		mov	r4, r0
 136 0008 0160A0E1 		mov	r6, r1
 137              		.loc 1 156 0
 138 000c 1C0080E2 		add	r0, r0, #28
 139              	.LVL11:
 140 0010 0210A0E1 		mov	r1, r2
 141              	.LVL12:
 142 0014 FEFFFFEB 		bl	chSemWaitTimeoutS
 143              	.LVL13:
 144              		.loc 1 157 0
 145 0018 005050E2 		subs	r5, r0, #0
 146 001c 0800001A 		bne	.L4
 147              		.loc 1 159 0
 148 0020 0C0094E9 		ldmib	r4, {r2, r3}
 149              		.loc 1 158 0
 150 0024 046083E4 		str	r6, [r3], #4
 151              		.loc 1 159 0
 152 0028 020053E1 		cmp	r3, r2
 153              		.loc 1 158 0
 154 002c 083084E5 		str	r3, [r4, #8]
 155              		.loc 1 160 0
 156 0030 00309425 		ldrcs	r3, [r4, #0]
 157              		.loc 1 161 0
 158 0034 100084E2 		add	r0, r4, #16
 159              	.LVL14:
 160              		.loc 1 160 0
 161 0038 08308425 		strcs	r3, [r4, #8]
 162              		.loc 1 161 0
 163 003c FEFFFFEB 		bl	chSemSignalI
 164              	.LVL15:
 165              		.loc 1 162 0
 166 0040 FEFFFFEB 		bl	chSchRescheduleS
 167              	.LVL16:
 168              	.L4:
 169              		.loc 1 165 0
 170 0044 0500A0E1 		mov	r0, r5
 171 0048 7080BDE8 		ldmfd	sp!, {r4, r5, r6, pc}
ARM GAS  C:\Users\NICOMA~1\AppData\Local\Temp\ccVKYZNl.s 			page 4


 172              		.cfi_endproc
 173              	.LFE10:
 174              		.size	chMBPostS, .-chMBPostS
 175              		.section	.text.chMBPost,"ax",%progbits
 176              		.align	2
 177              		.global	chMBPost
 178              		.type	chMBPost, %function
 179              	chMBPost:
 180              	.LFB9:
 181              		.loc 1 122 0
 182              		.cfi_startproc
 183              		@ args = 0, pretend = 0, frame = 0
 184              		@ frame_needed = 0, uses_anonymous_args = 0
 185              	.LVL17:
 186 0000 08402DE9 		stmfd	sp!, {r3, lr}
 187              	.LCFI3:
 188              		.cfi_def_cfa_offset 8
 189              		.cfi_offset 3, -8
 190              		.cfi_offset 14, -4
 191              		.loc 1 125 0
 192              	@ 125 "../../os/kernel/src/chmboxes.c" 1
 193 0004 9FF021E3 		msr     CPSR_c, #0x9F
 194              	@ 0 "" 2
 195              		.loc 1 126 0
 196 0008 FEFFFFEB 		bl	chMBPostS
 197              	.LVL18:
 198              		.loc 1 127 0
 199              	@ 127 "../../os/kernel/src/chmboxes.c" 1
 200 000c 1FF021E3 		msr     CPSR_c, #0x1F
 201              	@ 0 "" 2
 202              		.loc 1 129 0
 203 0010 0880BDE8 		ldmfd	sp!, {r3, pc}
 204              		.cfi_endproc
 205              	.LFE9:
 206              		.size	chMBPost, .-chMBPost
 207              		.section	.text.chMBPostI,"ax",%progbits
 208              		.align	2
 209              		.global	chMBPostI
 210              		.type	chMBPostI, %function
 211              	chMBPostI:
 212              	.LFB11:
 213              		.loc 1 181 0
 214              		.cfi_startproc
 215              		@ args = 0, pretend = 0, frame = 0
 216              		@ frame_needed = 0, uses_anonymous_args = 0
 217              	.LVL19:
 218              		.loc 1 186 0
 219 0000 242090E5 		ldr	r2, [r0, #36]
 220              		.loc 1 181 0
 221 0004 08402DE9 		stmfd	sp!, {r3, lr}
 222              	.LCFI4:
 223              		.cfi_def_cfa_offset 8
 224              		.cfi_offset 3, -8
 225              		.cfi_offset 14, -4
 226              		.loc 1 186 0
 227 0008 000052E3 		cmp	r2, #0
 228 000c 0C0000DA 		ble	.L11
ARM GAS  C:\Users\NICOMA~1\AppData\Local\Temp\ccVKYZNl.s 			page 5


 229              		.loc 1 189 0
 230 0010 083090E5 		ldr	r3, [r0, #8]
 231              		.loc 1 190 0
 232 0014 04C090E5 		ldr	ip, [r0, #4]
 233              		.loc 1 188 0
 234 0018 012042E2 		sub	r2, r2, #1
 235 001c 242080E5 		str	r2, [r0, #36]
 236              		.loc 1 189 0
 237 0020 041083E4 		str	r1, [r3], #4
 238              		.loc 1 190 0
 239 0024 0C0053E1 		cmp	r3, ip
 240              		.loc 1 189 0
 241 0028 083080E5 		str	r3, [r0, #8]
 242              		.loc 1 191 0
 243 002c 00309025 		ldrcs	r3, [r0, #0]
 244 0030 08308025 		strcs	r3, [r0, #8]
 245              		.loc 1 192 0
 246 0034 100080E2 		add	r0, r0, #16
 247              	.LVL20:
 248 0038 FEFFFFEB 		bl	chSemSignalI
 249              	.LVL21:
 250              		.loc 1 193 0
 251 003c 0000A0E3 		mov	r0, #0
 252 0040 0880BDE8 		ldmfd	sp!, {r3, pc}
 253              	.LVL22:
 254              	.L11:
 255              		.loc 1 187 0
 256 0044 0000E0E3 		mvn	r0, #0
 257              	.LVL23:
 258              		.loc 1 194 0
 259 0048 0880BDE8 		ldmfd	sp!, {r3, pc}
 260              		.cfi_endproc
 261              	.LFE11:
 262              		.size	chMBPostI, .-chMBPostI
 263              		.section	.text.chMBPostAheadS,"ax",%progbits
 264              		.align	2
 265              		.global	chMBPostAheadS
 266              		.type	chMBPostAheadS, %function
 267              	chMBPostAheadS:
 268              	.LFB13:
 269              		.loc 1 243 0
 270              		.cfi_startproc
 271              		@ args = 0, pretend = 0, frame = 0
 272              		@ frame_needed = 0, uses_anonymous_args = 0
 273              	.LVL24:
 274 0000 70402DE9 		stmfd	sp!, {r4, r5, r6, lr}
 275              	.LCFI5:
 276              		.cfi_def_cfa_offset 16
 277              		.cfi_offset 4, -16
 278              		.cfi_offset 5, -12
 279              		.cfi_offset 6, -8
 280              		.cfi_offset 14, -4
 281              		.loc 1 243 0
 282 0004 0040A0E1 		mov	r4, r0
 283 0008 0160A0E1 		mov	r6, r1
 284              		.loc 1 249 0
 285 000c 1C0080E2 		add	r0, r0, #28
ARM GAS  C:\Users\NICOMA~1\AppData\Local\Temp\ccVKYZNl.s 			page 6


 286              	.LVL25:
 287 0010 0210A0E1 		mov	r1, r2
 288              	.LVL26:
 289 0014 FEFFFFEB 		bl	chSemWaitTimeoutS
 290              	.LVL27:
 291              		.loc 1 250 0
 292 0018 005050E2 		subs	r5, r0, #0
 293 001c 0B00001A 		bne	.L13
 294              		.loc 1 251 0
 295 0020 0C3094E5 		ldr	r3, [r4, #12]
 296 0024 002094E5 		ldr	r2, [r4, #0]
 297 0028 043043E2 		sub	r3, r3, #4
 298 002c 020053E1 		cmp	r3, r2
 299 0030 0C3084E5 		str	r3, [r4, #12]
 300              		.loc 1 252 0
 301 0034 04309435 		ldrcc	r3, [r4, #4]
 302              		.loc 1 254 0
 303 0038 100084E2 		add	r0, r4, #16
 304              	.LVL28:
 305              		.loc 1 252 0
 306 003c 04304332 		subcc	r3, r3, #4
 307 0040 0C308435 		strcc	r3, [r4, #12]
 308              		.loc 1 253 0
 309 0044 006083E5 		str	r6, [r3, #0]
 310              		.loc 1 254 0
 311 0048 FEFFFFEB 		bl	chSemSignalI
 312              	.LVL29:
 313              		.loc 1 255 0
 314 004c FEFFFFEB 		bl	chSchRescheduleS
 315              	.LVL30:
 316              	.L13:
 317              		.loc 1 258 0
 318 0050 0500A0E1 		mov	r0, r5
 319 0054 7080BDE8 		ldmfd	sp!, {r4, r5, r6, pc}
 320              		.cfi_endproc
 321              	.LFE13:
 322              		.size	chMBPostAheadS, .-chMBPostAheadS
 323              		.section	.text.chMBPostAhead,"ax",%progbits
 324              		.align	2
 325              		.global	chMBPostAhead
 326              		.type	chMBPostAhead, %function
 327              	chMBPostAhead:
 328              	.LFB12:
 329              		.loc 1 215 0
 330              		.cfi_startproc
 331              		@ args = 0, pretend = 0, frame = 0
 332              		@ frame_needed = 0, uses_anonymous_args = 0
 333              	.LVL31:
 334 0000 08402DE9 		stmfd	sp!, {r3, lr}
 335              	.LCFI6:
 336              		.cfi_def_cfa_offset 8
 337              		.cfi_offset 3, -8
 338              		.cfi_offset 14, -4
 339              		.loc 1 218 0
 340              	@ 218 "../../os/kernel/src/chmboxes.c" 1
 341 0004 9FF021E3 		msr     CPSR_c, #0x9F
 342              	@ 0 "" 2
ARM GAS  C:\Users\NICOMA~1\AppData\Local\Temp\ccVKYZNl.s 			page 7


 343              		.loc 1 219 0
 344 0008 FEFFFFEB 		bl	chMBPostAheadS
 345              	.LVL32:
 346              		.loc 1 220 0
 347              	@ 220 "../../os/kernel/src/chmboxes.c" 1
 348 000c 1FF021E3 		msr     CPSR_c, #0x1F
 349              	@ 0 "" 2
 350              		.loc 1 222 0
 351 0010 0880BDE8 		ldmfd	sp!, {r3, pc}
 352              		.cfi_endproc
 353              	.LFE12:
 354              		.size	chMBPostAhead, .-chMBPostAhead
 355              		.section	.text.chMBPostAheadI,"ax",%progbits
 356              		.align	2
 357              		.global	chMBPostAheadI
 358              		.type	chMBPostAheadI, %function
 359              	chMBPostAheadI:
 360              	.LFB14:
 361              		.loc 1 274 0
 362              		.cfi_startproc
 363              		@ args = 0, pretend = 0, frame = 0
 364              		@ frame_needed = 0, uses_anonymous_args = 0
 365              	.LVL33:
 366              		.loc 1 279 0
 367 0000 242090E5 		ldr	r2, [r0, #36]
 368              		.loc 1 274 0
 369 0004 08402DE9 		stmfd	sp!, {r3, lr}
 370              	.LCFI7:
 371              		.cfi_def_cfa_offset 8
 372              		.cfi_offset 3, -8
 373              		.cfi_offset 14, -4
 374              		.loc 1 279 0
 375 0008 000052E3 		cmp	r2, #0
 376 000c 0E0000DA 		ble	.L19
 377              		.loc 1 282 0
 378 0010 0C3090E5 		ldr	r3, [r0, #12]
 379 0014 00C090E5 		ldr	ip, [r0, #0]
 380 0018 043043E2 		sub	r3, r3, #4
 381 001c 0C0053E1 		cmp	r3, ip
 382 0020 0C3080E5 		str	r3, [r0, #12]
 383              		.loc 1 283 0
 384 0024 04309035 		ldrcc	r3, [r0, #4]
 385              		.loc 1 281 0
 386 0028 012042E2 		sub	r2, r2, #1
 387              		.loc 1 283 0
 388 002c 04304332 		subcc	r3, r3, #4
 389              		.loc 1 281 0
 390 0030 242080E5 		str	r2, [r0, #36]
 391              		.loc 1 283 0
 392 0034 0C308035 		strcc	r3, [r0, #12]
 393              		.loc 1 284 0
 394 0038 001083E5 		str	r1, [r3, #0]
 395              		.loc 1 285 0
 396 003c 100080E2 		add	r0, r0, #16
 397              	.LVL34:
 398 0040 FEFFFFEB 		bl	chSemSignalI
 399              	.LVL35:
ARM GAS  C:\Users\NICOMA~1\AppData\Local\Temp\ccVKYZNl.s 			page 8


 400              		.loc 1 286 0
 401 0044 0000A0E3 		mov	r0, #0
 402 0048 0880BDE8 		ldmfd	sp!, {r3, pc}
 403              	.LVL36:
 404              	.L19:
 405              		.loc 1 280 0
 406 004c 0000E0E3 		mvn	r0, #0
 407              	.LVL37:
 408              		.loc 1 287 0
 409 0050 0880BDE8 		ldmfd	sp!, {r3, pc}
 410              		.cfi_endproc
 411              	.LFE14:
 412              		.size	chMBPostAheadI, .-chMBPostAheadI
 413              		.section	.text.chMBFetchS,"ax",%progbits
 414              		.align	2
 415              		.global	chMBFetchS
 416              		.type	chMBFetchS, %function
 417              	chMBFetchS:
 418              	.LFB16:
 419              		.loc 1 336 0
 420              		.cfi_startproc
 421              		@ args = 0, pretend = 0, frame = 0
 422              		@ frame_needed = 0, uses_anonymous_args = 0
 423              	.LVL38:
 424 0000 70402DE9 		stmfd	sp!, {r4, r5, r6, lr}
 425              	.LCFI8:
 426              		.cfi_def_cfa_offset 16
 427              		.cfi_offset 4, -16
 428              		.cfi_offset 5, -12
 429              		.cfi_offset 6, -8
 430              		.cfi_offset 14, -4
 431              		.loc 1 336 0
 432 0004 0040A0E1 		mov	r4, r0
 433 0008 0160A0E1 		mov	r6, r1
 434              		.loc 1 342 0
 435 000c 100080E2 		add	r0, r0, #16
 436              	.LVL39:
 437 0010 0210A0E1 		mov	r1, r2
 438              	.LVL40:
 439 0014 FEFFFFEB 		bl	chSemWaitTimeoutS
 440              	.LVL41:
 441              		.loc 1 343 0
 442 0018 005050E2 		subs	r5, r0, #0
 443 001c 0A00001A 		bne	.L21
 444              		.loc 1 344 0
 445 0020 0C3094E5 		ldr	r3, [r4, #12]
 446              		.loc 1 345 0
 447 0024 041094E5 		ldr	r1, [r4, #4]
 448              		.loc 1 344 0
 449 0028 042093E4 		ldr	r2, [r3], #4
 450              		.loc 1 347 0
 451 002c 1C0084E2 		add	r0, r4, #28
 452              	.LVL42:
 453              		.loc 1 345 0
 454 0030 010053E1 		cmp	r3, r1
 455              		.loc 1 344 0
 456 0034 002086E5 		str	r2, [r6, #0]
ARM GAS  C:\Users\NICOMA~1\AppData\Local\Temp\ccVKYZNl.s 			page 9


 457 0038 0C3084E5 		str	r3, [r4, #12]
 458              		.loc 1 346 0
 459 003c 00309425 		ldrcs	r3, [r4, #0]
 460 0040 0C308425 		strcs	r3, [r4, #12]
 461              		.loc 1 347 0
 462 0044 FEFFFFEB 		bl	chSemSignalI
 463              	.LVL43:
 464              		.loc 1 348 0
 465 0048 FEFFFFEB 		bl	chSchRescheduleS
 466              	.LVL44:
 467              	.L21:
 468              		.loc 1 351 0
 469 004c 0500A0E1 		mov	r0, r5
 470 0050 7080BDE8 		ldmfd	sp!, {r4, r5, r6, pc}
 471              		.cfi_endproc
 472              	.LFE16:
 473              		.size	chMBFetchS, .-chMBFetchS
 474              		.section	.text.chMBFetch,"ax",%progbits
 475              		.align	2
 476              		.global	chMBFetch
 477              		.type	chMBFetch, %function
 478              	chMBFetch:
 479              	.LFB15:
 480              		.loc 1 308 0
 481              		.cfi_startproc
 482              		@ args = 0, pretend = 0, frame = 0
 483              		@ frame_needed = 0, uses_anonymous_args = 0
 484              	.LVL45:
 485 0000 08402DE9 		stmfd	sp!, {r3, lr}
 486              	.LCFI9:
 487              		.cfi_def_cfa_offset 8
 488              		.cfi_offset 3, -8
 489              		.cfi_offset 14, -4
 490              		.loc 1 311 0
 491              	@ 311 "../../os/kernel/src/chmboxes.c" 1
 492 0004 9FF021E3 		msr     CPSR_c, #0x9F
 493              	@ 0 "" 2
 494              		.loc 1 312 0
 495 0008 FEFFFFEB 		bl	chMBFetchS
 496              	.LVL46:
 497              		.loc 1 313 0
 498              	@ 313 "../../os/kernel/src/chmboxes.c" 1
 499 000c 1FF021E3 		msr     CPSR_c, #0x1F
 500              	@ 0 "" 2
 501              		.loc 1 315 0
 502 0010 0880BDE8 		ldmfd	sp!, {r3, pc}
 503              		.cfi_endproc
 504              	.LFE15:
 505              		.size	chMBFetch, .-chMBFetch
 506              		.section	.text.chMBFetchI,"ax",%progbits
 507              		.align	2
 508              		.global	chMBFetchI
 509              		.type	chMBFetchI, %function
 510              	chMBFetchI:
 511              	.LFB17:
 512              		.loc 1 367 0
 513              		.cfi_startproc
ARM GAS  C:\Users\NICOMA~1\AppData\Local\Temp\ccVKYZNl.s 			page 10


 514              		@ args = 0, pretend = 0, frame = 0
 515              		@ frame_needed = 0, uses_anonymous_args = 0
 516              	.LVL47:
 517              		.loc 1 372 0
 518 0000 182090E5 		ldr	r2, [r0, #24]
 519              		.loc 1 367 0
 520 0004 08402DE9 		stmfd	sp!, {r3, lr}
 521              	.LCFI10:
 522              		.cfi_def_cfa_offset 8
 523              		.cfi_offset 3, -8
 524              		.cfi_offset 14, -4
 525              		.loc 1 372 0
 526 0008 000052E3 		cmp	r2, #0
 527 000c 0D0000DA 		ble	.L27
 528              		.loc 1 375 0
 529 0010 0C3090E5 		ldr	r3, [r0, #12]
 530              		.loc 1 374 0
 531 0014 012042E2 		sub	r2, r2, #1
 532 0018 182080E5 		str	r2, [r0, #24]
 533              		.loc 1 375 0
 534 001c 04C093E4 		ldr	ip, [r3], #4
 535              		.loc 1 376 0
 536 0020 042090E5 		ldr	r2, [r0, #4]
 537              		.loc 1 375 0
 538 0024 00C081E5 		str	ip, [r1, #0]
 539              		.loc 1 376 0
 540 0028 020053E1 		cmp	r3, r2
 541              		.loc 1 375 0
 542 002c 0C3080E5 		str	r3, [r0, #12]
 543              		.loc 1 377 0
 544 0030 00309025 		ldrcs	r3, [r0, #0]
 545 0034 0C308025 		strcs	r3, [r0, #12]
 546              		.loc 1 378 0
 547 0038 1C0080E2 		add	r0, r0, #28
 548              	.LVL48:
 549 003c FEFFFFEB 		bl	chSemSignalI
 550              	.LVL49:
 551              		.loc 1 379 0
 552 0040 0000A0E3 		mov	r0, #0
 553 0044 0880BDE8 		ldmfd	sp!, {r3, pc}
 554              	.LVL50:
 555              	.L27:
 556              		.loc 1 373 0
 557 0048 0000E0E3 		mvn	r0, #0
 558              	.LVL51:
 559              		.loc 1 380 0
 560 004c 0880BDE8 		ldmfd	sp!, {r3, pc}
 561              		.cfi_endproc
 562              	.LFE17:
 563              		.size	chMBFetchI, .-chMBFetchI
 564              		.text
 565              	.Letext0:
 566              		.file 2 "c:/yagarto-20121222/lib/gcc/../../arm-none-eabi/sys-include/stdint.h"
 567              		.file 3 "../../os/ports/GCC/ARM/chtypes.h"
 568              		.file 4 "../../os/kernel/include/chlists.h"
 569              		.file 5 "../../os/kernel/include/chthreads.h"
 570              		.file 6 "../../os/ports/GCC/ARM/chcore.h"
ARM GAS  C:\Users\NICOMA~1\AppData\Local\Temp\ccVKYZNl.s 			page 11


 571              		.file 7 "../../os/kernel/include/chsem.h"
 572              		.file 8 "../../os/kernel/include/chmtx.h"
 573              		.file 9 "../../os/kernel/include/chmboxes.h"
 574              		.file 10 "../../os/kernel/include/chschd.h"
 575              		.section	.debug_info,"",%progbits
 576              	.Ldebug_info0:
 577 0000 D3090000 		.4byte	0x9d3
 578 0004 0200     		.2byte	0x2
 579 0006 00000000 		.4byte	.Ldebug_abbrev0
 580 000a 04       		.byte	0x4
 581 000b 01       		.uleb128 0x1
 582 000c 28020000 		.4byte	.LASF81
 583 0010 01       		.byte	0x1
 584 0011 0D010000 		.4byte	.LASF82
 585 0015 D2000000 		.4byte	.LASF83
 586 0019 00000000 		.4byte	.Ldebug_ranges0+0
 587 001d 00000000 		.4byte	0
 588 0021 00000000 		.4byte	0
 589 0025 00000000 		.4byte	.Ldebug_line0
 590 0029 02       		.uleb128 0x2
 591 002a 04       		.byte	0x4
 592 002b 05       		.byte	0x5
 593 002c 696E7400 		.ascii	"int\000"
 594 0030 03       		.uleb128 0x3
 595 0031 04       		.byte	0x4
 596 0032 07       		.byte	0x7
 597 0033 4C010000 		.4byte	.LASF0
 598 0037 03       		.uleb128 0x3
 599 0038 01       		.byte	0x1
 600 0039 06       		.byte	0x6
 601 003a 92000000 		.4byte	.LASF1
 602 003e 04       		.uleb128 0x4
 603 003f 5A030000 		.4byte	.LASF5
 604 0043 02       		.byte	0x2
 605 0044 2A       		.byte	0x2a
 606 0045 49000000 		.4byte	0x49
 607 0049 03       		.uleb128 0x3
 608 004a 01       		.byte	0x1
 609 004b 08       		.byte	0x8
 610 004c 59020000 		.4byte	.LASF2
 611 0050 03       		.uleb128 0x3
 612 0051 02       		.byte	0x2
 613 0052 05       		.byte	0x5
 614 0053 78020000 		.4byte	.LASF3
 615 0057 03       		.uleb128 0x3
 616 0058 02       		.byte	0x2
 617 0059 07       		.byte	0x7
 618 005a 8E010000 		.4byte	.LASF4
 619 005e 04       		.uleb128 0x4
 620 005f 51020000 		.4byte	.LASF6
 621 0063 02       		.byte	0x2
 622 0064 4F       		.byte	0x4f
 623 0065 69000000 		.4byte	0x69
 624 0069 03       		.uleb128 0x3
 625 006a 04       		.byte	0x4
 626 006b 05       		.byte	0x5
 627 006c B0000000 		.4byte	.LASF7
ARM GAS  C:\Users\NICOMA~1\AppData\Local\Temp\ccVKYZNl.s 			page 12


 628 0070 04       		.uleb128 0x4
 629 0071 C5020000 		.4byte	.LASF8
 630 0075 02       		.byte	0x2
 631 0076 50       		.byte	0x50
 632 0077 7B000000 		.4byte	0x7b
 633 007b 03       		.uleb128 0x3
 634 007c 04       		.byte	0x4
 635 007d 07       		.byte	0x7
 636 007e 62010000 		.4byte	.LASF9
 637 0082 03       		.uleb128 0x3
 638 0083 08       		.byte	0x8
 639 0084 05       		.byte	0x5
 640 0085 84000000 		.4byte	.LASF10
 641 0089 03       		.uleb128 0x3
 642 008a 08       		.byte	0x8
 643 008b 07       		.byte	0x7
 644 008c 45000000 		.4byte	.LASF11
 645 0090 03       		.uleb128 0x3
 646 0091 01       		.byte	0x1
 647 0092 02       		.byte	0x2
 648 0093 4B020000 		.4byte	.LASF12
 649 0097 04       		.uleb128 0x4
 650 0098 BD010000 		.4byte	.LASF13
 651 009c 03       		.byte	0x3
 652 009d 2C       		.byte	0x2c
 653 009e 3E000000 		.4byte	0x3e
 654 00a2 04       		.uleb128 0x4
 655 00a3 B9000000 		.4byte	.LASF14
 656 00a7 03       		.byte	0x3
 657 00a8 2D       		.byte	0x2d
 658 00a9 3E000000 		.4byte	0x3e
 659 00ad 04       		.uleb128 0x4
 660 00ae 34020000 		.4byte	.LASF15
 661 00b2 03       		.byte	0x3
 662 00b3 2E       		.byte	0x2e
 663 00b4 3E000000 		.4byte	0x3e
 664 00b8 04       		.uleb128 0x4
 665 00b9 A6000000 		.4byte	.LASF16
 666 00bd 03       		.byte	0x3
 667 00be 2F       		.byte	0x2f
 668 00bf 3E000000 		.4byte	0x3e
 669 00c3 04       		.uleb128 0x4
 670 00c4 43020000 		.4byte	.LASF17
 671 00c8 03       		.byte	0x3
 672 00c9 30       		.byte	0x30
 673 00ca 70000000 		.4byte	0x70
 674 00ce 04       		.uleb128 0x4
 675 00cf AC010000 		.4byte	.LASF18
 676 00d3 03       		.byte	0x3
 677 00d4 31       		.byte	0x31
 678 00d5 5E000000 		.4byte	0x5e
 679 00d9 04       		.uleb128 0x4
 680 00da D1010000 		.4byte	.LASF19
 681 00de 03       		.byte	0x3
 682 00df 33       		.byte	0x33
 683 00e0 70000000 		.4byte	0x70
 684 00e4 04       		.uleb128 0x4
ARM GAS  C:\Users\NICOMA~1\AppData\Local\Temp\ccVKYZNl.s 			page 13


 685 00e5 EC020000 		.4byte	.LASF20
 686 00e9 03       		.byte	0x3
 687 00ea 35       		.byte	0x35
 688 00eb 70000000 		.4byte	0x70
 689 00ef 04       		.uleb128 0x4
 690 00f0 46010000 		.4byte	.LASF21
 691 00f4 03       		.byte	0x3
 692 00f5 36       		.byte	0x36
 693 00f6 5E000000 		.4byte	0x5e
 694 00fa 04       		.uleb128 0x4
 695 00fb B3020000 		.4byte	.LASF22
 696 00ff 04       		.byte	0x4
 697 0100 2A       		.byte	0x2a
 698 0101 05010000 		.4byte	0x105
 699 0105 05       		.uleb128 0x5
 700 0106 B3020000 		.4byte	.LASF22
 701 010a 44       		.byte	0x44
 702 010b 05       		.byte	0x5
 703 010c 5E       		.byte	0x5e
 704 010d 1C020000 		.4byte	0x21c
 705 0111 06       		.uleb128 0x6
 706 0112 9B020000 		.4byte	.LASF23
 707 0116 05       		.byte	0x5
 708 0117 5F       		.byte	0x5f
 709 0118 41020000 		.4byte	0x241
 710 011c 02       		.byte	0x2
 711 011d 23       		.byte	0x23
 712 011e 00       		.uleb128 0
 713 011f 06       		.uleb128 0x6
 714 0120 3C020000 		.4byte	.LASF24
 715 0124 05       		.byte	0x5
 716 0125 61       		.byte	0x61
 717 0126 41020000 		.4byte	0x241
 718 012a 02       		.byte	0x2
 719 012b 23       		.byte	0x23
 720 012c 04       		.uleb128 0x4
 721 012d 06       		.uleb128 0x6
 722 012e 7D000000 		.4byte	.LASF25
 723 0132 05       		.byte	0x5
 724 0133 63       		.byte	0x63
 725 0134 C3000000 		.4byte	0xc3
 726 0138 02       		.byte	0x2
 727 0139 23       		.byte	0x23
 728 013a 08       		.uleb128 0x8
 729 013b 06       		.uleb128 0x6
 730 013c 78030000 		.4byte	.LASF26
 731 0140 05       		.byte	0x5
 732 0141 64       		.byte	0x64
 733 0142 05030000 		.4byte	0x305
 734 0146 02       		.byte	0x2
 735 0147 23       		.byte	0x23
 736 0148 0C       		.uleb128 0xc
 737 0149 06       		.uleb128 0x6
 738 014a C2000000 		.4byte	.LASF27
 739 014e 05       		.byte	0x5
 740 014f 66       		.byte	0x66
 741 0150 41020000 		.4byte	0x241
ARM GAS  C:\Users\NICOMA~1\AppData\Local\Temp\ccVKYZNl.s 			page 14


 742 0154 02       		.byte	0x2
 743 0155 23       		.byte	0x23
 744 0156 10       		.uleb128 0x10
 745 0157 06       		.uleb128 0x6
 746 0158 04020000 		.4byte	.LASF28
 747 015c 05       		.byte	0x5
 748 015d 67       		.byte	0x67
 749 015e 41020000 		.4byte	0x241
 750 0162 02       		.byte	0x2
 751 0163 23       		.byte	0x23
 752 0164 14       		.uleb128 0x14
 753 0165 06       		.uleb128 0x6
 754 0166 69030000 		.4byte	.LASF29
 755 016a 05       		.byte	0x5
 756 016b 6E       		.byte	0x6e
 757 016c 4A040000 		.4byte	0x44a
 758 0170 02       		.byte	0x2
 759 0171 23       		.byte	0x23
 760 0172 18       		.uleb128 0x18
 761 0173 06       		.uleb128 0x6
 762 0174 82020000 		.4byte	.LASF30
 763 0178 05       		.byte	0x5
 764 0179 79       		.byte	0x79
 765 017a A2000000 		.4byte	0xa2
 766 017e 02       		.byte	0x2
 767 017f 23       		.byte	0x23
 768 0180 1C       		.uleb128 0x1c
 769 0181 06       		.uleb128 0x6
 770 0182 A2020000 		.4byte	.LASF31
 771 0186 05       		.byte	0x5
 772 0187 7D       		.byte	0x7d
 773 0188 97000000 		.4byte	0x97
 774 018c 02       		.byte	0x2
 775 018d 23       		.byte	0x23
 776 018e 1D       		.uleb128 0x1d
 777 018f 06       		.uleb128 0x6
 778 0190 47030000 		.4byte	.LASF32
 779 0194 05       		.byte	0x5
 780 0195 82       		.byte	0x82
 781 0196 AD000000 		.4byte	0xad
 782 019a 02       		.byte	0x2
 783 019b 23       		.byte	0x23
 784 019c 1E       		.uleb128 0x1e
 785 019d 06       		.uleb128 0x6
 786 019e 8A020000 		.4byte	.LASF33
 787 01a2 05       		.byte	0x5
 788 01a3 88       		.byte	0x88
 789 01a4 B8000000 		.4byte	0xb8
 790 01a8 02       		.byte	0x2
 791 01a9 23       		.byte	0x23
 792 01aa 1F       		.uleb128 0x1f
 793 01ab 06       		.uleb128 0x6
 794 01ac 01030000 		.4byte	.LASF34
 795 01b0 05       		.byte	0x5
 796 01b1 8F       		.byte	0x8f
 797 01b2 26030000 		.4byte	0x326
 798 01b6 02       		.byte	0x2
ARM GAS  C:\Users\NICOMA~1\AppData\Local\Temp\ccVKYZNl.s 			page 15


 799 01b7 23       		.byte	0x23
 800 01b8 20       		.uleb128 0x20
 801 01b9 07       		.uleb128 0x7
 802 01ba 705F7500 		.ascii	"p_u\000"
 803 01be 05       		.byte	0x5
 804 01bf B4       		.byte	0xb4
 805 01c0 15040000 		.4byte	0x415
 806 01c4 02       		.byte	0x2
 807 01c5 23       		.byte	0x23
 808 01c6 24       		.uleb128 0x24
 809 01c7 06       		.uleb128 0x6
 810 01c8 7E030000 		.4byte	.LASF35
 811 01cc 05       		.byte	0x5
 812 01cd B9       		.byte	0xb9
 813 01ce 69020000 		.4byte	0x269
 814 01d2 02       		.byte	0x2
 815 01d3 23       		.byte	0x23
 816 01d4 28       		.uleb128 0x28
 817 01d5 06       		.uleb128 0x6
 818 01d6 1D030000 		.4byte	.LASF36
 819 01da 05       		.byte	0x5
 820 01db BF       		.byte	0xbf
 821 01dc 47020000 		.4byte	0x247
 822 01e0 02       		.byte	0x2
 823 01e1 23       		.byte	0x23
 824 01e2 2C       		.uleb128 0x2c
 825 01e3 06       		.uleb128 0x6
 826 01e4 00000000 		.4byte	.LASF37
 827 01e8 05       		.byte	0x5
 828 01e9 C3       		.byte	0xc3
 829 01ea CE000000 		.4byte	0xce
 830 01ee 02       		.byte	0x2
 831 01ef 23       		.byte	0x23
 832 01f0 34       		.uleb128 0x34
 833 01f1 06       		.uleb128 0x6
 834 01f2 BA020000 		.4byte	.LASF38
 835 01f6 05       		.byte	0x5
 836 01f7 C9       		.byte	0xc9
 837 01f8 D9000000 		.4byte	0xd9
 838 01fc 02       		.byte	0x2
 839 01fd 23       		.byte	0x23
 840 01fe 38       		.uleb128 0x38
 841 01ff 06       		.uleb128 0x6
 842 0200 6E020000 		.4byte	.LASF39
 843 0204 05       		.byte	0x5
 844 0205 D0       		.byte	0xd0
 845 0206 5C040000 		.4byte	0x45c
 846 020a 02       		.byte	0x2
 847 020b 23       		.byte	0x23
 848 020c 3C       		.uleb128 0x3c
 849 020d 06       		.uleb128 0x6
 850 020e F6020000 		.4byte	.LASF40
 851 0212 05       		.byte	0x5
 852 0213 D4       		.byte	0xd4
 853 0214 C3000000 		.4byte	0xc3
 854 0218 02       		.byte	0x2
 855 0219 23       		.byte	0x23
ARM GAS  C:\Users\NICOMA~1\AppData\Local\Temp\ccVKYZNl.s 			page 16


 856 021a 40       		.uleb128 0x40
 857 021b 00       		.byte	0
 858 021c 08       		.uleb128 0x8
 859 021d 08       		.byte	0x8
 860 021e 04       		.byte	0x4
 861 021f 61       		.byte	0x61
 862 0220 41020000 		.4byte	0x241
 863 0224 06       		.uleb128 0x6
 864 0225 9B020000 		.4byte	.LASF23
 865 0229 04       		.byte	0x4
 866 022a 62       		.byte	0x62
 867 022b 41020000 		.4byte	0x241
 868 022f 02       		.byte	0x2
 869 0230 23       		.byte	0x23
 870 0231 00       		.uleb128 0
 871 0232 06       		.uleb128 0x6
 872 0233 3C020000 		.4byte	.LASF24
 873 0237 04       		.byte	0x4
 874 0238 64       		.byte	0x64
 875 0239 41020000 		.4byte	0x241
 876 023d 02       		.byte	0x2
 877 023e 23       		.byte	0x23
 878 023f 04       		.uleb128 0x4
 879 0240 00       		.byte	0
 880 0241 09       		.uleb128 0x9
 881 0242 04       		.byte	0x4
 882 0243 FA000000 		.4byte	0xfa
 883 0247 04       		.uleb128 0x4
 884 0248 0C020000 		.4byte	.LASF41
 885 024c 04       		.byte	0x4
 886 024d 66       		.byte	0x66
 887 024e 1C020000 		.4byte	0x21c
 888 0252 08       		.uleb128 0x8
 889 0253 04       		.byte	0x4
 890 0254 04       		.byte	0x4
 891 0255 6B       		.byte	0x6b
 892 0256 69020000 		.4byte	0x269
 893 025a 06       		.uleb128 0x6
 894 025b 9B020000 		.4byte	.LASF23
 895 025f 04       		.byte	0x4
 896 0260 6D       		.byte	0x6d
 897 0261 41020000 		.4byte	0x241
 898 0265 02       		.byte	0x2
 899 0266 23       		.byte	0x23
 900 0267 00       		.uleb128 0
 901 0268 00       		.byte	0
 902 0269 04       		.uleb128 0x4
 903 026a C5010000 		.4byte	.LASF42
 904 026e 04       		.byte	0x4
 905 026f 70       		.byte	0x70
 906 0270 52020000 		.4byte	0x252
 907 0274 04       		.uleb128 0x4
 908 0275 3D010000 		.4byte	.LASF43
 909 0279 06       		.byte	0x6
 910 027a A9       		.byte	0xa9
 911 027b 7F020000 		.4byte	0x27f
 912 027f 0A       		.uleb128 0xa
ARM GAS  C:\Users\NICOMA~1\AppData\Local\Temp\ccVKYZNl.s 			page 17


 913 0280 04       		.byte	0x4
 914 0281 05       		.uleb128 0x5
 915 0282 16030000 		.4byte	.LASF44
 916 0286 24       		.byte	0x24
 917 0287 06       		.byte	0x6
 918 0288 C0       		.byte	0xc0
 919 0289 05030000 		.4byte	0x305
 920 028d 07       		.uleb128 0x7
 921 028e 723400   		.ascii	"r4\000"
 922 0291 06       		.byte	0x6
 923 0292 C1       		.byte	0xc1
 924 0293 74020000 		.4byte	0x274
 925 0297 02       		.byte	0x2
 926 0298 23       		.byte	0x23
 927 0299 00       		.uleb128 0
 928 029a 07       		.uleb128 0x7
 929 029b 723500   		.ascii	"r5\000"
 930 029e 06       		.byte	0x6
 931 029f C2       		.byte	0xc2
 932 02a0 74020000 		.4byte	0x274
 933 02a4 02       		.byte	0x2
 934 02a5 23       		.byte	0x23
 935 02a6 04       		.uleb128 0x4
 936 02a7 07       		.uleb128 0x7
 937 02a8 723600   		.ascii	"r6\000"
 938 02ab 06       		.byte	0x6
 939 02ac C3       		.byte	0xc3
 940 02ad 74020000 		.4byte	0x274
 941 02b1 02       		.byte	0x2
 942 02b2 23       		.byte	0x23
 943 02b3 08       		.uleb128 0x8
 944 02b4 07       		.uleb128 0x7
 945 02b5 723700   		.ascii	"r7\000"
 946 02b8 06       		.byte	0x6
 947 02b9 C4       		.byte	0xc4
 948 02ba 74020000 		.4byte	0x274
 949 02be 02       		.byte	0x2
 950 02bf 23       		.byte	0x23
 951 02c0 0C       		.uleb128 0xc
 952 02c1 07       		.uleb128 0x7
 953 02c2 723800   		.ascii	"r8\000"
 954 02c5 06       		.byte	0x6
 955 02c6 C5       		.byte	0xc5
 956 02c7 74020000 		.4byte	0x274
 957 02cb 02       		.byte	0x2
 958 02cc 23       		.byte	0x23
 959 02cd 10       		.uleb128 0x10
 960 02ce 07       		.uleb128 0x7
 961 02cf 723900   		.ascii	"r9\000"
 962 02d2 06       		.byte	0x6
 963 02d3 C6       		.byte	0xc6
 964 02d4 74020000 		.4byte	0x274
 965 02d8 02       		.byte	0x2
 966 02d9 23       		.byte	0x23
 967 02da 14       		.uleb128 0x14
 968 02db 07       		.uleb128 0x7
 969 02dc 72313000 		.ascii	"r10\000"
ARM GAS  C:\Users\NICOMA~1\AppData\Local\Temp\ccVKYZNl.s 			page 18


 970 02e0 06       		.byte	0x6
 971 02e1 C7       		.byte	0xc7
 972 02e2 74020000 		.4byte	0x274
 973 02e6 02       		.byte	0x2
 974 02e7 23       		.byte	0x23
 975 02e8 18       		.uleb128 0x18
 976 02e9 07       		.uleb128 0x7
 977 02ea 72313100 		.ascii	"r11\000"
 978 02ee 06       		.byte	0x6
 979 02ef C8       		.byte	0xc8
 980 02f0 74020000 		.4byte	0x274
 981 02f4 02       		.byte	0x2
 982 02f5 23       		.byte	0x23
 983 02f6 1C       		.uleb128 0x1c
 984 02f7 07       		.uleb128 0x7
 985 02f8 6C7200   		.ascii	"lr\000"
 986 02fb 06       		.byte	0x6
 987 02fc C9       		.byte	0xc9
 988 02fd 74020000 		.4byte	0x274
 989 0301 02       		.byte	0x2
 990 0302 23       		.byte	0x23
 991 0303 20       		.uleb128 0x20
 992 0304 00       		.byte	0
 993 0305 05       		.uleb128 0x5
 994 0306 86010000 		.4byte	.LASF45
 995 030a 04       		.byte	0x4
 996 030b 06       		.byte	0x6
 997 030c D1       		.byte	0xd1
 998 030d 20030000 		.4byte	0x320
 999 0311 07       		.uleb128 0x7
 1000 0312 72313300 		.ascii	"r13\000"
 1001 0316 06       		.byte	0x6
 1002 0317 D2       		.byte	0xd2
 1003 0318 20030000 		.4byte	0x320
 1004 031c 02       		.byte	0x2
 1005 031d 23       		.byte	0x23
 1006 031e 00       		.uleb128 0
 1007 031f 00       		.byte	0
 1008 0320 09       		.uleb128 0x9
 1009 0321 04       		.byte	0x4
 1010 0322 81020000 		.4byte	0x281
 1011 0326 0B       		.uleb128 0xb
 1012 0327 E4000000 		.4byte	0xe4
 1013 032b 05       		.uleb128 0x5
 1014 032c 32030000 		.4byte	.LASF46
 1015 0330 0C       		.byte	0xc
 1016 0331 07       		.byte	0x7
 1017 0332 2C       		.byte	0x2c
 1018 0333 54030000 		.4byte	0x354
 1019 0337 06       		.uleb128 0x6
 1020 0338 CA000000 		.4byte	.LASF47
 1021 033c 07       		.byte	0x7
 1022 033d 2D       		.byte	0x2d
 1023 033e 47020000 		.4byte	0x247
 1024 0342 02       		.byte	0x2
 1025 0343 23       		.byte	0x23
 1026 0344 00       		.uleb128 0
ARM GAS  C:\Users\NICOMA~1\AppData\Local\Temp\ccVKYZNl.s 			page 19


 1027 0345 06       		.uleb128 0x6
 1028 0346 80010000 		.4byte	.LASF48
 1029 034a 07       		.byte	0x7
 1030 034b 2F       		.byte	0x2f
 1031 034c EF000000 		.4byte	0xef
 1032 0350 02       		.byte	0x2
 1033 0351 23       		.byte	0x23
 1034 0352 08       		.uleb128 0x8
 1035 0353 00       		.byte	0
 1036 0354 04       		.uleb128 0x4
 1037 0355 32030000 		.4byte	.LASF46
 1038 0359 07       		.byte	0x7
 1039 035a 30       		.byte	0x30
 1040 035b 2B030000 		.4byte	0x32b
 1041 035f 05       		.uleb128 0x5
 1042 0360 DD010000 		.4byte	.LASF49
 1043 0364 10       		.byte	0x10
 1044 0365 08       		.byte	0x8
 1045 0366 2C       		.byte	0x2c
 1046 0367 96030000 		.4byte	0x396
 1047 036b 06       		.uleb128 0x6
 1048 036c 9E000000 		.4byte	.LASF50
 1049 0370 08       		.byte	0x8
 1050 0371 2D       		.byte	0x2d
 1051 0372 47020000 		.4byte	0x247
 1052 0376 02       		.byte	0x2
 1053 0377 23       		.byte	0x23
 1054 0378 00       		.uleb128 0
 1055 0379 06       		.uleb128 0x6
 1056 037a 70030000 		.4byte	.LASF51
 1057 037e 08       		.byte	0x8
 1058 037f 2F       		.byte	0x2f
 1059 0380 41020000 		.4byte	0x241
 1060 0384 02       		.byte	0x2
 1061 0385 23       		.byte	0x23
 1062 0386 08       		.uleb128 0x8
 1063 0387 06       		.uleb128 0x6
 1064 0388 E5020000 		.4byte	.LASF52
 1065 038c 08       		.byte	0x8
 1066 038d 31       		.byte	0x31
 1067 038e 96030000 		.4byte	0x396
 1068 0392 02       		.byte	0x2
 1069 0393 23       		.byte	0x23
 1070 0394 0C       		.uleb128 0xc
 1071 0395 00       		.byte	0
 1072 0396 09       		.uleb128 0x9
 1073 0397 04       		.byte	0x4
 1074 0398 5F030000 		.4byte	0x35f
 1075 039c 04       		.uleb128 0x4
 1076 039d DD010000 		.4byte	.LASF49
 1077 03a1 08       		.byte	0x8
 1078 03a2 33       		.byte	0x33
 1079 03a3 5F030000 		.4byte	0x35f
 1080 03a7 08       		.uleb128 0x8
 1081 03a8 28       		.byte	0x28
 1082 03a9 09       		.byte	0x9
 1083 03aa 33       		.byte	0x33
ARM GAS  C:\Users\NICOMA~1\AppData\Local\Temp\ccVKYZNl.s 			page 20


 1084 03ab 04040000 		.4byte	0x404
 1085 03af 06       		.uleb128 0x6
 1086 03b0 19020000 		.4byte	.LASF53
 1087 03b4 09       		.byte	0x9
 1088 03b5 34       		.byte	0x34
 1089 03b6 04040000 		.4byte	0x404
 1090 03ba 02       		.byte	0x2
 1091 03bb 23       		.byte	0x23
 1092 03bc 00       		.uleb128 0
 1093 03bd 06       		.uleb128 0x6
 1094 03be 67020000 		.4byte	.LASF54
 1095 03c2 09       		.byte	0x9
 1096 03c3 36       		.byte	0x36
 1097 03c4 04040000 		.4byte	0x404
 1098 03c8 02       		.byte	0x2
 1099 03c9 23       		.byte	0x23
 1100 03ca 04       		.uleb128 0x4
 1101 03cb 06       		.uleb128 0x6
 1102 03cc 74000000 		.4byte	.LASF55
 1103 03d0 09       		.byte	0x9
 1104 03d1 38       		.byte	0x38
 1105 03d2 04040000 		.4byte	0x404
 1106 03d6 02       		.byte	0x2
 1107 03d7 23       		.byte	0x23
 1108 03d8 08       		.uleb128 0x8
 1109 03d9 06       		.uleb128 0x6
 1110 03da F1010000 		.4byte	.LASF56
 1111 03de 09       		.byte	0x9
 1112 03df 39       		.byte	0x39
 1113 03e0 04040000 		.4byte	0x404
 1114 03e4 02       		.byte	0x2
 1115 03e5 23       		.byte	0x23
 1116 03e6 0C       		.uleb128 0xc
 1117 03e7 06       		.uleb128 0x6
 1118 03e8 3C030000 		.4byte	.LASF57
 1119 03ec 09       		.byte	0x9
 1120 03ed 3A       		.byte	0x3a
 1121 03ee 54030000 		.4byte	0x354
 1122 03f2 02       		.byte	0x2
 1123 03f3 23       		.byte	0x23
 1124 03f4 10       		.uleb128 0x10
 1125 03f5 06       		.uleb128 0x6
 1126 03f6 74010000 		.4byte	.LASF58
 1127 03fa 09       		.byte	0x9
 1128 03fb 3C       		.byte	0x3c
 1129 03fc 54030000 		.4byte	0x354
 1130 0400 02       		.byte	0x2
 1131 0401 23       		.byte	0x23
 1132 0402 1C       		.uleb128 0x1c
 1133 0403 00       		.byte	0
 1134 0404 09       		.uleb128 0x9
 1135 0405 04       		.byte	0x4
 1136 0406 CE000000 		.4byte	0xce
 1137 040a 04       		.uleb128 0x4
 1138 040b 2E000000 		.4byte	.LASF59
 1139 040f 09       		.byte	0x9
 1140 0410 3E       		.byte	0x3e
ARM GAS  C:\Users\NICOMA~1\AppData\Local\Temp\ccVKYZNl.s 			page 21


 1141 0411 A7030000 		.4byte	0x3a7
 1142 0415 0C       		.uleb128 0xc
 1143 0416 04       		.byte	0x4
 1144 0417 05       		.byte	0x5
 1145 0418 96       		.byte	0x96
 1146 0419 4A040000 		.4byte	0x44a
 1147 041d 0D       		.uleb128 0xd
 1148 041e 13000000 		.4byte	.LASF60
 1149 0422 05       		.byte	0x5
 1150 0423 9D       		.byte	0x9d
 1151 0424 CE000000 		.4byte	0xce
 1152 0428 0D       		.uleb128 0xd
 1153 0429 5C000000 		.4byte	.LASF61
 1154 042d 05       		.byte	0x5
 1155 042e A4       		.byte	0xa4
 1156 042f CE000000 		.4byte	0xce
 1157 0433 0D       		.uleb128 0xd
 1158 0434 62030000 		.4byte	.LASF62
 1159 0438 05       		.byte	0x5
 1160 0439 AB       		.byte	0xab
 1161 043a 7F020000 		.4byte	0x27f
 1162 043e 0D       		.uleb128 0xd
 1163 043f 94020000 		.4byte	.LASF63
 1164 0443 05       		.byte	0x5
 1165 0444 B2       		.byte	0xb2
 1166 0445 D9000000 		.4byte	0xd9
 1167 0449 00       		.byte	0
 1168 044a 09       		.uleb128 0x9
 1169 044b 04       		.byte	0x4
 1170 044c 50040000 		.4byte	0x450
 1171 0450 0E       		.uleb128 0xe
 1172 0451 55040000 		.4byte	0x455
 1173 0455 03       		.uleb128 0x3
 1174 0456 01       		.byte	0x1
 1175 0457 08       		.byte	0x8
 1176 0458 CE020000 		.4byte	.LASF64
 1177 045c 09       		.uleb128 0x9
 1178 045d 04       		.byte	0x4
 1179 045e 9C030000 		.4byte	0x39c
 1180 0462 03       		.uleb128 0x3
 1181 0463 04       		.byte	0x4
 1182 0464 07       		.byte	0x7
 1183 0465 E8010000 		.4byte	.LASF65
 1184 0469 0F       		.uleb128 0xf
 1185 046a 01       		.byte	0x1
 1186 046b 59010000 		.4byte	.LASF66
 1187 046f 01       		.byte	0x1
 1188 0470 48       		.byte	0x48
 1189 0471 01       		.byte	0x1
 1190 0472 00000000 		.4byte	.LFB7
 1191 0476 38000000 		.4byte	.LFE7
 1192 047a 00000000 		.4byte	.LLST0
 1193 047e 01       		.byte	0x1
 1194 047f E0040000 		.4byte	0x4e0
 1195 0483 10       		.uleb128 0x10
 1196 0484 6D627000 		.ascii	"mbp\000"
 1197 0488 01       		.byte	0x1
ARM GAS  C:\Users\NICOMA~1\AppData\Local\Temp\ccVKYZNl.s 			page 22


 1198 0489 48       		.byte	0x48
 1199 048a E0040000 		.4byte	0x4e0
 1200 048e 20000000 		.4byte	.LLST1
 1201 0492 10       		.uleb128 0x10
 1202 0493 62756600 		.ascii	"buf\000"
 1203 0497 01       		.byte	0x1
 1204 0498 48       		.byte	0x48
 1205 0499 04040000 		.4byte	0x404
 1206 049d 3E000000 		.4byte	.LLST2
 1207 04a1 10       		.uleb128 0x10
 1208 04a2 6E00     		.ascii	"n\000"
 1209 04a4 01       		.byte	0x1
 1210 04a5 48       		.byte	0x48
 1211 04a6 EF000000 		.4byte	0xef
 1212 04aa 6A000000 		.4byte	.LLST3
 1213 04ae 11       		.uleb128 0x11
 1214 04af 28000000 		.4byte	.LVL3
 1215 04b3 67090000 		.4byte	0x967
 1216 04b7 C9040000 		.4byte	0x4c9
 1217 04bb 12       		.uleb128 0x12
 1218 04bc 01       		.byte	0x1
 1219 04bd 51       		.byte	0x51
 1220 04be 03       		.byte	0x3
 1221 04bf F3       		.byte	0xf3
 1222 04c0 01       		.uleb128 0x1
 1223 04c1 52       		.byte	0x52
 1224 04c2 12       		.uleb128 0x12
 1225 04c3 01       		.byte	0x1
 1226 04c4 50       		.byte	0x50
 1227 04c5 02       		.byte	0x2
 1228 04c6 74       		.byte	0x74
 1229 04c7 1C       		.sleb128 28
 1230 04c8 00       		.byte	0
 1231 04c9 13       		.uleb128 0x13
 1232 04ca 38000000 		.4byte	.LVL4
 1233 04ce 01       		.byte	0x1
 1234 04cf 67090000 		.4byte	0x967
 1235 04d3 12       		.uleb128 0x12
 1236 04d4 01       		.byte	0x1
 1237 04d5 51       		.byte	0x51
 1238 04d6 01       		.byte	0x1
 1239 04d7 30       		.byte	0x30
 1240 04d8 12       		.uleb128 0x12
 1241 04d9 01       		.byte	0x1
 1242 04da 50       		.byte	0x50
 1243 04db 02       		.byte	0x2
 1244 04dc 74       		.byte	0x74
 1245 04dd 10       		.sleb128 16
 1246 04de 00       		.byte	0
 1247 04df 00       		.byte	0
 1248 04e0 09       		.uleb128 0x9
 1249 04e1 04       		.byte	0x4
 1250 04e2 0A040000 		.4byte	0x40a
 1251 04e6 0F       		.uleb128 0xf
 1252 04e7 01       		.byte	0x1
 1253 04e8 FA010000 		.4byte	.LASF67
 1254 04ec 01       		.byte	0x1
ARM GAS  C:\Users\NICOMA~1\AppData\Local\Temp\ccVKYZNl.s 			page 23


 1255 04ed 5B       		.byte	0x5b
 1256 04ee 01       		.byte	0x1
 1257 04ef 00000000 		.4byte	.LFB8
 1258 04f3 44000000 		.4byte	.LFE8
 1259 04f7 8B000000 		.4byte	.LLST4
 1260 04fb 01       		.byte	0x1
 1261 04fc 46050000 		.4byte	0x546
 1262 0500 10       		.uleb128 0x10
 1263 0501 6D627000 		.ascii	"mbp\000"
 1264 0505 01       		.byte	0x1
 1265 0506 5B       		.byte	0x5b
 1266 0507 E0040000 		.4byte	0x4e0
 1267 050b AB000000 		.4byte	.LLST5
 1268 050f 11       		.uleb128 0x11
 1269 0510 2C000000 		.4byte	.LVL7
 1270 0514 86090000 		.4byte	0x986
 1271 0518 23050000 		.4byte	0x523
 1272 051c 12       		.uleb128 0x12
 1273 051d 01       		.byte	0x1
 1274 051e 50       		.byte	0x50
 1275 051f 02       		.byte	0x2
 1276 0520 74       		.byte	0x74
 1277 0521 1C       		.sleb128 28
 1278 0522 00       		.byte	0
 1279 0523 11       		.uleb128 0x11
 1280 0524 38000000 		.4byte	.LVL8
 1281 0528 86090000 		.4byte	0x986
 1282 052c 3C050000 		.4byte	0x53c
 1283 0530 12       		.uleb128 0x12
 1284 0531 01       		.byte	0x1
 1285 0532 51       		.byte	0x51
 1286 0533 01       		.byte	0x1
 1287 0534 30       		.byte	0x30
 1288 0535 12       		.uleb128 0x12
 1289 0536 01       		.byte	0x1
 1290 0537 50       		.byte	0x50
 1291 0538 02       		.byte	0x2
 1292 0539 74       		.byte	0x74
 1293 053a 10       		.sleb128 16
 1294 053b 00       		.byte	0
 1295 053c 14       		.uleb128 0x14
 1296 053d 3C000000 		.4byte	.LVL9
 1297 0541 9F090000 		.4byte	0x99f
 1298 0545 00       		.byte	0
 1299 0546 15       		.uleb128 0x15
 1300 0547 01       		.byte	0x1
 1301 0548 24000000 		.4byte	.LASF69
 1302 054c 01       		.byte	0x1
 1303 054d 96       		.byte	0x96
 1304 054e 01       		.byte	0x1
 1305 054f CE000000 		.4byte	0xce
 1306 0553 00000000 		.4byte	.LFB10
 1307 0557 4C000000 		.4byte	.LFE10
 1308 055b C9000000 		.4byte	.LLST6
 1309 055f 01       		.byte	0x1
 1310 0560 D9050000 		.4byte	0x5d9
 1311 0564 10       		.uleb128 0x10
ARM GAS  C:\Users\NICOMA~1\AppData\Local\Temp\ccVKYZNl.s 			page 24


 1312 0565 6D627000 		.ascii	"mbp\000"
 1313 0569 01       		.byte	0x1
 1314 056a 96       		.byte	0x96
 1315 056b E0040000 		.4byte	0x4e0
 1316 056f E9000000 		.4byte	.LLST7
 1317 0573 10       		.uleb128 0x10
 1318 0574 6D736700 		.ascii	"msg\000"
 1319 0578 01       		.byte	0x1
 1320 0579 96       		.byte	0x96
 1321 057a CE000000 		.4byte	0xce
 1322 057e 07010000 		.4byte	.LLST8
 1323 0582 16       		.uleb128 0x16
 1324 0583 23020000 		.4byte	.LASF68
 1325 0587 01       		.byte	0x1
 1326 0588 96       		.byte	0x96
 1327 0589 E4000000 		.4byte	0xe4
 1328 058d 25010000 		.4byte	.LLST9
 1329 0591 17       		.uleb128 0x17
 1330 0592 13000000 		.4byte	.LASF60
 1331 0596 01       		.byte	0x1
 1332 0597 97       		.byte	0x97
 1333 0598 CE000000 		.4byte	0xce
 1334 059c 46010000 		.4byte	.LLST10
 1335 05a0 11       		.uleb128 0x11
 1336 05a1 18000000 		.4byte	.LVL13
 1337 05a5 A9090000 		.4byte	0x9a9
 1338 05a9 BB050000 		.4byte	0x5bb
 1339 05ad 12       		.uleb128 0x12
 1340 05ae 01       		.byte	0x1
 1341 05af 51       		.byte	0x51
 1342 05b0 03       		.byte	0x3
 1343 05b1 F3       		.byte	0xf3
 1344 05b2 01       		.uleb128 0x1
 1345 05b3 52       		.byte	0x52
 1346 05b4 12       		.uleb128 0x12
 1347 05b5 01       		.byte	0x1
 1348 05b6 50       		.byte	0x50
 1349 05b7 02       		.byte	0x2
 1350 05b8 74       		.byte	0x74
 1351 05b9 1C       		.sleb128 28
 1352 05ba 00       		.byte	0
 1353 05bb 11       		.uleb128 0x11
 1354 05bc 40000000 		.4byte	.LVL15
 1355 05c0 C6090000 		.4byte	0x9c6
 1356 05c4 CF050000 		.4byte	0x5cf
 1357 05c8 12       		.uleb128 0x12
 1358 05c9 01       		.byte	0x1
 1359 05ca 50       		.byte	0x50
 1360 05cb 02       		.byte	0x2
 1361 05cc 74       		.byte	0x74
 1362 05cd 10       		.sleb128 16
 1363 05ce 00       		.byte	0
 1364 05cf 14       		.uleb128 0x14
 1365 05d0 44000000 		.4byte	.LVL16
 1366 05d4 9F090000 		.4byte	0x99f
 1367 05d8 00       		.byte	0
 1368 05d9 15       		.uleb128 0x15
ARM GAS  C:\Users\NICOMA~1\AppData\Local\Temp\ccVKYZNl.s 			page 25


 1369 05da 01       		.byte	0x1
 1370 05db AA020000 		.4byte	.LASF70
 1371 05df 01       		.byte	0x1
 1372 05e0 7A       		.byte	0x7a
 1373 05e1 01       		.byte	0x1
 1374 05e2 CE000000 		.4byte	0xce
 1375 05e6 00000000 		.4byte	.LFB9
 1376 05ea 14000000 		.4byte	.LFE9
 1377 05ee 64010000 		.4byte	.LLST11
 1378 05f2 01       		.byte	0x1
 1379 05f3 51060000 		.4byte	0x651
 1380 05f7 10       		.uleb128 0x10
 1381 05f8 6D627000 		.ascii	"mbp\000"
 1382 05fc 01       		.byte	0x1
 1383 05fd 7A       		.byte	0x7a
 1384 05fe E0040000 		.4byte	0x4e0
 1385 0602 84010000 		.4byte	.LLST12
 1386 0606 10       		.uleb128 0x10
 1387 0607 6D736700 		.ascii	"msg\000"
 1388 060b 01       		.byte	0x1
 1389 060c 7A       		.byte	0x7a
 1390 060d CE000000 		.4byte	0xce
 1391 0611 A5010000 		.4byte	.LLST13
 1392 0615 16       		.uleb128 0x16
 1393 0616 23020000 		.4byte	.LASF68
 1394 061a 01       		.byte	0x1
 1395 061b 7A       		.byte	0x7a
 1396 061c E4000000 		.4byte	0xe4
 1397 0620 C6010000 		.4byte	.LLST14
 1398 0624 18       		.uleb128 0x18
 1399 0625 13000000 		.4byte	.LASF60
 1400 0629 01       		.byte	0x1
 1401 062a 7B       		.byte	0x7b
 1402 062b CE000000 		.4byte	0xce
 1403 062f 01       		.byte	0x1
 1404 0630 50       		.byte	0x50
 1405 0631 19       		.uleb128 0x19
 1406 0632 0C000000 		.4byte	.LVL18
 1407 0636 46050000 		.4byte	0x546
 1408 063a 12       		.uleb128 0x12
 1409 063b 01       		.byte	0x1
 1410 063c 52       		.byte	0x52
 1411 063d 03       		.byte	0x3
 1412 063e F3       		.byte	0xf3
 1413 063f 01       		.uleb128 0x1
 1414 0640 52       		.byte	0x52
 1415 0641 12       		.uleb128 0x12
 1416 0642 01       		.byte	0x1
 1417 0643 51       		.byte	0x51
 1418 0644 03       		.byte	0x3
 1419 0645 F3       		.byte	0xf3
 1420 0646 01       		.uleb128 0x1
 1421 0647 51       		.byte	0x51
 1422 0648 12       		.uleb128 0x12
 1423 0649 01       		.byte	0x1
 1424 064a 50       		.byte	0x50
 1425 064b 03       		.byte	0x3
ARM GAS  C:\Users\NICOMA~1\AppData\Local\Temp\ccVKYZNl.s 			page 26


 1426 064c F3       		.byte	0xf3
 1427 064d 01       		.uleb128 0x1
 1428 064e 50       		.byte	0x50
 1429 064f 00       		.byte	0
 1430 0650 00       		.byte	0
 1431 0651 15       		.uleb128 0x15
 1432 0652 01       		.byte	0x1
 1433 0653 1A000000 		.4byte	.LASF71
 1434 0657 01       		.byte	0x1
 1435 0658 B5       		.byte	0xb5
 1436 0659 01       		.byte	0x1
 1437 065a CE000000 		.4byte	0xce
 1438 065e 00000000 		.4byte	.LFB11
 1439 0662 4C000000 		.4byte	.LFE11
 1440 0666 E7010000 		.4byte	.LLST15
 1441 066a 01       		.byte	0x1
 1442 066b A1060000 		.4byte	0x6a1
 1443 066f 10       		.uleb128 0x10
 1444 0670 6D627000 		.ascii	"mbp\000"
 1445 0674 01       		.byte	0x1
 1446 0675 B5       		.byte	0xb5
 1447 0676 E0040000 		.4byte	0x4e0
 1448 067a 07020000 		.4byte	.LLST16
 1449 067e 10       		.uleb128 0x10
 1450 067f 6D736700 		.ascii	"msg\000"
 1451 0683 01       		.byte	0x1
 1452 0684 B5       		.byte	0xb5
 1453 0685 CE000000 		.4byte	0xce
 1454 0689 4E020000 		.4byte	.LLST17
 1455 068d 19       		.uleb128 0x19
 1456 068e 3C000000 		.4byte	.LVL21
 1457 0692 C6090000 		.4byte	0x9c6
 1458 0696 12       		.uleb128 0x12
 1459 0697 01       		.byte	0x1
 1460 0698 50       		.byte	0x50
 1461 0699 05       		.byte	0x5
 1462 069a F3       		.byte	0xf3
 1463 069b 01       		.uleb128 0x1
 1464 069c 50       		.byte	0x50
 1465 069d 23       		.byte	0x23
 1466 069e 10       		.uleb128 0x10
 1467 069f 00       		.byte	0
 1468 06a0 00       		.byte	0
 1469 06a1 15       		.uleb128 0x15
 1470 06a2 01       		.byte	0x1
 1471 06a3 65000000 		.4byte	.LASF72
 1472 06a7 01       		.byte	0x1
 1473 06a8 F3       		.byte	0xf3
 1474 06a9 01       		.byte	0x1
 1475 06aa CE000000 		.4byte	0xce
 1476 06ae 00000000 		.4byte	.LFB13
 1477 06b2 58000000 		.4byte	.LFE13
 1478 06b6 7A020000 		.4byte	.LLST18
 1479 06ba 01       		.byte	0x1
 1480 06bb 34070000 		.4byte	0x734
 1481 06bf 10       		.uleb128 0x10
 1482 06c0 6D627000 		.ascii	"mbp\000"
ARM GAS  C:\Users\NICOMA~1\AppData\Local\Temp\ccVKYZNl.s 			page 27


 1483 06c4 01       		.byte	0x1
 1484 06c5 F3       		.byte	0xf3
 1485 06c6 E0040000 		.4byte	0x4e0
 1486 06ca 9A020000 		.4byte	.LLST19
 1487 06ce 10       		.uleb128 0x10
 1488 06cf 6D736700 		.ascii	"msg\000"
 1489 06d3 01       		.byte	0x1
 1490 06d4 F3       		.byte	0xf3
 1491 06d5 CE000000 		.4byte	0xce
 1492 06d9 B8020000 		.4byte	.LLST20
 1493 06dd 16       		.uleb128 0x16
 1494 06de 23020000 		.4byte	.LASF68
 1495 06e2 01       		.byte	0x1
 1496 06e3 F3       		.byte	0xf3
 1497 06e4 E4000000 		.4byte	0xe4
 1498 06e8 D6020000 		.4byte	.LLST21
 1499 06ec 17       		.uleb128 0x17
 1500 06ed 13000000 		.4byte	.LASF60
 1501 06f1 01       		.byte	0x1
 1502 06f2 F4       		.byte	0xf4
 1503 06f3 CE000000 		.4byte	0xce
 1504 06f7 F7020000 		.4byte	.LLST22
 1505 06fb 11       		.uleb128 0x11
 1506 06fc 18000000 		.4byte	.LVL27
 1507 0700 A9090000 		.4byte	0x9a9
 1508 0704 16070000 		.4byte	0x716
 1509 0708 12       		.uleb128 0x12
 1510 0709 01       		.byte	0x1
 1511 070a 51       		.byte	0x51
 1512 070b 03       		.byte	0x3
 1513 070c F3       		.byte	0xf3
 1514 070d 01       		.uleb128 0x1
 1515 070e 52       		.byte	0x52
 1516 070f 12       		.uleb128 0x12
 1517 0710 01       		.byte	0x1
 1518 0711 50       		.byte	0x50
 1519 0712 02       		.byte	0x2
 1520 0713 74       		.byte	0x74
 1521 0714 1C       		.sleb128 28
 1522 0715 00       		.byte	0
 1523 0716 11       		.uleb128 0x11
 1524 0717 4C000000 		.4byte	.LVL29
 1525 071b C6090000 		.4byte	0x9c6
 1526 071f 2A070000 		.4byte	0x72a
 1527 0723 12       		.uleb128 0x12
 1528 0724 01       		.byte	0x1
 1529 0725 50       		.byte	0x50
 1530 0726 02       		.byte	0x2
 1531 0727 74       		.byte	0x74
 1532 0728 10       		.sleb128 16
 1533 0729 00       		.byte	0
 1534 072a 14       		.uleb128 0x14
 1535 072b 50000000 		.4byte	.LVL30
 1536 072f 9F090000 		.4byte	0x99f
 1537 0733 00       		.byte	0
 1538 0734 15       		.uleb128 0x15
 1539 0735 01       		.byte	0x1
ARM GAS  C:\Users\NICOMA~1\AppData\Local\Temp\ccVKYZNl.s 			page 28


 1540 0736 08030000 		.4byte	.LASF73
 1541 073a 01       		.byte	0x1
 1542 073b D7       		.byte	0xd7
 1543 073c 01       		.byte	0x1
 1544 073d CE000000 		.4byte	0xce
 1545 0741 00000000 		.4byte	.LFB12
 1546 0745 14000000 		.4byte	.LFE12
 1547 0749 15030000 		.4byte	.LLST23
 1548 074d 01       		.byte	0x1
 1549 074e AC070000 		.4byte	0x7ac
 1550 0752 10       		.uleb128 0x10
 1551 0753 6D627000 		.ascii	"mbp\000"
 1552 0757 01       		.byte	0x1
 1553 0758 D7       		.byte	0xd7
 1554 0759 E0040000 		.4byte	0x4e0
 1555 075d 35030000 		.4byte	.LLST24
 1556 0761 10       		.uleb128 0x10
 1557 0762 6D736700 		.ascii	"msg\000"
 1558 0766 01       		.byte	0x1
 1559 0767 D7       		.byte	0xd7
 1560 0768 CE000000 		.4byte	0xce
 1561 076c 56030000 		.4byte	.LLST25
 1562 0770 16       		.uleb128 0x16
 1563 0771 23020000 		.4byte	.LASF68
 1564 0775 01       		.byte	0x1
 1565 0776 D7       		.byte	0xd7
 1566 0777 E4000000 		.4byte	0xe4
 1567 077b 77030000 		.4byte	.LLST26
 1568 077f 18       		.uleb128 0x18
 1569 0780 13000000 		.4byte	.LASF60
 1570 0784 01       		.byte	0x1
 1571 0785 D8       		.byte	0xd8
 1572 0786 CE000000 		.4byte	0xce
 1573 078a 01       		.byte	0x1
 1574 078b 50       		.byte	0x50
 1575 078c 19       		.uleb128 0x19
 1576 078d 0C000000 		.4byte	.LVL32
 1577 0791 A1060000 		.4byte	0x6a1
 1578 0795 12       		.uleb128 0x12
 1579 0796 01       		.byte	0x1
 1580 0797 52       		.byte	0x52
 1581 0798 03       		.byte	0x3
 1582 0799 F3       		.byte	0xf3
 1583 079a 01       		.uleb128 0x1
 1584 079b 52       		.byte	0x52
 1585 079c 12       		.uleb128 0x12
 1586 079d 01       		.byte	0x1
 1587 079e 51       		.byte	0x51
 1588 079f 03       		.byte	0x3
 1589 07a0 F3       		.byte	0xf3
 1590 07a1 01       		.uleb128 0x1
 1591 07a2 51       		.byte	0x51
 1592 07a3 12       		.uleb128 0x12
 1593 07a4 01       		.byte	0x1
 1594 07a5 50       		.byte	0x50
 1595 07a6 03       		.byte	0x3
 1596 07a7 F3       		.byte	0xf3
ARM GAS  C:\Users\NICOMA~1\AppData\Local\Temp\ccVKYZNl.s 			page 29


 1597 07a8 01       		.uleb128 0x1
 1598 07a9 50       		.byte	0x50
 1599 07aa 00       		.byte	0
 1600 07ab 00       		.byte	0
 1601 07ac 1A       		.uleb128 0x1a
 1602 07ad 01       		.byte	0x1
 1603 07ae 36000000 		.4byte	.LASF74
 1604 07b2 01       		.byte	0x1
 1605 07b3 1201     		.2byte	0x112
 1606 07b5 01       		.byte	0x1
 1607 07b6 CE000000 		.4byte	0xce
 1608 07ba 00000000 		.4byte	.LFB14
 1609 07be 54000000 		.4byte	.LFE14
 1610 07c2 98030000 		.4byte	.LLST27
 1611 07c6 01       		.byte	0x1
 1612 07c7 FF070000 		.4byte	0x7ff
 1613 07cb 1B       		.uleb128 0x1b
 1614 07cc 6D627000 		.ascii	"mbp\000"
 1615 07d0 01       		.byte	0x1
 1616 07d1 1201     		.2byte	0x112
 1617 07d3 E0040000 		.4byte	0x4e0
 1618 07d7 B8030000 		.4byte	.LLST28
 1619 07db 1B       		.uleb128 0x1b
 1620 07dc 6D736700 		.ascii	"msg\000"
 1621 07e0 01       		.byte	0x1
 1622 07e1 1201     		.2byte	0x112
 1623 07e3 CE000000 		.4byte	0xce
 1624 07e7 FF030000 		.4byte	.LLST29
 1625 07eb 19       		.uleb128 0x19
 1626 07ec 44000000 		.4byte	.LVL35
 1627 07f0 C6090000 		.4byte	0x9c6
 1628 07f4 12       		.uleb128 0x12
 1629 07f5 01       		.byte	0x1
 1630 07f6 50       		.byte	0x50
 1631 07f7 05       		.byte	0x5
 1632 07f8 F3       		.byte	0xf3
 1633 07f9 01       		.uleb128 0x1
 1634 07fa 50       		.byte	0x50
 1635 07fb 23       		.byte	0x23
 1636 07fc 10       		.uleb128 0x10
 1637 07fd 00       		.byte	0
 1638 07fe 00       		.byte	0
 1639 07ff 1A       		.uleb128 0x1a
 1640 0800 01       		.byte	0x1
 1641 0801 B2010000 		.4byte	.LASF75
 1642 0805 01       		.byte	0x1
 1643 0806 5001     		.2byte	0x150
 1644 0808 01       		.byte	0x1
 1645 0809 CE000000 		.4byte	0xce
 1646 080d 00000000 		.4byte	.LFB16
 1647 0811 54000000 		.4byte	.LFE16
 1648 0815 2B040000 		.4byte	.LLST30
 1649 0819 01       		.byte	0x1
 1650 081a 97080000 		.4byte	0x897
 1651 081e 1B       		.uleb128 0x1b
 1652 081f 6D627000 		.ascii	"mbp\000"
 1653 0823 01       		.byte	0x1
ARM GAS  C:\Users\NICOMA~1\AppData\Local\Temp\ccVKYZNl.s 			page 30


 1654 0824 5001     		.2byte	0x150
 1655 0826 E0040000 		.4byte	0x4e0
 1656 082a 4B040000 		.4byte	.LLST31
 1657 082e 1C       		.uleb128 0x1c
 1658 082f E3010000 		.4byte	.LASF76
 1659 0833 01       		.byte	0x1
 1660 0834 5001     		.2byte	0x150
 1661 0836 04040000 		.4byte	0x404
 1662 083a 69040000 		.4byte	.LLST32
 1663 083e 1C       		.uleb128 0x1c
 1664 083f 23020000 		.4byte	.LASF68
 1665 0843 01       		.byte	0x1
 1666 0844 5001     		.2byte	0x150
 1667 0846 E4000000 		.4byte	0xe4
 1668 084a 87040000 		.4byte	.LLST33
 1669 084e 1D       		.uleb128 0x1d
 1670 084f 13000000 		.4byte	.LASF60
 1671 0853 01       		.byte	0x1
 1672 0854 5101     		.2byte	0x151
 1673 0856 CE000000 		.4byte	0xce
 1674 085a A8040000 		.4byte	.LLST34
 1675 085e 11       		.uleb128 0x11
 1676 085f 18000000 		.4byte	.LVL41
 1677 0863 A9090000 		.4byte	0x9a9
 1678 0867 79080000 		.4byte	0x879
 1679 086b 12       		.uleb128 0x12
 1680 086c 01       		.byte	0x1
 1681 086d 51       		.byte	0x51
 1682 086e 03       		.byte	0x3
 1683 086f F3       		.byte	0xf3
 1684 0870 01       		.uleb128 0x1
 1685 0871 52       		.byte	0x52
 1686 0872 12       		.uleb128 0x12
 1687 0873 01       		.byte	0x1
 1688 0874 50       		.byte	0x50
 1689 0875 02       		.byte	0x2
 1690 0876 74       		.byte	0x74
 1691 0877 10       		.sleb128 16
 1692 0878 00       		.byte	0
 1693 0879 11       		.uleb128 0x11
 1694 087a 48000000 		.4byte	.LVL43
 1695 087e C6090000 		.4byte	0x9c6
 1696 0882 8D080000 		.4byte	0x88d
 1697 0886 12       		.uleb128 0x12
 1698 0887 01       		.byte	0x1
 1699 0888 50       		.byte	0x50
 1700 0889 02       		.byte	0x2
 1701 088a 74       		.byte	0x74
 1702 088b 1C       		.sleb128 28
 1703 088c 00       		.byte	0
 1704 088d 14       		.uleb128 0x14
 1705 088e 4C000000 		.4byte	.LVL44
 1706 0892 9F090000 		.4byte	0x99f
 1707 0896 00       		.byte	0
 1708 0897 1A       		.uleb128 0x1a
 1709 0898 01       		.byte	0x1
 1710 0899 28030000 		.4byte	.LASF77
ARM GAS  C:\Users\NICOMA~1\AppData\Local\Temp\ccVKYZNl.s 			page 31


 1711 089d 01       		.byte	0x1
 1712 089e 3401     		.2byte	0x134
 1713 08a0 01       		.byte	0x1
 1714 08a1 CE000000 		.4byte	0xce
 1715 08a5 00000000 		.4byte	.LFB15
 1716 08a9 14000000 		.4byte	.LFE15
 1717 08ad C6040000 		.4byte	.LLST35
 1718 08b1 01       		.byte	0x1
 1719 08b2 14090000 		.4byte	0x914
 1720 08b6 1B       		.uleb128 0x1b
 1721 08b7 6D627000 		.ascii	"mbp\000"
 1722 08bb 01       		.byte	0x1
 1723 08bc 3401     		.2byte	0x134
 1724 08be E0040000 		.4byte	0x4e0
 1725 08c2 E6040000 		.4byte	.LLST36
 1726 08c6 1C       		.uleb128 0x1c
 1727 08c7 E3010000 		.4byte	.LASF76
 1728 08cb 01       		.byte	0x1
 1729 08cc 3401     		.2byte	0x134
 1730 08ce 04040000 		.4byte	0x404
 1731 08d2 07050000 		.4byte	.LLST37
 1732 08d6 1C       		.uleb128 0x1c
 1733 08d7 23020000 		.4byte	.LASF68
 1734 08db 01       		.byte	0x1
 1735 08dc 3401     		.2byte	0x134
 1736 08de E4000000 		.4byte	0xe4
 1737 08e2 28050000 		.4byte	.LLST38
 1738 08e6 1E       		.uleb128 0x1e
 1739 08e7 13000000 		.4byte	.LASF60
 1740 08eb 01       		.byte	0x1
 1741 08ec 3501     		.2byte	0x135
 1742 08ee CE000000 		.4byte	0xce
 1743 08f2 01       		.byte	0x1
 1744 08f3 50       		.byte	0x50
 1745 08f4 19       		.uleb128 0x19
 1746 08f5 0C000000 		.4byte	.LVL46
 1747 08f9 FF070000 		.4byte	0x7ff
 1748 08fd 12       		.uleb128 0x12
 1749 08fe 01       		.byte	0x1
 1750 08ff 52       		.byte	0x52
 1751 0900 03       		.byte	0x3
 1752 0901 F3       		.byte	0xf3
 1753 0902 01       		.uleb128 0x1
 1754 0903 52       		.byte	0x52
 1755 0904 12       		.uleb128 0x12
 1756 0905 01       		.byte	0x1
 1757 0906 51       		.byte	0x51
 1758 0907 03       		.byte	0x3
 1759 0908 F3       		.byte	0xf3
 1760 0909 01       		.uleb128 0x1
 1761 090a 51       		.byte	0x51
 1762 090b 12       		.uleb128 0x12
 1763 090c 01       		.byte	0x1
 1764 090d 50       		.byte	0x50
 1765 090e 03       		.byte	0x3
 1766 090f F3       		.byte	0xf3
 1767 0910 01       		.uleb128 0x1
ARM GAS  C:\Users\NICOMA~1\AppData\Local\Temp\ccVKYZNl.s 			page 32


 1768 0911 50       		.byte	0x50
 1769 0912 00       		.byte	0
 1770 0913 00       		.byte	0
 1771 0914 1A       		.uleb128 0x1a
 1772 0915 01       		.byte	0x1
 1773 0916 A1010000 		.4byte	.LASF78
 1774 091a 01       		.byte	0x1
 1775 091b 6F01     		.2byte	0x16f
 1776 091d 01       		.byte	0x1
 1777 091e CE000000 		.4byte	0xce
 1778 0922 00000000 		.4byte	.LFB17
 1779 0926 50000000 		.4byte	.LFE17
 1780 092a 49050000 		.4byte	.LLST39
 1781 092e 01       		.byte	0x1
 1782 092f 67090000 		.4byte	0x967
 1783 0933 1B       		.uleb128 0x1b
 1784 0934 6D627000 		.ascii	"mbp\000"
 1785 0938 01       		.byte	0x1
 1786 0939 6F01     		.2byte	0x16f
 1787 093b E0040000 		.4byte	0x4e0
 1788 093f 69050000 		.4byte	.LLST40
 1789 0943 1C       		.uleb128 0x1c
 1790 0944 E3010000 		.4byte	.LASF76
 1791 0948 01       		.byte	0x1
 1792 0949 6F01     		.2byte	0x16f
 1793 094b 04040000 		.4byte	0x404
 1794 094f B0050000 		.4byte	.LLST41
 1795 0953 19       		.uleb128 0x19
 1796 0954 40000000 		.4byte	.LVL49
 1797 0958 C6090000 		.4byte	0x9c6
 1798 095c 12       		.uleb128 0x12
 1799 095d 01       		.byte	0x1
 1800 095e 50       		.byte	0x50
 1801 095f 05       		.byte	0x5
 1802 0960 F3       		.byte	0xf3
 1803 0961 01       		.uleb128 0x1
 1804 0962 50       		.byte	0x50
 1805 0963 23       		.byte	0x23
 1806 0964 1C       		.uleb128 0x1c
 1807 0965 00       		.byte	0
 1808 0966 00       		.byte	0
 1809 0967 1F       		.uleb128 0x1f
 1810 0968 01       		.byte	0x1
 1811 0969 88030000 		.4byte	.LASF79
 1812 096d 07       		.byte	0x7
 1813 096e 35       		.byte	0x35
 1814 096f 01       		.byte	0x1
 1815 0970 01       		.byte	0x1
 1816 0971 80090000 		.4byte	0x980
 1817 0975 20       		.uleb128 0x20
 1818 0976 80090000 		.4byte	0x980
 1819 097a 20       		.uleb128 0x20
 1820 097b EF000000 		.4byte	0xef
 1821 097f 00       		.byte	0
 1822 0980 09       		.uleb128 0x9
 1823 0981 04       		.byte	0x4
 1824 0982 54030000 		.4byte	0x354
ARM GAS  C:\Users\NICOMA~1\AppData\Local\Temp\ccVKYZNl.s 			page 33


 1825 0986 1F       		.uleb128 0x1f
 1826 0987 01       		.byte	0x1
 1827 0988 4E030000 		.4byte	.LASF80
 1828 098c 07       		.byte	0x7
 1829 098d 37       		.byte	0x37
 1830 098e 01       		.byte	0x1
 1831 098f 01       		.byte	0x1
 1832 0990 9F090000 		.4byte	0x99f
 1833 0994 20       		.uleb128 0x20
 1834 0995 80090000 		.4byte	0x980
 1835 0999 20       		.uleb128 0x20
 1836 099a EF000000 		.4byte	0xef
 1837 099e 00       		.byte	0
 1838 099f 21       		.uleb128 0x21
 1839 09a0 01       		.byte	0x1
 1840 09a1 2C010000 		.4byte	.LASF84
 1841 09a5 0A       		.byte	0xa
 1842 09a6 9C       		.byte	0x9c
 1843 09a7 01       		.byte	0x1
 1844 09a8 01       		.byte	0x1
 1845 09a9 22       		.uleb128 0x22
 1846 09aa 01       		.byte	0x1
 1847 09ab D3020000 		.4byte	.LASF85
 1848 09af 07       		.byte	0x7
 1849 09b0 3B       		.byte	0x3b
 1850 09b1 01       		.byte	0x1
 1851 09b2 CE000000 		.4byte	0xce
 1852 09b6 01       		.byte	0x1
 1853 09b7 C6090000 		.4byte	0x9c6
 1854 09bb 20       		.uleb128 0x20
 1855 09bc 80090000 		.4byte	0x980
 1856 09c0 20       		.uleb128 0x20
 1857 09c1 E4000000 		.4byte	0xe4
 1858 09c5 00       		.byte	0
 1859 09c6 23       		.uleb128 0x23
 1860 09c7 01       		.byte	0x1
 1861 09c8 06000000 		.4byte	.LASF86
 1862 09cc 07       		.byte	0x7
 1863 09cd 3D       		.byte	0x3d
 1864 09ce 01       		.byte	0x1
 1865 09cf 01       		.byte	0x1
 1866 09d0 20       		.uleb128 0x20
 1867 09d1 80090000 		.4byte	0x980
 1868 09d5 00       		.byte	0
 1869 09d6 00       		.byte	0
 1870              		.section	.debug_abbrev,"",%progbits
 1871              	.Ldebug_abbrev0:
 1872 0000 01       		.uleb128 0x1
 1873 0001 11       		.uleb128 0x11
 1874 0002 01       		.byte	0x1
 1875 0003 25       		.uleb128 0x25
 1876 0004 0E       		.uleb128 0xe
 1877 0005 13       		.uleb128 0x13
 1878 0006 0B       		.uleb128 0xb
 1879 0007 03       		.uleb128 0x3
 1880 0008 0E       		.uleb128 0xe
 1881 0009 1B       		.uleb128 0x1b
ARM GAS  C:\Users\NICOMA~1\AppData\Local\Temp\ccVKYZNl.s 			page 34


 1882 000a 0E       		.uleb128 0xe
 1883 000b 55       		.uleb128 0x55
 1884 000c 06       		.uleb128 0x6
 1885 000d 11       		.uleb128 0x11
 1886 000e 01       		.uleb128 0x1
 1887 000f 52       		.uleb128 0x52
 1888 0010 01       		.uleb128 0x1
 1889 0011 10       		.uleb128 0x10
 1890 0012 06       		.uleb128 0x6
 1891 0013 00       		.byte	0
 1892 0014 00       		.byte	0
 1893 0015 02       		.uleb128 0x2
 1894 0016 24       		.uleb128 0x24
 1895 0017 00       		.byte	0
 1896 0018 0B       		.uleb128 0xb
 1897 0019 0B       		.uleb128 0xb
 1898 001a 3E       		.uleb128 0x3e
 1899 001b 0B       		.uleb128 0xb
 1900 001c 03       		.uleb128 0x3
 1901 001d 08       		.uleb128 0x8
 1902 001e 00       		.byte	0
 1903 001f 00       		.byte	0
 1904 0020 03       		.uleb128 0x3
 1905 0021 24       		.uleb128 0x24
 1906 0022 00       		.byte	0
 1907 0023 0B       		.uleb128 0xb
 1908 0024 0B       		.uleb128 0xb
 1909 0025 3E       		.uleb128 0x3e
 1910 0026 0B       		.uleb128 0xb
 1911 0027 03       		.uleb128 0x3
 1912 0028 0E       		.uleb128 0xe
 1913 0029 00       		.byte	0
 1914 002a 00       		.byte	0
 1915 002b 04       		.uleb128 0x4
 1916 002c 16       		.uleb128 0x16
 1917 002d 00       		.byte	0
 1918 002e 03       		.uleb128 0x3
 1919 002f 0E       		.uleb128 0xe
 1920 0030 3A       		.uleb128 0x3a
 1921 0031 0B       		.uleb128 0xb
 1922 0032 3B       		.uleb128 0x3b
 1923 0033 0B       		.uleb128 0xb
 1924 0034 49       		.uleb128 0x49
 1925 0035 13       		.uleb128 0x13
 1926 0036 00       		.byte	0
 1927 0037 00       		.byte	0
 1928 0038 05       		.uleb128 0x5
 1929 0039 13       		.uleb128 0x13
 1930 003a 01       		.byte	0x1
 1931 003b 03       		.uleb128 0x3
 1932 003c 0E       		.uleb128 0xe
 1933 003d 0B       		.uleb128 0xb
 1934 003e 0B       		.uleb128 0xb
 1935 003f 3A       		.uleb128 0x3a
 1936 0040 0B       		.uleb128 0xb
 1937 0041 3B       		.uleb128 0x3b
 1938 0042 0B       		.uleb128 0xb
ARM GAS  C:\Users\NICOMA~1\AppData\Local\Temp\ccVKYZNl.s 			page 35


 1939 0043 01       		.uleb128 0x1
 1940 0044 13       		.uleb128 0x13
 1941 0045 00       		.byte	0
 1942 0046 00       		.byte	0
 1943 0047 06       		.uleb128 0x6
 1944 0048 0D       		.uleb128 0xd
 1945 0049 00       		.byte	0
 1946 004a 03       		.uleb128 0x3
 1947 004b 0E       		.uleb128 0xe
 1948 004c 3A       		.uleb128 0x3a
 1949 004d 0B       		.uleb128 0xb
 1950 004e 3B       		.uleb128 0x3b
 1951 004f 0B       		.uleb128 0xb
 1952 0050 49       		.uleb128 0x49
 1953 0051 13       		.uleb128 0x13
 1954 0052 38       		.uleb128 0x38
 1955 0053 0A       		.uleb128 0xa
 1956 0054 00       		.byte	0
 1957 0055 00       		.byte	0
 1958 0056 07       		.uleb128 0x7
 1959 0057 0D       		.uleb128 0xd
 1960 0058 00       		.byte	0
 1961 0059 03       		.uleb128 0x3
 1962 005a 08       		.uleb128 0x8
 1963 005b 3A       		.uleb128 0x3a
 1964 005c 0B       		.uleb128 0xb
 1965 005d 3B       		.uleb128 0x3b
 1966 005e 0B       		.uleb128 0xb
 1967 005f 49       		.uleb128 0x49
 1968 0060 13       		.uleb128 0x13
 1969 0061 38       		.uleb128 0x38
 1970 0062 0A       		.uleb128 0xa
 1971 0063 00       		.byte	0
 1972 0064 00       		.byte	0
 1973 0065 08       		.uleb128 0x8
 1974 0066 13       		.uleb128 0x13
 1975 0067 01       		.byte	0x1
 1976 0068 0B       		.uleb128 0xb
 1977 0069 0B       		.uleb128 0xb
 1978 006a 3A       		.uleb128 0x3a
 1979 006b 0B       		.uleb128 0xb
 1980 006c 3B       		.uleb128 0x3b
 1981 006d 0B       		.uleb128 0xb
 1982 006e 01       		.uleb128 0x1
 1983 006f 13       		.uleb128 0x13
 1984 0070 00       		.byte	0
 1985 0071 00       		.byte	0
 1986 0072 09       		.uleb128 0x9
 1987 0073 0F       		.uleb128 0xf
 1988 0074 00       		.byte	0
 1989 0075 0B       		.uleb128 0xb
 1990 0076 0B       		.uleb128 0xb
 1991 0077 49       		.uleb128 0x49
 1992 0078 13       		.uleb128 0x13
 1993 0079 00       		.byte	0
 1994 007a 00       		.byte	0
 1995 007b 0A       		.uleb128 0xa
ARM GAS  C:\Users\NICOMA~1\AppData\Local\Temp\ccVKYZNl.s 			page 36


 1996 007c 0F       		.uleb128 0xf
 1997 007d 00       		.byte	0
 1998 007e 0B       		.uleb128 0xb
 1999 007f 0B       		.uleb128 0xb
 2000 0080 00       		.byte	0
 2001 0081 00       		.byte	0
 2002 0082 0B       		.uleb128 0xb
 2003 0083 35       		.uleb128 0x35
 2004 0084 00       		.byte	0
 2005 0085 49       		.uleb128 0x49
 2006 0086 13       		.uleb128 0x13
 2007 0087 00       		.byte	0
 2008 0088 00       		.byte	0
 2009 0089 0C       		.uleb128 0xc
 2010 008a 17       		.uleb128 0x17
 2011 008b 01       		.byte	0x1
 2012 008c 0B       		.uleb128 0xb
 2013 008d 0B       		.uleb128 0xb
 2014 008e 3A       		.uleb128 0x3a
 2015 008f 0B       		.uleb128 0xb
 2016 0090 3B       		.uleb128 0x3b
 2017 0091 0B       		.uleb128 0xb
 2018 0092 01       		.uleb128 0x1
 2019 0093 13       		.uleb128 0x13
 2020 0094 00       		.byte	0
 2021 0095 00       		.byte	0
 2022 0096 0D       		.uleb128 0xd
 2023 0097 0D       		.uleb128 0xd
 2024 0098 00       		.byte	0
 2025 0099 03       		.uleb128 0x3
 2026 009a 0E       		.uleb128 0xe
 2027 009b 3A       		.uleb128 0x3a
 2028 009c 0B       		.uleb128 0xb
 2029 009d 3B       		.uleb128 0x3b
 2030 009e 0B       		.uleb128 0xb
 2031 009f 49       		.uleb128 0x49
 2032 00a0 13       		.uleb128 0x13
 2033 00a1 00       		.byte	0
 2034 00a2 00       		.byte	0
 2035 00a3 0E       		.uleb128 0xe
 2036 00a4 26       		.uleb128 0x26
 2037 00a5 00       		.byte	0
 2038 00a6 49       		.uleb128 0x49
 2039 00a7 13       		.uleb128 0x13
 2040 00a8 00       		.byte	0
 2041 00a9 00       		.byte	0
 2042 00aa 0F       		.uleb128 0xf
 2043 00ab 2E       		.uleb128 0x2e
 2044 00ac 01       		.byte	0x1
 2045 00ad 3F       		.uleb128 0x3f
 2046 00ae 0C       		.uleb128 0xc
 2047 00af 03       		.uleb128 0x3
 2048 00b0 0E       		.uleb128 0xe
 2049 00b1 3A       		.uleb128 0x3a
 2050 00b2 0B       		.uleb128 0xb
 2051 00b3 3B       		.uleb128 0x3b
 2052 00b4 0B       		.uleb128 0xb
ARM GAS  C:\Users\NICOMA~1\AppData\Local\Temp\ccVKYZNl.s 			page 37


 2053 00b5 27       		.uleb128 0x27
 2054 00b6 0C       		.uleb128 0xc
 2055 00b7 11       		.uleb128 0x11
 2056 00b8 01       		.uleb128 0x1
 2057 00b9 12       		.uleb128 0x12
 2058 00ba 01       		.uleb128 0x1
 2059 00bb 40       		.uleb128 0x40
 2060 00bc 06       		.uleb128 0x6
 2061 00bd 9742     		.uleb128 0x2117
 2062 00bf 0C       		.uleb128 0xc
 2063 00c0 01       		.uleb128 0x1
 2064 00c1 13       		.uleb128 0x13
 2065 00c2 00       		.byte	0
 2066 00c3 00       		.byte	0
 2067 00c4 10       		.uleb128 0x10
 2068 00c5 05       		.uleb128 0x5
 2069 00c6 00       		.byte	0
 2070 00c7 03       		.uleb128 0x3
 2071 00c8 08       		.uleb128 0x8
 2072 00c9 3A       		.uleb128 0x3a
 2073 00ca 0B       		.uleb128 0xb
 2074 00cb 3B       		.uleb128 0x3b
 2075 00cc 0B       		.uleb128 0xb
 2076 00cd 49       		.uleb128 0x49
 2077 00ce 13       		.uleb128 0x13
 2078 00cf 02       		.uleb128 0x2
 2079 00d0 06       		.uleb128 0x6
 2080 00d1 00       		.byte	0
 2081 00d2 00       		.byte	0
 2082 00d3 11       		.uleb128 0x11
 2083 00d4 898201   		.uleb128 0x4109
 2084 00d7 01       		.byte	0x1
 2085 00d8 11       		.uleb128 0x11
 2086 00d9 01       		.uleb128 0x1
 2087 00da 31       		.uleb128 0x31
 2088 00db 13       		.uleb128 0x13
 2089 00dc 01       		.uleb128 0x1
 2090 00dd 13       		.uleb128 0x13
 2091 00de 00       		.byte	0
 2092 00df 00       		.byte	0
 2093 00e0 12       		.uleb128 0x12
 2094 00e1 8A8201   		.uleb128 0x410a
 2095 00e4 00       		.byte	0
 2096 00e5 02       		.uleb128 0x2
 2097 00e6 0A       		.uleb128 0xa
 2098 00e7 9142     		.uleb128 0x2111
 2099 00e9 0A       		.uleb128 0xa
 2100 00ea 00       		.byte	0
 2101 00eb 00       		.byte	0
 2102 00ec 13       		.uleb128 0x13
 2103 00ed 898201   		.uleb128 0x4109
 2104 00f0 01       		.byte	0x1
 2105 00f1 11       		.uleb128 0x11
 2106 00f2 01       		.uleb128 0x1
 2107 00f3 9542     		.uleb128 0x2115
 2108 00f5 0C       		.uleb128 0xc
 2109 00f6 31       		.uleb128 0x31
ARM GAS  C:\Users\NICOMA~1\AppData\Local\Temp\ccVKYZNl.s 			page 38


 2110 00f7 13       		.uleb128 0x13
 2111 00f8 00       		.byte	0
 2112 00f9 00       		.byte	0
 2113 00fa 14       		.uleb128 0x14
 2114 00fb 898201   		.uleb128 0x4109
 2115 00fe 00       		.byte	0
 2116 00ff 11       		.uleb128 0x11
 2117 0100 01       		.uleb128 0x1
 2118 0101 31       		.uleb128 0x31
 2119 0102 13       		.uleb128 0x13
 2120 0103 00       		.byte	0
 2121 0104 00       		.byte	0
 2122 0105 15       		.uleb128 0x15
 2123 0106 2E       		.uleb128 0x2e
 2124 0107 01       		.byte	0x1
 2125 0108 3F       		.uleb128 0x3f
 2126 0109 0C       		.uleb128 0xc
 2127 010a 03       		.uleb128 0x3
 2128 010b 0E       		.uleb128 0xe
 2129 010c 3A       		.uleb128 0x3a
 2130 010d 0B       		.uleb128 0xb
 2131 010e 3B       		.uleb128 0x3b
 2132 010f 0B       		.uleb128 0xb
 2133 0110 27       		.uleb128 0x27
 2134 0111 0C       		.uleb128 0xc
 2135 0112 49       		.uleb128 0x49
 2136 0113 13       		.uleb128 0x13
 2137 0114 11       		.uleb128 0x11
 2138 0115 01       		.uleb128 0x1
 2139 0116 12       		.uleb128 0x12
 2140 0117 01       		.uleb128 0x1
 2141 0118 40       		.uleb128 0x40
 2142 0119 06       		.uleb128 0x6
 2143 011a 9742     		.uleb128 0x2117
 2144 011c 0C       		.uleb128 0xc
 2145 011d 01       		.uleb128 0x1
 2146 011e 13       		.uleb128 0x13
 2147 011f 00       		.byte	0
 2148 0120 00       		.byte	0
 2149 0121 16       		.uleb128 0x16
 2150 0122 05       		.uleb128 0x5
 2151 0123 00       		.byte	0
 2152 0124 03       		.uleb128 0x3
 2153 0125 0E       		.uleb128 0xe
 2154 0126 3A       		.uleb128 0x3a
 2155 0127 0B       		.uleb128 0xb
 2156 0128 3B       		.uleb128 0x3b
 2157 0129 0B       		.uleb128 0xb
 2158 012a 49       		.uleb128 0x49
 2159 012b 13       		.uleb128 0x13
 2160 012c 02       		.uleb128 0x2
 2161 012d 06       		.uleb128 0x6
 2162 012e 00       		.byte	0
 2163 012f 00       		.byte	0
 2164 0130 17       		.uleb128 0x17
 2165 0131 34       		.uleb128 0x34
 2166 0132 00       		.byte	0
ARM GAS  C:\Users\NICOMA~1\AppData\Local\Temp\ccVKYZNl.s 			page 39


 2167 0133 03       		.uleb128 0x3
 2168 0134 0E       		.uleb128 0xe
 2169 0135 3A       		.uleb128 0x3a
 2170 0136 0B       		.uleb128 0xb
 2171 0137 3B       		.uleb128 0x3b
 2172 0138 0B       		.uleb128 0xb
 2173 0139 49       		.uleb128 0x49
 2174 013a 13       		.uleb128 0x13
 2175 013b 02       		.uleb128 0x2
 2176 013c 06       		.uleb128 0x6
 2177 013d 00       		.byte	0
 2178 013e 00       		.byte	0
 2179 013f 18       		.uleb128 0x18
 2180 0140 34       		.uleb128 0x34
 2181 0141 00       		.byte	0
 2182 0142 03       		.uleb128 0x3
 2183 0143 0E       		.uleb128 0xe
 2184 0144 3A       		.uleb128 0x3a
 2185 0145 0B       		.uleb128 0xb
 2186 0146 3B       		.uleb128 0x3b
 2187 0147 0B       		.uleb128 0xb
 2188 0148 49       		.uleb128 0x49
 2189 0149 13       		.uleb128 0x13
 2190 014a 02       		.uleb128 0x2
 2191 014b 0A       		.uleb128 0xa
 2192 014c 00       		.byte	0
 2193 014d 00       		.byte	0
 2194 014e 19       		.uleb128 0x19
 2195 014f 898201   		.uleb128 0x4109
 2196 0152 01       		.byte	0x1
 2197 0153 11       		.uleb128 0x11
 2198 0154 01       		.uleb128 0x1
 2199 0155 31       		.uleb128 0x31
 2200 0156 13       		.uleb128 0x13
 2201 0157 00       		.byte	0
 2202 0158 00       		.byte	0
 2203 0159 1A       		.uleb128 0x1a
 2204 015a 2E       		.uleb128 0x2e
 2205 015b 01       		.byte	0x1
 2206 015c 3F       		.uleb128 0x3f
 2207 015d 0C       		.uleb128 0xc
 2208 015e 03       		.uleb128 0x3
 2209 015f 0E       		.uleb128 0xe
 2210 0160 3A       		.uleb128 0x3a
 2211 0161 0B       		.uleb128 0xb
 2212 0162 3B       		.uleb128 0x3b
 2213 0163 05       		.uleb128 0x5
 2214 0164 27       		.uleb128 0x27
 2215 0165 0C       		.uleb128 0xc
 2216 0166 49       		.uleb128 0x49
 2217 0167 13       		.uleb128 0x13
 2218 0168 11       		.uleb128 0x11
 2219 0169 01       		.uleb128 0x1
 2220 016a 12       		.uleb128 0x12
 2221 016b 01       		.uleb128 0x1
 2222 016c 40       		.uleb128 0x40
 2223 016d 06       		.uleb128 0x6
ARM GAS  C:\Users\NICOMA~1\AppData\Local\Temp\ccVKYZNl.s 			page 40


 2224 016e 9742     		.uleb128 0x2117
 2225 0170 0C       		.uleb128 0xc
 2226 0171 01       		.uleb128 0x1
 2227 0172 13       		.uleb128 0x13
 2228 0173 00       		.byte	0
 2229 0174 00       		.byte	0
 2230 0175 1B       		.uleb128 0x1b
 2231 0176 05       		.uleb128 0x5
 2232 0177 00       		.byte	0
 2233 0178 03       		.uleb128 0x3
 2234 0179 08       		.uleb128 0x8
 2235 017a 3A       		.uleb128 0x3a
 2236 017b 0B       		.uleb128 0xb
 2237 017c 3B       		.uleb128 0x3b
 2238 017d 05       		.uleb128 0x5
 2239 017e 49       		.uleb128 0x49
 2240 017f 13       		.uleb128 0x13
 2241 0180 02       		.uleb128 0x2
 2242 0181 06       		.uleb128 0x6
 2243 0182 00       		.byte	0
 2244 0183 00       		.byte	0
 2245 0184 1C       		.uleb128 0x1c
 2246 0185 05       		.uleb128 0x5
 2247 0186 00       		.byte	0
 2248 0187 03       		.uleb128 0x3
 2249 0188 0E       		.uleb128 0xe
 2250 0189 3A       		.uleb128 0x3a
 2251 018a 0B       		.uleb128 0xb
 2252 018b 3B       		.uleb128 0x3b
 2253 018c 05       		.uleb128 0x5
 2254 018d 49       		.uleb128 0x49
 2255 018e 13       		.uleb128 0x13
 2256 018f 02       		.uleb128 0x2
 2257 0190 06       		.uleb128 0x6
 2258 0191 00       		.byte	0
 2259 0192 00       		.byte	0
 2260 0193 1D       		.uleb128 0x1d
 2261 0194 34       		.uleb128 0x34
 2262 0195 00       		.byte	0
 2263 0196 03       		.uleb128 0x3
 2264 0197 0E       		.uleb128 0xe
 2265 0198 3A       		.uleb128 0x3a
 2266 0199 0B       		.uleb128 0xb
 2267 019a 3B       		.uleb128 0x3b
 2268 019b 05       		.uleb128 0x5
 2269 019c 49       		.uleb128 0x49
 2270 019d 13       		.uleb128 0x13
 2271 019e 02       		.uleb128 0x2
 2272 019f 06       		.uleb128 0x6
 2273 01a0 00       		.byte	0
 2274 01a1 00       		.byte	0
 2275 01a2 1E       		.uleb128 0x1e
 2276 01a3 34       		.uleb128 0x34
 2277 01a4 00       		.byte	0
 2278 01a5 03       		.uleb128 0x3
 2279 01a6 0E       		.uleb128 0xe
 2280 01a7 3A       		.uleb128 0x3a
ARM GAS  C:\Users\NICOMA~1\AppData\Local\Temp\ccVKYZNl.s 			page 41


 2281 01a8 0B       		.uleb128 0xb
 2282 01a9 3B       		.uleb128 0x3b
 2283 01aa 05       		.uleb128 0x5
 2284 01ab 49       		.uleb128 0x49
 2285 01ac 13       		.uleb128 0x13
 2286 01ad 02       		.uleb128 0x2
 2287 01ae 0A       		.uleb128 0xa
 2288 01af 00       		.byte	0
 2289 01b0 00       		.byte	0
 2290 01b1 1F       		.uleb128 0x1f
 2291 01b2 2E       		.uleb128 0x2e
 2292 01b3 01       		.byte	0x1
 2293 01b4 3F       		.uleb128 0x3f
 2294 01b5 0C       		.uleb128 0xc
 2295 01b6 03       		.uleb128 0x3
 2296 01b7 0E       		.uleb128 0xe
 2297 01b8 3A       		.uleb128 0x3a
 2298 01b9 0B       		.uleb128 0xb
 2299 01ba 3B       		.uleb128 0x3b
 2300 01bb 0B       		.uleb128 0xb
 2301 01bc 27       		.uleb128 0x27
 2302 01bd 0C       		.uleb128 0xc
 2303 01be 3C       		.uleb128 0x3c
 2304 01bf 0C       		.uleb128 0xc
 2305 01c0 01       		.uleb128 0x1
 2306 01c1 13       		.uleb128 0x13
 2307 01c2 00       		.byte	0
 2308 01c3 00       		.byte	0
 2309 01c4 20       		.uleb128 0x20
 2310 01c5 05       		.uleb128 0x5
 2311 01c6 00       		.byte	0
 2312 01c7 49       		.uleb128 0x49
 2313 01c8 13       		.uleb128 0x13
 2314 01c9 00       		.byte	0
 2315 01ca 00       		.byte	0
 2316 01cb 21       		.uleb128 0x21
 2317 01cc 2E       		.uleb128 0x2e
 2318 01cd 00       		.byte	0
 2319 01ce 3F       		.uleb128 0x3f
 2320 01cf 0C       		.uleb128 0xc
 2321 01d0 03       		.uleb128 0x3
 2322 01d1 0E       		.uleb128 0xe
 2323 01d2 3A       		.uleb128 0x3a
 2324 01d3 0B       		.uleb128 0xb
 2325 01d4 3B       		.uleb128 0x3b
 2326 01d5 0B       		.uleb128 0xb
 2327 01d6 27       		.uleb128 0x27
 2328 01d7 0C       		.uleb128 0xc
 2329 01d8 3C       		.uleb128 0x3c
 2330 01d9 0C       		.uleb128 0xc
 2331 01da 00       		.byte	0
 2332 01db 00       		.byte	0
 2333 01dc 22       		.uleb128 0x22
 2334 01dd 2E       		.uleb128 0x2e
 2335 01de 01       		.byte	0x1
 2336 01df 3F       		.uleb128 0x3f
 2337 01e0 0C       		.uleb128 0xc
ARM GAS  C:\Users\NICOMA~1\AppData\Local\Temp\ccVKYZNl.s 			page 42


 2338 01e1 03       		.uleb128 0x3
 2339 01e2 0E       		.uleb128 0xe
 2340 01e3 3A       		.uleb128 0x3a
 2341 01e4 0B       		.uleb128 0xb
 2342 01e5 3B       		.uleb128 0x3b
 2343 01e6 0B       		.uleb128 0xb
 2344 01e7 27       		.uleb128 0x27
 2345 01e8 0C       		.uleb128 0xc
 2346 01e9 49       		.uleb128 0x49
 2347 01ea 13       		.uleb128 0x13
 2348 01eb 3C       		.uleb128 0x3c
 2349 01ec 0C       		.uleb128 0xc
 2350 01ed 01       		.uleb128 0x1
 2351 01ee 13       		.uleb128 0x13
 2352 01ef 00       		.byte	0
 2353 01f0 00       		.byte	0
 2354 01f1 23       		.uleb128 0x23
 2355 01f2 2E       		.uleb128 0x2e
 2356 01f3 01       		.byte	0x1
 2357 01f4 3F       		.uleb128 0x3f
 2358 01f5 0C       		.uleb128 0xc
 2359 01f6 03       		.uleb128 0x3
 2360 01f7 0E       		.uleb128 0xe
 2361 01f8 3A       		.uleb128 0x3a
 2362 01f9 0B       		.uleb128 0xb
 2363 01fa 3B       		.uleb128 0x3b
 2364 01fb 0B       		.uleb128 0xb
 2365 01fc 27       		.uleb128 0x27
 2366 01fd 0C       		.uleb128 0xc
 2367 01fe 3C       		.uleb128 0x3c
 2368 01ff 0C       		.uleb128 0xc
 2369 0200 00       		.byte	0
 2370 0201 00       		.byte	0
 2371 0202 00       		.byte	0
 2372              		.section	.debug_loc,"",%progbits
 2373              	.Ldebug_loc0:
 2374              	.LLST0:
 2375 0000 00000000 		.4byte	.LFB7
 2376 0004 04000000 		.4byte	.LCFI0
 2377 0008 0200     		.2byte	0x2
 2378 000a 7D       		.byte	0x7d
 2379 000b 00       		.sleb128 0
 2380 000c 04000000 		.4byte	.LCFI0
 2381 0010 38000000 		.4byte	.LFE7
 2382 0014 0200     		.2byte	0x2
 2383 0016 7D       		.byte	0x7d
 2384 0017 08       		.sleb128 8
 2385 0018 00000000 		.4byte	0
 2386 001c 00000000 		.4byte	0
 2387              	.LLST1:
 2388 0020 00000000 		.4byte	.LVL0
 2389 0024 14000000 		.4byte	.LVL1
 2390 0028 0100     		.2byte	0x1
 2391 002a 50       		.byte	0x50
 2392 002b 14000000 		.4byte	.LVL1
 2393 002f 38000000 		.4byte	.LFE7
 2394 0033 0100     		.2byte	0x1
ARM GAS  C:\Users\NICOMA~1\AppData\Local\Temp\ccVKYZNl.s 			page 43


 2395 0035 54       		.byte	0x54
 2396 0036 00000000 		.4byte	0
 2397 003a 00000000 		.4byte	0
 2398              	.LLST2:
 2399 003e 00000000 		.4byte	.LVL0
 2400 0042 18000000 		.4byte	.LVL2
 2401 0046 0100     		.2byte	0x1
 2402 0048 51       		.byte	0x51
 2403 0049 18000000 		.4byte	.LVL2
 2404 004d 27000000 		.4byte	.LVL3-1
 2405 0051 0100     		.2byte	0x1
 2406 0053 53       		.byte	0x53
 2407 0054 27000000 		.4byte	.LVL3-1
 2408 0058 38000000 		.4byte	.LFE7
 2409 005c 0400     		.2byte	0x4
 2410 005e F3       		.byte	0xf3
 2411 005f 01       		.uleb128 0x1
 2412 0060 51       		.byte	0x51
 2413 0061 9F       		.byte	0x9f
 2414 0062 00000000 		.4byte	0
 2415 0066 00000000 		.4byte	0
 2416              	.LLST3:
 2417 006a 00000000 		.4byte	.LVL0
 2418 006e 27000000 		.4byte	.LVL3-1
 2419 0072 0100     		.2byte	0x1
 2420 0074 52       		.byte	0x52
 2421 0075 27000000 		.4byte	.LVL3-1
 2422 0079 38000000 		.4byte	.LFE7
 2423 007d 0400     		.2byte	0x4
 2424 007f F3       		.byte	0xf3
 2425 0080 01       		.uleb128 0x1
 2426 0081 52       		.byte	0x52
 2427 0082 9F       		.byte	0x9f
 2428 0083 00000000 		.4byte	0
 2429 0087 00000000 		.4byte	0
 2430              	.LLST4:
 2431 008b 00000000 		.4byte	.LFB8
 2432 008f 04000000 		.4byte	.LCFI1
 2433 0093 0200     		.2byte	0x2
 2434 0095 7D       		.byte	0x7d
 2435 0096 00       		.sleb128 0
 2436 0097 04000000 		.4byte	.LCFI1
 2437 009b 44000000 		.4byte	.LFE8
 2438 009f 0200     		.2byte	0x2
 2439 00a1 7D       		.byte	0x7d
 2440 00a2 08       		.sleb128 8
 2441 00a3 00000000 		.4byte	0
 2442 00a7 00000000 		.4byte	0
 2443              	.LLST5:
 2444 00ab 00000000 		.4byte	.LVL5
 2445 00af 24000000 		.4byte	.LVL6
 2446 00b3 0100     		.2byte	0x1
 2447 00b5 50       		.byte	0x50
 2448 00b6 24000000 		.4byte	.LVL6
 2449 00ba 44000000 		.4byte	.LFE8
 2450 00be 0100     		.2byte	0x1
 2451 00c0 54       		.byte	0x54
ARM GAS  C:\Users\NICOMA~1\AppData\Local\Temp\ccVKYZNl.s 			page 44


 2452 00c1 00000000 		.4byte	0
 2453 00c5 00000000 		.4byte	0
 2454              	.LLST6:
 2455 00c9 00000000 		.4byte	.LFB10
 2456 00cd 04000000 		.4byte	.LCFI2
 2457 00d1 0200     		.2byte	0x2
 2458 00d3 7D       		.byte	0x7d
 2459 00d4 00       		.sleb128 0
 2460 00d5 04000000 		.4byte	.LCFI2
 2461 00d9 4C000000 		.4byte	.LFE10
 2462 00dd 0200     		.2byte	0x2
 2463 00df 7D       		.byte	0x7d
 2464 00e0 10       		.sleb128 16
 2465 00e1 00000000 		.4byte	0
 2466 00e5 00000000 		.4byte	0
 2467              	.LLST7:
 2468 00e9 00000000 		.4byte	.LVL10
 2469 00ed 10000000 		.4byte	.LVL11
 2470 00f1 0100     		.2byte	0x1
 2471 00f3 50       		.byte	0x50
 2472 00f4 10000000 		.4byte	.LVL11
 2473 00f8 4C000000 		.4byte	.LFE10
 2474 00fc 0100     		.2byte	0x1
 2475 00fe 54       		.byte	0x54
 2476 00ff 00000000 		.4byte	0
 2477 0103 00000000 		.4byte	0
 2478              	.LLST8:
 2479 0107 00000000 		.4byte	.LVL10
 2480 010b 14000000 		.4byte	.LVL12
 2481 010f 0100     		.2byte	0x1
 2482 0111 51       		.byte	0x51
 2483 0112 14000000 		.4byte	.LVL12
 2484 0116 4C000000 		.4byte	.LFE10
 2485 011a 0100     		.2byte	0x1
 2486 011c 56       		.byte	0x56
 2487 011d 00000000 		.4byte	0
 2488 0121 00000000 		.4byte	0
 2489              	.LLST9:
 2490 0125 00000000 		.4byte	.LVL10
 2491 0129 17000000 		.4byte	.LVL13-1
 2492 012d 0100     		.2byte	0x1
 2493 012f 52       		.byte	0x52
 2494 0130 17000000 		.4byte	.LVL13-1
 2495 0134 4C000000 		.4byte	.LFE10
 2496 0138 0400     		.2byte	0x4
 2497 013a F3       		.byte	0xf3
 2498 013b 01       		.uleb128 0x1
 2499 013c 52       		.byte	0x52
 2500 013d 9F       		.byte	0x9f
 2501 013e 00000000 		.4byte	0
 2502 0142 00000000 		.4byte	0
 2503              	.LLST10:
 2504 0146 18000000 		.4byte	.LVL13
 2505 014a 38000000 		.4byte	.LVL14
 2506 014e 0100     		.2byte	0x1
 2507 0150 50       		.byte	0x50
 2508 0151 38000000 		.4byte	.LVL14
ARM GAS  C:\Users\NICOMA~1\AppData\Local\Temp\ccVKYZNl.s 			page 45


 2509 0155 4C000000 		.4byte	.LFE10
 2510 0159 0100     		.2byte	0x1
 2511 015b 55       		.byte	0x55
 2512 015c 00000000 		.4byte	0
 2513 0160 00000000 		.4byte	0
 2514              	.LLST11:
 2515 0164 00000000 		.4byte	.LFB9
 2516 0168 04000000 		.4byte	.LCFI3
 2517 016c 0200     		.2byte	0x2
 2518 016e 7D       		.byte	0x7d
 2519 016f 00       		.sleb128 0
 2520 0170 04000000 		.4byte	.LCFI3
 2521 0174 14000000 		.4byte	.LFE9
 2522 0178 0200     		.2byte	0x2
 2523 017a 7D       		.byte	0x7d
 2524 017b 08       		.sleb128 8
 2525 017c 00000000 		.4byte	0
 2526 0180 00000000 		.4byte	0
 2527              	.LLST12:
 2528 0184 00000000 		.4byte	.LVL17
 2529 0188 0B000000 		.4byte	.LVL18-1
 2530 018c 0100     		.2byte	0x1
 2531 018e 50       		.byte	0x50
 2532 018f 0B000000 		.4byte	.LVL18-1
 2533 0193 14000000 		.4byte	.LFE9
 2534 0197 0400     		.2byte	0x4
 2535 0199 F3       		.byte	0xf3
 2536 019a 01       		.uleb128 0x1
 2537 019b 50       		.byte	0x50
 2538 019c 9F       		.byte	0x9f
 2539 019d 00000000 		.4byte	0
 2540 01a1 00000000 		.4byte	0
 2541              	.LLST13:
 2542 01a5 00000000 		.4byte	.LVL17
 2543 01a9 0B000000 		.4byte	.LVL18-1
 2544 01ad 0100     		.2byte	0x1
 2545 01af 51       		.byte	0x51
 2546 01b0 0B000000 		.4byte	.LVL18-1
 2547 01b4 14000000 		.4byte	.LFE9
 2548 01b8 0400     		.2byte	0x4
 2549 01ba F3       		.byte	0xf3
 2550 01bb 01       		.uleb128 0x1
 2551 01bc 51       		.byte	0x51
 2552 01bd 9F       		.byte	0x9f
 2553 01be 00000000 		.4byte	0
 2554 01c2 00000000 		.4byte	0
 2555              	.LLST14:
 2556 01c6 00000000 		.4byte	.LVL17
 2557 01ca 0B000000 		.4byte	.LVL18-1
 2558 01ce 0100     		.2byte	0x1
 2559 01d0 52       		.byte	0x52
 2560 01d1 0B000000 		.4byte	.LVL18-1
 2561 01d5 14000000 		.4byte	.LFE9
 2562 01d9 0400     		.2byte	0x4
 2563 01db F3       		.byte	0xf3
 2564 01dc 01       		.uleb128 0x1
 2565 01dd 52       		.byte	0x52
ARM GAS  C:\Users\NICOMA~1\AppData\Local\Temp\ccVKYZNl.s 			page 46


 2566 01de 9F       		.byte	0x9f
 2567 01df 00000000 		.4byte	0
 2568 01e3 00000000 		.4byte	0
 2569              	.LLST15:
 2570 01e7 00000000 		.4byte	.LFB11
 2571 01eb 08000000 		.4byte	.LCFI4
 2572 01ef 0200     		.2byte	0x2
 2573 01f1 7D       		.byte	0x7d
 2574 01f2 00       		.sleb128 0
 2575 01f3 08000000 		.4byte	.LCFI4
 2576 01f7 4C000000 		.4byte	.LFE11
 2577 01fb 0200     		.2byte	0x2
 2578 01fd 7D       		.byte	0x7d
 2579 01fe 08       		.sleb128 8
 2580 01ff 00000000 		.4byte	0
 2581 0203 00000000 		.4byte	0
 2582              	.LLST16:
 2583 0207 00000000 		.4byte	.LVL19
 2584 020b 38000000 		.4byte	.LVL20
 2585 020f 0100     		.2byte	0x1
 2586 0211 50       		.byte	0x50
 2587 0212 38000000 		.4byte	.LVL20
 2588 0216 3B000000 		.4byte	.LVL21-1
 2589 021a 0300     		.2byte	0x3
 2590 021c 70       		.byte	0x70
 2591 021d 70       		.sleb128 -16
 2592 021e 9F       		.byte	0x9f
 2593 021f 3B000000 		.4byte	.LVL21-1
 2594 0223 44000000 		.4byte	.LVL22
 2595 0227 0400     		.2byte	0x4
 2596 0229 F3       		.byte	0xf3
 2597 022a 01       		.uleb128 0x1
 2598 022b 50       		.byte	0x50
 2599 022c 9F       		.byte	0x9f
 2600 022d 44000000 		.4byte	.LVL22
 2601 0231 48000000 		.4byte	.LVL23
 2602 0235 0100     		.2byte	0x1
 2603 0237 50       		.byte	0x50
 2604 0238 48000000 		.4byte	.LVL23
 2605 023c 4C000000 		.4byte	.LFE11
 2606 0240 0400     		.2byte	0x4
 2607 0242 F3       		.byte	0xf3
 2608 0243 01       		.uleb128 0x1
 2609 0244 50       		.byte	0x50
 2610 0245 9F       		.byte	0x9f
 2611 0246 00000000 		.4byte	0
 2612 024a 00000000 		.4byte	0
 2613              	.LLST17:
 2614 024e 00000000 		.4byte	.LVL19
 2615 0252 3B000000 		.4byte	.LVL21-1
 2616 0256 0100     		.2byte	0x1
 2617 0258 51       		.byte	0x51
 2618 0259 3B000000 		.4byte	.LVL21-1
 2619 025d 44000000 		.4byte	.LVL22
 2620 0261 0400     		.2byte	0x4
 2621 0263 F3       		.byte	0xf3
 2622 0264 01       		.uleb128 0x1
ARM GAS  C:\Users\NICOMA~1\AppData\Local\Temp\ccVKYZNl.s 			page 47


 2623 0265 51       		.byte	0x51
 2624 0266 9F       		.byte	0x9f
 2625 0267 44000000 		.4byte	.LVL22
 2626 026b 4C000000 		.4byte	.LFE11
 2627 026f 0100     		.2byte	0x1
 2628 0271 51       		.byte	0x51
 2629 0272 00000000 		.4byte	0
 2630 0276 00000000 		.4byte	0
 2631              	.LLST18:
 2632 027a 00000000 		.4byte	.LFB13
 2633 027e 04000000 		.4byte	.LCFI5
 2634 0282 0200     		.2byte	0x2
 2635 0284 7D       		.byte	0x7d
 2636 0285 00       		.sleb128 0
 2637 0286 04000000 		.4byte	.LCFI5
 2638 028a 58000000 		.4byte	.LFE13
 2639 028e 0200     		.2byte	0x2
 2640 0290 7D       		.byte	0x7d
 2641 0291 10       		.sleb128 16
 2642 0292 00000000 		.4byte	0
 2643 0296 00000000 		.4byte	0
 2644              	.LLST19:
 2645 029a 00000000 		.4byte	.LVL24
 2646 029e 10000000 		.4byte	.LVL25
 2647 02a2 0100     		.2byte	0x1
 2648 02a4 50       		.byte	0x50
 2649 02a5 10000000 		.4byte	.LVL25
 2650 02a9 58000000 		.4byte	.LFE13
 2651 02ad 0100     		.2byte	0x1
 2652 02af 54       		.byte	0x54
 2653 02b0 00000000 		.4byte	0
 2654 02b4 00000000 		.4byte	0
 2655              	.LLST20:
 2656 02b8 00000000 		.4byte	.LVL24
 2657 02bc 14000000 		.4byte	.LVL26
 2658 02c0 0100     		.2byte	0x1
 2659 02c2 51       		.byte	0x51
 2660 02c3 14000000 		.4byte	.LVL26
 2661 02c7 58000000 		.4byte	.LFE13
 2662 02cb 0100     		.2byte	0x1
 2663 02cd 56       		.byte	0x56
 2664 02ce 00000000 		.4byte	0
 2665 02d2 00000000 		.4byte	0
 2666              	.LLST21:
 2667 02d6 00000000 		.4byte	.LVL24
 2668 02da 17000000 		.4byte	.LVL27-1
 2669 02de 0100     		.2byte	0x1
 2670 02e0 52       		.byte	0x52
 2671 02e1 17000000 		.4byte	.LVL27-1
 2672 02e5 58000000 		.4byte	.LFE13
 2673 02e9 0400     		.2byte	0x4
 2674 02eb F3       		.byte	0xf3
 2675 02ec 01       		.uleb128 0x1
 2676 02ed 52       		.byte	0x52
 2677 02ee 9F       		.byte	0x9f
 2678 02ef 00000000 		.4byte	0
 2679 02f3 00000000 		.4byte	0
ARM GAS  C:\Users\NICOMA~1\AppData\Local\Temp\ccVKYZNl.s 			page 48


 2680              	.LLST22:
 2681 02f7 18000000 		.4byte	.LVL27
 2682 02fb 3C000000 		.4byte	.LVL28
 2683 02ff 0100     		.2byte	0x1
 2684 0301 50       		.byte	0x50
 2685 0302 3C000000 		.4byte	.LVL28
 2686 0306 58000000 		.4byte	.LFE13
 2687 030a 0100     		.2byte	0x1
 2688 030c 55       		.byte	0x55
 2689 030d 00000000 		.4byte	0
 2690 0311 00000000 		.4byte	0
 2691              	.LLST23:
 2692 0315 00000000 		.4byte	.LFB12
 2693 0319 04000000 		.4byte	.LCFI6
 2694 031d 0200     		.2byte	0x2
 2695 031f 7D       		.byte	0x7d
 2696 0320 00       		.sleb128 0
 2697 0321 04000000 		.4byte	.LCFI6
 2698 0325 14000000 		.4byte	.LFE12
 2699 0329 0200     		.2byte	0x2
 2700 032b 7D       		.byte	0x7d
 2701 032c 08       		.sleb128 8
 2702 032d 00000000 		.4byte	0
 2703 0331 00000000 		.4byte	0
 2704              	.LLST24:
 2705 0335 00000000 		.4byte	.LVL31
 2706 0339 0B000000 		.4byte	.LVL32-1
 2707 033d 0100     		.2byte	0x1
 2708 033f 50       		.byte	0x50
 2709 0340 0B000000 		.4byte	.LVL32-1
 2710 0344 14000000 		.4byte	.LFE12
 2711 0348 0400     		.2byte	0x4
 2712 034a F3       		.byte	0xf3
 2713 034b 01       		.uleb128 0x1
 2714 034c 50       		.byte	0x50
 2715 034d 9F       		.byte	0x9f
 2716 034e 00000000 		.4byte	0
 2717 0352 00000000 		.4byte	0
 2718              	.LLST25:
 2719 0356 00000000 		.4byte	.LVL31
 2720 035a 0B000000 		.4byte	.LVL32-1
 2721 035e 0100     		.2byte	0x1
 2722 0360 51       		.byte	0x51
 2723 0361 0B000000 		.4byte	.LVL32-1
 2724 0365 14000000 		.4byte	.LFE12
 2725 0369 0400     		.2byte	0x4
 2726 036b F3       		.byte	0xf3
 2727 036c 01       		.uleb128 0x1
 2728 036d 51       		.byte	0x51
 2729 036e 9F       		.byte	0x9f
 2730 036f 00000000 		.4byte	0
 2731 0373 00000000 		.4byte	0
 2732              	.LLST26:
 2733 0377 00000000 		.4byte	.LVL31
 2734 037b 0B000000 		.4byte	.LVL32-1
 2735 037f 0100     		.2byte	0x1
 2736 0381 52       		.byte	0x52
ARM GAS  C:\Users\NICOMA~1\AppData\Local\Temp\ccVKYZNl.s 			page 49


 2737 0382 0B000000 		.4byte	.LVL32-1
 2738 0386 14000000 		.4byte	.LFE12
 2739 038a 0400     		.2byte	0x4
 2740 038c F3       		.byte	0xf3
 2741 038d 01       		.uleb128 0x1
 2742 038e 52       		.byte	0x52
 2743 038f 9F       		.byte	0x9f
 2744 0390 00000000 		.4byte	0
 2745 0394 00000000 		.4byte	0
 2746              	.LLST27:
 2747 0398 00000000 		.4byte	.LFB14
 2748 039c 08000000 		.4byte	.LCFI7
 2749 03a0 0200     		.2byte	0x2
 2750 03a2 7D       		.byte	0x7d
 2751 03a3 00       		.sleb128 0
 2752 03a4 08000000 		.4byte	.LCFI7
 2753 03a8 54000000 		.4byte	.LFE14
 2754 03ac 0200     		.2byte	0x2
 2755 03ae 7D       		.byte	0x7d
 2756 03af 08       		.sleb128 8
 2757 03b0 00000000 		.4byte	0
 2758 03b4 00000000 		.4byte	0
 2759              	.LLST28:
 2760 03b8 00000000 		.4byte	.LVL33
 2761 03bc 40000000 		.4byte	.LVL34
 2762 03c0 0100     		.2byte	0x1
 2763 03c2 50       		.byte	0x50
 2764 03c3 40000000 		.4byte	.LVL34
 2765 03c7 43000000 		.4byte	.LVL35-1
 2766 03cb 0300     		.2byte	0x3
 2767 03cd 70       		.byte	0x70
 2768 03ce 70       		.sleb128 -16
 2769 03cf 9F       		.byte	0x9f
 2770 03d0 43000000 		.4byte	.LVL35-1
 2771 03d4 4C000000 		.4byte	.LVL36
 2772 03d8 0400     		.2byte	0x4
 2773 03da F3       		.byte	0xf3
 2774 03db 01       		.uleb128 0x1
 2775 03dc 50       		.byte	0x50
 2776 03dd 9F       		.byte	0x9f
 2777 03de 4C000000 		.4byte	.LVL36
 2778 03e2 50000000 		.4byte	.LVL37
 2779 03e6 0100     		.2byte	0x1
 2780 03e8 50       		.byte	0x50
 2781 03e9 50000000 		.4byte	.LVL37
 2782 03ed 54000000 		.4byte	.LFE14
 2783 03f1 0400     		.2byte	0x4
 2784 03f3 F3       		.byte	0xf3
 2785 03f4 01       		.uleb128 0x1
 2786 03f5 50       		.byte	0x50
 2787 03f6 9F       		.byte	0x9f
 2788 03f7 00000000 		.4byte	0
 2789 03fb 00000000 		.4byte	0
 2790              	.LLST29:
 2791 03ff 00000000 		.4byte	.LVL33
 2792 0403 43000000 		.4byte	.LVL35-1
 2793 0407 0100     		.2byte	0x1
ARM GAS  C:\Users\NICOMA~1\AppData\Local\Temp\ccVKYZNl.s 			page 50


 2794 0409 51       		.byte	0x51
 2795 040a 43000000 		.4byte	.LVL35-1
 2796 040e 4C000000 		.4byte	.LVL36
 2797 0412 0400     		.2byte	0x4
 2798 0414 F3       		.byte	0xf3
 2799 0415 01       		.uleb128 0x1
 2800 0416 51       		.byte	0x51
 2801 0417 9F       		.byte	0x9f
 2802 0418 4C000000 		.4byte	.LVL36
 2803 041c 54000000 		.4byte	.LFE14
 2804 0420 0100     		.2byte	0x1
 2805 0422 51       		.byte	0x51
 2806 0423 00000000 		.4byte	0
 2807 0427 00000000 		.4byte	0
 2808              	.LLST30:
 2809 042b 00000000 		.4byte	.LFB16
 2810 042f 04000000 		.4byte	.LCFI8
 2811 0433 0200     		.2byte	0x2
 2812 0435 7D       		.byte	0x7d
 2813 0436 00       		.sleb128 0
 2814 0437 04000000 		.4byte	.LCFI8
 2815 043b 54000000 		.4byte	.LFE16
 2816 043f 0200     		.2byte	0x2
 2817 0441 7D       		.byte	0x7d
 2818 0442 10       		.sleb128 16
 2819 0443 00000000 		.4byte	0
 2820 0447 00000000 		.4byte	0
 2821              	.LLST31:
 2822 044b 00000000 		.4byte	.LVL38
 2823 044f 10000000 		.4byte	.LVL39
 2824 0453 0100     		.2byte	0x1
 2825 0455 50       		.byte	0x50
 2826 0456 10000000 		.4byte	.LVL39
 2827 045a 54000000 		.4byte	.LFE16
 2828 045e 0100     		.2byte	0x1
 2829 0460 54       		.byte	0x54
 2830 0461 00000000 		.4byte	0
 2831 0465 00000000 		.4byte	0
 2832              	.LLST32:
 2833 0469 00000000 		.4byte	.LVL38
 2834 046d 14000000 		.4byte	.LVL40
 2835 0471 0100     		.2byte	0x1
 2836 0473 51       		.byte	0x51
 2837 0474 14000000 		.4byte	.LVL40
 2838 0478 54000000 		.4byte	.LFE16
 2839 047c 0100     		.2byte	0x1
 2840 047e 56       		.byte	0x56
 2841 047f 00000000 		.4byte	0
 2842 0483 00000000 		.4byte	0
 2843              	.LLST33:
 2844 0487 00000000 		.4byte	.LVL38
 2845 048b 17000000 		.4byte	.LVL41-1
 2846 048f 0100     		.2byte	0x1
 2847 0491 52       		.byte	0x52
 2848 0492 17000000 		.4byte	.LVL41-1
 2849 0496 54000000 		.4byte	.LFE16
 2850 049a 0400     		.2byte	0x4
ARM GAS  C:\Users\NICOMA~1\AppData\Local\Temp\ccVKYZNl.s 			page 51


 2851 049c F3       		.byte	0xf3
 2852 049d 01       		.uleb128 0x1
 2853 049e 52       		.byte	0x52
 2854 049f 9F       		.byte	0x9f
 2855 04a0 00000000 		.4byte	0
 2856 04a4 00000000 		.4byte	0
 2857              	.LLST34:
 2858 04a8 18000000 		.4byte	.LVL41
 2859 04ac 30000000 		.4byte	.LVL42
 2860 04b0 0100     		.2byte	0x1
 2861 04b2 50       		.byte	0x50
 2862 04b3 30000000 		.4byte	.LVL42
 2863 04b7 54000000 		.4byte	.LFE16
 2864 04bb 0100     		.2byte	0x1
 2865 04bd 55       		.byte	0x55
 2866 04be 00000000 		.4byte	0
 2867 04c2 00000000 		.4byte	0
 2868              	.LLST35:
 2869 04c6 00000000 		.4byte	.LFB15
 2870 04ca 04000000 		.4byte	.LCFI9
 2871 04ce 0200     		.2byte	0x2
 2872 04d0 7D       		.byte	0x7d
 2873 04d1 00       		.sleb128 0
 2874 04d2 04000000 		.4byte	.LCFI9
 2875 04d6 14000000 		.4byte	.LFE15
 2876 04da 0200     		.2byte	0x2
 2877 04dc 7D       		.byte	0x7d
 2878 04dd 08       		.sleb128 8
 2879 04de 00000000 		.4byte	0
 2880 04e2 00000000 		.4byte	0
 2881              	.LLST36:
 2882 04e6 00000000 		.4byte	.LVL45
 2883 04ea 0B000000 		.4byte	.LVL46-1
 2884 04ee 0100     		.2byte	0x1
 2885 04f0 50       		.byte	0x50
 2886 04f1 0B000000 		.4byte	.LVL46-1
 2887 04f5 14000000 		.4byte	.LFE15
 2888 04f9 0400     		.2byte	0x4
 2889 04fb F3       		.byte	0xf3
 2890 04fc 01       		.uleb128 0x1
 2891 04fd 50       		.byte	0x50
 2892 04fe 9F       		.byte	0x9f
 2893 04ff 00000000 		.4byte	0
 2894 0503 00000000 		.4byte	0
 2895              	.LLST37:
 2896 0507 00000000 		.4byte	.LVL45
 2897 050b 0B000000 		.4byte	.LVL46-1
 2898 050f 0100     		.2byte	0x1
 2899 0511 51       		.byte	0x51
 2900 0512 0B000000 		.4byte	.LVL46-1
 2901 0516 14000000 		.4byte	.LFE15
 2902 051a 0400     		.2byte	0x4
 2903 051c F3       		.byte	0xf3
 2904 051d 01       		.uleb128 0x1
 2905 051e 51       		.byte	0x51
 2906 051f 9F       		.byte	0x9f
 2907 0520 00000000 		.4byte	0
ARM GAS  C:\Users\NICOMA~1\AppData\Local\Temp\ccVKYZNl.s 			page 52


 2908 0524 00000000 		.4byte	0
 2909              	.LLST38:
 2910 0528 00000000 		.4byte	.LVL45
 2911 052c 0B000000 		.4byte	.LVL46-1
 2912 0530 0100     		.2byte	0x1
 2913 0532 52       		.byte	0x52
 2914 0533 0B000000 		.4byte	.LVL46-1
 2915 0537 14000000 		.4byte	.LFE15
 2916 053b 0400     		.2byte	0x4
 2917 053d F3       		.byte	0xf3
 2918 053e 01       		.uleb128 0x1
 2919 053f 52       		.byte	0x52
 2920 0540 9F       		.byte	0x9f
 2921 0541 00000000 		.4byte	0
 2922 0545 00000000 		.4byte	0
 2923              	.LLST39:
 2924 0549 00000000 		.4byte	.LFB17
 2925 054d 08000000 		.4byte	.LCFI10
 2926 0551 0200     		.2byte	0x2
 2927 0553 7D       		.byte	0x7d
 2928 0554 00       		.sleb128 0
 2929 0555 08000000 		.4byte	.LCFI10
 2930 0559 50000000 		.4byte	.LFE17
 2931 055d 0200     		.2byte	0x2
 2932 055f 7D       		.byte	0x7d
 2933 0560 08       		.sleb128 8
 2934 0561 00000000 		.4byte	0
 2935 0565 00000000 		.4byte	0
 2936              	.LLST40:
 2937 0569 00000000 		.4byte	.LVL47
 2938 056d 3C000000 		.4byte	.LVL48
 2939 0571 0100     		.2byte	0x1
 2940 0573 50       		.byte	0x50
 2941 0574 3C000000 		.4byte	.LVL48
 2942 0578 3F000000 		.4byte	.LVL49-1
 2943 057c 0300     		.2byte	0x3
 2944 057e 70       		.byte	0x70
 2945 057f 64       		.sleb128 -28
 2946 0580 9F       		.byte	0x9f
 2947 0581 3F000000 		.4byte	.LVL49-1
 2948 0585 48000000 		.4byte	.LVL50
 2949 0589 0400     		.2byte	0x4
 2950 058b F3       		.byte	0xf3
 2951 058c 01       		.uleb128 0x1
 2952 058d 50       		.byte	0x50
 2953 058e 9F       		.byte	0x9f
 2954 058f 48000000 		.4byte	.LVL50
 2955 0593 4C000000 		.4byte	.LVL51
 2956 0597 0100     		.2byte	0x1
 2957 0599 50       		.byte	0x50
 2958 059a 4C000000 		.4byte	.LVL51
 2959 059e 50000000 		.4byte	.LFE17
 2960 05a2 0400     		.2byte	0x4
 2961 05a4 F3       		.byte	0xf3
 2962 05a5 01       		.uleb128 0x1
 2963 05a6 50       		.byte	0x50
 2964 05a7 9F       		.byte	0x9f
ARM GAS  C:\Users\NICOMA~1\AppData\Local\Temp\ccVKYZNl.s 			page 53


 2965 05a8 00000000 		.4byte	0
 2966 05ac 00000000 		.4byte	0
 2967              	.LLST41:
 2968 05b0 00000000 		.4byte	.LVL47
 2969 05b4 3F000000 		.4byte	.LVL49-1
 2970 05b8 0100     		.2byte	0x1
 2971 05ba 51       		.byte	0x51
 2972 05bb 3F000000 		.4byte	.LVL49-1
 2973 05bf 48000000 		.4byte	.LVL50
 2974 05c3 0400     		.2byte	0x4
 2975 05c5 F3       		.byte	0xf3
 2976 05c6 01       		.uleb128 0x1
 2977 05c7 51       		.byte	0x51
 2978 05c8 9F       		.byte	0x9f
 2979 05c9 48000000 		.4byte	.LVL50
 2980 05cd 50000000 		.4byte	.LFE17
 2981 05d1 0100     		.2byte	0x1
 2982 05d3 51       		.byte	0x51
 2983 05d4 00000000 		.4byte	0
 2984 05d8 00000000 		.4byte	0
 2985              		.section	.debug_aranges,"",%progbits
 2986 0000 6C000000 		.4byte	0x6c
 2987 0004 0200     		.2byte	0x2
 2988 0006 00000000 		.4byte	.Ldebug_info0
 2989 000a 04       		.byte	0x4
 2990 000b 00       		.byte	0
 2991 000c 0000     		.2byte	0
 2992 000e 0000     		.2byte	0
 2993 0010 00000000 		.4byte	.LFB7
 2994 0014 38000000 		.4byte	.LFE7-.LFB7
 2995 0018 00000000 		.4byte	.LFB8
 2996 001c 44000000 		.4byte	.LFE8-.LFB8
 2997 0020 00000000 		.4byte	.LFB10
 2998 0024 4C000000 		.4byte	.LFE10-.LFB10
 2999 0028 00000000 		.4byte	.LFB9
 3000 002c 14000000 		.4byte	.LFE9-.LFB9
 3001 0030 00000000 		.4byte	.LFB11
 3002 0034 4C000000 		.4byte	.LFE11-.LFB11
 3003 0038 00000000 		.4byte	.LFB13
 3004 003c 58000000 		.4byte	.LFE13-.LFB13
 3005 0040 00000000 		.4byte	.LFB12
 3006 0044 14000000 		.4byte	.LFE12-.LFB12
 3007 0048 00000000 		.4byte	.LFB14
 3008 004c 54000000 		.4byte	.LFE14-.LFB14
 3009 0050 00000000 		.4byte	.LFB16
 3010 0054 54000000 		.4byte	.LFE16-.LFB16
 3011 0058 00000000 		.4byte	.LFB15
 3012 005c 14000000 		.4byte	.LFE15-.LFB15
 3013 0060 00000000 		.4byte	.LFB17
 3014 0064 50000000 		.4byte	.LFE17-.LFB17
 3015 0068 00000000 		.4byte	0
 3016 006c 00000000 		.4byte	0
 3017              		.section	.debug_ranges,"",%progbits
 3018              	.Ldebug_ranges0:
 3019 0000 00000000 		.4byte	.LFB7
 3020 0004 38000000 		.4byte	.LFE7
 3021 0008 00000000 		.4byte	.LFB8
ARM GAS  C:\Users\NICOMA~1\AppData\Local\Temp\ccVKYZNl.s 			page 54


 3022 000c 44000000 		.4byte	.LFE8
 3023 0010 00000000 		.4byte	.LFB10
 3024 0014 4C000000 		.4byte	.LFE10
 3025 0018 00000000 		.4byte	.LFB9
 3026 001c 14000000 		.4byte	.LFE9
 3027 0020 00000000 		.4byte	.LFB11
 3028 0024 4C000000 		.4byte	.LFE11
 3029 0028 00000000 		.4byte	.LFB13
 3030 002c 58000000 		.4byte	.LFE13
 3031 0030 00000000 		.4byte	.LFB12
 3032 0034 14000000 		.4byte	.LFE12
 3033 0038 00000000 		.4byte	.LFB14
 3034 003c 54000000 		.4byte	.LFE14
 3035 0040 00000000 		.4byte	.LFB16
 3036 0044 54000000 		.4byte	.LFE16
 3037 0048 00000000 		.4byte	.LFB15
 3038 004c 14000000 		.4byte	.LFE15
 3039 0050 00000000 		.4byte	.LFB17
 3040 0054 50000000 		.4byte	.LFE17
 3041 0058 00000000 		.4byte	0
 3042 005c 00000000 		.4byte	0
 3043              		.section	.debug_line,"",%progbits
 3044              	.Ldebug_line0:
 3045 0000 3D020000 		.section	.debug_str,"MS",%progbits,1
 3045      02001101 
 3045      00000201 
 3045      FB0E0D00 
 3045      01010101 
 3046              	.LASF37:
 3047 0000 705F6D73 		.ascii	"p_msg\000"
 3047      6700
 3048              	.LASF86:
 3049 0006 63685365 		.ascii	"chSemSignalI\000"
 3049      6D536967 
 3049      6E616C49 
 3049      00
 3050              	.LASF60:
 3051 0013 7264796D 		.ascii	"rdymsg\000"
 3051      736700
 3052              	.LASF71:
 3053 001a 63684D42 		.ascii	"chMBPostI\000"
 3053      506F7374 
 3053      4900
 3054              	.LASF69:
 3055 0024 63684D42 		.ascii	"chMBPostS\000"
 3055      506F7374 
 3055      5300
 3056              	.LASF59:
 3057 002e 4D61696C 		.ascii	"Mailbox\000"
 3057      626F7800 
 3058              	.LASF74:
 3059 0036 63684D42 		.ascii	"chMBPostAheadI\000"
 3059      506F7374 
 3059      41686561 
 3059      644900
 3060              	.LASF11:
 3061 0045 6C6F6E67 		.ascii	"long long unsigned int\000"
ARM GAS  C:\Users\NICOMA~1\AppData\Local\Temp\ccVKYZNl.s 			page 55


 3061      206C6F6E 
 3061      6720756E 
 3061      7369676E 
 3061      65642069 
 3062              	.LASF61:
 3063 005c 65786974 		.ascii	"exitcode\000"
 3063      636F6465 
 3063      00
 3064              	.LASF72:
 3065 0065 63684D42 		.ascii	"chMBPostAheadS\000"
 3065      506F7374 
 3065      41686561 
 3065      645300
 3066              	.LASF55:
 3067 0074 6D625F77 		.ascii	"mb_wrptr\000"
 3067      72707472 
 3067      00
 3068              	.LASF25:
 3069 007d 705F7072 		.ascii	"p_prio\000"
 3069      696F00
 3070              	.LASF10:
 3071 0084 6C6F6E67 		.ascii	"long long int\000"
 3071      206C6F6E 
 3071      6720696E 
 3071      7400
 3072              	.LASF1:
 3073 0092 7369676E 		.ascii	"signed char\000"
 3073      65642063 
 3073      68617200 
 3074              	.LASF50:
 3075 009e 6D5F7175 		.ascii	"m_queue\000"
 3075      65756500 
 3076              	.LASF16:
 3077 00a6 74736C69 		.ascii	"tslices_t\000"
 3077      6365735F 
 3077      7400
 3078              	.LASF7:
 3079 00b0 6C6F6E67 		.ascii	"long int\000"
 3079      20696E74 
 3079      00
 3080              	.LASF14:
 3081 00b9 74737461 		.ascii	"tstate_t\000"
 3081      74655F74 
 3081      00
 3082              	.LASF27:
 3083 00c2 705F6E65 		.ascii	"p_newer\000"
 3083      77657200 
 3084              	.LASF47:
 3085 00ca 735F7175 		.ascii	"s_queue\000"
 3085      65756500 
 3086              	.LASF83:
 3087 00d2 433A5C55 		.ascii	"C:\\Users\\Nico Maas\\Desktop\\ChibiOS\\demos\\ARM1"
 3087      73657273 
 3087      5C4E6963 
 3087      6F204D61 
 3087      61735C44 
 3088 00ff 312D4243 		.ascii	"1-BCM2835-GCC\000"
ARM GAS  C:\Users\NICOMA~1\AppData\Local\Temp\ccVKYZNl.s 			page 56


 3088      4D323833 
 3088      352D4743 
 3088      4300
 3089              	.LASF82:
 3090 010d 2E2E2F2E 		.ascii	"../../os/kernel/src/chmboxes.c\000"
 3090      2E2F6F73 
 3090      2F6B6572 
 3090      6E656C2F 
 3090      7372632F 
 3091              	.LASF84:
 3092 012c 63685363 		.ascii	"chSchRescheduleS\000"
 3092      68526573 
 3092      63686564 
 3092      756C6553 
 3092      00
 3093              	.LASF43:
 3094 013d 72656761 		.ascii	"regarm_t\000"
 3094      726D5F74 
 3094      00
 3095              	.LASF21:
 3096 0146 636E745F 		.ascii	"cnt_t\000"
 3096      7400
 3097              	.LASF0:
 3098 014c 756E7369 		.ascii	"unsigned int\000"
 3098      676E6564 
 3098      20696E74 
 3098      00
 3099              	.LASF66:
 3100 0159 63684D42 		.ascii	"chMBInit\000"
 3100      496E6974 
 3100      00
 3101              	.LASF9:
 3102 0162 6C6F6E67 		.ascii	"long unsigned int\000"
 3102      20756E73 
 3102      69676E65 
 3102      6420696E 
 3102      7400
 3103              	.LASF58:
 3104 0174 6D625F65 		.ascii	"mb_emptysem\000"
 3104      6D707479 
 3104      73656D00 
 3105              	.LASF48:
 3106 0180 735F636E 		.ascii	"s_cnt\000"
 3106      7400
 3107              	.LASF45:
 3108 0186 636F6E74 		.ascii	"context\000"
 3108      65787400 
 3109              	.LASF4:
 3110 018e 73686F72 		.ascii	"short unsigned int\000"
 3110      7420756E 
 3110      7369676E 
 3110      65642069 
 3110      6E7400
 3111              	.LASF78:
 3112 01a1 63684D42 		.ascii	"chMBFetchI\000"
 3112      46657463 
 3112      684900
ARM GAS  C:\Users\NICOMA~1\AppData\Local\Temp\ccVKYZNl.s 			page 57


 3113              	.LASF18:
 3114 01ac 6D73675F 		.ascii	"msg_t\000"
 3114      7400
 3115              	.LASF75:
 3116 01b2 63684D42 		.ascii	"chMBFetchS\000"
 3116      46657463 
 3116      685300
 3117              	.LASF13:
 3118 01bd 746D6F64 		.ascii	"tmode_t\000"
 3118      655F7400 
 3119              	.LASF42:
 3120 01c5 54687265 		.ascii	"ThreadsList\000"
 3120      6164734C 
 3120      69737400 
 3121              	.LASF19:
 3122 01d1 6576656E 		.ascii	"eventmask_t\000"
 3122      746D6173 
 3122      6B5F7400 
 3123              	.LASF49:
 3124 01dd 4D757465 		.ascii	"Mutex\000"
 3124      7800
 3125              	.LASF76:
 3126 01e3 6D736770 		.ascii	"msgp\000"
 3126      00
 3127              	.LASF65:
 3128 01e8 73697A65 		.ascii	"sizetype\000"
 3128      74797065 
 3128      00
 3129              	.LASF56:
 3130 01f1 6D625F72 		.ascii	"mb_rdptr\000"
 3130      64707472 
 3130      00
 3131              	.LASF67:
 3132 01fa 63684D42 		.ascii	"chMBReset\000"
 3132      52657365 
 3132      7400
 3133              	.LASF28:
 3134 0204 705F6F6C 		.ascii	"p_older\000"
 3134      64657200 
 3135              	.LASF41:
 3136 020c 54687265 		.ascii	"ThreadsQueue\000"
 3136      61647351 
 3136      75657565 
 3136      00
 3137              	.LASF53:
 3138 0219 6D625F62 		.ascii	"mb_buffer\000"
 3138      75666665 
 3138      7200
 3139              	.LASF68:
 3140 0223 74696D65 		.ascii	"time\000"
 3140      00
 3141              	.LASF81:
 3142 0228 474E5520 		.ascii	"GNU C 4.7.2\000"
 3142      4320342E 
 3142      372E3200 
 3143              	.LASF15:
 3144 0234 74726566 		.ascii	"trefs_t\000"
ARM GAS  C:\Users\NICOMA~1\AppData\Local\Temp\ccVKYZNl.s 			page 58


 3144      735F7400 
 3145              	.LASF24:
 3146 023c 705F7072 		.ascii	"p_prev\000"
 3146      657600
 3147              	.LASF17:
 3148 0243 74707269 		.ascii	"tprio_t\000"
 3148      6F5F7400 
 3149              	.LASF12:
 3150 024b 5F426F6F 		.ascii	"_Bool\000"
 3150      6C00
 3151              	.LASF6:
 3152 0251 696E7433 		.ascii	"int32_t\000"
 3152      325F7400 
 3153              	.LASF2:
 3154 0259 756E7369 		.ascii	"unsigned char\000"
 3154      676E6564 
 3154      20636861 
 3154      7200
 3155              	.LASF54:
 3156 0267 6D625F74 		.ascii	"mb_top\000"
 3156      6F7000
 3157              	.LASF39:
 3158 026e 705F6D74 		.ascii	"p_mtxlist\000"
 3158      786C6973 
 3158      7400
 3159              	.LASF3:
 3160 0278 73686F72 		.ascii	"short int\000"
 3160      7420696E 
 3160      7400
 3161              	.LASF30:
 3162 0282 705F7374 		.ascii	"p_state\000"
 3162      61746500 
 3163              	.LASF33:
 3164 028a 705F7072 		.ascii	"p_preempt\000"
 3164      65656D70 
 3164      7400
 3165              	.LASF63:
 3166 0294 65776D61 		.ascii	"ewmask\000"
 3166      736B00
 3167              	.LASF23:
 3168 029b 705F6E65 		.ascii	"p_next\000"
 3168      787400
 3169              	.LASF31:
 3170 02a2 705F666C 		.ascii	"p_flags\000"
 3170      61677300 
 3171              	.LASF70:
 3172 02aa 63684D42 		.ascii	"chMBPost\000"
 3172      506F7374 
 3172      00
 3173              	.LASF22:
 3174 02b3 54687265 		.ascii	"Thread\000"
 3174      616400
 3175              	.LASF38:
 3176 02ba 705F6570 		.ascii	"p_epending\000"
 3176      656E6469 
 3176      6E6700
 3177              	.LASF8:
ARM GAS  C:\Users\NICOMA~1\AppData\Local\Temp\ccVKYZNl.s 			page 59


 3178 02c5 75696E74 		.ascii	"uint32_t\000"
 3178      33325F74 
 3178      00
 3179              	.LASF64:
 3180 02ce 63686172 		.ascii	"char\000"
 3180      00
 3181              	.LASF85:
 3182 02d3 63685365 		.ascii	"chSemWaitTimeoutS\000"
 3182      6D576169 
 3182      7454696D 
 3182      656F7574 
 3182      5300
 3183              	.LASF52:
 3184 02e5 6D5F6E65 		.ascii	"m_next\000"
 3184      787400
 3185              	.LASF20:
 3186 02ec 73797374 		.ascii	"systime_t\000"
 3186      696D655F 
 3186      7400
 3187              	.LASF40:
 3188 02f6 705F7265 		.ascii	"p_realprio\000"
 3188      616C7072 
 3188      696F00
 3189              	.LASF34:
 3190 0301 705F7469 		.ascii	"p_time\000"
 3190      6D6500
 3191              	.LASF73:
 3192 0308 63684D42 		.ascii	"chMBPostAhead\000"
 3192      506F7374 
 3192      41686561 
 3192      6400
 3193              	.LASF44:
 3194 0316 696E7463 		.ascii	"intctx\000"
 3194      747800
 3195              	.LASF36:
 3196 031d 705F6D73 		.ascii	"p_msgqueue\000"
 3196      67717565 
 3196      756500
 3197              	.LASF77:
 3198 0328 63684D42 		.ascii	"chMBFetch\000"
 3198      46657463 
 3198      6800
 3199              	.LASF46:
 3200 0332 53656D61 		.ascii	"Semaphore\000"
 3200      70686F72 
 3200      6500
 3201              	.LASF57:
 3202 033c 6D625F66 		.ascii	"mb_fullsem\000"
 3202      756C6C73 
 3202      656D00
 3203              	.LASF32:
 3204 0347 705F7265 		.ascii	"p_refs\000"
 3204      667300
 3205              	.LASF80:
 3206 034e 63685365 		.ascii	"chSemResetI\000"
 3206      6D526573 
 3206      65744900 
ARM GAS  C:\Users\NICOMA~1\AppData\Local\Temp\ccVKYZNl.s 			page 60


 3207              	.LASF5:
 3208 035a 75696E74 		.ascii	"uint8_t\000"
 3208      385F7400 
 3209              	.LASF62:
 3210 0362 77746F62 		.ascii	"wtobjp\000"
 3210      6A7000
 3211              	.LASF29:
 3212 0369 705F6E61 		.ascii	"p_name\000"
 3212      6D6500
 3213              	.LASF51:
 3214 0370 6D5F6F77 		.ascii	"m_owner\000"
 3214      6E657200 
 3215              	.LASF26:
 3216 0378 705F6374 		.ascii	"p_ctx\000"
 3216      7800
 3217              	.LASF35:
 3218 037e 705F7761 		.ascii	"p_waiting\000"
 3218      6974696E 
 3218      6700
 3219              	.LASF79:
 3220 0388 63685365 		.ascii	"chSemInit\000"
 3220      6D496E69 
 3220      7400
 3221              		.ident	"GCC: (GNU) 4.7.2"
ARM GAS  C:\Users\NICOMA~1\AppData\Local\Temp\ccVKYZNl.s 			page 61


DEFINED SYMBOLS
                            *ABS*:00000000 chmboxes.c
C:\Users\NICOMA~1\AppData\Local\Temp\ccVKYZNl.s:17     .text.chMBInit:00000000 $a
C:\Users\NICOMA~1\AppData\Local\Temp\ccVKYZNl.s:20     .text.chMBInit:00000000 chMBInit
C:\Users\NICOMA~1\AppData\Local\Temp\ccVKYZNl.s:63     .text.chMBReset:00000000 $a
C:\Users\NICOMA~1\AppData\Local\Temp\ccVKYZNl.s:66     .text.chMBReset:00000000 chMBReset
C:\Users\NICOMA~1\AppData\Local\Temp\ccVKYZNl.s:117    .text.chMBPostS:00000000 $a
C:\Users\NICOMA~1\AppData\Local\Temp\ccVKYZNl.s:120    .text.chMBPostS:00000000 chMBPostS
C:\Users\NICOMA~1\AppData\Local\Temp\ccVKYZNl.s:176    .text.chMBPost:00000000 $a
C:\Users\NICOMA~1\AppData\Local\Temp\ccVKYZNl.s:179    .text.chMBPost:00000000 chMBPost
C:\Users\NICOMA~1\AppData\Local\Temp\ccVKYZNl.s:208    .text.chMBPostI:00000000 $a
C:\Users\NICOMA~1\AppData\Local\Temp\ccVKYZNl.s:211    .text.chMBPostI:00000000 chMBPostI
C:\Users\NICOMA~1\AppData\Local\Temp\ccVKYZNl.s:264    .text.chMBPostAheadS:00000000 $a
C:\Users\NICOMA~1\AppData\Local\Temp\ccVKYZNl.s:267    .text.chMBPostAheadS:00000000 chMBPostAheadS
C:\Users\NICOMA~1\AppData\Local\Temp\ccVKYZNl.s:324    .text.chMBPostAhead:00000000 $a
C:\Users\NICOMA~1\AppData\Local\Temp\ccVKYZNl.s:327    .text.chMBPostAhead:00000000 chMBPostAhead
C:\Users\NICOMA~1\AppData\Local\Temp\ccVKYZNl.s:356    .text.chMBPostAheadI:00000000 $a
C:\Users\NICOMA~1\AppData\Local\Temp\ccVKYZNl.s:359    .text.chMBPostAheadI:00000000 chMBPostAheadI
C:\Users\NICOMA~1\AppData\Local\Temp\ccVKYZNl.s:414    .text.chMBFetchS:00000000 $a
C:\Users\NICOMA~1\AppData\Local\Temp\ccVKYZNl.s:417    .text.chMBFetchS:00000000 chMBFetchS
C:\Users\NICOMA~1\AppData\Local\Temp\ccVKYZNl.s:475    .text.chMBFetch:00000000 $a
C:\Users\NICOMA~1\AppData\Local\Temp\ccVKYZNl.s:478    .text.chMBFetch:00000000 chMBFetch
C:\Users\NICOMA~1\AppData\Local\Temp\ccVKYZNl.s:507    .text.chMBFetchI:00000000 $a
C:\Users\NICOMA~1\AppData\Local\Temp\ccVKYZNl.s:510    .text.chMBFetchI:00000000 chMBFetchI
                     .debug_frame:00000010 $d

UNDEFINED SYMBOLS
chSemInit
chSemResetI
chSchRescheduleS
chSemWaitTimeoutS
chSemSignalI
