ARM GAS  C:\Users\NICOMA~1\AppData\Local\Temp\ccVKYZNl.s 			page 1


   1              		.cpu arm1176jz-s
   2              		.fpu softvfp
   3              		.eabi_attribute 20, 1
   4              		.eabi_attribute 21, 1
   5              		.eabi_attribute 23, 3
   6              		.eabi_attribute 24, 1
   7              		.eabi_attribute 25, 1
   8              		.eabi_attribute 26, 1
   9              		.eabi_attribute 30, 2
  10              		.eabi_attribute 34, 1
  11              		.eabi_attribute 18, 4
  12              		.file	"chmboxes.c"
  13              		.text
  14              	.Ltext0:
  15              		.cfi_sections	.debug_frame
  16              		.section	.text.chMBInit,"ax",%progbits
  17              		.align	2
  18              		.global	chMBInit
  19              		.type	chMBInit, %function
  20              	chMBInit:
  21              	.LFB7:
  22              		.file 1 "../../os/kernel/src/chmboxes.c"
  23              		.loc 1 72 0
  24              		.cfi_startproc
  25              		@ args = 0, pretend = 0, frame = 0
  26              		@ frame_needed = 0, uses_anonymous_args = 0
  27              	.LVL0:
  28 0000 10402DE9 		stmfd	sp!, {r4, lr}
  29              	.LCFI0:
  30              		.cfi_def_cfa_offset 8
  31              		.cfi_offset 4, -8
  32              		.cfi_offset 14, -4
  33              		.loc 1 72 0
  34 0004 0130A0E1 		mov	r3, r1
  35 0008 0040A0E1 		mov	r4, r0
  36              		.loc 1 77 0
  37 000c 02C181E0 		add	ip, r1, r2, asl #2
  38              		.loc 1 78 0
  39 0010 1C0080E2 		add	r0, r0, #28
  40              	.LVL1:
  41 0014 0210A0E1 		mov	r1, r2
  42              	.LVL2:
  43              		.loc 1 76 0
  44 0018 0C3084E5 		str	r3, [r4, #12]
  45 001c 083084E5 		str	r3, [r4, #8]
  46              		.loc 1 77 0
  47 0020 081084E8 		stmia	r4, {r3, ip}
  48              		.loc 1 78 0
  49 0024 FEFFFFEB 		bl	chSemInit
  50              	.LVL3:
  51              		.loc 1 79 0
  52 0028 100084E2 		add	r0, r4, #16
  53 002c 0010A0E3 		mov	r1, #0
  54              		.loc 1 80 0
  55 0030 1040BDE8 		ldmfd	sp!, {r4, lr}
  56              		.loc 1 79 0
  57 0034 FEFFFFEA 		b	chSemInit
ARM GAS  C:\Users\NICOMA~1\AppData\Local\Temp\ccVKYZNl.s 			page 2


  58              	.LVL4:
  59              		.cfi_endproc
  60              	.LFE7:
  61              		.size	chMBInit, .-chMBInit
  62              		.section	.text.chMBReset,"ax",%progbits
  63              		.align	2
  64              		.global	chMBReset
  65              		.type	chMBReset, %function
  66              	chMBReset:
  67              	.LFB8:
  68              		.loc 1 91 0
  69              		.cfi_startproc
  70              		@ args = 0, pretend = 0, frame = 0
  71              		@ frame_needed = 0, uses_anonymous_args = 0
  72              	.LVL5:
  73 0000 10402DE9 		stmfd	sp!, {r4, lr}
  74              	.LCFI1:
  75              		.cfi_def_cfa_offset 8
  76              		.cfi_offset 4, -8
  77              		.cfi_offset 14, -4
  78              		.loc 1 91 0
  79 0004 0040A0E1 		mov	r4, r0
  80              		.loc 1 95 0
  81              	@ 95 "../../os/kernel/src/chmboxes.c" 1
  82 0008 9FF021E3 		msr     CPSR_c, #0x9F
  83              	@ 0 "" 2
  84              		.loc 1 96 0
  85 000c 003090E5 		ldr	r3, [r0, #0]
  86              		.loc 1 97 0
  87 0010 041090E5 		ldr	r1, [r0, #4]
  88              		.loc 1 96 0
  89 0014 0C3084E5 		str	r3, [r4, #12]
  90              		.loc 1 97 0
  91 0018 011063E0 		rsb	r1, r3, r1
  92              		.loc 1 96 0
  93 001c 083084E5 		str	r3, [r4, #8]
  94              		.loc 1 97 0
  95 0020 1C0080E2 		add	r0, r0, #28
  96              	.LVL6:
  97 0024 4111A0E1 		mov	r1, r1, asr #2
  98 0028 FEFFFFEB 		bl	chSemResetI
  99              	.LVL7:
 100              		.loc 1 98 0
 101 002c 100084E2 		add	r0, r4, #16
 102 0030 0010A0E3 		mov	r1, #0
 103 0034 FEFFFFEB 		bl	chSemResetI
 104              	.LVL8:
 105              		.loc 1 99 0
 106 0038 FEFFFFEB 		bl	chSchRescheduleS
 107              	.LVL9:
 108              		.loc 1 100 0
 109              	@ 100 "../../os/kernel/src/chmboxes.c" 1
 110 003c 1FF021E3 		msr     CPSR_c, #0x1F
 111              	@ 0 "" 2
 112 0040 1080BDE8 		ldmfd	sp!, {r4, pc}
 113              		.cfi_endproc
 114              	.LFE8:
ARM GAS  C:\Users\NICOMA~1\AppData\Local\Temp\ccVKYZNl.s 			page 3


 115              		.size	chMBReset, .-chMBReset
 116              		.section	.text.chMBPostS,"ax",%progbits
 117              		.align	2
 118              		.global	chMBPostS
 119              		.type	chMBPostS, %function
 120              	chMBPostS:
 121              	.LFB10:
 122              		.loc 1 150 0
 123              		.cfi_startproc
 124              		@ args = 0, pretend = 0, frame = 0
 125              		@ frame_needed = 0, uses_anonymous_args = 0
 126              	.LVL10:
 127 0000 70402DE9 		stmfd	sp!, {r4, r5, r6, lr}
 128              	.LCFI2:
 129              		.cfi_def_cfa_offset 16
 130              		.cfi_offset 4, -16
 131              		.cfi_offset 5, -12
 132              		.cfi_offset 6, -8
 133              		.cfi_offset 14, -4
 134              		.loc 1 150 0
 135 0004 0040A0E1 		mov	r4, r0
 136 0008 0160A0E1 		mov	r6, r1
 137              		.loc 1 156 0
 138 000c 1C0080E2 		add	r0, r0, #28
 139              	.LVL11:
 140 0010 0210A0E1 		mov	r1, r2
 141              	.LVL12:
 142 0014 FEFFFFEB 		bl	chSemWaitTimeoutS
 143              	.LVL13:
 144              		.loc 1 157 0
 145 0018 005050E2 		subs	r5, r0, #0
 146 001c 0800001A 		bne	.L4
 147              		.loc 1 159 0
 148 0020 0C0094E9 		ldmib	r4, {r2, r3}
 149              		.loc 1 158 0
 150 0024 046083E4 		str	r6, [r3], #4
 151              		.loc 1 159 0
 152 0028 020053E1 		cmp	r3, r2
 153              		.loc 1 158 0
 154 002c 083084E5 		str	r3, [r4, #8]
 155              		.loc 1 160 0
 156 0030 00309425 		ldrcs	r3, [r4, #0]
 157              		.loc 1 161 0
 158 0034 100084E2 		add	r0, r4, #16
 159              	.LVL14:
 160              		.loc 1 160 0
 161 0038 08308425 		strcs	r3, [r4, #8]
 162              		.loc 1 161 0
 163 003c FEFFFFEB 		bl	chSemSignalI
 164              	.LVL15:
 165              		.loc 1 162 0
 166 0040 FEFFFFEB 		bl	chSchRescheduleS
 167              	.LVL16:
 168              	.L4:
 169              		.loc 1 165 0
 170 0044 0500A0E1 		mov	r0, r5
 171 0048 7080BDE8 		ldmfd	sp!, {r4, r5, r6, pc}
ARM GAS  C:\Users\NICOMA~1\AppData\Local\Temp\ccVKYZNl.s 			page 4


 172              		.cfi_endproc
 173              	.LFE10:
 174              		.size	chMBPostS, .-chMBPostS
 175              		.section	.text.chMBPost,"ax",%progbits
 176              		.align	2
 177              		.global	chMBPost
 178              		.type	chMBPost, %function
 179              	chMBPost:
 180              	.LFB9:
 181              		.loc 1 122 0
 182              		.cfi_startproc
 183              		@ args = 0, pretend = 0, frame = 0
 184              		@ frame_needed = 0, uses_anonymous_args = 0
 185              	.LVL17:
 186 0000 08402DE9 		stmfd	sp!, {r3, lr}
 187              	.LCFI3:
 188              		.cfi_def_cfa_offset 8
 189              		.cfi_offset 3, -8
 190              		.cfi_offset 14, -4
 191              		.loc 1 125 0
 192              	@ 125 "../../os/kernel/src/chmboxes.c" 1
 193 0004 9FF021E3 		msr     CPSR_c, #0x9F
 194              	@ 0 "" 2
 195              		.loc 1 126 0
 196 0008 FEFFFFEB 		bl	chMBPostS
 197              	.LVL18:
 198              		.loc 1 127 0
 199              	@ 127 "../../os/kernel/src/chmboxes.c" 1
 200 000c 1FF021E3 		msr     CPSR_c, #0x1F
 201              	@ 0 "" 2
 202              		.loc 1 129 0
 203 0010 0880BDE8 		ldmfd	sp!, {r3, pc}
 204              		.cfi_endproc
 205              	.LFE9:
 206              		.size	chMBPost, .-chMBPost
 207              		.section	.text.chMBPostI,"ax",%progbits
 208              		.align	2
 209              		.global	chMBPostI
 210              		.type	chMBPostI, %function
 211              	chMBPostI:
 212              	.LFB11:
 213              		.loc 1 181 0
 214              		.cfi_startproc
 215              		@ args = 0, pretend = 0, frame = 0
 216              		@ frame_needed = 0, uses_anonymous_args = 0
 217              	.LVL19:
 218              		.loc 1 186 0
 219 0000 242090E5 		ldr	r2, [r0, #36]
 220              		.loc 1 181 0
 221 0004 08402DE9 		stmfd	sp!, {r3, lr}
 222              	.LCFI4:
 223              		.cfi_def_cfa_offset 8
 224              		.cfi_offset 3, -8
 225              		.cfi_offset 14, -4
 226              		.loc 1 186 0
 227 0008 000052E3 		cmp	r2, #0
 228 000c 0C0000DA 		ble	.L11
ARM GAS  C:\Users\NICOMA~1\AppData\Local\Temp\ccVKYZNl.s 			page 5


 229              		.loc 1 189 0
 230 0010 083090E5 		ldr	r3, [r0, #8]
 231              		.loc 1 190 0
 232 0014 04C090E5 		ldr	ip, [r0, #4]
 233              		.loc 1 188 0
 234 0018 012042E2 		sub	r2, r2, #1
 235 001c 242080E5 		str	r2, [r0, #36]
 236              		.loc 1 189 0
 237 0020 041083E4 		str	r1, [r3], #4
 238              		.loc 1 190 0
 239 0024 0C0053E1 		cmp	r3, ip
 240              		.loc 1 189 0
 241 0028 083080E5 		str	r3, [r0, #8]
 242              		.loc 1 191 0
 243 002c 00309025 		ldrcs	r3, [r0, #0]
 244 0030 08308025 		strcs	r3, [r0, #8]
 245              		.loc 1 192 0
 246 0034 100080E2 		add	r0, r0, #16
 247              	.LVL20:
 248 0038 FEFFFFEB 		bl	chSemSignalI
 249              	.LVL21:
 250              		.loc 1 193 0
 251 003c 0000A0E3 		mov	r0, #0
 252 0040 0880BDE8 		ldmfd	sp!, {r3, pc}
 253              	.LVL22:
 254              	.L11:
 255              		.loc 1 187 0
 256 0044 0000E0E3 		mvn	r0, #0
 257              	.LVL23:
 258              		.loc 1 194 0
 259 0048 0880BDE8 		ldmfd	sp!, {r3, pc}
 260              		.cfi_endproc
 261              	.LFE11:
 262              		.size	chMBPostI, .-chMBPostI
 263              		.section	.text.chMBPostAheadS,"ax",%progbits
 264              		.align	2
 265              		.global	chMBPostAheadS
 266              		.type	chMBPostAheadS, %function
 267              	chMBPostAheadS:
 268              	.LFB13:
 269              		.loc 1 243 0
 270              		.cfi_startproc
 271              		@ args = 0, pretend = 0, frame = 0
 272              		@ frame_needed = 0, uses_anonymous_args = 0
 273              	.LVL24:
 274 0000 70402DE9 		stmfd	sp!, {r4, r5, r6, lr}
 275              	.LCFI5:
 276              		.cfi_def_cfa_offset 16
 277              		.cfi_offset 4, -16
 278              		.cfi_offset 5, -12
 279              		.cfi_offset 6, -8
 280              		.cfi_offset 14, -4
 281              		.loc 1 243 0
 282 0004 0040A0E1 		mov	r4, r0
 283 0008 0160A0E1 		mov	r6, r1
 284              		.loc 1 249 0
 285 000c 1C0080E2 		add	r0, r0, #28
ARM GAS  C:\Users\NICOMA~1\AppData\Local\Temp\ccVKYZNl.s 			page 6


 286              	.LVL25:
 287 0010 0210A0E1 		mov	r1, r2
 288              	.LVL26:
 289 0014 FEFFFFEB 		bl	chSemWaitTimeoutS
 290              	.LVL27:
 291              		.loc 1 250 0
 292 0018 005050E2 		subs	r5, r0, #0
 293 001c 0B00001A 		bne	.L13
 294              		.loc 1 251 0
 295 0020 0C3094E5 		ldr	r3, [r4, #12]
 296 0024 002094E5 		ldr	r2, [r4, #0]
 297 0028 043043E2 		sub	r3, r3, #4
 298 002c 020053E1 		cmp	r3, r2
 299 0030 0C3084E5 		str	r3, [r4, #12]
 300              		.loc 1 252 0
 301 0034 04309435 		ldrcc	r3, [r4, #4]
 302              		.loc 1 254 0
 303 0038 100084E2 		add	r0, r4, #16
 304              	.LVL28:
 305              		.loc 1 252 0
 306 003c 04304332 		subcc	r3, r3, #4
 307 0040 0C308435 		strcc	r3, [r4, #12]
 308              		.loc 1 253 0
 309 0044 006083E5 		str	r6, [r3, #0]
 310              		.loc 1 254 0
 311 0048 FEFFFFEB 		bl	chSemSignalI
 312              	.LVL29:
 313              		.loc 1 255 0
 314 004c FEFFFFEB 		bl	chSchRescheduleS
 315              	.LVL30:
 316              	.L13:
 317              		.loc 1 258 0
 318 0050 0500A0E1 		mov	r0, r5
 319 0054 7080BDE8 		ldmfd	sp!, {r4, r5, r6, pc}
 320              		.cfi_endproc
 321              	.LFE13:
 322              		.size	chMBPostAheadS, .-chMBPostAheadS
 323              		.section	.text.chMBPostAhead,"ax",%progbits
 324              		.align	2
 325              		.global	chMBPostAhead
 326              		.type	chMBPostAhead, %function
 327              	chMBPostAhead:
 328              	.LFB12:
 329              		.loc 1 215 0
 330              		.cfi_startproc
 331              		@ args = 0, pretend = 0, frame = 0
 332              		@ frame_needed = 0, uses_anonymous_args = 0
 333              	.LVL31:
 334 0000 08402DE9 		stmfd	sp!, {r3, lr}
 335              	.LCFI6:
 336              		.cfi_def_cfa_offset 8
 337              		.cfi_offset 3, -8
 338              		.cfi_offset 14, -4
 339              		.loc 1 218 0
 340              	@ 218 "../../os/kernel/src/chmboxes.c" 1
 341 0004 9FF021E3 		msr     CPSR_c, #0x9F
 342              	@ 0 "" 2
ARM GAS  C:\Users\NICOMA~1\AppData\Local\Temp\ccVKYZNl.s 			page 7


 343              		.loc 1 219 0
 344 0008 FEFFFFEB 		bl	chMBPostAheadS
 345              	.LVL32:
 346              		.loc 1 220 0
 347              	@ 220 "../../os/kernel/src/chmboxes.c" 1
 348 000c 1FF021E3 		msr     CPSR_c, #0x1F
 349              	@ 0 "" 2
 350              		.loc 1 222 0
 351 0010 0880BDE8 		ldmfd	sp!, {r3, pc}
 352              		.cfi_endproc
 353              	.LFE12:
 354              		.size	chMBPostAhead, .-chMBPostAhead
 355              		.section	.text.chMBPostAheadI,"ax",%progbits
 356              		.align	2
 357              		.global	chMBPostAheadI
 358              		.type	chMBPostAheadI, %function
 359              	chMBPostAheadI:
 360              	.LFB14:
 361              		.loc 1 274 0
 362              		.cfi_startproc
 363              		@ args = 0, pretend = 0, frame = 0
 364              		@ frame_needed = 0, uses_anonymous_args = 0
 365              	.LVL33:
 366              		.loc 1 279 0
 367 0000 242090E5 		ldr	r2, [r0, #36]
 368              		.loc 1 274 0
 369 0004 08402DE9 		stmfd	sp!, {r3, lr}
 370              	.LCFI7:
 371              		.cfi_def_cfa_offset 8
 372              		.cfi_offset 3, -8
 373              		.cfi_offset 14, -4
 374              		.loc 1 279 0
 375 0008 000052E3 		cmp	r2, #0
 376 000c 0E0000DA 		ble	.L19
 377              		.loc 1 282 0
 378 0010 0C3090E5 		ldr	r3, [r0, #12]
 379 0014 00C090E5 		ldr	ip, [r0, #0]
 380 0018 043043E2 		sub	r3, r3, #4
 381 001c 0C0053E1 		cmp	r3, ip
 382 0020 0C3080E5 		str	r3, [r0, #12]
 383              		.loc 1 283 0
 384 0024 04309035 		ldrcc	r3, [r0, #4]
 385              		.loc 1 281 0
 386 0028 012042E2 		sub	r2, r2, #1
 387              		.loc 1 283 0
 388 002c 04304332 		subcc	r3, r3, #4
 389              		.loc 1 281 0
 390 0030 242080E5 		str	r2, [r0, #36]
 391              		.loc 1 283 0
 392 0034 0C308035 		strcc	r3, [r0, #12]
 393              		.loc 1 284 0
 394 0038 001083E5 		str	r1, [r3, #0]
 395              		.loc 1 285 0
 396 003c 100080E2 		add	r0, r0, #16
 397              	.LVL34:
 398 0040 FEFFFFEB 		bl	chSemSignalI
 399              	.LVL35:
ARM GAS  C:\Users\NICOMA~1\AppData\Local\Temp\ccVKYZNl.s 			page 8


 400              		.loc 1 286 0
 401 0044 0000A0E3 		mov	r0, #0
 402 0048 0880BDE8 		ldmfd	sp!, {r3, pc}
 403              	.LVL36:
 404              	.L19:
 405              		.loc 1 280 0
 406 004c 0000E0E3 		mvn	r0, #0
 407              	.LVL37:
 408              		.loc 1 287 0
 409 0050 0880BDE8 		ldmfd	sp!, {r3, pc}
 410              		.cfi_endproc
 411              	.LFE14:
 412              		.size	chMBPostAheadI, .-chMBPostAheadI
 413              		.section	.text.chMBFetchS,"ax",%progbits
 414              		.align	2
 415              		.global	chMBFetchS
 416              		.type	chMBFetchS, %function
 417              	chMBFetchS:
 418              	.LFB16:
 419              		.loc 1 336 0
 420              		.cfi_startproc
 421              		@ args = 0, pretend = 0, frame = 0
 422              		@ frame_needed = 0, uses_anonymous_args = 0
 423              	.LVL38:
 424 0000 70402DE9 		stmfd	sp!, {r4, r5, r6, lr}
 425              	.LCFI8:
 426              		.cfi_def_cfa_offset 16
 427              		.cfi_offset 4, -16
 428              		.cfi_offset 5, -12
 429              		.cfi_offset 6, -8
 430              		.cfi_offset 14, -4
 431              		.loc 1 336 0
 432 0004 0040A0E1 		mov	r4, r0
 433 0008 0160A0E1 		mov	r6, r1
 434              		.loc 1 342 0
 435 000c 100080E2 		add	r0, r0, #16
 436              	.LVL39:
 437 0010 0210A0E1 		mov	r1, r2
 438              	.LVL40:
 439 0014 FEFFFFEB 		bl	chSemWaitTimeoutS
 440              	.LVL41:
 441              		.loc 1 343 0
 442 0018 005050E2 		subs	r5, r0, #0
 443 001c 0A00001A 		bne	.L21
 444              		.loc 1 344 0
 445 0020 0C3094E5 		ldr	r3, [r4, #12]
 446              		.loc 1 345 0
 447 0024 041094E5 		ldr	r1, [r4, #4]
 448              		.loc 1 344 0
 449 0028 042093E4 		ldr	r2, [r3], #4
 450              		.loc 1 347 0
 451 002c 1C0084E2 		add	r0, r4, #28
 452              	.LVL42:
 453              		.loc 1 345 0
 454 0030 010053E1 		cmp	r3, r1
 455              		.loc 1 344 0
 456 0034 002086E5 		str	r2, [r6, #0]
ARM GAS  C:\Users\NICOMA~1\AppData\Local\Temp\ccVKYZNl.s 			page 9


 457 0038 0C3084E5 		str	r3, [r4, #12]
 458              		.loc 1 346 0
 459 003c 00309425 		ldrcs	r3, [r4, #0]
 460 0040 0C308425 		strcs	r3, [r4, #12]
 461              		.loc 1 347 0
 462 0044 FEFFFFEB 		bl	chSemSignalI
 463              	.LVL43:
 464              		.loc 1 348 0
 465 0048 FEFFFFEB 		bl	chSchRescheduleS
 466              	.LVL44:
 467              	.L21:
 468              		.loc 1 351 0
 469 004c 0500A0E1 		mov	r0, r5
 470 0050 7080BDE8 		ldmfd	sp!, {r4, r5, r6, pc}
 471              		.cfi_endproc
 472              	.LFE16:
 473              		.size	chMBFetchS, .-chMBFetchS
 474              		.section	.text.chMBFetch,"ax",%progbits
 475              		.align	2
 476              		.global	chMBFetch
 477              		.type	chMBFetch, %function
 478              	chMBFetch:
 479              	.LFB15:
 480              		.loc 1 308 0
 481              		.cfi_startproc
 482              		@ args = 0, pretend = 0, frame = 0
 483              		@ frame_needed = 0, uses_anonymous_args = 0
 484              	.LVL45:
 485 0000 08402DE9 		stmfd	sp!, {r3, lr}
 486              	.LCFI9:
 487              		.cfi_def_cfa_offset 8
 488              		.cfi_offset 3, -8
 489              		.cfi_offset 14, -4
 490              		.loc 1 311 0
 491              	@ 311 "../../os/kernel/src/chmboxes.c" 1
 492 0004 9FF021E3 		msr     CPSR_c, #0x9F
 493              	@ 0 "" 2
 494              		.loc 1 312 0
 495 0008 FEFFFFEB 		bl	chMBFetchS
 496              	.LVL46:
 497              		.loc 1 313 0
 498              	@ 313 "../../os/kernel/src/chmboxes.c" 1
 499 000c 1FF021E3 		msr     CPSR_c, #0x1F
 500              	@ 0 "" 2
 501              		.loc 1 315 0
 502 0010 0880BDE8 		ldmfd	sp!, {r3, pc}
 503              		.cfi_endproc
 504              	.LFE15:
 505              		.size	chMBFetch, .-chMBFetch
 506              		.section	.text.chMBFetchI,"ax",%progbits
 507              		.align	2
 508              		.global	chMBFetchI
 509              		.type	chMBFetchI, %function
 510              	chMBFetchI:
 511              	.LFB17:
 512              		.loc 1 367 0
 513              		.cfi_startproc
ARM GAS  C:\Users\NICOMA~1\AppData\Local\Temp\ccVKYZNl.s 			page 10


 514              		@ args = 0, pretend = 0, frame = 0
 515              		@ frame_needed = 0, uses_anonymous_args = 0
 516              	.LVL47:
 517              		.loc 1 372 0
 518 0000 182090E5 		ldr	r2, [r0, #24]
 519              		.loc 1 367 0
 520 0004 08402DE9 		stmfd	sp!, {r3, lr}
 521              	.LCFI10:
 522              		.cfi_def_cfa_offset 8
 523              		.cfi_offset 3, -8
 524              		.cfi_offset 14, -4
 525              		.loc 1 372 0
 526 0008 000052E3 		cmp	r2, #0
 527 000c 0D0000DA 		ble	.L27
 528              		.loc 1 375 0
 529 0010 0C3090E5 		ldr	r3, [r0, #12]
 530              		.loc 1 374 0
 531 0014 012042E2 		sub	r2, r2, #1
 532 0018 182080E5 		str	r2, [r0, #24]
 533              		.loc 1 375 0
 534 001c 04C093E4 		ldr	ip, [r3], #4
 535              		.loc 1 376 0
 536 0020 042090E5 		ldr	r2, [r0, #4]
 537              		.loc 1 375 0
 538 0024 00C081E5 		str	ip, [r1, #0]
 539              		.loc 1 376 0
 540 0028 020053E1 		cmp	r3, r2
 541              		.loc 1 375 0
 542 002c 0C3080E5 		str	r3, [r0, #12]
 543              		.loc 1 377 0
 544 0030 00309025 		ldrcs	r3, [r0, #0]
 545 0034 0C308025 		strcs	r3, [r0, #12]
 546              		.loc 1 378 0
 547 0038 1C0080E2 		add	r0, r0, #28
 548              	.LVL48:
 549 003c FEFFFFEB 		bl	chSemSignalI
 550              	.LVL49:
 551              		.loc 1 379 0
 552 0040 0000A0E3 		mov	r0, #0
 553 0044 0880BDE8 		ldmfd	sp!, {r3, pc}
 554              	.LVL50:
 555              	.L27:
 556              		.loc 1 373 0
 557 0048 0000E0E3 		mvn	r0, #0
 558              	.LVL51:
 559              		.loc 1 380 0
 560 004c 0880BDE8 		ldmfd	sp!, {r3, pc}
 561              		.cfi_endproc
 562              	.LFE17:
 563              		.size	chMBFetchI, .-chMBFetchI
 564              		.text
 565              	.Letext0:
 566              		.file 2 "c:/yagarto-20121222/lib/gcc/../../arm-none-eabi/sys-include/stdint.h"
 567              		.file 3 "../../os/ports/GCC/ARM/chtypes.h"
 568              		.file 4 "../../os/kernel/include/chlists.h"
 569              		.file 5 "../../os/kernel/include/chthreads.h"
 570              		.file 6 "../../os/ports/GCC/ARM/chcore.h"
ARM GAS  C:\Users\NICOMA~1\AppData\Local\Temp\ccVKYZNl.s 			page 11


 571              		.file 7 "../../os/kernel/include/chsem.h"
 572              		.file 8 "../../os/kernel/include/chmtx.h"
 573              		.file 9 "../../os/kernel/include/chmboxes.h"
 574              		.file 10 "../../os/kernel/include/chschd.h"