ARM GAS  C:\Users\NICOMA~1\AppData\Local\Temp\ccpiJ4Q3.s 			page 1


   1              		.cpu arm1176jz-s
   2              		.fpu softvfp
   3              		.eabi_attribute 20, 1
   4              		.eabi_attribute 21, 1
   5              		.eabi_attribute 23, 3
   6              		.eabi_attribute 24, 1
   7              		.eabi_attribute 25, 1
   8              		.eabi_attribute 26, 1
   9              		.eabi_attribute 30, 2
  10              		.eabi_attribute 34, 1
  11              		.eabi_attribute 18, 4
  12              		.file	"chmemcore.c"
  13              		.text
  14              	.Ltext0:
  15              		.cfi_sections	.debug_frame
  16              		.section	.text._core_init,"ax",%progbits
  17              		.align	2
  18              		.global	_core_init
  19              		.type	_core_init, %function
  20              	_core_init:
  21              	.LFB7:
  22              		.file 1 "../../os/kernel/src/chmemcore.c"
  23              		.loc 1 66 0
  24              		.cfi_startproc
  25              		@ args = 0, pretend = 0, frame = 0
  26              		@ frame_needed = 0, uses_anonymous_args = 0
  27              		@ link register save eliminated.
  28              		.loc 1 70 0
  29 0000 1C209FE5 		ldr	r2, .L2
  30 0004 1C309FE5 		ldr	r3, .L2+4
  31 0008 0320C2E3 		bic	r2, r2, #3
  32 000c 002083E5 		str	r2, [r3, #0]
  33              		.loc 1 71 0
  34 0010 14209FE5 		ldr	r2, .L2+8
  35 0014 14309FE5 		ldr	r3, .L2+12
  36 0018 0320C2E3 		bic	r2, r2, #3
  37 001c 002083E5 		str	r2, [r3, #0]
  38 0020 1EFF2FE1 		bx	lr
  39              	.L3:
  40              		.align	2
  41              	.L2:
  42 0024 03000000 		.word	__heap_base__+3
  43 0028 00000000 		.word	.LANCHOR0
  44 002c 00000000 		.word	__heap_end__
  45 0030 00000000 		.word	.LANCHOR1
  46              		.cfi_endproc
  47              	.LFE7:
  48              		.size	_core_init, .-_core_init
  49              		.section	.text.chCoreAlloc,"ax",%progbits
  50              		.align	2
  51              		.global	chCoreAlloc
  52              		.type	chCoreAlloc, %function
  53              	chCoreAlloc:
  54              	.LFB8:
  55              		.loc 1 91 0
  56              		.cfi_startproc
  57              		@ args = 0, pretend = 0, frame = 0
ARM GAS  C:\Users\NICOMA~1\AppData\Local\Temp\ccpiJ4Q3.s 			page 2


  58              		@ frame_needed = 0, uses_anonymous_args = 0
  59              		@ link register save eliminated.
  60              	.LVL0:
  61              		.loc 1 94 0
  62              	@ 94 "../../os/kernel/src/chmemcore.c" 1
  63 0000 9FF021E3 		msr     CPSR_c, #0x9F
  64              	@ 0 "" 2
  65              	.LVL1:
  66              	.LBB4:
  67              	.LBB5:
  68              		.loc 1 118 0
  69 0004 30209FE5 		ldr	r2, .L7
  70 0008 30109FE5 		ldr	r1, .L7+4
  71 000c 003092E5 		ldr	r3, [r2, #0]
  72 0010 001091E5 		ldr	r1, [r1, #0]
  73              		.loc 1 117 0
  74 0014 030080E2 		add	r0, r0, #3
  75              	.LVL2:
  76 0018 0300C0E3 		bic	r0, r0, #3
  77              	.LVL3:
  78              		.loc 1 118 0
  79 001c 011063E0 		rsb	r1, r3, r1
  80 0020 010050E1 		cmp	r0, r1
  81              	.LVL4:
  82              		.loc 1 121 0
  83 0024 00008390 		addls	r0, r3, r0
  84              	.LVL5:
  85 0028 00008295 		strls	r0, [r2, #0]
  86              		.loc 1 119 0
  87 002c 0030A083 		movhi	r3, #0
  88              	.LVL6:
  89              	.LBE5:
  90              	.LBE4:
  91              		.loc 1 96 0
  92              	@ 96 "../../os/kernel/src/chmemcore.c" 1
  93 0030 1FF021E3 		msr     CPSR_c, #0x1F
  94              	@ 0 "" 2
  95              		.loc 1 98 0
  96 0034 0300A0E1 		mov	r0, r3
  97 0038 1EFF2FE1 		bx	lr
  98              	.L8:
  99              		.align	2
 100              	.L7:
 101 003c 00000000 		.word	.LANCHOR0
 102 0040 00000000 		.word	.LANCHOR1
 103              		.cfi_endproc
 104              	.LFE8:
 105              		.size	chCoreAlloc, .-chCoreAlloc
 106              		.section	.text.chCoreAllocI,"ax",%progbits
 107              		.align	2
 108              		.global	chCoreAllocI
 109              		.type	chCoreAllocI, %function
 110              	chCoreAllocI:
 111              	.LFB9:
 112              		.loc 1 112 0
 113              		.cfi_startproc
 114              		@ args = 0, pretend = 0, frame = 0
ARM GAS  C:\Users\NICOMA~1\AppData\Local\Temp\ccpiJ4Q3.s 			page 3


 115              		@ frame_needed = 0, uses_anonymous_args = 0
 116              		@ link register save eliminated.
 117              	.LVL7:
 118              		.loc 1 118 0
 119 0000 2C209FE5 		ldr	r2, .L12
 120 0004 2C109FE5 		ldr	r1, .L12+4
 121 0008 003092E5 		ldr	r3, [r2, #0]
 122 000c 001091E5 		ldr	r1, [r1, #0]
 123              		.loc 1 117 0
 124 0010 030080E2 		add	r0, r0, #3
 125              	.LVL8:
 126 0014 0300C0E3 		bic	r0, r0, #3
 127              	.LVL9:
 128              		.loc 1 118 0
 129 0018 011063E0 		rsb	r1, r3, r1
 130 001c 010050E1 		cmp	r0, r1
 131              	.LVL10:
 132              		.loc 1 121 0
 133 0020 00008390 		addls	r0, r3, r0
 134              	.LVL11:
 135              		.loc 1 119 0
 136 0024 0030A083 		movhi	r3, #0
 137              	.LVL12:
 138              		.loc 1 121 0
 139 0028 00008295 		strls	r0, [r2, #0]
 140              		.loc 1 123 0
 141 002c 0300A0E1 		mov	r0, r3
 142 0030 1EFF2FE1 		bx	lr
 143              	.L13:
 144              		.align	2
 145              	.L12:
 146 0034 00000000 		.word	.LANCHOR0
 147 0038 00000000 		.word	.LANCHOR1
 148              		.cfi_endproc
 149              	.LFE9:
 150              		.size	chCoreAllocI, .-chCoreAllocI
 151              		.section	.text.chCoreStatus,"ax",%progbits
 152              		.align	2
 153              		.global	chCoreStatus
 154              		.type	chCoreStatus, %function
 155              	chCoreStatus:
 156              	.LFB10:
 157              		.loc 1 132 0
 158              		.cfi_startproc
 159              		@ args = 0, pretend = 0, frame = 0
 160              		@ frame_needed = 0, uses_anonymous_args = 0
 161              		@ link register save eliminated.
 162              		.loc 1 134 0
 163 0000 10309FE5 		ldr	r3, .L15
 164 0004 000093E5 		ldr	r0, [r3, #0]
 165 0008 0C309FE5 		ldr	r3, .L15+4
 166 000c 003093E5 		ldr	r3, [r3, #0]
 167              		.loc 1 135 0
 168 0010 000063E0 		rsb	r0, r3, r0
 169 0014 1EFF2FE1 		bx	lr
 170              	.L16:
 171              		.align	2
ARM GAS  C:\Users\NICOMA~1\AppData\Local\Temp\ccpiJ4Q3.s 			page 4


 172              	.L15:
 173 0018 00000000 		.word	.LANCHOR1
 174 001c 00000000 		.word	.LANCHOR0
 175              		.cfi_endproc
 176              	.LFE10:
 177              		.size	chCoreStatus, .-chCoreStatus
 178              		.section	.bss.endmem,"aw",%nobits
 179              		.align	2
 180              		.set	.LANCHOR1,. + 0
 181              		.type	endmem, %object
 182              		.size	endmem, 4
 183              	endmem:
 184 0000 00000000 		.space	4
 185              		.section	.bss.nextmem,"aw",%nobits
 186              		.align	2
 187              		.set	.LANCHOR0,. + 0
 188              		.type	nextmem, %object
 189              		.size	nextmem, 4
 190              	nextmem:
 191 0000 00000000 		.space	4
 192              		.text
 193              	.Letext0:
 194              		.file 2 "c:\\yagarto-20121222\\bin\\../lib/gcc/arm-none-eabi/4.7.2/include/stddef.h"
 195              		.file 3 "c:/yagarto-20121222/lib/gcc/../../arm-none-eabi/sys-include/stdint.h"