ARM GAS  C:\Users\NICOMA~1\AppData\Local\Temp\ccOlbPVg.s 			page 1


   1              		.cpu arm1176jz-s
   2              		.fpu softvfp
   3              		.eabi_attribute 20, 1
   4              		.eabi_attribute 21, 1
   5              		.eabi_attribute 23, 3
   6              		.eabi_attribute 24, 1
   7              		.eabi_attribute 25, 1
   8              		.eabi_attribute 26, 1
   9              		.eabi_attribute 30, 2
  10              		.eabi_attribute 34, 1
  11              		.eabi_attribute 18, 4
  12              		.file	"chmtx.c"
  13              		.text
  14              	.Ltext0:
  15              		.cfi_sections	.debug_frame
  16              		.section	.text.chMtxInit,"ax",%progbits
  17              		.align	2
  18              		.global	chMtxInit
  19              		.type	chMtxInit, %function
  20              	chMtxInit:
  21              	.LFB7:
  22              		.file 1 "../../os/kernel/src/chmtx.c"
  23              		.loc 1 86 0
  24              		.cfi_startproc
  25              		@ args = 0, pretend = 0, frame = 0
  26              		@ frame_needed = 0, uses_anonymous_args = 0
  27              		@ link register save eliminated.
  28              	.LVL0:
  29              		.loc 1 91 0
  30 0000 0030A0E3 		mov	r3, #0
  31              		.loc 1 90 0
  32 0004 040080E5 		str	r0, [r0, #4]
  33 0008 000080E5 		str	r0, [r0, #0]
  34              		.loc 1 91 0
  35 000c 083080E5 		str	r3, [r0, #8]
  36 0010 1EFF2FE1 		bx	lr
  37              		.cfi_endproc
  38              	.LFE7:
  39              		.size	chMtxInit, .-chMtxInit
  40              		.section	.text.chMtxLockS,"ax",%progbits
  41              		.align	2
  42              		.global	chMtxLockS
  43              		.type	chMtxLockS, %function
  44              	chMtxLockS:
  45              	.LFB9:
  46              		.loc 1 121 0
  47              		.cfi_startproc
  48              		@ args = 0, pretend = 0, frame = 0
  49              		@ frame_needed = 0, uses_anonymous_args = 0
  50              	.LVL1:
  51              		.loc 1 128 0
  52 0000 083090E5 		ldr	r3, [r0, #8]
  53              		.loc 1 122 0
  54 0004 68219FE5 		ldr	r2, .L27
  55              		.loc 1 128 0
  56 0008 000053E3 		cmp	r3, #0
  57              		.loc 1 121 0
ARM GAS  C:\Users\NICOMA~1\AppData\Local\Temp\ccOlbPVg.s 			page 2


  58 000c 70402DE9 		stmfd	sp!, {r4, r5, r6, lr}
  59              	.LCFI0:
  60              		.cfi_def_cfa_offset 16
  61              		.cfi_offset 4, -16
  62              		.cfi_offset 5, -12
  63              		.cfi_offset 6, -8
  64              		.cfi_offset 14, -4
  65              		.loc 1 121 0
  66 0010 0050A0E1 		mov	r5, r0
  67              		.loc 1 122 0
  68 0014 184092E5 		ldr	r4, [r2, #24]
  69              	.LVL2:
  70              		.loc 1 128 0
  71 0018 4E00000A 		beq	.L3
  72              	.LVL3:
  73              	.LBB27:
  74              		.loc 1 135 0 discriminator 1
  75 001c 081094E5 		ldr	r1, [r4, #8]
  76 0020 082093E5 		ldr	r2, [r3, #8]
  77 0024 020051E1 		cmp	r1, r2
  78 0028 0700009A 		bls	.L5
  79              	.LVL4:
  80              	.L20:
  81              		.loc 1 139 0
  82 002c 1C20D3E5 		ldrb	r2, [r3, #28]	@ zero_extendqisi2
  83              		.loc 1 137 0
  84 0030 081083E5 		str	r1, [r3, #8]
  85              		.loc 1 139 0
  86 0034 040052E3 		cmp	r2, #4
  87 0038 2E00000A 		beq	.L7
  88 003c 050052E3 		cmp	r2, #5
  89 0040 1900000A 		beq	.L8
  90 0044 000052E3 		cmp	r2, #0
  91 0048 1000000A 		beq	.L6
  92              	.LVL5:
  93              	.L5:
  94              		.file 2 "../../os/kernel/include/chinline.h"
  95              		.loc 2 43 0
  96 004c 0530A0E1 		mov	r3, r5
  97              	.LVL6:
  98              	.L18:
  99              	.LBB28:
 100              	.LBB29:
 101              		.loc 2 45 0
 102 0050 003093E5 		ldr	r3, [r3, #0]
 103              	.LVL7:
 104              		.loc 2 46 0
 105 0054 030055E1 		cmp	r5, r3
 106 0058 0300000A 		beq	.L19
 107 005c 081093E5 		ldr	r1, [r3, #8]
 108 0060 082094E5 		ldr	r2, [r4, #8]
 109 0064 020051E1 		cmp	r1, r2
 110 0068 F8FFFF2A 		bcs	.L18
 111              	.L19:
 112              		.loc 2 48 0
 113 006c 042093E5 		ldr	r2, [r3, #4]
 114              	.LBE29:
ARM GAS  C:\Users\NICOMA~1\AppData\Local\Temp\ccOlbPVg.s 			page 3


 115              	.LBE28:
 116              		.loc 1 175 0
 117 0070 0400A0E3 		mov	r0, #4
 118              	.LBB31:
 119              	.LBB30:
 120              		.loc 2 47 0
 121 0074 003084E5 		str	r3, [r4, #0]
 122              		.loc 2 48 0
 123 0078 042084E5 		str	r2, [r4, #4]
 124              		.loc 2 49 0
 125 007c 004082E5 		str	r4, [r2, #0]
 126 0080 044083E5 		str	r4, [r3, #4]
 127              	.LBE30:
 128              	.LBE31:
 129              		.loc 1 174 0
 130 0084 245084E5 		str	r5, [r4, #36]
 131              	.LBE27:
 132              		.loc 1 187 0
 133 0088 7040BDE8 		ldmfd	sp!, {r4, r5, r6, lr}
 134              	.LBB54:
 135              		.loc 1 175 0
 136 008c FEFFFFEA 		b	chSchGoSleepS
 137              	.LVL8:
 138              	.L6:
 139              	.LBB32:
 140              	.LBB33:
 141              		.loc 2 75 0
 142 0090 060093E8 		ldmia	r3, {r1, r2}
 143 0094 001082E5 		str	r1, [r2, #0]
 144              	.LBE33:
 145              	.LBE32:
 146              		.loc 1 167 0
 147 0098 0300A0E1 		mov	r0, r3
 148              	.LBB35:
 149              	.LBB34:
 150              		.loc 2 76 0
 151 009c 003093E5 		ldr	r3, [r3, #0]
 152              	.LVL9:
 153 00a0 042083E5 		str	r2, [r3, #4]
 154              	.LBE34:
 155              	.LBE35:
 156              		.loc 1 167 0
 157 00a4 FEFFFFEB 		bl	chSchReadyI
 158              	.LVL10:
 159              		.loc 1 168 0
 160 00a8 E7FFFFEA 		b	.L5
 161              	.LVL11:
 162              	.L8:
 163              	.LBB36:
 164              	.LBB37:
 165              		.loc 2 75 0
 166 00ac 040093E5 		ldr	r0, [r3, #4]
 167 00b0 002093E5 		ldr	r2, [r3, #0]
 168              	.LBE37:
 169              	.LBE36:
 170              		.loc 1 158 0
 171 00b4 24C093E5 		ldr	ip, [r3, #36]
ARM GAS  C:\Users\NICOMA~1\AppData\Local\Temp\ccOlbPVg.s 			page 4


 172              	.LVL12:
 173              	.LBB40:
 174              	.LBB38:
 175              		.loc 2 75 0
 176 00b8 002080E5 		str	r2, [r0, #0]
 177              		.loc 2 76 0
 178 00bc 006093E5 		ldr	r6, [r3, #0]
 179              	.LBE38:
 180              	.LBE40:
 181              		.loc 2 43 0
 182 00c0 0C20A0E1 		mov	r2, ip
 183              	.LBB41:
 184              	.LBB39:
 185              		.loc 2 76 0
 186 00c4 040086E5 		str	r0, [r6, #4]
 187              	.LVL13:
 188              	.L15:
 189              	.LBE39:
 190              	.LBE41:
 191              	.LBB42:
 192              	.LBB43:
 193              		.loc 2 45 0
 194 00c8 002092E5 		ldr	r2, [r2, #0]
 195              	.LVL14:
 196              		.loc 2 46 0
 197 00cc 02005CE1 		cmp	ip, r2
 198 00d0 0200000A 		beq	.L16
 199 00d4 080092E5 		ldr	r0, [r2, #8]
 200 00d8 010050E1 		cmp	r0, r1
 201 00dc F9FFFF2A 		bcs	.L15
 202              	.L16:
 203              		.loc 2 48 0
 204 00e0 041092E5 		ldr	r1, [r2, #4]
 205              		.loc 2 47 0
 206 00e4 002083E5 		str	r2, [r3, #0]
 207              		.loc 2 48 0
 208 00e8 041083E5 		str	r1, [r3, #4]
 209              		.loc 2 49 0
 210 00ec 003081E5 		str	r3, [r1, #0]
 211 00f0 043082E5 		str	r3, [r2, #4]
 212 00f4 D4FFFFEA 		b	.L5
 213              	.LVL15:
 214              	.L7:
 215              	.LBE43:
 216              	.LBE42:
 217              	.LBB44:
 218              	.LBB45:
 219              		.loc 2 75 0
 220 00f8 040093E5 		ldr	r0, [r3, #4]
 221 00fc 002093E5 		ldr	r2, [r3, #0]
 222              	.LBE45:
 223              	.LBE44:
 224              		.loc 1 142 0
 225 0100 24C093E5 		ldr	ip, [r3, #36]
 226              	.LVL16:
 227              	.LBB48:
 228              	.LBB46:
ARM GAS  C:\Users\NICOMA~1\AppData\Local\Temp\ccOlbPVg.s 			page 5


 229              		.loc 2 75 0
 230 0104 002080E5 		str	r2, [r0, #0]
 231              		.loc 2 76 0
 232 0108 006093E5 		ldr	r6, [r3, #0]
 233              	.LBE46:
 234              	.LBE48:
 235              		.loc 1 142 0
 236 010c 0C20A0E1 		mov	r2, ip
 237              	.LBB49:
 238              	.LBB47:
 239              		.loc 2 76 0
 240 0110 040086E5 		str	r0, [r6, #4]
 241              	.LVL17:
 242              	.L12:
 243              	.LBE47:
 244              	.LBE49:
 245              	.LBB50:
 246              	.LBB51:
 247              		.loc 2 45 0
 248 0114 002092E5 		ldr	r2, [r2, #0]
 249              	.LVL18:
 250              		.loc 2 46 0
 251 0118 02005CE1 		cmp	ip, r2
 252 011c 1200000A 		beq	.L26
 253 0120 080092E5 		ldr	r0, [r2, #8]
 254 0124 010050E1 		cmp	r0, r1
 255 0128 F9FFFF2A 		bcs	.L12
 256              	.LVL19:
 257              	.L13:
 258              		.loc 2 48 0
 259 012c 041092E5 		ldr	r1, [r2, #4]
 260              		.loc 2 47 0
 261 0130 002083E5 		str	r2, [r3, #0]
 262              		.loc 2 48 0
 263 0134 041083E5 		str	r1, [r3, #4]
 264              		.loc 2 49 0
 265 0138 003081E5 		str	r3, [r1, #0]
 266 013c 043082E5 		str	r3, [r2, #4]
 267              	.LBE51:
 268              	.LBE50:
 269              		.loc 1 143 0
 270 0140 08309CE5 		ldr	r3, [ip, #8]
 271              	.LVL20:
 272              		.loc 1 135 0
 273 0144 081094E5 		ldr	r1, [r4, #8]
 274 0148 082093E5 		ldr	r2, [r3, #8]
 275              	.LVL21:
 276 014c 010052E1 		cmp	r2, r1
 277 0150 B5FFFF3A 		bcc	.L20
 278 0154 BCFFFFEA 		b	.L5
 279              	.LVL22:
 280              	.L3:
 281              	.LBE54:
 282              		.loc 1 184 0
 283 0158 3C3094E5 		ldr	r3, [r4, #60]
 284              		.loc 1 183 0
 285 015c 084080E5 		str	r4, [r0, #8]
ARM GAS  C:\Users\NICOMA~1\AppData\Local\Temp\ccOlbPVg.s 			page 6


 286              		.loc 1 184 0
 287 0160 0C3080E5 		str	r3, [r0, #12]
 288              		.loc 1 185 0
 289 0164 3C0084E5 		str	r0, [r4, #60]
 290 0168 7080BDE8 		ldmfd	sp!, {r4, r5, r6, pc}
 291              	.LVL23:
 292              	.L26:
 293              	.LBB55:
 294              	.LBB53:
 295              	.LBB52:
 296              		.loc 2 46 0
 297 016c 0C20A0E1 		mov	r2, ip
 298              	.LVL24:
 299 0170 EDFFFFEA 		b	.L13
 300              	.L28:
 301              		.align	2
 302              	.L27:
 303 0174 00000000 		.word	rlist
 304              	.LBE52:
 305              	.LBE53:
 306              	.LBE55:
 307              		.cfi_endproc
 308              	.LFE9:
 309              		.size	chMtxLockS, .-chMtxLockS
 310              		.section	.text.chMtxLock,"ax",%progbits
 311              		.align	2
 312              		.global	chMtxLock
 313              		.type	chMtxLock, %function
 314              	chMtxLock:
 315              	.LFB8:
 316              		.loc 1 103 0
 317              		.cfi_startproc
 318              		@ args = 0, pretend = 0, frame = 0
 319              		@ frame_needed = 0, uses_anonymous_args = 0
 320              	.LVL25:
 321 0000 08402DE9 		stmfd	sp!, {r3, lr}
 322              	.LCFI1:
 323              		.cfi_def_cfa_offset 8
 324              		.cfi_offset 3, -8
 325              		.cfi_offset 14, -4
 326              		.loc 1 105 0
 327              	@ 105 "../../os/kernel/src/chmtx.c" 1
 328 0004 9FF021E3 		msr     CPSR_c, #0x9F
 329              	@ 0 "" 2
 330              		.loc 1 107 0
 331 0008 FEFFFFEB 		bl	chMtxLockS
 332              	.LVL26:
 333              		.loc 1 109 0
 334              	@ 109 "../../os/kernel/src/chmtx.c" 1
 335 000c 1FF021E3 		msr     CPSR_c, #0x1F
 336              	@ 0 "" 2
 337 0010 0880BDE8 		ldmfd	sp!, {r3, pc}
 338              		.cfi_endproc
 339              	.LFE8:
 340              		.size	chMtxLock, .-chMtxLock
 341              		.section	.text.chMtxTryLock,"ax",%progbits
 342              		.align	2
ARM GAS  C:\Users\NICOMA~1\AppData\Local\Temp\ccOlbPVg.s 			page 7


 343              		.global	chMtxTryLock
 344              		.type	chMtxTryLock, %function
 345              	chMtxTryLock:
 346              	.LFB10:
 347              		.loc 1 206 0
 348              		.cfi_startproc
 349              		@ args = 0, pretend = 0, frame = 0
 350              		@ frame_needed = 0, uses_anonymous_args = 0
 351              		@ link register save eliminated.
 352              	.LVL27:
 353              		.loc 1 206 0
 354 0000 0030A0E1 		mov	r3, r0
 355              		.loc 1 209 0
 356              	@ 209 "../../os/kernel/src/chmtx.c" 1
 357 0004 9FF021E3 		msr     CPSR_c, #0x9F
 358              	@ 0 "" 2
 359              	.LVL28:
 360              	.LBB56:
 361              	.LBB57:
 362              		.loc 1 239 0
 363 0008 082090E5 		ldr	r2, [r0, #8]
 364 000c 000052E3 		cmp	r2, #0
 365              		.loc 1 241 0
 366 0010 20209F05 		ldreq	r2, .L33
 367              		.loc 1 244 0
 368 0014 0100A003 		moveq	r0, #1
 369              	.LVL29:
 370              		.loc 1 241 0
 371 0018 18209205 		ldreq	r2, [r2, #24]
 372              		.loc 1 240 0
 373 001c 0000A013 		movne	r0, #0
 374              		.loc 1 242 0
 375 0020 3C109205 		ldreq	r1, [r2, #60]
 376              		.loc 1 241 0
 377 0024 08208305 		streq	r2, [r3, #8]
 378              		.loc 1 242 0
 379 0028 0C108305 		streq	r1, [r3, #12]
 380              		.loc 1 243 0
 381 002c 3C308205 		streq	r3, [r2, #60]
 382              	.LBE57:
 383              	.LBE56:
 384              		.loc 1 213 0
 385              	@ 213 "../../os/kernel/src/chmtx.c" 1
 386 0030 1FF021E3 		msr     CPSR_c, #0x1F
 387              	@ 0 "" 2
 388              		.loc 1 215 0
 389 0034 1EFF2FE1 		bx	lr
 390              	.L34:
 391              		.align	2
 392              	.L33:
 393 0038 00000000 		.word	rlist
 394              		.cfi_endproc
 395              	.LFE10:
 396              		.size	chMtxTryLock, .-chMtxTryLock
 397              		.section	.text.chMtxTryLockS,"ax",%progbits
 398              		.align	2
 399              		.global	chMtxTryLockS
ARM GAS  C:\Users\NICOMA~1\AppData\Local\Temp\ccOlbPVg.s 			page 8


 400              		.type	chMtxTryLockS, %function
 401              	chMtxTryLockS:
 402              	.LFB11:
 403              		.loc 1 234 0
 404              		.cfi_startproc
 405              		@ args = 0, pretend = 0, frame = 0
 406              		@ frame_needed = 0, uses_anonymous_args = 0
 407              		@ link register save eliminated.
 408              	.LVL30:
 409              		.loc 1 239 0
 410 0000 082090E5 		ldr	r2, [r0, #8]
 411              		.loc 1 234 0
 412 0004 0030A0E1 		mov	r3, r0
 413              		.loc 1 239 0
 414 0008 000052E3 		cmp	r2, #0
 415              		.loc 1 241 0
 416 000c 1C209F05 		ldreq	r2, .L38
 417              		.loc 1 244 0
 418 0010 0100A003 		moveq	r0, #1
 419              	.LVL31:
 420              		.loc 1 241 0
 421 0014 18209205 		ldreq	r2, [r2, #24]
 422              		.loc 1 240 0
 423 0018 0000A013 		movne	r0, #0
 424              		.loc 1 242 0
 425 001c 3C109205 		ldreq	r1, [r2, #60]
 426              		.loc 1 241 0
 427 0020 08208305 		streq	r2, [r3, #8]
 428              		.loc 1 242 0
 429 0024 0C108305 		streq	r1, [r3, #12]
 430              		.loc 1 243 0
 431 0028 3C308205 		streq	r3, [r2, #60]
 432              		.loc 1 245 0
 433 002c 1EFF2FE1 		bx	lr
 434              	.L39:
 435              		.align	2
 436              	.L38:
 437 0030 00000000 		.word	rlist
 438              		.cfi_endproc
 439              	.LFE11:
 440              		.size	chMtxTryLockS, .-chMtxTryLockS
 441              		.section	.text.chMtxUnlock,"ax",%progbits
 442              		.align	2
 443              		.global	chMtxUnlock
 444              		.type	chMtxUnlock, %function
 445              	chMtxUnlock:
 446              	.LFB12:
 447              		.loc 1 257 0
 448              		.cfi_startproc
 449              		@ args = 0, pretend = 0, frame = 0
 450              		@ frame_needed = 0, uses_anonymous_args = 0
 451              		.loc 1 258 0
 452 0000 94309FE5 		ldr	r3, .L51
 453              		.loc 1 257 0
 454 0004 10402DE9 		stmfd	sp!, {r4, lr}
 455              	.LCFI2:
 456              		.cfi_def_cfa_offset 8
ARM GAS  C:\Users\NICOMA~1\AppData\Local\Temp\ccOlbPVg.s 			page 9


 457              		.cfi_offset 4, -8
 458              		.cfi_offset 14, -4
 459              		.loc 1 258 0
 460 0008 180093E5 		ldr	r0, [r3, #24]
 461              	.LVL32:
 462              		.loc 1 261 0
 463              	@ 261 "../../os/kernel/src/chmtx.c" 1
 464 000c 9FF021E3 		msr     CPSR_c, #0x9F
 465              	@ 0 "" 2
 466              		.loc 1 270 0
 467 0010 3C4090E5 		ldr	r4, [r0, #60]
 468              	.LVL33:
 469              		.loc 1 273 0
 470 0014 00C094E5 		ldr	ip, [r4, #0]
 471              		.loc 1 271 0
 472 0018 0C3094E5 		ldr	r3, [r4, #12]
 473              		.loc 1 273 0
 474 001c 04005CE1 		cmp	ip, r4
 475              		.loc 1 271 0
 476 0020 3C3080E5 		str	r3, [r0, #60]
 477              		.loc 1 273 0
 478 0024 1900000A 		beq	.L41
 479              	.LBB58:
 480              		.loc 1 280 0
 481 0028 000053E3 		cmp	r3, #0
 482              		.loc 1 278 0
 483 002c 401090E5 		ldr	r1, [r0, #64]
 484              	.LVL34:
 485              		.loc 1 280 0
 486 0030 0800000A 		beq	.L42
 487              	.L48:
 488              		.loc 1 284 0
 489 0034 002093E5 		ldr	r2, [r3, #0]
 490 0038 030052E1 		cmp	r2, r3
 491 003c 0200000A 		beq	.L43
 492              		.loc 1 284 0 is_stmt 0 discriminator 1
 493 0040 082092E5 		ldr	r2, [r2, #8]
 494 0044 020051E1 		cmp	r1, r2
 495 0048 0210A031 		movcc	r1, r2
 496              	.LVL35:
 497              	.L43:
 498              		.loc 1 286 0 is_stmt 1
 499 004c 0C3093E5 		ldr	r3, [r3, #12]
 500              	.LVL36:
 501              		.loc 1 280 0
 502 0050 000053E3 		cmp	r3, #0
 503 0054 F6FFFF1A 		bne	.L48
 504              	.L42:
 505              	.LBB59:
 506              	.LBB60:
 507              		.loc 2 62 0
 508 0058 00309CE5 		ldr	r3, [ip, #0]
 509              	.LVL37:
 510              	.LBE60:
 511              	.LBE59:
 512              		.loc 1 295 0
 513 005c 3C209CE5 		ldr	r2, [ip, #60]
ARM GAS  C:\Users\NICOMA~1\AppData\Local\Temp\ccOlbPVg.s 			page 10


 514              		.loc 1 290 0
 515 0060 081080E5 		str	r1, [r0, #8]
 516              	.LVL38:
 517              	.LBB63:
 518              	.LBB61:
 519              		.loc 2 62 0
 520 0064 003084E5 		str	r3, [r4, #0]
 521              	.LBE61:
 522              	.LBE63:
 523              		.loc 1 297 0
 524 0068 0C00A0E1 		mov	r0, ip
 525              	.LVL39:
 526              	.LBB64:
 527              	.LBB62:
 528              		.loc 2 62 0
 529 006c 044083E5 		str	r4, [r3, #4]
 530              	.LBE62:
 531              	.LBE64:
 532              		.loc 1 297 0
 533 0070 0010A0E3 		mov	r1, #0
 534              	.LVL40:
 535              		.loc 1 294 0
 536 0074 08C084E5 		str	ip, [r4, #8]
 537              		.loc 1 295 0
 538 0078 0C2084E5 		str	r2, [r4, #12]
 539              		.loc 1 296 0
 540 007c 3C408CE5 		str	r4, [ip, #60]
 541              		.loc 1 297 0
 542 0080 FEFFFFEB 		bl	chSchWakeupS
 543              	.LVL41:
 544              	.L45:
 545              	.LBE58:
 546              		.loc 1 301 0
 547              	@ 301 "../../os/kernel/src/chmtx.c" 1
 548 0084 1FF021E3 		msr     CPSR_c, #0x1F
 549              	@ 0 "" 2
 550              		.loc 1 303 0
 551 0088 0400A0E1 		mov	r0, r4
 552 008c 1080BDE8 		ldmfd	sp!, {r4, pc}
 553              	.LVL42:
 554              	.L41:
 555              		.loc 1 300 0
 556 0090 0030A0E3 		mov	r3, #0
 557 0094 083084E5 		str	r3, [r4, #8]
 558 0098 F9FFFFEA 		b	.L45
 559              	.L52:
 560              		.align	2
 561              	.L51:
 562 009c 00000000 		.word	rlist
 563              		.cfi_endproc
 564              	.LFE12:
 565              		.size	chMtxUnlock, .-chMtxUnlock
 566              		.section	.text.chMtxUnlockS,"ax",%progbits
 567              		.align	2
 568              		.global	chMtxUnlockS
 569              		.type	chMtxUnlockS, %function
 570              	chMtxUnlockS:
ARM GAS  C:\Users\NICOMA~1\AppData\Local\Temp\ccOlbPVg.s 			page 11


 571              	.LFB13:
 572              		.loc 1 317 0
 573              		.cfi_startproc
 574              		@ args = 0, pretend = 0, frame = 0
 575              		@ frame_needed = 0, uses_anonymous_args = 0
 576              		.loc 1 318 0
 577 0000 8C309FE5 		ldr	r3, .L64
 578              		.loc 1 317 0
 579 0004 10402DE9 		stmfd	sp!, {r4, lr}
 580              	.LCFI3:
 581              		.cfi_def_cfa_offset 8
 582              		.cfi_offset 4, -8
 583              		.cfi_offset 14, -4
 584              		.loc 1 318 0
 585 0008 180093E5 		ldr	r0, [r3, #24]
 586              	.LVL43:
 587              		.loc 1 331 0
 588 000c 3C4090E5 		ldr	r4, [r0, #60]
 589              	.LVL44:
 590              		.loc 1 334 0
 591 0010 00C094E5 		ldr	ip, [r4, #0]
 592              		.loc 1 332 0
 593 0014 0C3094E5 		ldr	r3, [r4, #12]
 594              		.loc 1 334 0
 595 0018 04005CE1 		cmp	ip, r4
 596              		.loc 1 332 0
 597 001c 3C3080E5 		str	r3, [r0, #60]
 598              		.loc 1 334 0
 599 0020 1700000A 		beq	.L54
 600              	.LBB65:
 601              		.loc 1 341 0
 602 0024 000053E3 		cmp	r3, #0
 603              		.loc 1 339 0
 604 0028 401090E5 		ldr	r1, [r0, #64]
 605              	.LVL45:
 606              		.loc 1 341 0
 607 002c 0800000A 		beq	.L55
 608              	.L61:
 609              		.loc 1 345 0
 610 0030 002093E5 		ldr	r2, [r3, #0]
 611 0034 030052E1 		cmp	r2, r3
 612 0038 0200000A 		beq	.L56
 613              		.loc 1 345 0 is_stmt 0 discriminator 1
 614 003c 082092E5 		ldr	r2, [r2, #8]
 615 0040 020051E1 		cmp	r1, r2
 616 0044 0210A031 		movcc	r1, r2
 617              	.LVL46:
 618              	.L56:
 619              		.loc 1 347 0 is_stmt 1
 620 0048 0C3093E5 		ldr	r3, [r3, #12]
 621              	.LVL47:
 622              		.loc 1 341 0
 623 004c 000053E3 		cmp	r3, #0
 624 0050 F6FFFF1A 		bne	.L61
 625              	.L55:
 626              	.LBB66:
 627              	.LBB67:
ARM GAS  C:\Users\NICOMA~1\AppData\Local\Temp\ccOlbPVg.s 			page 12


 628              		.loc 2 62 0
 629 0054 00309CE5 		ldr	r3, [ip, #0]
 630              	.LVL48:
 631              	.LBE67:
 632              	.LBE66:
 633              		.loc 1 354 0
 634 0058 3C209CE5 		ldr	r2, [ip, #60]
 635              		.loc 1 349 0
 636 005c 081080E5 		str	r1, [r0, #8]
 637              	.LVL49:
 638              	.LBB70:
 639              	.LBB68:
 640              		.loc 2 62 0
 641 0060 003084E5 		str	r3, [r4, #0]
 642              	.LBE68:
 643              	.LBE70:
 644              		.loc 1 356 0
 645 0064 0C00A0E1 		mov	r0, ip
 646              	.LVL50:
 647              	.LBB71:
 648              	.LBB69:
 649              		.loc 2 62 0
 650 0068 044083E5 		str	r4, [r3, #4]
 651              	.LBE69:
 652              	.LBE71:
 653              		.loc 1 353 0
 654 006c 08C084E5 		str	ip, [r4, #8]
 655              		.loc 1 354 0
 656 0070 0C2084E5 		str	r2, [r4, #12]
 657              		.loc 1 355 0
 658 0074 3C408CE5 		str	r4, [ip, #60]
 659              		.loc 1 356 0
 660 0078 FEFFFFEB 		bl	chSchReadyI
 661              	.LVL51:
 662              	.LBE65:
 663              		.loc 1 361 0
 664 007c 0400A0E1 		mov	r0, r4
 665 0080 1080BDE8 		ldmfd	sp!, {r4, pc}
 666              	.LVL52:
 667              	.L54:
 668              		.loc 1 359 0
 669 0084 0030A0E3 		mov	r3, #0
 670 0088 083084E5 		str	r3, [r4, #8]
 671              		.loc 1 361 0
 672 008c 0400A0E1 		mov	r0, r4
 673              	.LVL53:
 674 0090 1080BDE8 		ldmfd	sp!, {r4, pc}
 675              	.L65:
 676              		.align	2
 677              	.L64:
 678 0094 00000000 		.word	rlist
 679              		.cfi_endproc
 680              	.LFE13:
 681              		.size	chMtxUnlockS, .-chMtxUnlockS
 682              		.section	.text.chMtxUnlockAll,"ax",%progbits
 683              		.align	2
 684              		.global	chMtxUnlockAll
ARM GAS  C:\Users\NICOMA~1\AppData\Local\Temp\ccOlbPVg.s 			page 13


 685              		.type	chMtxUnlockAll, %function
 686              	chMtxUnlockAll:
 687              	.LFB14:
 688              		.loc 1 374 0
 689              		.cfi_startproc
 690              		@ args = 0, pretend = 0, frame = 0
 691              		@ frame_needed = 0, uses_anonymous_args = 0
 692 0000 38402DE9 		stmfd	sp!, {r3, r4, r5, lr}
 693              	.LCFI4:
 694              		.cfi_def_cfa_offset 16
 695              		.cfi_offset 3, -16
 696              		.cfi_offset 4, -12
 697              		.cfi_offset 5, -8
 698              		.cfi_offset 14, -4
 699              		.loc 1 375 0
 700 0004 70309FE5 		ldr	r3, .L76
 701 0008 184093E5 		ldr	r4, [r3, #24]
 702              	.LVL54:
 703              		.loc 1 377 0
 704              	@ 377 "../../os/kernel/src/chmtx.c" 1
 705 000c 9FF021E3 		msr     CPSR_c, #0x9F
 706              	@ 0 "" 2
 707              		.loc 1 378 0
 708 0010 3C3094E5 		ldr	r3, [r4, #60]
 709 0014 000053E3 		cmp	r3, #0
 710 0018 1500000A 		beq	.L67
 711              	.LBB72:
 712              		.loc 1 390 0
 713 001c 0050A0E3 		mov	r5, #0
 714              	.L73:
 715              	.LVL55:
 716              		.loc 1 382 0
 717 0020 002093E5 		ldr	r2, [r3, #0]
 718              	.LVL56:
 719              		.loc 1 381 0
 720 0024 0C1093E5 		ldr	r1, [r3, #12]
 721              		.loc 1 382 0
 722 0028 030052E1 		cmp	r2, r3
 723              		.loc 1 381 0
 724 002c 3C1084E5 		str	r1, [r4, #60]
 725              		.loc 1 390 0
 726 0030 08508305 		streq	r5, [r3, #8]
 727              		.loc 1 382 0
 728 0034 0800000A 		beq	.L69
 729              	.LBB73:
 730              	.LBB74:
 731              	.LBB75:
 732              		.loc 2 62 0
 733 0038 001092E5 		ldr	r1, [r2, #0]
 734              	.LBE75:
 735              	.LBE74:
 736              		.loc 1 385 0
 737 003c 3CC092E5 		ldr	ip, [r2, #60]
 738              		.loc 1 387 0
 739 0040 0200A0E1 		mov	r0, r2
 740              	.LBB77:
 741              	.LBB76:
ARM GAS  C:\Users\NICOMA~1\AppData\Local\Temp\ccOlbPVg.s 			page 14


 742              		.loc 2 62 0
 743 0044 001083E5 		str	r1, [r3, #0]
 744 0048 043081E5 		str	r3, [r1, #4]
 745              	.LBE76:
 746              	.LBE77:
 747              		.loc 1 384 0
 748 004c 082083E5 		str	r2, [r3, #8]
 749              		.loc 1 385 0
 750 0050 0CC083E5 		str	ip, [r3, #12]
 751              		.loc 1 386 0
 752 0054 3C3082E5 		str	r3, [r2, #60]
 753              		.loc 1 387 0
 754 0058 FEFFFFEB 		bl	chSchReadyI
 755              	.LVL57:
 756              	.L69:
 757              	.LBE73:
 758              	.LBE72:
 759              		.loc 1 391 0
 760 005c 3C3094E5 		ldr	r3, [r4, #60]
 761 0060 000053E3 		cmp	r3, #0
 762 0064 EDFFFF1A 		bne	.L73
 763              		.loc 1 392 0
 764 0068 403094E5 		ldr	r3, [r4, #64]
 765 006c 083084E5 		str	r3, [r4, #8]
 766              		.loc 1 393 0
 767 0070 FEFFFFEB 		bl	chSchRescheduleS
 768              	.LVL58:
 769              	.L67:
 770              		.loc 1 395 0
 771              	@ 395 "../../os/kernel/src/chmtx.c" 1
 772 0074 1FF021E3 		msr     CPSR_c, #0x1F
 773              	@ 0 "" 2
 774 0078 3880BDE8 		ldmfd	sp!, {r3, r4, r5, pc}
 775              	.L77:
 776              		.align	2
 777              	.L76:
 778 007c 00000000 		.word	rlist
 779              		.cfi_endproc
 780              	.LFE14:
 781              		.size	chMtxUnlockAll, .-chMtxUnlockAll
 782              		.text
 783              	.Letext0:
 784              		.file 3 "c:/yagarto-20121222/lib/gcc/../../arm-none-eabi/sys-include/stdint.h"
 785              		.file 4 "../../os/ports/GCC/ARM/chtypes.h"
 786              		.file 5 "../../os/kernel/include/chlists.h"
 787              		.file 6 "../../os/kernel/include/chthreads.h"
 788              		.file 7 "../../os/ports/GCC/ARM/chcore.h"
 789              		.file 8 "../../os/kernel/include/chschd.h"
 790              		.file 9 "../../os/kernel/include/chmtx.h"