ARM GAS  C:\Users\NICOMA~1\AppData\Local\Temp\ccd1FKNk.s 			page 1


   1              		.cpu arm1176jz-s
   2              		.fpu softvfp
   3              		.eabi_attribute 20, 1
   4              		.eabi_attribute 21, 1
   5              		.eabi_attribute 23, 3
   6              		.eabi_attribute 24, 1
   7              		.eabi_attribute 25, 1
   8              		.eabi_attribute 26, 1
   9              		.eabi_attribute 30, 2
  10              		.eabi_attribute 34, 1
  11              		.eabi_attribute 18, 4
  12              		.file	"chprintf.c"
  13              		.text
  14              	.Ltext0:
  15              		.cfi_sections	.debug_frame
  16              		.global	__aeabi_uidivmod
  17              		.global	__aeabi_uidiv
  18              		.section	.text.long_to_string_with_divisor,"ax",%progbits
  19              		.align	2
  20              		.type	long_to_string_with_divisor, %function
  21              	long_to_string_with_divisor:
  22              	.LFB8:
  23              		.file 1 "../../os/various/chprintf.c"
  24              		.loc 1 40 0
  25              		.cfi_startproc
  26              		@ args = 0, pretend = 0, frame = 0
  27              		@ frame_needed = 0, uses_anonymous_args = 0
  28              	.LVL0:
  29              		.loc 1 47 0
  30 0000 000053E3 		cmp	r3, #0
  31              		.loc 1 40 0
  32 0004 F84F2DE9 		stmfd	sp!, {r3, r4, r5, r6, r7, r8, r9, sl, fp, lr}
  33              	.LCFI0:
  34              		.cfi_def_cfa_offset 40
  35              		.cfi_offset 3, -40
  36              		.cfi_offset 4, -36
  37              		.cfi_offset 5, -32
  38              		.cfi_offset 6, -28
  39              		.cfi_offset 7, -24
  40              		.cfi_offset 8, -20
  41              		.cfi_offset 9, -16
  42              		.cfi_offset 10, -12
  43              		.cfi_offset 11, -8
  44              		.cfi_offset 14, -4
  45              		.loc 1 40 0
  46 0008 0050A0E1 		mov	r5, r0
  47              	.LVL1:
  48 000c 0270A0E1 		mov	r7, r2
  49              		.loc 1 47 0
  50 0010 0380A011 		movne	r8, r3
  51 0014 0180A001 		moveq	r8, r1
  52              	.LVL2:
  53              		.loc 1 52 0
  54 0018 0B9080E2 		add	r9, r0, #11
  55              	.LVL3:
  56              		.loc 1 37 0
  57 001c 0A6080E2 		add	r6, r0, #10
ARM GAS  C:\Users\NICOMA~1\AppData\Local\Temp\ccd1FKNk.s 			page 2


  58              		.loc 1 45 0
  59 0020 01B0A0E1 		mov	fp, r1
  60              	.LVL4:
  61              	.L4:
  62              		.loc 1 54 0
  63 0024 0B00A0E1 		mov	r0, fp
  64 0028 0710A0E1 		mov	r1, r7
  65 002c FEFFFFEB 		bl	__aeabi_uidivmod
  66              	.LVL5:
  67 0030 0130A0E1 		mov	r3, r1
  68              	.LVL6:
  69              		.loc 1 55 0
  70 0034 304083E2 		add	r4, r3, #48
  71              	.LVL7:
  72              		.loc 1 56 0
  73 0038 390054E3 		cmp	r4, #57
  74              		.loc 1 57 0
  75 003c 374083C2 		addgt	r4, r3, #55
  76              	.LVL8:
  77              		.loc 1 58 0
  78 0040 7440EFE6 		uxtb	r4, r4
  79              	.LVL9:
  80              		.loc 1 59 0
  81 0044 0B00A0E1 		mov	r0, fp
  82 0048 0710A0E1 		mov	r1, r7
  83              	.LVL10:
  84              		.loc 1 58 0
  85 004c 06A0A0E1 		mov	sl, r6
  86 0050 014046E4 		strb	r4, [r6], #-1
  87              	.LVL11:
  88              		.loc 1 59 0
  89 0054 FEFFFFEB 		bl	__aeabi_uidiv
  90              	.LVL12:
  91              		.loc 1 60 0
  92 0058 0710A0E1 		mov	r1, r7
  93              		.loc 1 59 0
  94 005c 00B0A0E1 		mov	fp, r0
  95              	.LVL13:
  96              		.loc 1 60 0
  97 0060 0800A0E1 		mov	r0, r8
  98              	.LVL14:
  99 0064 FEFFFFEB 		bl	__aeabi_uidiv
 100              	.LVL15:
 101 0068 008050E2 		subs	r8, r0, #0
 102 006c ECFFFF1A 		bne	.L4
 103              	.LVL16:
 104              		.loc 1 62 0
 105 0070 09906AE0 		rsb	r9, sl, r9
 106              	.LVL17:
 107              		.loc 1 37 0
 108 0074 099085E0 		add	r9, r5, r9
 109              	.LVL18:
 110 0078 000000EA 		b	.L6
 111              	.LVL19:
 112              	.L11:
 113 007c 0140FAE5 		ldrb	r4, [sl, #1]!	@ zero_extendqisi2
 114              	.L6:
ARM GAS  C:\Users\NICOMA~1\AppData\Local\Temp\ccd1FKNk.s 			page 3


 115              		.loc 1 64 0 discriminator 1
 116 0080 0140C5E4 		strb	r4, [r5], #1
 117              	.LVL20:
 118              		.loc 1 65 0 discriminator 1
 119 0084 090055E1 		cmp	r5, r9
 120 0088 FBFFFF1A 		bne	.L11
 121              		.loc 1 68 0
 122 008c 0500A0E1 		mov	r0, r5
 123              	.LVL21:
 124 0090 F88FBDE8 		ldmfd	sp!, {r3, r4, r5, r6, r7, r8, r9, sl, fp, pc}
 125              		.cfi_endproc
 126              	.LFE8:
 127              		.size	long_to_string_with_divisor, .-long_to_string_with_divisor
 128              		.global	__aeabi_d2f
 129              		.global	__aeabi_fcmplt
 130              		.global	__aeabi_f2iz
 131              		.global	__aeabi_f2d
 132              		.global	__aeabi_i2d
 133              		.global	__aeabi_dsub
 134              		.global	__aeabi_dmul
 135              		.global	__aeabi_d2iz
 136              		.section	.text.chvprintf,"ax",%progbits
 137              		.align	2
 138              		.global	chvprintf
 139              		.type	chvprintf, %function
 140              	chvprintf:
 141              	.LFB11:
 142              		.loc 1 112 0
 143              		.cfi_startproc
 144              		@ args = 0, pretend = 0, frame = 48
 145              		@ frame_needed = 0, uses_anonymous_args = 0
 146              	.LVL22:
 147 0000 F04F2DE9 		stmfd	sp!, {r4, r5, r6, r7, r8, r9, sl, fp, lr}
 148              	.LCFI1:
 149              		.cfi_def_cfa_offset 36
 150              		.cfi_offset 4, -36
 151              		.cfi_offset 5, -32
 152              		.cfi_offset 6, -28
 153              		.cfi_offset 7, -24
 154              		.cfi_offset 8, -20
 155              		.cfi_offset 9, -16
 156              		.cfi_offset 10, -12
 157              		.cfi_offset 11, -8
 158              		.cfi_offset 14, -4
 159 0004 34D04DE2 		sub	sp, sp, #52
 160              	.LCFI2:
 161              		.cfi_def_cfa_offset 88
 162              		.loc 1 132 0
 163 0008 18308DE2 		add	r3, sp, #24
 164 000c 08308DE5 		str	r3, [sp, #8]
 165              		.loc 1 112 0
 166 0010 0260A0E1 		mov	r6, r2
 167 0014 08209DE5 		ldr	r2, [sp, #8]
 168              	.LVL23:
 169              		.loc 1 236 0
 170 0018 19308DE2 		add	r3, sp, #25
 171 001c 032062E0 		rsb	r2, r2, r3
ARM GAS  C:\Users\NICOMA~1\AppData\Local\Temp\ccd1FKNk.s 			page 4


 172 0020 04308DE5 		str	r3, [sp, #4]
 173              		.loc 1 112 0
 174 0024 0050A0E1 		mov	r5, r0
 175 0028 0170A0E1 		mov	r7, r1
 176 002c 0C208DE5 		str	r2, [sp, #12]
 177              	.LVL24:
 178              	.L76:
 179              		.loc 1 125 0
 180 0030 0740A0E1 		mov	r4, r7
 181 0034 0110D4E4 		ldrb	r1, [r4], #1	@ zero_extendqisi2
 182              	.LVL25:
 183              		.loc 1 126 0
 184 0038 000051E3 		cmp	r1, #0
 185 003c 0A00000A 		beq	.L12
 186              	.LVL26:
 187              	.L83:
 188              		.loc 1 128 0
 189 0040 250051E3 		cmp	r1, #37
 190 0044 0A00000A 		beq	.L15
 191              		.loc 1 129 0
 192 0048 003095E5 		ldr	r3, [r5, #0]
 193              		.loc 1 125 0
 194 004c 0470A0E1 		mov	r7, r4
 195              		.loc 1 129 0
 196 0050 0500A0E1 		mov	r0, r5
 197 0054 083093E5 		ldr	r3, [r3, #8]
 198              		.loc 1 125 0
 199 0058 0740A0E1 		mov	r4, r7
 200              		.loc 1 129 0
 201 005c 33FF2FE1 		blx	r3
 202              	.LVL27:
 203              		.loc 1 125 0
 204 0060 0110D4E4 		ldrb	r1, [r4], #1	@ zero_extendqisi2
 205              	.LVL28:
 206              		.loc 1 126 0
 207 0064 000051E3 		cmp	r1, #0
 208 0068 F4FFFF1A 		bne	.L83
 209              	.LVL29:
 210              	.L12:
 211              		.loc 1 261 0
 212 006c 34D08DE2 		add	sp, sp, #52
 213 0070 F08FBDE8 		ldmfd	sp!, {r4, r5, r6, r7, r8, r9, sl, fp, pc}
 214              	.L15:
 215              	.LVL30:
 216              		.loc 1 135 0
 217 0074 0130D7E5 		ldrb	r3, [r7, #1]	@ zero_extendqisi2
 218 0078 2D0053E3 		cmp	r3, #45
 219 007c 0230D705 		ldreqb	r3, [r7, #2]	@ zero_extendqisi2
 220              		.loc 1 136 0
 221 0080 02408702 		addeq	r4, r7, #2
 222              	.LVL31:
 223              		.loc 1 137 0
 224 0084 01A0A003 		moveq	sl, #1
 225              		.loc 1 134 0
 226 0088 00A0A013 		movne	sl, #0
 227              	.LVL32:
 228              		.loc 1 140 0
ARM GAS  C:\Users\NICOMA~1\AppData\Local\Temp\ccd1FKNk.s 			page 5


 229 008c 2E0053E3 		cmp	r3, #46
 230 0090 30005313 		cmpne	r3, #48
 231 0094 0130D405 		ldreqb	r3, [r4, #1]	@ zero_extendqisi2
 232              		.loc 1 141 0
 233 0098 01408402 		addeq	r4, r4, #1
 234              	.LVL33:
 235 009c 0410A0E1 		mov	r1, r4
 236              		.loc 1 142 0
 237 00a0 3080A003 		moveq	r8, #48
 238              		.loc 1 139 0
 239 00a4 2080A013 		movne	r8, #32
 240              	.LVL34:
 241              		.loc 1 144 0
 242 00a8 0040A0E3 		mov	r4, #0
 243 00ac 050000EA 		b	.L21
 244              	.LVL35:
 245              	.L84:
 246              		.loc 1 150 0
 247 00b0 0020D6E5 		ldrb	r2, [r6, #0]	@ zero_extendqisi2
 248              	.LVL36:
 249 00b4 046086E2 		add	r6, r6, #4
 250              	.LVL37:
 251              	.L19:
 252              		.loc 1 153 0
 253 00b8 044184E0 		add	r4, r4, r4, asl #2
 254              	.LVL38:
 255 00bc 0130D1E5 		ldrb	r3, [r1, #1]	@ zero_extendqisi2
 256 00c0 844082E0 		add	r4, r2, r4, asl #1
 257              	.LVL39:
 258 00c4 0010A0E1 		mov	r1, r0
 259              	.LVL40:
 260              	.L21:
 261              		.loc 1 147 0
 262 00c8 302043E2 		sub	r2, r3, #48
 263 00cc 7220EFE6 		uxtb	r2, r2
 264              		.loc 1 112 0
 265 00d0 010081E2 		add	r0, r1, #1
 266              		.loc 1 147 0
 267 00d4 090052E3 		cmp	r2, #9
 268              		.loc 1 112 0
 269 00d8 0070A0E1 		mov	r7, r0
 270              	.LVL41:
 271              		.loc 1 147 0
 272 00dc F5FFFF9A 		bls	.L19
 273              		.loc 1 149 0
 274 00e0 2A0053E3 		cmp	r3, #42
 275 00e4 F1FFFF0A 		beq	.L84
 276              	.LVL42:
 277              		.loc 1 156 0
 278 00e8 2E0053E3 		cmp	r3, #46
 279              		.loc 1 155 0
 280 00ec 0010A013 		movne	r1, #0
 281              		.loc 1 156 0
 282 00f0 DA00000A 		beq	.L85
 283              	.LVL43:
 284              	.L22:
 285              		.loc 1 170 0
ARM GAS  C:\Users\NICOMA~1\AppData\Local\Temp\ccd1FKNk.s 			page 6


 286 00f4 DF2003E2 		and	r2, r3, #223
 287 00f8 4C0052E3 		cmp	r2, #76
 288 00fc D200001A 		bne	.L25
 289              	.LVL44:
 290              		.loc 1 172 0
 291 0100 0020D7E5 		ldrb	r2, [r7, #0]	@ zero_extendqisi2
 292 0104 000052E3 		cmp	r2, #0
 293              		.loc 1 171 0
 294 0108 0100A003 		moveq	r0, #1
 295              	.LVL45:
 296              		.loc 1 172 0
 297              	.LVL46:
 298              		.loc 1 173 0
 299 010c 01708712 		addne	r7, r7, #1
 300              	.LVL47:
 301 0110 0230A011 		movne	r3, r2
 302              		.loc 1 171 0
 303 0114 0100A013 		movne	r0, #1
 304              	.LVL48:
 305              	.L26:
 306              		.loc 1 179 0
 307 0118 442043E2 		sub	r2, r3, #68
 308 011c 340052E3 		cmp	r2, #52
 309 0120 02F19F97 		ldrls	pc, [pc, r2, asl #2]
 310 0124 C40000EA 		b	.L27
 311              	.L35:
 312 0128 14040000 		.word	.L28
 313 012c 3C040000 		.word	.L27
 314 0130 3C040000 		.word	.L27
 315 0134 3C040000 		.word	.L27
 316 0138 3C040000 		.word	.L27
 317 013c 14040000 		.word	.L28
 318 0140 3C040000 		.word	.L27
 319 0144 3C040000 		.word	.L27
 320 0148 3C040000 		.word	.L27
 321 014c 3C040000 		.word	.L27
 322 0150 3C040000 		.word	.L27
 323 0154 0C040000 		.word	.L29
 324 0158 3C040000 		.word	.L27
 325 015c 3C040000 		.word	.L27
 326 0160 3C040000 		.word	.L27
 327 0164 3C040000 		.word	.L27
 328 0168 3C040000 		.word	.L27
 329 016c 04040000 		.word	.L60
 330 0170 3C040000 		.word	.L27
 331 0174 3C040000 		.word	.L27
 332 0178 DC030000 		.word	.L31
 333 017c 3C040000 		.word	.L27
 334 0180 3C040000 		.word	.L27
 335 0184 3C040000 		.word	.L27
 336 0188 3C040000 		.word	.L27
 337 018c 3C040000 		.word	.L27
 338 0190 3C040000 		.word	.L27
 339 0194 3C040000 		.word	.L27
 340 0198 3C040000 		.word	.L27
 341 019c 3C040000 		.word	.L27
 342 01a0 3C040000 		.word	.L27
ARM GAS  C:\Users\NICOMA~1\AppData\Local\Temp\ccd1FKNk.s 			page 7


 343 01a4 C0030000 		.word	.L32
 344 01a8 14040000 		.word	.L28
 345 01ac 3C040000 		.word	.L27
 346 01b0 B8020000 		.word	.L33
 347 01b4 3C040000 		.word	.L27
 348 01b8 3C040000 		.word	.L27
 349 01bc 14040000 		.word	.L28
 350 01c0 3C040000 		.word	.L27
 351 01c4 3C040000 		.word	.L27
 352 01c8 3C040000 		.word	.L27
 353 01cc 3C040000 		.word	.L27
 354 01d0 3C040000 		.word	.L27
 355 01d4 0C040000 		.word	.L29
 356 01d8 3C040000 		.word	.L27
 357 01dc 3C040000 		.word	.L27
 358 01e0 3C040000 		.word	.L27
 359 01e4 FC010000 		.word	.L34
 360 01e8 3C040000 		.word	.L27
 361 01ec 04040000 		.word	.L60
 362 01f0 3C040000 		.word	.L27
 363 01f4 3C040000 		.word	.L27
 364 01f8 DC030000 		.word	.L31
 365              	.L34:
 366              	.LVL49:
 367              		.loc 1 186 0
 368 01fc 009096E5 		ldr	r9, [r6, #0]
 369              		.loc 1 187 0
 370 0200 CC329FE5 		ldr	r3, .L90
 371              	.LVL50:
 372 0204 000059E3 		cmp	r9, #0
 373 0208 0390A001 		moveq	r9, r3
 374              		.loc 1 190 0
 375 020c 00B0D9E5 		ldrb	fp, [r9, #0]	@ zero_extendqisi2
 376              		.loc 1 189 0
 377 0210 C0329FE5 		ldr	r3, .L90+4
 378 0214 000051E3 		cmp	r1, #0
 379 0218 0310A001 		moveq	r1, r3
 380              	.LVL51:
 381              		.loc 1 190 0
 382 021c 00005BE3 		cmp	fp, #0
 383              		.loc 1 186 0
 384 0220 046086E2 		add	r6, r6, #4
 385              	.LVL52:
 386              		.loc 1 190 0
 387 0224 A800000A 		beq	.L63
 388              	.LVL53:
 389 0228 0930A0E1 		mov	r3, r9
 390              		.loc 1 112 0
 391 022c 011089E0 		add	r1, r9, r1
 392              	.LVL54:
 393 0230 010000EA 		b	.L40
 394              	.LVL55:
 395              	.L39:
 396              		.loc 1 190 0 discriminator 2
 397 0234 01005BE1 		cmp	fp, r1
 398 0238 A000000A 		beq	.L86
 399              	.L40:
ARM GAS  C:\Users\NICOMA~1\AppData\Local\Temp\ccd1FKNk.s 			page 8


 400              		.loc 1 190 0 is_stmt 0 discriminator 1
 401 023c 0120D3E5 		ldrb	r2, [r3, #1]	@ zero_extendqisi2
 402              		.loc 1 112 0 is_stmt 1 discriminator 1
 403 0240 01B083E2 		add	fp, r3, #1
 404              	.LVL56:
 405              		.loc 1 190 0 discriminator 1
 406 0244 000052E3 		cmp	r2, #0
 407 0248 0B30A0E1 		mov	r3, fp
 408 024c F8FFFF1A 		bne	.L39
 409 0250 0BB069E0 		rsb	fp, r9, fp
 410              	.LVL57:
 411              		.loc 1 240 0
 412 0254 04406BE0 		rsb	r4, fp, r4
 413              	.LVL58:
 414              		.loc 1 242 0
 415 0258 00005AE3 		cmp	sl, #0
 416              		.loc 1 185 0
 417 025c 2080A0E3 		mov	r8, #32
 418              	.LVL59:
 419 0260 C44FC4E1 		bic	r4, r4, r4, asr #31
 420              	.LVL60:
 421              		.loc 1 242 0
 422 0264 4700000A 		beq	.L87
 423              	.LVL61:
 424              	.L48:
 425              		.loc 1 253 0 discriminator 1
 426 0268 00005BE3 		cmp	fp, #0
 427              		.loc 1 112 0 discriminator 1
 428 026c 0BA089C0 		addgt	sl, r9, fp
 429              	.LVL62:
 430              		.loc 1 253 0 discriminator 1
 431 0270 060000DA 		ble	.L54
 432              	.LVL63:
 433              	.L53:
 434              		.loc 1 254 0
 435 0274 003095E5 		ldr	r3, [r5, #0]
 436 0278 0110D9E4 		ldrb	r1, [r9], #1	@ zero_extendqisi2
 437              	.LVL64:
 438 027c 083093E5 		ldr	r3, [r3, #8]
 439 0280 0500A0E1 		mov	r0, r5
 440 0284 33FF2FE1 		blx	r3
 441              	.LVL65:
 442              		.loc 1 253 0
 443 0288 0A0059E1 		cmp	r9, sl
 444 028c F8FFFF1A 		bne	.L53
 445              	.L54:
 446              	.LVL66:
 447              		.loc 1 256 0
 448 0290 000054E3 		cmp	r4, #0
 449 0294 65FFFF0A 		beq	.L76
 450              	.L69:
 451              		.loc 1 257 0
 452 0298 003095E5 		ldr	r3, [r5, #0]
 453 029c 0500A0E1 		mov	r0, r5
 454 02a0 083093E5 		ldr	r3, [r3, #8]
 455 02a4 0810A0E1 		mov	r1, r8
 456 02a8 33FF2FE1 		blx	r3
ARM GAS  C:\Users\NICOMA~1\AppData\Local\Temp\ccd1FKNk.s 			page 9


 457              	.LVL67:
 458              		.loc 1 256 0
 459 02ac 014054E2 		subs	r4, r4, #1
 460              	.LVL68:
 461 02b0 F8FFFF1A 		bne	.L69
 462 02b4 5DFFFFEA 		b	.L76
 463              	.LVL69:
 464              	.L33:
 465              		.loc 1 209 0
 466 02b8 076086E2 		add	r6, r6, #7
 467              	.LVL70:
 468 02bc 0760C6E3 		bic	r6, r6, #7
 469              	.LVL71:
 470 02c0 D000C6E1 		ldrd	r0, [r6]
 471              	.LVL72:
 472 02c4 FEFFFFEB 		bl	__aeabi_d2f
 473              	.LVL73:
 474              		.loc 1 210 0
 475 02c8 0010A0E3 		mov	r1, #0
 476              		.loc 1 209 0
 477 02cc 00B0A0E1 		mov	fp, r0
 478              		.loc 1 210 0
 479 02d0 FEFFFFEB 		bl	__aeabi_fcmplt
 480              	.LVL74:
 481 02d4 000050E3 		cmp	r0, #0
 482              		.loc 1 212 0
 483 02d8 02B18B12 		addne	fp, fp, #-2147483648
 484              		.loc 1 211 0
 485 02dc 2D30A013 		movne	r3, #45
 486              	.LBB8:
 487              	.LBB9:
 488              		.loc 1 80 0
 489 02e0 0B00A0E1 		mov	r0, fp
 490              	.LBE9:
 491              	.LBE8:
 492              		.loc 1 211 0
 493 02e4 19908D12 		addne	r9, sp, #25
 494              		.loc 1 132 0
 495 02e8 18908D02 		addeq	r9, sp, #24
 496              		.loc 1 211 0
 497 02ec 1830CD15 		strneb	r3, [sp, #24]
 498              	.LBB13:
 499              	.LBB10:
 500              		.loc 1 80 0
 501 02f0 FEFFFFEB 		bl	__aeabi_f2iz
 502              	.LVL75:
 503 02f4 00C0A0E1 		mov	ip, r0
 504              		.loc 1 81 0
 505 02f8 0A20A0E3 		mov	r2, #10
 506 02fc 0C10A0E1 		mov	r1, ip
 507 0300 0900A0E1 		mov	r0, r9
 508 0304 0030A0E3 		mov	r3, #0
 509 0308 00C08DE5 		str	ip, [sp, #0]
 510 030c FEFFFFEB 		bl	long_to_string_with_divisor
 511              	.LVL76:
 512              		.loc 1 82 0
 513 0310 2E30A0E3 		mov	r3, #46
ARM GAS  C:\Users\NICOMA~1\AppData\Local\Temp\ccd1FKNk.s 			page 10


 514 0314 0090A0E1 		mov	r9, r0
 515 0318 0130C9E4 		strb	r3, [r9], #1
 516              	.LBE10:
 517              	.LBE13:
 518              		.loc 1 214 0
 519 031c 0B00A0E1 		mov	r0, fp
 520 0320 FEFFFFEB 		bl	__aeabi_f2d
 521              	.LVL77:
 522              	.LBB14:
 523              	.LBB11:
 524              		.loc 1 83 0
 525 0324 00C09DE5 		ldr	ip, [sp, #0]
 526              	.LBE11:
 527              	.LBE14:
 528              		.loc 1 214 0
 529 0328 F001CDE1 		strd	r0, [sp, #16]
 530              	.LBB15:
 531              	.LBB12:
 532              		.loc 1 83 0
 533 032c 0C00A0E1 		mov	r0, ip
 534 0330 FEFFFFEB 		bl	__aeabi_i2d
 535              	.LVL78:
 536 0334 0020A0E1 		mov	r2, r0
 537 0338 0130A0E1 		mov	r3, r1
 538 033c D001CDE1 		ldrd	r0, [sp, #16]
 539 0340 FEFFFFEB 		bl	__aeabi_dsub
 540              	.LVL79:
 541 0344 0020A0E3 		mov	r2, #0
 542 0348 8C319FE5 		ldr	r3, .L90+8
 543 034c FEFFFFEB 		bl	__aeabi_dmul
 544              	.LVL80:
 545 0350 FEFFFFEB 		bl	__aeabi_d2iz
 546              	.LVL81:
 547              		.loc 1 84 0
 548 0354 84319FE5 		ldr	r3, .L90+12
 549              		.loc 1 83 0
 550 0358 0010A0E1 		mov	r1, r0
 551              		.loc 1 84 0
 552 035c 0A20A0E3 		mov	r2, #10
 553 0360 0900A0E1 		mov	r0, r9
 554 0364 FEFFFFEB 		bl	long_to_string_with_divisor
 555              	.LVL82:
 556 0368 08309DE5 		ldr	r3, [sp, #8]
 557              	.LBE12:
 558              	.LBE15:
 559              		.loc 1 209 0
 560 036c 086086E2 		add	r6, r6, #8
 561              	.LVL83:
 562              		.loc 1 133 0
 563 0370 18908DE2 		add	r9, sp, #24
 564 0374 00B063E0 		rsb	fp, r3, r0
 565              	.LVL84:
 566              	.L36:
 567              		.loc 1 240 0
 568 0378 04406BE0 		rsb	r4, fp, r4
 569              	.LVL85:
 570              		.loc 1 242 0
ARM GAS  C:\Users\NICOMA~1\AppData\Local\Temp\ccd1FKNk.s 			page 11


 571 037c 00005AE3 		cmp	sl, #0
 572 0380 C44FC4E1 		bic	r4, r4, r4, asr #31
 573              	.LVL86:
 574 0384 B7FFFF1A 		bne	.L48
 575              	.LVL87:
 576              	.L87:
 577              		.loc 1 243 0
 578 0388 004064E2 		rsb	r4, r4, #0
 579              	.LVL88:
 580              		.loc 1 244 0
 581 038c 000054E3 		cmp	r4, #0
 582 0390 B4FFFF0A 		beq	.L48
 583              		.loc 1 245 0
 584 0394 0010D9E5 		ldrb	r1, [r9, #0]	@ zero_extendqisi2
 585 0398 2D0051E3 		cmp	r1, #45
 586 039c 3E00000A 		beq	.L88
 587              	.LVL89:
 588              	.L70:
 589              		.loc 1 250 0 discriminator 1
 590 03a0 003095E5 		ldr	r3, [r5, #0]
 591 03a4 0500A0E1 		mov	r0, r5
 592 03a8 083093E5 		ldr	r3, [r3, #8]
 593 03ac 0810A0E1 		mov	r1, r8
 594 03b0 33FF2FE1 		blx	r3
 595              	.LVL90:
 596              		.loc 1 251 0 discriminator 1
 597 03b4 014094E2 		adds	r4, r4, #1
 598              	.LVL91:
 599 03b8 F8FFFF1A 		bne	.L70
 600 03bc A9FFFFEA 		b	.L48
 601              	.LVL92:
 602              	.L32:
 603              		.loc 1 182 0
 604 03c0 003096E5 		ldr	r3, [r6, #0]
 605              	.LVL93:
 606 03c4 0CB09DE5 		ldr	fp, [sp, #12]
 607 03c8 1830CDE5 		strb	r3, [sp, #24]
 608              	.LVL94:
 609 03cc 046086E2 		add	r6, r6, #4
 610              	.LVL95:
 611              		.loc 1 181 0
 612 03d0 2080A0E3 		mov	r8, #32
 613              		.loc 1 133 0
 614 03d4 18908DE2 		add	r9, sp, #24
 615              		.loc 1 183 0
 616 03d8 E6FFFFEA 		b	.L36
 617              	.LVL96:
 618              	.L31:
 619              		.loc 1 179 0
 620 03dc 1020A0E3 		mov	r2, #16
 621              	.LVL97:
 622              	.L30:
 623              		.loc 1 230 0
 624 03e0 001096E5 		ldr	r1, [r6, #0]
 625              	.LVL98:
 626              	.LBB16:
 627              	.LBB17:
ARM GAS  C:\Users\NICOMA~1\AppData\Local\Temp\ccd1FKNk.s 			page 12


 628              		.loc 1 72 0
 629 03e4 18008DE2 		add	r0, sp, #24
 630              	.LVL99:
 631              	.LBE17:
 632              	.LBE16:
 633              		.loc 1 230 0
 634 03e8 046086E2 		add	r6, r6, #4
 635              	.LVL100:
 636              	.L82:
 637              	.LBB19:
 638              	.LBB18:
 639              		.loc 1 72 0
 640 03ec 0030A0E3 		mov	r3, #0
 641 03f0 FEFFFFEB 		bl	long_to_string_with_divisor
 642              	.LVL101:
 643 03f4 08209DE5 		ldr	r2, [sp, #8]
 644              	.LBE18:
 645              	.LBE19:
 646              		.loc 1 133 0
 647 03f8 18908DE2 		add	r9, sp, #24
 648 03fc 00B062E0 		rsb	fp, r2, r0
 649              		.loc 1 234 0
 650 0400 DCFFFFEA 		b	.L36
 651              	.LVL102:
 652              	.L60:
 653              		.loc 1 179 0
 654 0404 0A20A0E3 		mov	r2, #10
 655 0408 F4FFFFEA 		b	.L30
 656              	.L29:
 657              	.LVL103:
 658 040c 0820A0E3 		mov	r2, #8
 659 0410 F2FFFFEA 		b	.L30
 660              	.LVL104:
 661              	.L28:
 662              		.loc 1 198 0
 663 0414 001096E5 		ldr	r1, [r6, #0]
 664              	.LVL105:
 665              	.LBB20:
 666              	.LBB21:
 667              		.loc 1 72 0
 668 0418 0A20A0E3 		mov	r2, #10
 669              	.LBE21:
 670              	.LBE20:
 671              		.loc 1 201 0
 672 041c 000051E3 		cmp	r1, #0
 673              		.loc 1 202 0
 674 0420 2D30A0B3 		movlt	r3, #45
 675              	.LVL106:
 676              		.loc 1 198 0
 677 0424 046086E2 		add	r6, r6, #4
 678              	.LVL107:
 679              		.loc 1 202 0
 680 0428 1830CDB5 		strltb	r3, [sp, #24]
 681              	.LVL108:
 682              		.loc 1 203 0
 683 042c 001061B2 		rsblt	r1, r1, #0
 684              	.LVL109:
ARM GAS  C:\Users\NICOMA~1\AppData\Local\Temp\ccd1FKNk.s 			page 13


 685              		.loc 1 202 0
 686 0430 19008DB2 		addlt	r0, sp, #25
 687              	.LVL110:
 688              		.loc 1 132 0
 689 0434 18008DA2 		addge	r0, sp, #24
 690              	.LVL111:
 691 0438 EBFFFFEA 		b	.L82
 692              	.LVL112:
 693              	.L27:
 694              		.loc 1 236 0
 695 043c 1830CDE5 		strb	r3, [sp, #24]
 696              	.LVL113:
 697 0440 0CB09DE5 		ldr	fp, [sp, #12]
 698              		.loc 1 133 0
 699 0444 18908DE2 		add	r9, sp, #24
 700              		.loc 1 237 0
 701 0448 CAFFFFEA 		b	.L36
 702              	.LVL114:
 703              	.L25:
 704              		.loc 1 176 0
 705 044c 410043E2 		sub	r0, r3, #65
 706              	.LVL115:
 707 0450 190050E3 		cmp	r0, #25
 708 0454 0000A083 		movhi	r0, #0
 709 0458 0100A093 		movls	r0, #1
 710              	.LVL116:
 711 045c 2DFFFFEA 		b	.L26
 712              	.LVL117:
 713              	.L85:
 714              		.loc 1 156 0
 715 0460 0010A0E3 		mov	r1, #0
 716 0464 020000EA 		b	.L24
 717              	.LVL118:
 718              	.L89:
 719              		.loc 1 162 0
 720 0468 0020D6E5 		ldrb	r2, [r6, #0]	@ zero_extendqisi2
 721              	.LVL119:
 722 046c 046086E2 		add	r6, r6, #4
 723              	.LVL120:
 724              	.L23:
 725              		.loc 1 166 0
 726 0470 8C1082E0 		add	r1, r2, ip, asl #1
 727              	.LVL121:
 728              	.L24:
 729              		.loc 1 158 0
 730 0474 0130D0E4 		ldrb	r3, [r0], #1	@ zero_extendqisi2
 731              	.LVL122:
 732              		.loc 1 165 0
 733 0478 01C181E0 		add	ip, r1, r1, asl #2
 734              		.loc 1 159 0
 735 047c 302043E2 		sub	r2, r3, #48
 736 0480 7220EFE6 		uxtb	r2, r2
 737 0484 090052E3 		cmp	r2, #9
 738              		.loc 1 158 0
 739 0488 0070A0E1 		mov	r7, r0
 740              	.LVL123:
 741              		.loc 1 159 0
ARM GAS  C:\Users\NICOMA~1\AppData\Local\Temp\ccd1FKNk.s 			page 14


 742 048c F7FFFF9A 		bls	.L23
 743              		.loc 1 161 0
 744 0490 2A0053E3 		cmp	r3, #42
 745 0494 F3FFFF0A 		beq	.L89
 746 0498 15FFFFEA 		b	.L22
 747              	.LVL124:
 748              	.L88:
 749              		.loc 1 245 0 discriminator 1
 750 049c 300058E3 		cmp	r8, #48
 751 04a0 BEFFFF1A 		bne	.L70
 752              		.loc 1 246 0
 753 04a4 003095E5 		ldr	r3, [r5, #0]
 754 04a8 0500A0E1 		mov	r0, r5
 755 04ac 083093E5 		ldr	r3, [r3, #8]
 756 04b0 33FF2FE1 		blx	r3
 757              	.LVL125:
 758 04b4 019089E2 		add	r9, r9, #1
 759              	.LVL126:
 760              		.loc 1 247 0
 761 04b8 01B04BE2 		sub	fp, fp, #1
 762              	.LVL127:
 763 04bc B7FFFFEA 		b	.L70
 764              	.LVL128:
 765              	.L86:
 766 04c0 0BB069E0 		rsb	fp, r9, fp
 767              		.loc 1 185 0
 768 04c4 2080A0E3 		mov	r8, #32
 769 04c8 AAFFFFEA 		b	.L36
 770              	.LVL129:
 771              	.L63:
 772 04cc 2080A0E3 		mov	r8, #32
 773 04d0 A8FFFFEA 		b	.L36
 774              	.L91:
 775              		.align	2
 776              	.L90:
 777 04d4 00000000 		.word	.LC0
 778 04d8 FF7F0000 		.word	32767
 779 04dc 006AF840 		.word	1090021888
 780 04e0 10270000 		.word	10000
 781              		.cfi_endproc
 782              	.LFE11:
 783              		.size	chvprintf, .-chvprintf
 784              		.section	.text.chsnprintf,"ax",%progbits
 785              		.align	2
 786              		.global	chsnprintf
 787              		.type	chsnprintf, %function
 788              	chsnprintf:
 789              	.LFB12:
 790              		.loc 1 288 0
 791              		.cfi_startproc
 792              		@ args = 4, pretend = 8, frame = 24
 793              		@ frame_needed = 0, uses_anonymous_args = 1
 794              	.LVL130:
 795 0000 0C002DE9 		stmfd	sp!, {r2, r3}
 796              	.LCFI3:
 797              		.cfi_def_cfa_offset 8
 798              		.cfi_offset 2, -8
ARM GAS  C:\Users\NICOMA~1\AppData\Local\Temp\ccd1FKNk.s 			page 15


 799              		.cfi_offset 3, -4
 800 0004 04E02DE5 		str	lr, [sp, #-4]!
 801              	.LCFI4:
 802              		.cfi_def_cfa_offset 12
 803              		.cfi_offset 14, -12
 804 0008 00C0A0E1 		mov	ip, r0
 805 000c 1CD04DE2 		sub	sp, sp, #28
 806              	.LCFI5:
 807              		.cfi_def_cfa_offset 40
 808              		.loc 1 288 0
 809 0010 0120A0E1 		mov	r2, r1
 810              		.loc 1 294 0
 811 0014 04008DE2 		add	r0, sp, #4
 812              	.LVL131:
 813 0018 0C10A0E1 		mov	r1, ip
 814              	.LVL132:
 815 001c 0030A0E3 		mov	r3, #0
 816 0020 FEFFFFEB 		bl	msObjectInit
 817              	.LVL133:
 818              		.loc 1 298 0
 819 0024 24308DE2 		add	r3, sp, #36
 820              		.loc 1 299 0
 821 0028 0320A0E1 		mov	r2, r3
 822 002c 04008DE2 		add	r0, sp, #4
 823              	.LVL134:
 824 0030 20109DE5 		ldr	r1, [sp, #32]
 825              		.loc 1 298 0
 826 0034 00308DE5 		str	r3, [sp, #0]
 827              		.loc 1 299 0
 828 0038 FEFFFFEB 		bl	chvprintf
 829              	.LVL135:
 830              		.loc 1 303 0
 831 003c 04309DE5 		ldr	r3, [sp, #4]
 832 0040 04008DE2 		add	r0, sp, #4
 833              	.LVL136:
 834 0044 083093E5 		ldr	r3, [r3, #8]
 835 0048 0010A0E3 		mov	r1, #0
 836 004c 33FF2FE1 		blx	r3
 837              	.LVL137:
 838              		.loc 1 304 0
 839 0050 10009DE5 		ldr	r0, [sp, #16]
 840              		.loc 1 305 0
 841 0054 010040E2 		sub	r0, r0, #1
 842 0058 1CD08DE2 		add	sp, sp, #28
 843 005c 04E09DE4 		ldr	lr, [sp], #4
 844 0060 08D08DE2 		add	sp, sp, #8
 845 0064 1EFF2FE1 		bx	lr
 846              		.cfi_endproc
 847              	.LFE12:
 848              		.size	chsnprintf, .-chsnprintf
 849              		.section	.rodata.str1.4,"aMS",%progbits,1
 850              		.align	2
 851              	.LC0:
 852 0000 286E756C 		.ascii	"(null)\000"
 852      6C2900
 853 0007 00       		.text
 854              	.Letext0:
ARM GAS  C:\Users\NICOMA~1\AppData\Local\Temp\ccd1FKNk.s 			page 16


 855              		.file 2 "c:\\yagarto-20121222\\bin\\../lib/gcc/arm-none-eabi/4.7.2/include/stddef.h"
 856              		.file 3 "c:/yagarto-20121222/lib/gcc/../../arm-none-eabi/sys-include/stdint.h"
 857              		.file 4 "../../os/ports/GCC/ARM/chtypes.h"
 858              		.file 5 "../../os/kernel/include/chstreams.h"
 859              		.file 6 "c:\\yagarto-20121222\\bin\\../lib/gcc/arm-none-eabi/4.7.2/include/stdarg.h"
 860              		.file 7 "<built-in>"
 861              		.file 8 "../../os/various/memstreams.h"
 862              		.section	.debug_info,"",%progbits
 863              	.Ldebug_info0:
 864 0000 D5060000 		.4byte	0x6d5
 865 0004 0200     		.2byte	0x2
 866 0006 00000000 		.4byte	.Ldebug_abbrev0
 867 000a 04       		.byte	0x4
 868 000b 01       		.uleb128 0x1
 869 000c 89010000 		.4byte	.LASF41
 870 0010 01       		.byte	0x1
 871 0011 78000000 		.4byte	.LASF42
 872 0015 94000000 		.4byte	.LASF43
 873 0019 68000000 		.4byte	.Ldebug_ranges0+0x68
 874 001d 00000000 		.4byte	0
 875 0021 00000000 		.4byte	0
 876 0025 00000000 		.4byte	.Ldebug_line0
 877 0029 02       		.uleb128 0x2
 878 002a 08       		.byte	0x8
 879 002b 04       		.byte	0x4
 880 002c 71000000 		.4byte	.LASF0
 881 0030 02       		.uleb128 0x2
 882 0031 04       		.byte	0x4
 883 0032 04       		.byte	0x4
 884 0033 A2010000 		.4byte	.LASF1
 885 0037 03       		.uleb128 0x3
 886 0038 04       		.byte	0x4
 887 0039 05       		.byte	0x5
 888 003a 696E7400 		.ascii	"int\000"
 889 003e 04       		.uleb128 0x4
 890 003f 00000000 		.4byte	.LASF4
 891 0043 02       		.byte	0x2
 892 0044 D5       		.byte	0xd5
 893 0045 49000000 		.4byte	0x49
 894 0049 02       		.uleb128 0x2
 895 004a 04       		.byte	0x4
 896 004b 07       		.byte	0x7
 897 004c F3000000 		.4byte	.LASF2
 898 0050 02       		.uleb128 0x2
 899 0051 01       		.byte	0x1
 900 0052 06       		.byte	0x6
 901 0053 39000000 		.4byte	.LASF3
 902 0057 04       		.uleb128 0x4
 903 0058 1B020000 		.4byte	.LASF5
 904 005c 03       		.byte	0x3
 905 005d 2A       		.byte	0x2a
 906 005e 62000000 		.4byte	0x62
 907 0062 02       		.uleb128 0x2
 908 0063 01       		.byte	0x1
 909 0064 08       		.byte	0x8
 910 0065 C3010000 		.4byte	.LASF6
 911 0069 02       		.uleb128 0x2
ARM GAS  C:\Users\NICOMA~1\AppData\Local\Temp\ccd1FKNk.s 			page 17


 912 006a 02       		.byte	0x2
 913 006b 05       		.byte	0x5
 914 006c D1010000 		.4byte	.LASF7
 915 0070 02       		.uleb128 0x2
 916 0071 02       		.byte	0x2
 917 0072 07       		.byte	0x7
 918 0073 28010000 		.4byte	.LASF8
 919 0077 04       		.uleb128 0x4
 920 0078 BB010000 		.4byte	.LASF9
 921 007c 03       		.byte	0x3
 922 007d 4F       		.byte	0x4f
 923 007e 82000000 		.4byte	0x82
 924 0082 02       		.uleb128 0x2
 925 0083 04       		.byte	0x4
 926 0084 05       		.byte	0x5
 927 0085 53000000 		.4byte	.LASF10
 928 0089 02       		.uleb128 0x2
 929 008a 04       		.byte	0x4
 930 008b 07       		.byte	0x7
 931 008c 00010000 		.4byte	.LASF11
 932 0090 02       		.uleb128 0x2
 933 0091 08       		.byte	0x8
 934 0092 05       		.byte	0x5
 935 0093 2B000000 		.4byte	.LASF12
 936 0097 02       		.uleb128 0x2
 937 0098 08       		.byte	0x8
 938 0099 07       		.byte	0x7
 939 009a 14000000 		.4byte	.LASF13
 940 009e 04       		.uleb128 0x4
 941 009f 45000000 		.4byte	.LASF14
 942 00a3 04       		.byte	0x4
 943 00a4 2B       		.byte	0x2b
 944 00a5 A9000000 		.4byte	0xa9
 945 00a9 02       		.uleb128 0x2
 946 00aa 01       		.byte	0x1
 947 00ab 02       		.byte	0x2
 948 00ac B5010000 		.4byte	.LASF15
 949 00b0 04       		.uleb128 0x4
 950 00b1 3B010000 		.4byte	.LASF16
 951 00b5 04       		.byte	0x4
 952 00b6 31       		.byte	0x31
 953 00b7 77000000 		.4byte	0x77
 954 00bb 05       		.uleb128 0x5
 955 00bc 04       		.byte	0x4
 956 00bd 06       		.uleb128 0x6
 957 00be 04       		.byte	0x4
 958 00bf C3000000 		.4byte	0xc3
 959 00c3 07       		.uleb128 0x7
 960 00c4 C8000000 		.4byte	0xc8
 961 00c8 02       		.uleb128 0x2
 962 00c9 01       		.byte	0x1
 963 00ca 08       		.byte	0x8
 964 00cb F9010000 		.4byte	.LASF17
 965 00cf 06       		.uleb128 0x6
 966 00d0 04       		.byte	0x4
 967 00d1 D5000000 		.4byte	0xd5
 968 00d5 08       		.uleb128 0x8
ARM GAS  C:\Users\NICOMA~1\AppData\Local\Temp\ccd1FKNk.s 			page 18


 969 00d6 01       		.byte	0x1
 970 00d7 B0000000 		.4byte	0xb0
 971 00db E5000000 		.4byte	0xe5
 972 00df 09       		.uleb128 0x9
 973 00e0 BB000000 		.4byte	0xbb
 974 00e4 00       		.byte	0
 975 00e5 02       		.uleb128 0x2
 976 00e6 04       		.byte	0x4
 977 00e7 07       		.byte	0x7
 978 00e8 59010000 		.4byte	.LASF18
 979 00ec 06       		.uleb128 0x6
 980 00ed 04       		.byte	0x4
 981 00ee 57000000 		.4byte	0x57
 982 00f2 0A       		.uleb128 0xa
 983 00f3 DB010000 		.4byte	.LASF23
 984 00f7 10       		.byte	0x10
 985 00f8 05       		.byte	0x5
 986 00f9 48       		.byte	0x48
 987 00fa 37010000 		.4byte	0x137
 988 00fe 0B       		.uleb128 0xb
 989 00ff 53010000 		.4byte	.LASF19
 990 0103 05       		.byte	0x5
 991 0104 49       		.byte	0x49
 992 0105 5C010000 		.4byte	0x15c
 993 0109 02       		.byte	0x2
 994 010a 23       		.byte	0x23
 995 010b 00       		.uleb128 0
 996 010c 0B       		.uleb128 0xb
 997 010d 2D020000 		.4byte	.LASF20
 998 0111 05       		.byte	0x5
 999 0112 49       		.byte	0x49
 1000 0113 7C010000 		.4byte	0x17c
 1001 0117 02       		.byte	0x2
 1002 0118 23       		.byte	0x23
 1003 0119 04       		.uleb128 0x4
 1004 011a 0C       		.uleb128 0xc
 1005 011b 70757400 		.ascii	"put\000"
 1006 011f 05       		.byte	0x5
 1007 0120 49       		.byte	0x49
 1008 0121 97010000 		.4byte	0x197
 1009 0125 02       		.byte	0x2
 1010 0126 23       		.byte	0x23
 1011 0127 08       		.uleb128 0x8
 1012 0128 0C       		.uleb128 0xc
 1013 0129 67657400 		.ascii	"get\000"
 1014 012d 05       		.byte	0x5
 1015 012e 49       		.byte	0x49
 1016 012f CF000000 		.4byte	0xcf
 1017 0133 02       		.byte	0x2
 1018 0134 23       		.byte	0x23
 1019 0135 0C       		.uleb128 0xc
 1020 0136 00       		.byte	0
 1021 0137 08       		.uleb128 0x8
 1022 0138 01       		.byte	0x1
 1023 0139 3E000000 		.4byte	0x3e
 1024 013d 51010000 		.4byte	0x151
 1025 0141 09       		.uleb128 0x9
ARM GAS  C:\Users\NICOMA~1\AppData\Local\Temp\ccd1FKNk.s 			page 19


 1026 0142 BB000000 		.4byte	0xbb
 1027 0146 09       		.uleb128 0x9
 1028 0147 51010000 		.4byte	0x151
 1029 014b 09       		.uleb128 0x9
 1030 014c 3E000000 		.4byte	0x3e
 1031 0150 00       		.byte	0
 1032 0151 06       		.uleb128 0x6
 1033 0152 04       		.byte	0x4
 1034 0153 57010000 		.4byte	0x157
 1035 0157 07       		.uleb128 0x7
 1036 0158 57000000 		.4byte	0x57
 1037 015c 06       		.uleb128 0x6
 1038 015d 04       		.byte	0x4
 1039 015e 37010000 		.4byte	0x137
 1040 0162 08       		.uleb128 0x8
 1041 0163 01       		.byte	0x1
 1042 0164 3E000000 		.4byte	0x3e
 1043 0168 7C010000 		.4byte	0x17c
 1044 016c 09       		.uleb128 0x9
 1045 016d BB000000 		.4byte	0xbb
 1046 0171 09       		.uleb128 0x9
 1047 0172 EC000000 		.4byte	0xec
 1048 0176 09       		.uleb128 0x9
 1049 0177 3E000000 		.4byte	0x3e
 1050 017b 00       		.byte	0
 1051 017c 06       		.uleb128 0x6
 1052 017d 04       		.byte	0x4
 1053 017e 62010000 		.4byte	0x162
 1054 0182 08       		.uleb128 0x8
 1055 0183 01       		.byte	0x1
 1056 0184 B0000000 		.4byte	0xb0
 1057 0188 97010000 		.4byte	0x197
 1058 018c 09       		.uleb128 0x9
 1059 018d BB000000 		.4byte	0xbb
 1060 0191 09       		.uleb128 0x9
 1061 0192 57000000 		.4byte	0x57
 1062 0196 00       		.byte	0
 1063 0197 06       		.uleb128 0x6
 1064 0198 04       		.byte	0x4
 1065 0199 82010000 		.4byte	0x182
 1066 019d 0D       		.uleb128 0xd
 1067 019e 04       		.byte	0x4
 1068 019f 05       		.byte	0x5
 1069 01a0 51       		.byte	0x51
 1070 01a1 B4010000 		.4byte	0x1b4
 1071 01a5 0C       		.uleb128 0xc
 1072 01a6 766D7400 		.ascii	"vmt\000"
 1073 01aa 05       		.byte	0x5
 1074 01ab 53       		.byte	0x53
 1075 01ac B4010000 		.4byte	0x1b4
 1076 01b0 02       		.byte	0x2
 1077 01b1 23       		.byte	0x23
 1078 01b2 00       		.uleb128 0
 1079 01b3 00       		.byte	0
 1080 01b4 06       		.uleb128 0x6
 1081 01b5 04       		.byte	0x4
 1082 01b6 BA010000 		.4byte	0x1ba
ARM GAS  C:\Users\NICOMA~1\AppData\Local\Temp\ccd1FKNk.s 			page 20


 1083 01ba 07       		.uleb128 0x7
 1084 01bb F2000000 		.4byte	0xf2
 1085 01bf 04       		.uleb128 0x4
 1086 01c0 DE000000 		.4byte	.LASF21
 1087 01c4 05       		.byte	0x5
 1088 01c5 55       		.byte	0x55
 1089 01c6 9D010000 		.4byte	0x19d
 1090 01ca 04       		.uleb128 0x4
 1091 01cb 7A010000 		.4byte	.LASF22
 1092 01cf 06       		.byte	0x6
 1093 01d0 28       		.byte	0x28
 1094 01d1 D5010000 		.4byte	0x1d5
 1095 01d5 0A       		.uleb128 0xa
 1096 01d6 67000000 		.4byte	.LASF24
 1097 01da 04       		.byte	0x4
 1098 01db 07       		.byte	0x7
 1099 01dc 00       		.byte	0
 1100 01dd EF010000 		.4byte	0x1ef
 1101 01e1 0E       		.uleb128 0xe
 1102 01e2 16020000 		.4byte	.LASF44
 1103 01e6 BB000000 		.4byte	0xbb
 1104 01ea 02       		.byte	0x2
 1105 01eb 23       		.byte	0x23
 1106 01ec 00       		.uleb128 0
 1107 01ed 01       		.byte	0x1
 1108 01ee 00       		.byte	0
 1109 01ef 04       		.uleb128 0x4
 1110 01f0 07000000 		.4byte	.LASF25
 1111 01f4 06       		.byte	0x6
 1112 01f5 66       		.byte	0x66
 1113 01f6 CA010000 		.4byte	0x1ca
 1114 01fa 0A       		.uleb128 0xa
 1115 01fb 95010000 		.4byte	.LASF26
 1116 01ff 10       		.byte	0x10
 1117 0200 08       		.byte	0x8
 1118 0201 3D       		.byte	0x3d
 1119 0202 3F020000 		.4byte	0x23f
 1120 0206 0B       		.uleb128 0xb
 1121 0207 53010000 		.4byte	.LASF19
 1122 020b 08       		.byte	0x8
 1123 020c 3E       		.byte	0x3e
 1124 020d 5C010000 		.4byte	0x15c
 1125 0211 02       		.byte	0x2
 1126 0212 23       		.byte	0x23
 1127 0213 00       		.uleb128 0
 1128 0214 0B       		.uleb128 0xb
 1129 0215 2D020000 		.4byte	.LASF20
 1130 0219 08       		.byte	0x8
 1131 021a 3E       		.byte	0x3e
 1132 021b 7C010000 		.4byte	0x17c
 1133 021f 02       		.byte	0x2
 1134 0220 23       		.byte	0x23
 1135 0221 04       		.uleb128 0x4
 1136 0222 0C       		.uleb128 0xc
 1137 0223 70757400 		.ascii	"put\000"
 1138 0227 08       		.byte	0x8
 1139 0228 3E       		.byte	0x3e
ARM GAS  C:\Users\NICOMA~1\AppData\Local\Temp\ccd1FKNk.s 			page 21


 1140 0229 97010000 		.4byte	0x197
 1141 022d 02       		.byte	0x2
 1142 022e 23       		.byte	0x23
 1143 022f 08       		.uleb128 0x8
 1144 0230 0C       		.uleb128 0xc
 1145 0231 67657400 		.ascii	"get\000"
 1146 0235 08       		.byte	0x8
 1147 0236 3E       		.byte	0x3e
 1148 0237 CF000000 		.4byte	0xcf
 1149 023b 02       		.byte	0x2
 1150 023c 23       		.byte	0x23
 1151 023d 0C       		.uleb128 0xc
 1152 023e 00       		.byte	0
 1153 023f 0D       		.uleb128 0xd
 1154 0240 14       		.byte	0x14
 1155 0241 08       		.byte	0x8
 1156 0242 46       		.byte	0x46
 1157 0243 8E020000 		.4byte	0x28e
 1158 0247 0C       		.uleb128 0xc
 1159 0248 766D7400 		.ascii	"vmt\000"
 1160 024c 08       		.byte	0x8
 1161 024d 48       		.byte	0x48
 1162 024e 8E020000 		.4byte	0x28e
 1163 0252 02       		.byte	0x2
 1164 0253 23       		.byte	0x23
 1165 0254 00       		.uleb128 0
 1166 0255 0B       		.uleb128 0xb
 1167 0256 08020000 		.4byte	.LASF27
 1168 025a 08       		.byte	0x8
 1169 025b 49       		.byte	0x49
 1170 025c EC000000 		.4byte	0xec
 1171 0260 02       		.byte	0x2
 1172 0261 23       		.byte	0x23
 1173 0262 04       		.uleb128 0x4
 1174 0263 0B       		.uleb128 0xb
 1175 0264 23010000 		.4byte	.LASF28
 1176 0268 08       		.byte	0x8
 1177 0269 49       		.byte	0x49
 1178 026a 3E000000 		.4byte	0x3e
 1179 026e 02       		.byte	0x2
 1180 026f 23       		.byte	0x23
 1181 0270 08       		.uleb128 0x8
 1182 0271 0C       		.uleb128 0xc
 1183 0272 656F7300 		.ascii	"eos\000"
 1184 0276 08       		.byte	0x8
 1185 0277 49       		.byte	0x49
 1186 0278 3E000000 		.4byte	0x3e
 1187 027c 02       		.byte	0x2
 1188 027d 23       		.byte	0x23
 1189 027e 0C       		.uleb128 0xc
 1190 027f 0B       		.uleb128 0xb
 1191 0280 0F020000 		.4byte	.LASF29
 1192 0284 08       		.byte	0x8
 1193 0285 49       		.byte	0x49
 1194 0286 3E000000 		.4byte	0x3e
 1195 028a 02       		.byte	0x2
 1196 028b 23       		.byte	0x23
ARM GAS  C:\Users\NICOMA~1\AppData\Local\Temp\ccd1FKNk.s 			page 22


 1197 028c 10       		.uleb128 0x10
 1198 028d 00       		.byte	0
 1199 028e 06       		.uleb128 0x6
 1200 028f 04       		.byte	0x4
 1201 0290 94020000 		.4byte	0x294
 1202 0294 07       		.uleb128 0x7
 1203 0295 FA010000 		.4byte	0x1fa
 1204 0299 04       		.uleb128 0x4
 1205 029a A8010000 		.4byte	.LASF30
 1206 029e 08       		.byte	0x8
 1207 029f 4A       		.byte	0x4a
 1208 02a0 3F020000 		.4byte	0x23f
 1209 02a4 0F       		.uleb128 0xf
 1210 02a5 32020000 		.4byte	.LASF45
 1211 02a9 01       		.byte	0x1
 1212 02aa 25       		.byte	0x25
 1213 02ab 01       		.byte	0x1
 1214 02ac 31030000 		.4byte	0x331
 1215 02b0 00000000 		.4byte	.LFB8
 1216 02b4 94000000 		.4byte	.LFE8
 1217 02b8 00000000 		.4byte	.LLST0
 1218 02bc 01       		.byte	0x1
 1219 02bd 31030000 		.4byte	0x331
 1220 02c1 10       		.uleb128 0x10
 1221 02c2 7000     		.ascii	"p\000"
 1222 02c4 01       		.byte	0x1
 1223 02c5 25       		.byte	0x25
 1224 02c6 31030000 		.4byte	0x331
 1225 02ca 20000000 		.4byte	.LLST1
 1226 02ce 10       		.uleb128 0x10
 1227 02cf 6E756D00 		.ascii	"num\000"
 1228 02d3 01       		.byte	0x1
 1229 02d4 26       		.byte	0x26
 1230 02d5 82000000 		.4byte	0x82
 1231 02d9 3E000000 		.4byte	.LLST2
 1232 02dd 11       		.uleb128 0x11
 1233 02de F3010000 		.4byte	.LASF31
 1234 02e2 01       		.byte	0x1
 1235 02e3 27       		.byte	0x27
 1236 02e4 49000000 		.4byte	0x49
 1237 02e8 5F000000 		.4byte	.LLST3
 1238 02ec 11       		.uleb128 0x11
 1239 02ed 72010000 		.4byte	.LASF32
 1240 02f1 01       		.byte	0x1
 1241 02f2 28       		.byte	0x28
 1242 02f3 82000000 		.4byte	0x82
 1243 02f7 7D000000 		.4byte	.LLST4
 1244 02fb 12       		.uleb128 0x12
 1245 02fc 6900     		.ascii	"i\000"
 1246 02fe 01       		.byte	0x1
 1247 02ff 29       		.byte	0x29
 1248 0300 37000000 		.4byte	0x37
 1249 0304 9E000000 		.4byte	.LLST5
 1250 0308 12       		.uleb128 0x12
 1251 0309 7100     		.ascii	"q\000"
 1252 030b 01       		.byte	0x1
 1253 030c 2A       		.byte	0x2a
ARM GAS  C:\Users\NICOMA~1\AppData\Local\Temp\ccd1FKNk.s 			page 23


 1254 030d 31030000 		.4byte	0x331
 1255 0311 E9000000 		.4byte	.LLST6
 1256 0315 12       		.uleb128 0x12
 1257 0316 6C00     		.ascii	"l\000"
 1258 0318 01       		.byte	0x1
 1259 0319 2B       		.byte	0x2b
 1260 031a 82000000 		.4byte	0x82
 1261 031e 12010000 		.4byte	.LLST7
 1262 0322 12       		.uleb128 0x12
 1263 0323 6C6C00   		.ascii	"ll\000"
 1264 0326 01       		.byte	0x1
 1265 0327 2B       		.byte	0x2b
 1266 0328 82000000 		.4byte	0x82
 1267 032c 46010000 		.4byte	.LLST8
 1268 0330 00       		.byte	0
 1269 0331 06       		.uleb128 0x6
 1270 0332 04       		.byte	0x4
 1271 0333 C8000000 		.4byte	0xc8
 1272 0337 13       		.uleb128 0x13
 1273 0338 41010000 		.4byte	.LASF33
 1274 033c 01       		.byte	0x1
 1275 033d 46       		.byte	0x46
 1276 033e 01       		.byte	0x1
 1277 033f 31030000 		.4byte	0x331
 1278 0343 01       		.byte	0x1
 1279 0344 68030000 		.4byte	0x368
 1280 0348 14       		.uleb128 0x14
 1281 0349 7000     		.ascii	"p\000"
 1282 034b 01       		.byte	0x1
 1283 034c 46       		.byte	0x46
 1284 034d 31030000 		.4byte	0x331
 1285 0351 14       		.uleb128 0x14
 1286 0352 6E756D00 		.ascii	"num\000"
 1287 0356 01       		.byte	0x1
 1288 0357 46       		.byte	0x46
 1289 0358 82000000 		.4byte	0x82
 1290 035c 15       		.uleb128 0x15
 1291 035d F3010000 		.4byte	.LASF31
 1292 0361 01       		.byte	0x1
 1293 0362 46       		.byte	0x46
 1294 0363 49000000 		.4byte	0x49
 1295 0367 00       		.byte	0
 1296 0368 13       		.uleb128 0x13
 1297 0369 0F000000 		.4byte	.LASF34
 1298 036d 01       		.byte	0x1
 1299 036e 4C       		.byte	0x4c
 1300 036f 01       		.byte	0x1
 1301 0370 31030000 		.4byte	0x331
 1302 0374 01       		.byte	0x1
 1303 0375 A2030000 		.4byte	0x3a2
 1304 0379 14       		.uleb128 0x14
 1305 037a 7000     		.ascii	"p\000"
 1306 037c 01       		.byte	0x1
 1307 037d 4C       		.byte	0x4c
 1308 037e 31030000 		.4byte	0x331
 1309 0382 14       		.uleb128 0x14
 1310 0383 6E756D00 		.ascii	"num\000"
ARM GAS  C:\Users\NICOMA~1\AppData\Local\Temp\ccd1FKNk.s 			page 24


 1311 0387 01       		.byte	0x1
 1312 0388 4C       		.byte	0x4c
 1313 0389 29000000 		.4byte	0x29
 1314 038d 16       		.uleb128 0x16
 1315 038e 6C00     		.ascii	"l\000"
 1316 0390 01       		.byte	0x1
 1317 0391 4D       		.byte	0x4d
 1318 0392 82000000 		.4byte	0x82
 1319 0396 17       		.uleb128 0x17
 1320 0397 FE010000 		.4byte	.LASF35
 1321 039b 01       		.byte	0x1
 1322 039c 4E       		.byte	0x4e
 1323 039d 89000000 		.4byte	0x89
 1324 03a1 00       		.byte	0
 1325 03a2 18       		.uleb128 0x18
 1326 03a3 01       		.byte	0x1
 1327 03a4 23020000 		.4byte	.LASF46
 1328 03a8 01       		.byte	0x1
 1329 03a9 70       		.byte	0x70
 1330 03aa 01       		.byte	0x1
 1331 03ab 00000000 		.4byte	.LFB11
 1332 03af E4040000 		.4byte	.LFE11
 1333 03b3 6F010000 		.4byte	.LLST9
 1334 03b7 01       		.byte	0x1
 1335 03b8 C4050000 		.4byte	0x5c4
 1336 03bc 10       		.uleb128 0x10
 1337 03bd 63687000 		.ascii	"chp\000"
 1338 03c1 01       		.byte	0x1
 1339 03c2 70       		.byte	0x70
 1340 03c3 C4050000 		.4byte	0x5c4
 1341 03c7 9C010000 		.4byte	.LLST10
 1342 03cb 10       		.uleb128 0x10
 1343 03cc 666D7400 		.ascii	"fmt\000"
 1344 03d0 01       		.byte	0x1
 1345 03d1 70       		.byte	0x70
 1346 03d2 BD000000 		.4byte	0xbd
 1347 03d6 BA010000 		.4byte	.LLST11
 1348 03da 10       		.uleb128 0x10
 1349 03db 617000   		.ascii	"ap\000"
 1350 03de 01       		.byte	0x1
 1351 03df 70       		.byte	0x70
 1352 03e0 EF010000 		.4byte	0x1ef
 1353 03e4 53020000 		.4byte	.LLST12
 1354 03e8 12       		.uleb128 0x12
 1355 03e9 7000     		.ascii	"p\000"
 1356 03eb 01       		.byte	0x1
 1357 03ec 71       		.byte	0x71
 1358 03ed 31030000 		.4byte	0x331
 1359 03f1 42030000 		.4byte	.LLST13
 1360 03f5 12       		.uleb128 0x12
 1361 03f6 7300     		.ascii	"s\000"
 1362 03f8 01       		.byte	0x1
 1363 03f9 71       		.byte	0x71
 1364 03fa 31030000 		.4byte	0x331
 1365 03fe 24040000 		.4byte	.LLST14
 1366 0402 12       		.uleb128 0x12
 1367 0403 6300     		.ascii	"c\000"
ARM GAS  C:\Users\NICOMA~1\AppData\Local\Temp\ccd1FKNk.s 			page 25


 1368 0405 01       		.byte	0x1
 1369 0406 71       		.byte	0x71
 1370 0407 C8000000 		.4byte	0xc8
 1371 040b 8C040000 		.4byte	.LLST15
 1372 040f 19       		.uleb128 0x19
 1373 0410 CF000000 		.4byte	.LASF36
 1374 0414 01       		.byte	0x1
 1375 0415 71       		.byte	0x71
 1376 0416 C8000000 		.4byte	0xc8
 1377 041a AF050000 		.4byte	.LLST16
 1378 041e 12       		.uleb128 0x12
 1379 041f 6900     		.ascii	"i\000"
 1380 0421 01       		.byte	0x1
 1381 0422 72       		.byte	0x72
 1382 0423 37000000 		.4byte	0x37
 1383 0427 17060000 		.4byte	.LLST17
 1384 042b 19       		.uleb128 0x19
 1385 042c FE010000 		.4byte	.LASF35
 1386 0430 01       		.byte	0x1
 1387 0431 72       		.byte	0x72
 1388 0432 37000000 		.4byte	0x37
 1389 0436 4D060000 		.4byte	.LLST18
 1390 043a 19       		.uleb128 0x19
 1391 043b 1D010000 		.4byte	.LASF37
 1392 043f 01       		.byte	0x1
 1393 0440 72       		.byte	0x72
 1394 0441 37000000 		.4byte	0x37
 1395 0445 EC060000 		.4byte	.LLST19
 1396 0449 19       		.uleb128 0x19
 1397 044a D6000000 		.4byte	.LASF38
 1398 044e 01       		.byte	0x1
 1399 044f 73       		.byte	0x73
 1400 0450 9E000000 		.4byte	0x9e
 1401 0454 5C070000 		.4byte	.LLST20
 1402 0458 19       		.uleb128 0x19
 1403 0459 12010000 		.4byte	.LASF39
 1404 045d 01       		.byte	0x1
 1405 045e 73       		.byte	0x73
 1406 045f 9E000000 		.4byte	0x9e
 1407 0463 CA070000 		.4byte	.LLST21
 1408 0467 12       		.uleb128 0x12
 1409 0468 6C00     		.ascii	"l\000"
 1410 046a 01       		.byte	0x1
 1411 046b 74       		.byte	0x74
 1412 046c 82000000 		.4byte	0x82
 1413 0470 00080000 		.4byte	.LLST22
 1414 0474 12       		.uleb128 0x12
 1415 0475 6600     		.ascii	"f\000"
 1416 0477 01       		.byte	0x1
 1417 0478 76       		.byte	0x76
 1418 0479 30000000 		.4byte	0x30
 1419 047d 1E080000 		.4byte	.LLST23
 1420 0481 1A       		.uleb128 0x1a
 1421 0482 4C000000 		.4byte	.LASF40
 1422 0486 01       		.byte	0x1
 1423 0487 77       		.byte	0x77
 1424 0488 CA050000 		.4byte	0x5ca
ARM GAS  C:\Users\NICOMA~1\AppData\Local\Temp\ccd1FKNk.s 			page 26


 1425 048c 02       		.byte	0x2
 1426 048d 91       		.byte	0x91
 1427 048e 40       		.sleb128 -64
 1428 048f 1B       		.uleb128 0x1b
 1429 0490 62010000 		.4byte	.LASF47
 1430 0494 01       		.byte	0x1
 1431 0495 E4       		.byte	0xe4
 1432 0496 E0030000 		.4byte	.L30
 1433 049a 1C       		.uleb128 0x1c
 1434 049b 68030000 		.4byte	0x368
 1435 049f E0020000 		.4byte	.LBB8
 1436 04a3 00000000 		.4byte	.Ldebug_ranges0+0
 1437 04a7 01       		.byte	0x1
 1438 04a8 D6       		.byte	0xd6
 1439 04a9 0A050000 		.4byte	0x50a
 1440 04ad 1D       		.uleb128 0x1d
 1441 04ae 82030000 		.4byte	0x382
 1442 04b2 31080000 		.4byte	.LLST24
 1443 04b6 1E       		.uleb128 0x1e
 1444 04b7 79030000 		.4byte	0x379
 1445 04bb 1F       		.uleb128 0x1f
 1446 04bc 28000000 		.4byte	.Ldebug_ranges0+0x28
 1447 04c0 20       		.uleb128 0x20
 1448 04c1 8D030000 		.4byte	0x38d
 1449 04c5 21       		.uleb128 0x21
 1450 04c6 96030000 		.4byte	0x396
 1451 04ca 49080000 		.4byte	.LLST25
 1452 04ce 22       		.uleb128 0x22
 1453 04cf 10030000 		.4byte	.LVL76
 1454 04d3 A4020000 		.4byte	0x2a4
 1455 04d7 EC040000 		.4byte	0x4ec
 1456 04db 23       		.uleb128 0x23
 1457 04dc 01       		.byte	0x1
 1458 04dd 53       		.byte	0x53
 1459 04de 01       		.byte	0x1
 1460 04df 30       		.byte	0x30
 1461 04e0 23       		.uleb128 0x23
 1462 04e1 01       		.byte	0x1
 1463 04e2 52       		.byte	0x52
 1464 04e3 01       		.byte	0x1
 1465 04e4 3A       		.byte	0x3a
 1466 04e5 23       		.uleb128 0x23
 1467 04e6 01       		.byte	0x1
 1468 04e7 50       		.byte	0x50
 1469 04e8 02       		.byte	0x2
 1470 04e9 79       		.byte	0x79
 1471 04ea 00       		.sleb128 0
 1472 04eb 00       		.byte	0
 1473 04ec 24       		.uleb128 0x24
 1474 04ed 68030000 		.4byte	.LVL82
 1475 04f1 A4020000 		.4byte	0x2a4
 1476 04f5 23       		.uleb128 0x23
 1477 04f6 01       		.byte	0x1
 1478 04f7 53       		.byte	0x53
 1479 04f8 03       		.byte	0x3
 1480 04f9 0A       		.byte	0xa
 1481 04fa 1027     		.2byte	0x2710
ARM GAS  C:\Users\NICOMA~1\AppData\Local\Temp\ccd1FKNk.s 			page 27


 1482 04fc 23       		.uleb128 0x23
 1483 04fd 01       		.byte	0x1
 1484 04fe 52       		.byte	0x52
 1485 04ff 01       		.byte	0x1
 1486 0500 3A       		.byte	0x3a
 1487 0501 23       		.uleb128 0x23
 1488 0502 01       		.byte	0x1
 1489 0503 50       		.byte	0x50
 1490 0504 02       		.byte	0x2
 1491 0505 79       		.byte	0x79
 1492 0506 00       		.sleb128 0
 1493 0507 00       		.byte	0
 1494 0508 00       		.byte	0
 1495 0509 00       		.byte	0
 1496 050a 1C       		.uleb128 0x1c
 1497 050b 37030000 		.4byte	0x337
 1498 050f E4030000 		.4byte	.LBB16
 1499 0513 50000000 		.4byte	.Ldebug_ranges0+0x50
 1500 0517 01       		.byte	0x1
 1501 0518 E9       		.byte	0xe9
 1502 0519 3C050000 		.4byte	0x53c
 1503 051d 1E       		.uleb128 0x1e
 1504 051e 5C030000 		.4byte	0x35c
 1505 0522 1E       		.uleb128 0x1e
 1506 0523 51030000 		.4byte	0x351
 1507 0527 1E       		.uleb128 0x1e
 1508 0528 48030000 		.4byte	0x348
 1509 052c 24       		.uleb128 0x24
 1510 052d F4030000 		.4byte	.LVL101
 1511 0531 A4020000 		.4byte	0x2a4
 1512 0535 23       		.uleb128 0x23
 1513 0536 01       		.byte	0x1
 1514 0537 53       		.byte	0x53
 1515 0538 01       		.byte	0x1
 1516 0539 30       		.byte	0x30
 1517 053a 00       		.byte	0
 1518 053b 00       		.byte	0
 1519 053c 25       		.uleb128 0x25
 1520 053d 37030000 		.4byte	0x337
 1521 0541 18040000 		.4byte	.LBB20
 1522 0545 1C040000 		.4byte	.LBE20
 1523 0549 01       		.byte	0x1
 1524 054a CD       		.byte	0xcd
 1525 054b 6B050000 		.4byte	0x56b
 1526 054f 1D       		.uleb128 0x1d
 1527 0550 5C030000 		.4byte	0x35c
 1528 0554 61080000 		.4byte	.LLST26
 1529 0558 1D       		.uleb128 0x1d
 1530 0559 51030000 		.4byte	0x351
 1531 055d 75080000 		.4byte	.LLST27
 1532 0561 1D       		.uleb128 0x1d
 1533 0562 48030000 		.4byte	0x348
 1534 0566 88080000 		.4byte	.LLST28
 1535 056a 00       		.byte	0
 1536 056b 26       		.uleb128 0x26
 1537 056c 60000000 		.4byte	.LVL27
 1538 0570 7B050000 		.4byte	0x57b
ARM GAS  C:\Users\NICOMA~1\AppData\Local\Temp\ccd1FKNk.s 			page 28


 1539 0574 23       		.uleb128 0x23
 1540 0575 01       		.byte	0x1
 1541 0576 50       		.byte	0x50
 1542 0577 02       		.byte	0x2
 1543 0578 75       		.byte	0x75
 1544 0579 00       		.sleb128 0
 1545 057a 00       		.byte	0
 1546 057b 26       		.uleb128 0x26
 1547 057c 88020000 		.4byte	.LVL65
 1548 0580 8B050000 		.4byte	0x58b
 1549 0584 23       		.uleb128 0x23
 1550 0585 01       		.byte	0x1
 1551 0586 50       		.byte	0x50
 1552 0587 02       		.byte	0x2
 1553 0588 75       		.byte	0x75
 1554 0589 00       		.sleb128 0
 1555 058a 00       		.byte	0
 1556 058b 26       		.uleb128 0x26
 1557 058c AC020000 		.4byte	.LVL67
 1558 0590 A1050000 		.4byte	0x5a1
 1559 0594 23       		.uleb128 0x23
 1560 0595 01       		.byte	0x1
 1561 0596 51       		.byte	0x51
 1562 0597 02       		.byte	0x2
 1563 0598 78       		.byte	0x78
 1564 0599 00       		.sleb128 0
 1565 059a 23       		.uleb128 0x23
 1566 059b 01       		.byte	0x1
 1567 059c 50       		.byte	0x50
 1568 059d 02       		.byte	0x2
 1569 059e 75       		.byte	0x75
 1570 059f 00       		.sleb128 0
 1571 05a0 00       		.byte	0
 1572 05a1 26       		.uleb128 0x26
 1573 05a2 B4030000 		.4byte	.LVL90
 1574 05a6 B7050000 		.4byte	0x5b7
 1575 05aa 23       		.uleb128 0x23
 1576 05ab 01       		.byte	0x1
 1577 05ac 51       		.byte	0x51
 1578 05ad 02       		.byte	0x2
 1579 05ae 78       		.byte	0x78
 1580 05af 00       		.sleb128 0
 1581 05b0 23       		.uleb128 0x23
 1582 05b1 01       		.byte	0x1
 1583 05b2 50       		.byte	0x50
 1584 05b3 02       		.byte	0x2
 1585 05b4 75       		.byte	0x75
 1586 05b5 00       		.sleb128 0
 1587 05b6 00       		.byte	0
 1588 05b7 27       		.uleb128 0x27
 1589 05b8 B4040000 		.4byte	.LVL125
 1590 05bc 23       		.uleb128 0x23
 1591 05bd 01       		.byte	0x1
 1592 05be 50       		.byte	0x50
 1593 05bf 02       		.byte	0x2
 1594 05c0 75       		.byte	0x75
 1595 05c1 00       		.sleb128 0
ARM GAS  C:\Users\NICOMA~1\AppData\Local\Temp\ccd1FKNk.s 			page 29


 1596 05c2 00       		.byte	0
 1597 05c3 00       		.byte	0
 1598 05c4 06       		.uleb128 0x6
 1599 05c5 04       		.byte	0x4
 1600 05c6 BF010000 		.4byte	0x1bf
 1601 05ca 28       		.uleb128 0x28
 1602 05cb C8000000 		.4byte	0xc8
 1603 05cf DA050000 		.4byte	0x5da
 1604 05d3 29       		.uleb128 0x29
 1605 05d4 E5000000 		.4byte	0xe5
 1606 05d8 16       		.byte	0x16
 1607 05d9 00       		.byte	0
 1608 05da 2A       		.uleb128 0x2a
 1609 05db 01       		.byte	0x1
 1610 05dc 5C000000 		.4byte	.LASF48
 1611 05e0 01       		.byte	0x1
 1612 05e1 2001     		.2byte	0x120
 1613 05e3 01       		.byte	0x1
 1614 05e4 37000000 		.4byte	0x37
 1615 05e8 00000000 		.4byte	.LFB12
 1616 05ec 68000000 		.4byte	.LFE12
 1617 05f0 9B080000 		.4byte	.LLST29
 1618 05f4 01       		.byte	0x1
 1619 05f5 AF060000 		.4byte	0x6af
 1620 05f9 2B       		.uleb128 0x2b
 1621 05fa 73747200 		.ascii	"str\000"
 1622 05fe 01       		.byte	0x1
 1623 05ff 2001     		.2byte	0x120
 1624 0601 31030000 		.4byte	0x331
 1625 0605 D3080000 		.4byte	.LLST30
 1626 0609 2C       		.uleb128 0x2c
 1627 060a 23010000 		.4byte	.LASF28
 1628 060e 01       		.byte	0x1
 1629 060f 2001     		.2byte	0x120
 1630 0611 3E000000 		.4byte	0x3e
 1631 0615 FF080000 		.4byte	.LLST31
 1632 0619 2D       		.uleb128 0x2d
 1633 061a 666D7400 		.ascii	"fmt\000"
 1634 061e 01       		.byte	0x1
 1635 061f 2001     		.2byte	0x120
 1636 0621 BD000000 		.4byte	0xbd
 1637 0625 02       		.byte	0x2
 1638 0626 91       		.byte	0x91
 1639 0627 78       		.sleb128 -8
 1640 0628 2E       		.uleb128 0x2e
 1641 0629 2F       		.uleb128 0x2f
 1642 062a 617000   		.ascii	"ap\000"
 1643 062d 01       		.byte	0x1
 1644 062e 2101     		.2byte	0x121
 1645 0630 EF010000 		.4byte	0x1ef
 1646 0634 02       		.byte	0x2
 1647 0635 91       		.byte	0x91
 1648 0636 58       		.sleb128 -40
 1649 0637 2F       		.uleb128 0x2f
 1650 0638 6D7300   		.ascii	"ms\000"
 1651 063b 01       		.byte	0x1
 1652 063c 2201     		.2byte	0x122
ARM GAS  C:\Users\NICOMA~1\AppData\Local\Temp\ccd1FKNk.s 			page 30


 1653 063e 99020000 		.4byte	0x299
 1654 0642 02       		.byte	0x2
 1655 0643 91       		.byte	0x91
 1656 0644 5C       		.sleb128 -36
 1657 0645 30       		.uleb128 0x30
 1658 0646 63687000 		.ascii	"chp\000"
 1659 064a 01       		.byte	0x1
 1660 064b 2301     		.2byte	0x123
 1661 064d C4050000 		.4byte	0x5c4
 1662 0651 2B090000 		.4byte	.LLST32
 1663 0655 22       		.uleb128 0x22
 1664 0656 24000000 		.4byte	.LVL133
 1665 065a AF060000 		.4byte	0x6af
 1666 065e 7C060000 		.4byte	0x67c
 1667 0662 23       		.uleb128 0x23
 1668 0663 01       		.byte	0x1
 1669 0664 53       		.byte	0x53
 1670 0665 01       		.byte	0x1
 1671 0666 30       		.byte	0x30
 1672 0667 23       		.uleb128 0x23
 1673 0668 01       		.byte	0x1
 1674 0669 52       		.byte	0x52
 1675 066a 03       		.byte	0x3
 1676 066b F3       		.byte	0xf3
 1677 066c 01       		.uleb128 0x1
 1678 066d 51       		.byte	0x51
 1679 066e 23       		.uleb128 0x23
 1680 066f 01       		.byte	0x1
 1681 0670 51       		.byte	0x51
 1682 0671 03       		.byte	0x3
 1683 0672 F3       		.byte	0xf3
 1684 0673 01       		.uleb128 0x1
 1685 0674 50       		.byte	0x50
 1686 0675 23       		.uleb128 0x23
 1687 0676 01       		.byte	0x1
 1688 0677 50       		.byte	0x50
 1689 0678 02       		.byte	0x2
 1690 0679 91       		.byte	0x91
 1691 067a 44       		.sleb128 -60
 1692 067b 00       		.byte	0
 1693 067c 22       		.uleb128 0x22
 1694 067d 3C000000 		.4byte	.LVL135
 1695 0681 A2030000 		.4byte	0x3a2
 1696 0685 9D060000 		.4byte	0x69d
 1697 0689 23       		.uleb128 0x23
 1698 068a 01       		.byte	0x1
 1699 068b 52       		.byte	0x52
 1700 068c 02       		.byte	0x2
 1701 068d 91       		.byte	0x91
 1702 068e 64       		.sleb128 -28
 1703 068f 23       		.uleb128 0x23
 1704 0690 01       		.byte	0x1
 1705 0691 51       		.byte	0x51
 1706 0692 03       		.byte	0x3
 1707 0693 91       		.byte	0x91
 1708 0694 60       		.sleb128 -32
 1709 0695 06       		.byte	0x6
ARM GAS  C:\Users\NICOMA~1\AppData\Local\Temp\ccd1FKNk.s 			page 31


 1710 0696 23       		.uleb128 0x23
 1711 0697 01       		.byte	0x1
 1712 0698 50       		.byte	0x50
 1713 0699 02       		.byte	0x2
 1714 069a 91       		.byte	0x91
 1715 069b 44       		.sleb128 -60
 1716 069c 00       		.byte	0
 1717 069d 27       		.uleb128 0x27
 1718 069e 50000000 		.4byte	.LVL137
 1719 06a2 23       		.uleb128 0x23
 1720 06a3 01       		.byte	0x1
 1721 06a4 51       		.byte	0x51
 1722 06a5 01       		.byte	0x1
 1723 06a6 30       		.byte	0x30
 1724 06a7 23       		.uleb128 0x23
 1725 06a8 01       		.byte	0x1
 1726 06a9 50       		.byte	0x50
 1727 06aa 02       		.byte	0x2
 1728 06ab 91       		.byte	0x91
 1729 06ac 44       		.sleb128 -60
 1730 06ad 00       		.byte	0
 1731 06ae 00       		.byte	0
 1732 06af 31       		.uleb128 0x31
 1733 06b0 01       		.byte	0x1
 1734 06b1 46010000 		.4byte	.LASF49
 1735 06b5 08       		.byte	0x8
 1736 06b6 57       		.byte	0x57
 1737 06b7 01       		.byte	0x1
 1738 06b8 01       		.byte	0x1
 1739 06b9 D2060000 		.4byte	0x6d2
 1740 06bd 09       		.uleb128 0x9
 1741 06be D2060000 		.4byte	0x6d2
 1742 06c2 09       		.uleb128 0x9
 1743 06c3 EC000000 		.4byte	0xec
 1744 06c7 09       		.uleb128 0x9
 1745 06c8 3E000000 		.4byte	0x3e
 1746 06cc 09       		.uleb128 0x9
 1747 06cd 3E000000 		.4byte	0x3e
 1748 06d1 00       		.byte	0
 1749 06d2 06       		.uleb128 0x6
 1750 06d3 04       		.byte	0x4
 1751 06d4 99020000 		.4byte	0x299
 1752 06d8 00       		.byte	0
 1753              		.section	.debug_abbrev,"",%progbits
 1754              	.Ldebug_abbrev0:
 1755 0000 01       		.uleb128 0x1
 1756 0001 11       		.uleb128 0x11
 1757 0002 01       		.byte	0x1
 1758 0003 25       		.uleb128 0x25
 1759 0004 0E       		.uleb128 0xe
 1760 0005 13       		.uleb128 0x13
 1761 0006 0B       		.uleb128 0xb
 1762 0007 03       		.uleb128 0x3
 1763 0008 0E       		.uleb128 0xe
 1764 0009 1B       		.uleb128 0x1b
 1765 000a 0E       		.uleb128 0xe
 1766 000b 55       		.uleb128 0x55
ARM GAS  C:\Users\NICOMA~1\AppData\Local\Temp\ccd1FKNk.s 			page 32


 1767 000c 06       		.uleb128 0x6
 1768 000d 11       		.uleb128 0x11
 1769 000e 01       		.uleb128 0x1
 1770 000f 52       		.uleb128 0x52
 1771 0010 01       		.uleb128 0x1
 1772 0011 10       		.uleb128 0x10
 1773 0012 06       		.uleb128 0x6
 1774 0013 00       		.byte	0
 1775 0014 00       		.byte	0
 1776 0015 02       		.uleb128 0x2
 1777 0016 24       		.uleb128 0x24
 1778 0017 00       		.byte	0
 1779 0018 0B       		.uleb128 0xb
 1780 0019 0B       		.uleb128 0xb
 1781 001a 3E       		.uleb128 0x3e
 1782 001b 0B       		.uleb128 0xb
 1783 001c 03       		.uleb128 0x3
 1784 001d 0E       		.uleb128 0xe
 1785 001e 00       		.byte	0
 1786 001f 00       		.byte	0
 1787 0020 03       		.uleb128 0x3
 1788 0021 24       		.uleb128 0x24
 1789 0022 00       		.byte	0
 1790 0023 0B       		.uleb128 0xb
 1791 0024 0B       		.uleb128 0xb
 1792 0025 3E       		.uleb128 0x3e
 1793 0026 0B       		.uleb128 0xb
 1794 0027 03       		.uleb128 0x3
 1795 0028 08       		.uleb128 0x8
 1796 0029 00       		.byte	0
 1797 002a 00       		.byte	0
 1798 002b 04       		.uleb128 0x4
 1799 002c 16       		.uleb128 0x16
 1800 002d 00       		.byte	0
 1801 002e 03       		.uleb128 0x3
 1802 002f 0E       		.uleb128 0xe
 1803 0030 3A       		.uleb128 0x3a
 1804 0031 0B       		.uleb128 0xb
 1805 0032 3B       		.uleb128 0x3b
 1806 0033 0B       		.uleb128 0xb
 1807 0034 49       		.uleb128 0x49
 1808 0035 13       		.uleb128 0x13
 1809 0036 00       		.byte	0
 1810 0037 00       		.byte	0
 1811 0038 05       		.uleb128 0x5
 1812 0039 0F       		.uleb128 0xf
 1813 003a 00       		.byte	0
 1814 003b 0B       		.uleb128 0xb
 1815 003c 0B       		.uleb128 0xb
 1816 003d 00       		.byte	0
 1817 003e 00       		.byte	0
 1818 003f 06       		.uleb128 0x6
 1819 0040 0F       		.uleb128 0xf
 1820 0041 00       		.byte	0
 1821 0042 0B       		.uleb128 0xb
 1822 0043 0B       		.uleb128 0xb
 1823 0044 49       		.uleb128 0x49
ARM GAS  C:\Users\NICOMA~1\AppData\Local\Temp\ccd1FKNk.s 			page 33


 1824 0045 13       		.uleb128 0x13
 1825 0046 00       		.byte	0
 1826 0047 00       		.byte	0
 1827 0048 07       		.uleb128 0x7
 1828 0049 26       		.uleb128 0x26
 1829 004a 00       		.byte	0
 1830 004b 49       		.uleb128 0x49
 1831 004c 13       		.uleb128 0x13
 1832 004d 00       		.byte	0
 1833 004e 00       		.byte	0
 1834 004f 08       		.uleb128 0x8
 1835 0050 15       		.uleb128 0x15
 1836 0051 01       		.byte	0x1
 1837 0052 27       		.uleb128 0x27
 1838 0053 0C       		.uleb128 0xc
 1839 0054 49       		.uleb128 0x49
 1840 0055 13       		.uleb128 0x13
 1841 0056 01       		.uleb128 0x1
 1842 0057 13       		.uleb128 0x13
 1843 0058 00       		.byte	0
 1844 0059 00       		.byte	0
 1845 005a 09       		.uleb128 0x9
 1846 005b 05       		.uleb128 0x5
 1847 005c 00       		.byte	0
 1848 005d 49       		.uleb128 0x49
 1849 005e 13       		.uleb128 0x13
 1850 005f 00       		.byte	0
 1851 0060 00       		.byte	0
 1852 0061 0A       		.uleb128 0xa
 1853 0062 13       		.uleb128 0x13
 1854 0063 01       		.byte	0x1
 1855 0064 03       		.uleb128 0x3
 1856 0065 0E       		.uleb128 0xe
 1857 0066 0B       		.uleb128 0xb
 1858 0067 0B       		.uleb128 0xb
 1859 0068 3A       		.uleb128 0x3a
 1860 0069 0B       		.uleb128 0xb
 1861 006a 3B       		.uleb128 0x3b
 1862 006b 0B       		.uleb128 0xb
 1863 006c 01       		.uleb128 0x1
 1864 006d 13       		.uleb128 0x13
 1865 006e 00       		.byte	0
 1866 006f 00       		.byte	0
 1867 0070 0B       		.uleb128 0xb
 1868 0071 0D       		.uleb128 0xd
 1869 0072 00       		.byte	0
 1870 0073 03       		.uleb128 0x3
 1871 0074 0E       		.uleb128 0xe
 1872 0075 3A       		.uleb128 0x3a
 1873 0076 0B       		.uleb128 0xb
 1874 0077 3B       		.uleb128 0x3b
 1875 0078 0B       		.uleb128 0xb
 1876 0079 49       		.uleb128 0x49
 1877 007a 13       		.uleb128 0x13
 1878 007b 38       		.uleb128 0x38
 1879 007c 0A       		.uleb128 0xa
 1880 007d 00       		.byte	0
ARM GAS  C:\Users\NICOMA~1\AppData\Local\Temp\ccd1FKNk.s 			page 34


 1881 007e 00       		.byte	0
 1882 007f 0C       		.uleb128 0xc
 1883 0080 0D       		.uleb128 0xd
 1884 0081 00       		.byte	0
 1885 0082 03       		.uleb128 0x3
 1886 0083 08       		.uleb128 0x8
 1887 0084 3A       		.uleb128 0x3a
 1888 0085 0B       		.uleb128 0xb
 1889 0086 3B       		.uleb128 0x3b
 1890 0087 0B       		.uleb128 0xb
 1891 0088 49       		.uleb128 0x49
 1892 0089 13       		.uleb128 0x13
 1893 008a 38       		.uleb128 0x38
 1894 008b 0A       		.uleb128 0xa
 1895 008c 00       		.byte	0
 1896 008d 00       		.byte	0
 1897 008e 0D       		.uleb128 0xd
 1898 008f 13       		.uleb128 0x13
 1899 0090 01       		.byte	0x1
 1900 0091 0B       		.uleb128 0xb
 1901 0092 0B       		.uleb128 0xb
 1902 0093 3A       		.uleb128 0x3a
 1903 0094 0B       		.uleb128 0xb
 1904 0095 3B       		.uleb128 0x3b
 1905 0096 0B       		.uleb128 0xb
 1906 0097 01       		.uleb128 0x1
 1907 0098 13       		.uleb128 0x13
 1908 0099 00       		.byte	0
 1909 009a 00       		.byte	0
 1910 009b 0E       		.uleb128 0xe
 1911 009c 0D       		.uleb128 0xd
 1912 009d 00       		.byte	0
 1913 009e 03       		.uleb128 0x3
 1914 009f 0E       		.uleb128 0xe
 1915 00a0 49       		.uleb128 0x49
 1916 00a1 13       		.uleb128 0x13
 1917 00a2 38       		.uleb128 0x38
 1918 00a3 0A       		.uleb128 0xa
 1919 00a4 34       		.uleb128 0x34
 1920 00a5 0C       		.uleb128 0xc
 1921 00a6 00       		.byte	0
 1922 00a7 00       		.byte	0
 1923 00a8 0F       		.uleb128 0xf
 1924 00a9 2E       		.uleb128 0x2e
 1925 00aa 01       		.byte	0x1
 1926 00ab 03       		.uleb128 0x3
 1927 00ac 0E       		.uleb128 0xe
 1928 00ad 3A       		.uleb128 0x3a
 1929 00ae 0B       		.uleb128 0xb
 1930 00af 3B       		.uleb128 0x3b
 1931 00b0 0B       		.uleb128 0xb
 1932 00b1 27       		.uleb128 0x27
 1933 00b2 0C       		.uleb128 0xc
 1934 00b3 49       		.uleb128 0x49
 1935 00b4 13       		.uleb128 0x13
 1936 00b5 11       		.uleb128 0x11
 1937 00b6 01       		.uleb128 0x1
ARM GAS  C:\Users\NICOMA~1\AppData\Local\Temp\ccd1FKNk.s 			page 35


 1938 00b7 12       		.uleb128 0x12
 1939 00b8 01       		.uleb128 0x1
 1940 00b9 40       		.uleb128 0x40
 1941 00ba 06       		.uleb128 0x6
 1942 00bb 9642     		.uleb128 0x2116
 1943 00bd 0C       		.uleb128 0xc
 1944 00be 01       		.uleb128 0x1
 1945 00bf 13       		.uleb128 0x13
 1946 00c0 00       		.byte	0
 1947 00c1 00       		.byte	0
 1948 00c2 10       		.uleb128 0x10
 1949 00c3 05       		.uleb128 0x5
 1950 00c4 00       		.byte	0
 1951 00c5 03       		.uleb128 0x3
 1952 00c6 08       		.uleb128 0x8
 1953 00c7 3A       		.uleb128 0x3a
 1954 00c8 0B       		.uleb128 0xb
 1955 00c9 3B       		.uleb128 0x3b
 1956 00ca 0B       		.uleb128 0xb
 1957 00cb 49       		.uleb128 0x49
 1958 00cc 13       		.uleb128 0x13
 1959 00cd 02       		.uleb128 0x2
 1960 00ce 06       		.uleb128 0x6
 1961 00cf 00       		.byte	0
 1962 00d0 00       		.byte	0
 1963 00d1 11       		.uleb128 0x11
 1964 00d2 05       		.uleb128 0x5
 1965 00d3 00       		.byte	0
 1966 00d4 03       		.uleb128 0x3
 1967 00d5 0E       		.uleb128 0xe
 1968 00d6 3A       		.uleb128 0x3a
 1969 00d7 0B       		.uleb128 0xb
 1970 00d8 3B       		.uleb128 0x3b
 1971 00d9 0B       		.uleb128 0xb
 1972 00da 49       		.uleb128 0x49
 1973 00db 13       		.uleb128 0x13
 1974 00dc 02       		.uleb128 0x2
 1975 00dd 06       		.uleb128 0x6
 1976 00de 00       		.byte	0
 1977 00df 00       		.byte	0
 1978 00e0 12       		.uleb128 0x12
 1979 00e1 34       		.uleb128 0x34
 1980 00e2 00       		.byte	0
 1981 00e3 03       		.uleb128 0x3
 1982 00e4 08       		.uleb128 0x8
 1983 00e5 3A       		.uleb128 0x3a
 1984 00e6 0B       		.uleb128 0xb
 1985 00e7 3B       		.uleb128 0x3b
 1986 00e8 0B       		.uleb128 0xb
 1987 00e9 49       		.uleb128 0x49
 1988 00ea 13       		.uleb128 0x13
 1989 00eb 02       		.uleb128 0x2
 1990 00ec 06       		.uleb128 0x6
 1991 00ed 00       		.byte	0
 1992 00ee 00       		.byte	0
 1993 00ef 13       		.uleb128 0x13
 1994 00f0 2E       		.uleb128 0x2e
ARM GAS  C:\Users\NICOMA~1\AppData\Local\Temp\ccd1FKNk.s 			page 36


 1995 00f1 01       		.byte	0x1
 1996 00f2 03       		.uleb128 0x3
 1997 00f3 0E       		.uleb128 0xe
 1998 00f4 3A       		.uleb128 0x3a
 1999 00f5 0B       		.uleb128 0xb
 2000 00f6 3B       		.uleb128 0x3b
 2001 00f7 0B       		.uleb128 0xb
 2002 00f8 27       		.uleb128 0x27
 2003 00f9 0C       		.uleb128 0xc
 2004 00fa 49       		.uleb128 0x49
 2005 00fb 13       		.uleb128 0x13
 2006 00fc 20       		.uleb128 0x20
 2007 00fd 0B       		.uleb128 0xb
 2008 00fe 01       		.uleb128 0x1
 2009 00ff 13       		.uleb128 0x13
 2010 0100 00       		.byte	0
 2011 0101 00       		.byte	0
 2012 0102 14       		.uleb128 0x14
 2013 0103 05       		.uleb128 0x5
 2014 0104 00       		.byte	0
 2015 0105 03       		.uleb128 0x3
 2016 0106 08       		.uleb128 0x8
 2017 0107 3A       		.uleb128 0x3a
 2018 0108 0B       		.uleb128 0xb
 2019 0109 3B       		.uleb128 0x3b
 2020 010a 0B       		.uleb128 0xb
 2021 010b 49       		.uleb128 0x49
 2022 010c 13       		.uleb128 0x13
 2023 010d 00       		.byte	0
 2024 010e 00       		.byte	0
 2025 010f 15       		.uleb128 0x15
 2026 0110 05       		.uleb128 0x5
 2027 0111 00       		.byte	0
 2028 0112 03       		.uleb128 0x3
 2029 0113 0E       		.uleb128 0xe
 2030 0114 3A       		.uleb128 0x3a
 2031 0115 0B       		.uleb128 0xb
 2032 0116 3B       		.uleb128 0x3b
 2033 0117 0B       		.uleb128 0xb
 2034 0118 49       		.uleb128 0x49
 2035 0119 13       		.uleb128 0x13
 2036 011a 00       		.byte	0
 2037 011b 00       		.byte	0
 2038 011c 16       		.uleb128 0x16
 2039 011d 34       		.uleb128 0x34
 2040 011e 00       		.byte	0
 2041 011f 03       		.uleb128 0x3
 2042 0120 08       		.uleb128 0x8
 2043 0121 3A       		.uleb128 0x3a
 2044 0122 0B       		.uleb128 0xb
 2045 0123 3B       		.uleb128 0x3b
 2046 0124 0B       		.uleb128 0xb
 2047 0125 49       		.uleb128 0x49
 2048 0126 13       		.uleb128 0x13
 2049 0127 00       		.byte	0
 2050 0128 00       		.byte	0
 2051 0129 17       		.uleb128 0x17
ARM GAS  C:\Users\NICOMA~1\AppData\Local\Temp\ccd1FKNk.s 			page 37


 2052 012a 34       		.uleb128 0x34
 2053 012b 00       		.byte	0
 2054 012c 03       		.uleb128 0x3
 2055 012d 0E       		.uleb128 0xe
 2056 012e 3A       		.uleb128 0x3a
 2057 012f 0B       		.uleb128 0xb
 2058 0130 3B       		.uleb128 0x3b
 2059 0131 0B       		.uleb128 0xb
 2060 0132 49       		.uleb128 0x49
 2061 0133 13       		.uleb128 0x13
 2062 0134 00       		.byte	0
 2063 0135 00       		.byte	0
 2064 0136 18       		.uleb128 0x18
 2065 0137 2E       		.uleb128 0x2e
 2066 0138 01       		.byte	0x1
 2067 0139 3F       		.uleb128 0x3f
 2068 013a 0C       		.uleb128 0xc
 2069 013b 03       		.uleb128 0x3
 2070 013c 0E       		.uleb128 0xe
 2071 013d 3A       		.uleb128 0x3a
 2072 013e 0B       		.uleb128 0xb
 2073 013f 3B       		.uleb128 0x3b
 2074 0140 0B       		.uleb128 0xb
 2075 0141 27       		.uleb128 0x27
 2076 0142 0C       		.uleb128 0xc
 2077 0143 11       		.uleb128 0x11
 2078 0144 01       		.uleb128 0x1
 2079 0145 12       		.uleb128 0x12
 2080 0146 01       		.uleb128 0x1
 2081 0147 40       		.uleb128 0x40
 2082 0148 06       		.uleb128 0x6
 2083 0149 9642     		.uleb128 0x2116
 2084 014b 0C       		.uleb128 0xc
 2085 014c 01       		.uleb128 0x1
 2086 014d 13       		.uleb128 0x13
 2087 014e 00       		.byte	0
 2088 014f 00       		.byte	0
 2089 0150 19       		.uleb128 0x19
 2090 0151 34       		.uleb128 0x34
 2091 0152 00       		.byte	0
 2092 0153 03       		.uleb128 0x3
 2093 0154 0E       		.uleb128 0xe
 2094 0155 3A       		.uleb128 0x3a
 2095 0156 0B       		.uleb128 0xb
 2096 0157 3B       		.uleb128 0x3b
 2097 0158 0B       		.uleb128 0xb
 2098 0159 49       		.uleb128 0x49
 2099 015a 13       		.uleb128 0x13
 2100 015b 02       		.uleb128 0x2
 2101 015c 06       		.uleb128 0x6
 2102 015d 00       		.byte	0
 2103 015e 00       		.byte	0
 2104 015f 1A       		.uleb128 0x1a
 2105 0160 34       		.uleb128 0x34
 2106 0161 00       		.byte	0
 2107 0162 03       		.uleb128 0x3
 2108 0163 0E       		.uleb128 0xe
ARM GAS  C:\Users\NICOMA~1\AppData\Local\Temp\ccd1FKNk.s 			page 38


 2109 0164 3A       		.uleb128 0x3a
 2110 0165 0B       		.uleb128 0xb
 2111 0166 3B       		.uleb128 0x3b
 2112 0167 0B       		.uleb128 0xb
 2113 0168 49       		.uleb128 0x49
 2114 0169 13       		.uleb128 0x13
 2115 016a 02       		.uleb128 0x2
 2116 016b 0A       		.uleb128 0xa
 2117 016c 00       		.byte	0
 2118 016d 00       		.byte	0
 2119 016e 1B       		.uleb128 0x1b
 2120 016f 0A       		.uleb128 0xa
 2121 0170 00       		.byte	0
 2122 0171 03       		.uleb128 0x3
 2123 0172 0E       		.uleb128 0xe
 2124 0173 3A       		.uleb128 0x3a
 2125 0174 0B       		.uleb128 0xb
 2126 0175 3B       		.uleb128 0x3b
 2127 0176 0B       		.uleb128 0xb
 2128 0177 11       		.uleb128 0x11
 2129 0178 01       		.uleb128 0x1
 2130 0179 00       		.byte	0
 2131 017a 00       		.byte	0
 2132 017b 1C       		.uleb128 0x1c
 2133 017c 1D       		.uleb128 0x1d
 2134 017d 01       		.byte	0x1
 2135 017e 31       		.uleb128 0x31
 2136 017f 13       		.uleb128 0x13
 2137 0180 52       		.uleb128 0x52
 2138 0181 01       		.uleb128 0x1
 2139 0182 55       		.uleb128 0x55
 2140 0183 06       		.uleb128 0x6
 2141 0184 58       		.uleb128 0x58
 2142 0185 0B       		.uleb128 0xb
 2143 0186 59       		.uleb128 0x59
 2144 0187 0B       		.uleb128 0xb
 2145 0188 01       		.uleb128 0x1
 2146 0189 13       		.uleb128 0x13
 2147 018a 00       		.byte	0
 2148 018b 00       		.byte	0
 2149 018c 1D       		.uleb128 0x1d
 2150 018d 05       		.uleb128 0x5
 2151 018e 00       		.byte	0
 2152 018f 31       		.uleb128 0x31
 2153 0190 13       		.uleb128 0x13
 2154 0191 02       		.uleb128 0x2
 2155 0192 06       		.uleb128 0x6
 2156 0193 00       		.byte	0
 2157 0194 00       		.byte	0
 2158 0195 1E       		.uleb128 0x1e
 2159 0196 05       		.uleb128 0x5
 2160 0197 00       		.byte	0
 2161 0198 31       		.uleb128 0x31
 2162 0199 13       		.uleb128 0x13
 2163 019a 00       		.byte	0
 2164 019b 00       		.byte	0
 2165 019c 1F       		.uleb128 0x1f
ARM GAS  C:\Users\NICOMA~1\AppData\Local\Temp\ccd1FKNk.s 			page 39


 2166 019d 0B       		.uleb128 0xb
 2167 019e 01       		.byte	0x1
 2168 019f 55       		.uleb128 0x55
 2169 01a0 06       		.uleb128 0x6
 2170 01a1 00       		.byte	0
 2171 01a2 00       		.byte	0
 2172 01a3 20       		.uleb128 0x20
 2173 01a4 34       		.uleb128 0x34
 2174 01a5 00       		.byte	0
 2175 01a6 31       		.uleb128 0x31
 2176 01a7 13       		.uleb128 0x13
 2177 01a8 00       		.byte	0
 2178 01a9 00       		.byte	0
 2179 01aa 21       		.uleb128 0x21
 2180 01ab 34       		.uleb128 0x34
 2181 01ac 00       		.byte	0
 2182 01ad 31       		.uleb128 0x31
 2183 01ae 13       		.uleb128 0x13
 2184 01af 02       		.uleb128 0x2
 2185 01b0 06       		.uleb128 0x6
 2186 01b1 00       		.byte	0
 2187 01b2 00       		.byte	0
 2188 01b3 22       		.uleb128 0x22
 2189 01b4 898201   		.uleb128 0x4109
 2190 01b7 01       		.byte	0x1
 2191 01b8 11       		.uleb128 0x11
 2192 01b9 01       		.uleb128 0x1
 2193 01ba 31       		.uleb128 0x31
 2194 01bb 13       		.uleb128 0x13
 2195 01bc 01       		.uleb128 0x1
 2196 01bd 13       		.uleb128 0x13
 2197 01be 00       		.byte	0
 2198 01bf 00       		.byte	0
 2199 01c0 23       		.uleb128 0x23
 2200 01c1 8A8201   		.uleb128 0x410a
 2201 01c4 00       		.byte	0
 2202 01c5 02       		.uleb128 0x2
 2203 01c6 0A       		.uleb128 0xa
 2204 01c7 9142     		.uleb128 0x2111
 2205 01c9 0A       		.uleb128 0xa
 2206 01ca 00       		.byte	0
 2207 01cb 00       		.byte	0
 2208 01cc 24       		.uleb128 0x24
 2209 01cd 898201   		.uleb128 0x4109
 2210 01d0 01       		.byte	0x1
 2211 01d1 11       		.uleb128 0x11
 2212 01d2 01       		.uleb128 0x1
 2213 01d3 31       		.uleb128 0x31
 2214 01d4 13       		.uleb128 0x13
 2215 01d5 00       		.byte	0
 2216 01d6 00       		.byte	0
 2217 01d7 25       		.uleb128 0x25
 2218 01d8 1D       		.uleb128 0x1d
 2219 01d9 01       		.byte	0x1
 2220 01da 31       		.uleb128 0x31
 2221 01db 13       		.uleb128 0x13
 2222 01dc 11       		.uleb128 0x11
ARM GAS  C:\Users\NICOMA~1\AppData\Local\Temp\ccd1FKNk.s 			page 40


 2223 01dd 01       		.uleb128 0x1
 2224 01de 12       		.uleb128 0x12
 2225 01df 01       		.uleb128 0x1
 2226 01e0 58       		.uleb128 0x58
 2227 01e1 0B       		.uleb128 0xb
 2228 01e2 59       		.uleb128 0x59
 2229 01e3 0B       		.uleb128 0xb
 2230 01e4 01       		.uleb128 0x1
 2231 01e5 13       		.uleb128 0x13
 2232 01e6 00       		.byte	0
 2233 01e7 00       		.byte	0
 2234 01e8 26       		.uleb128 0x26
 2235 01e9 898201   		.uleb128 0x4109
 2236 01ec 01       		.byte	0x1
 2237 01ed 11       		.uleb128 0x11
 2238 01ee 01       		.uleb128 0x1
 2239 01ef 01       		.uleb128 0x1
 2240 01f0 13       		.uleb128 0x13
 2241 01f1 00       		.byte	0
 2242 01f2 00       		.byte	0
 2243 01f3 27       		.uleb128 0x27
 2244 01f4 898201   		.uleb128 0x4109
 2245 01f7 01       		.byte	0x1
 2246 01f8 11       		.uleb128 0x11
 2247 01f9 01       		.uleb128 0x1
 2248 01fa 00       		.byte	0
 2249 01fb 00       		.byte	0
 2250 01fc 28       		.uleb128 0x28
 2251 01fd 01       		.uleb128 0x1
 2252 01fe 01       		.byte	0x1
 2253 01ff 49       		.uleb128 0x49
 2254 0200 13       		.uleb128 0x13
 2255 0201 01       		.uleb128 0x1
 2256 0202 13       		.uleb128 0x13
 2257 0203 00       		.byte	0
 2258 0204 00       		.byte	0
 2259 0205 29       		.uleb128 0x29
 2260 0206 21       		.uleb128 0x21
 2261 0207 00       		.byte	0
 2262 0208 49       		.uleb128 0x49
 2263 0209 13       		.uleb128 0x13
 2264 020a 2F       		.uleb128 0x2f
 2265 020b 0B       		.uleb128 0xb
 2266 020c 00       		.byte	0
 2267 020d 00       		.byte	0
 2268 020e 2A       		.uleb128 0x2a
 2269 020f 2E       		.uleb128 0x2e
 2270 0210 01       		.byte	0x1
 2271 0211 3F       		.uleb128 0x3f
 2272 0212 0C       		.uleb128 0xc
 2273 0213 03       		.uleb128 0x3
 2274 0214 0E       		.uleb128 0xe
 2275 0215 3A       		.uleb128 0x3a
 2276 0216 0B       		.uleb128 0xb
 2277 0217 3B       		.uleb128 0x3b
 2278 0218 05       		.uleb128 0x5
 2279 0219 27       		.uleb128 0x27
ARM GAS  C:\Users\NICOMA~1\AppData\Local\Temp\ccd1FKNk.s 			page 41


 2280 021a 0C       		.uleb128 0xc
 2281 021b 49       		.uleb128 0x49
 2282 021c 13       		.uleb128 0x13
 2283 021d 11       		.uleb128 0x11
 2284 021e 01       		.uleb128 0x1
 2285 021f 12       		.uleb128 0x12
 2286 0220 01       		.uleb128 0x1
 2287 0221 40       		.uleb128 0x40
 2288 0222 06       		.uleb128 0x6
 2289 0223 9742     		.uleb128 0x2117
 2290 0225 0C       		.uleb128 0xc
 2291 0226 01       		.uleb128 0x1
 2292 0227 13       		.uleb128 0x13
 2293 0228 00       		.byte	0
 2294 0229 00       		.byte	0
 2295 022a 2B       		.uleb128 0x2b
 2296 022b 05       		.uleb128 0x5
 2297 022c 00       		.byte	0
 2298 022d 03       		.uleb128 0x3
 2299 022e 08       		.uleb128 0x8
 2300 022f 3A       		.uleb128 0x3a
 2301 0230 0B       		.uleb128 0xb
 2302 0231 3B       		.uleb128 0x3b
 2303 0232 05       		.uleb128 0x5
 2304 0233 49       		.uleb128 0x49
 2305 0234 13       		.uleb128 0x13
 2306 0235 02       		.uleb128 0x2
 2307 0236 06       		.uleb128 0x6
 2308 0237 00       		.byte	0
 2309 0238 00       		.byte	0
 2310 0239 2C       		.uleb128 0x2c
 2311 023a 05       		.uleb128 0x5
 2312 023b 00       		.byte	0
 2313 023c 03       		.uleb128 0x3
 2314 023d 0E       		.uleb128 0xe
 2315 023e 3A       		.uleb128 0x3a
 2316 023f 0B       		.uleb128 0xb
 2317 0240 3B       		.uleb128 0x3b
 2318 0241 05       		.uleb128 0x5
 2319 0242 49       		.uleb128 0x49
 2320 0243 13       		.uleb128 0x13
 2321 0244 02       		.uleb128 0x2
 2322 0245 06       		.uleb128 0x6
 2323 0246 00       		.byte	0
 2324 0247 00       		.byte	0
 2325 0248 2D       		.uleb128 0x2d
 2326 0249 05       		.uleb128 0x5
 2327 024a 00       		.byte	0
 2328 024b 03       		.uleb128 0x3
 2329 024c 08       		.uleb128 0x8
 2330 024d 3A       		.uleb128 0x3a
 2331 024e 0B       		.uleb128 0xb
 2332 024f 3B       		.uleb128 0x3b
 2333 0250 05       		.uleb128 0x5
 2334 0251 49       		.uleb128 0x49
 2335 0252 13       		.uleb128 0x13
 2336 0253 02       		.uleb128 0x2
ARM GAS  C:\Users\NICOMA~1\AppData\Local\Temp\ccd1FKNk.s 			page 42


 2337 0254 0A       		.uleb128 0xa
 2338 0255 00       		.byte	0
 2339 0256 00       		.byte	0
 2340 0257 2E       		.uleb128 0x2e
 2341 0258 18       		.uleb128 0x18
 2342 0259 00       		.byte	0
 2343 025a 00       		.byte	0
 2344 025b 00       		.byte	0
 2345 025c 2F       		.uleb128 0x2f
 2346 025d 34       		.uleb128 0x34
 2347 025e 00       		.byte	0
 2348 025f 03       		.uleb128 0x3
 2349 0260 08       		.uleb128 0x8
 2350 0261 3A       		.uleb128 0x3a
 2351 0262 0B       		.uleb128 0xb
 2352 0263 3B       		.uleb128 0x3b
 2353 0264 05       		.uleb128 0x5
 2354 0265 49       		.uleb128 0x49
 2355 0266 13       		.uleb128 0x13
 2356 0267 02       		.uleb128 0x2
 2357 0268 0A       		.uleb128 0xa
 2358 0269 00       		.byte	0
 2359 026a 00       		.byte	0
 2360 026b 30       		.uleb128 0x30
 2361 026c 34       		.uleb128 0x34
 2362 026d 00       		.byte	0
 2363 026e 03       		.uleb128 0x3
 2364 026f 08       		.uleb128 0x8
 2365 0270 3A       		.uleb128 0x3a
 2366 0271 0B       		.uleb128 0xb
 2367 0272 3B       		.uleb128 0x3b
 2368 0273 05       		.uleb128 0x5
 2369 0274 49       		.uleb128 0x49
 2370 0275 13       		.uleb128 0x13
 2371 0276 02       		.uleb128 0x2
 2372 0277 06       		.uleb128 0x6
 2373 0278 00       		.byte	0
 2374 0279 00       		.byte	0
 2375 027a 31       		.uleb128 0x31
 2376 027b 2E       		.uleb128 0x2e
 2377 027c 01       		.byte	0x1
 2378 027d 3F       		.uleb128 0x3f
 2379 027e 0C       		.uleb128 0xc
 2380 027f 03       		.uleb128 0x3
 2381 0280 0E       		.uleb128 0xe
 2382 0281 3A       		.uleb128 0x3a
 2383 0282 0B       		.uleb128 0xb
 2384 0283 3B       		.uleb128 0x3b
 2385 0284 0B       		.uleb128 0xb
 2386 0285 27       		.uleb128 0x27
 2387 0286 0C       		.uleb128 0xc
 2388 0287 3C       		.uleb128 0x3c
 2389 0288 0C       		.uleb128 0xc
 2390 0289 01       		.uleb128 0x1
 2391 028a 13       		.uleb128 0x13
 2392 028b 00       		.byte	0
 2393 028c 00       		.byte	0
ARM GAS  C:\Users\NICOMA~1\AppData\Local\Temp\ccd1FKNk.s 			page 43


 2394 028d 00       		.byte	0
 2395              		.section	.debug_loc,"",%progbits
 2396              	.Ldebug_loc0:
 2397              	.LLST0:
 2398 0000 00000000 		.4byte	.LFB8
 2399 0004 08000000 		.4byte	.LCFI0
 2400 0008 0200     		.2byte	0x2
 2401 000a 7D       		.byte	0x7d
 2402 000b 00       		.sleb128 0
 2403 000c 08000000 		.4byte	.LCFI0
 2404 0010 94000000 		.4byte	.LFE8
 2405 0014 0200     		.2byte	0x2
 2406 0016 7D       		.byte	0x7d
 2407 0017 28       		.sleb128 40
 2408 0018 00000000 		.4byte	0
 2409 001c 00000000 		.4byte	0
 2410              	.LLST1:
 2411 0020 00000000 		.4byte	.LVL0
 2412 0024 24000000 		.4byte	.LVL4
 2413 0028 0100     		.2byte	0x1
 2414 002a 50       		.byte	0x50
 2415 002b 24000000 		.4byte	.LVL4
 2416 002f 94000000 		.4byte	.LFE8
 2417 0033 0100     		.2byte	0x1
 2418 0035 55       		.byte	0x55
 2419 0036 00000000 		.4byte	0
 2420 003a 00000000 		.4byte	0
 2421              	.LLST2:
 2422 003e 00000000 		.4byte	.LVL0
 2423 0042 24000000 		.4byte	.LVL4
 2424 0046 0100     		.2byte	0x1
 2425 0048 51       		.byte	0x51
 2426 0049 24000000 		.4byte	.LVL4
 2427 004d 94000000 		.4byte	.LFE8
 2428 0051 0400     		.2byte	0x4
 2429 0053 F3       		.byte	0xf3
 2430 0054 01       		.uleb128 0x1
 2431 0055 51       		.byte	0x51
 2432 0056 9F       		.byte	0x9f
 2433 0057 00000000 		.4byte	0
 2434 005b 00000000 		.4byte	0
 2435              	.LLST3:
 2436 005f 00000000 		.4byte	.LVL0
 2437 0063 24000000 		.4byte	.LVL4
 2438 0067 0100     		.2byte	0x1
 2439 0069 52       		.byte	0x52
 2440 006a 24000000 		.4byte	.LVL4
 2441 006e 94000000 		.4byte	.LFE8
 2442 0072 0100     		.2byte	0x1
 2443 0074 57       		.byte	0x57
 2444 0075 00000000 		.4byte	0
 2445 0079 00000000 		.4byte	0
 2446              	.LLST4:
 2447 007d 00000000 		.4byte	.LVL0
 2448 0081 24000000 		.4byte	.LVL4
 2449 0085 0100     		.2byte	0x1
 2450 0087 53       		.byte	0x53
ARM GAS  C:\Users\NICOMA~1\AppData\Local\Temp\ccd1FKNk.s 			page 44


 2451 0088 24000000 		.4byte	.LVL4
 2452 008c 94000000 		.4byte	.LFE8
 2453 0090 0400     		.2byte	0x4
 2454 0092 F3       		.byte	0xf3
 2455 0093 01       		.uleb128 0x1
 2456 0094 53       		.byte	0x53
 2457 0095 9F       		.byte	0x9f
 2458 0096 00000000 		.4byte	0
 2459 009a 00000000 		.4byte	0
 2460              	.LLST5:
 2461 009e 34000000 		.4byte	.LVL6
 2462 00a2 38000000 		.4byte	.LVL7
 2463 00a6 0100     		.2byte	0x1
 2464 00a8 51       		.byte	0x51
 2465 00a9 38000000 		.4byte	.LVL7
 2466 00ad 44000000 		.4byte	.LVL9
 2467 00b1 0100     		.2byte	0x1
 2468 00b3 54       		.byte	0x54
 2469 00b4 70000000 		.4byte	.LVL16
 2470 00b8 74000000 		.4byte	.LVL17
 2471 00bc 0600     		.2byte	0x6
 2472 00be 79       		.byte	0x79
 2473 00bf 00       		.sleb128 0
 2474 00c0 7A       		.byte	0x7a
 2475 00c1 00       		.sleb128 0
 2476 00c2 1C       		.byte	0x1c
 2477 00c3 9F       		.byte	0x9f
 2478 00c4 74000000 		.4byte	.LVL17
 2479 00c8 78000000 		.4byte	.LVL18
 2480 00cc 0100     		.2byte	0x1
 2481 00ce 59       		.byte	0x59
 2482 00cf 78000000 		.4byte	.LVL18
 2483 00d3 7C000000 		.4byte	.LVL19
 2484 00d7 0800     		.2byte	0x8
 2485 00d9 75       		.byte	0x75
 2486 00da 00       		.sleb128 0
 2487 00db 7A       		.byte	0x7a
 2488 00dc 00       		.sleb128 0
 2489 00dd 1C       		.byte	0x1c
 2490 00de 23       		.byte	0x23
 2491 00df 0B       		.uleb128 0xb
 2492 00e0 9F       		.byte	0x9f
 2493 00e1 00000000 		.4byte	0
 2494 00e5 00000000 		.4byte	0
 2495              	.LLST6:
 2496 00e9 1C000000 		.4byte	.LVL3
 2497 00ed 24000000 		.4byte	.LVL4
 2498 00f1 0100     		.2byte	0x1
 2499 00f3 59       		.byte	0x59
 2500 00f4 40000000 		.4byte	.LVL8
 2501 00f8 54000000 		.4byte	.LVL11
 2502 00fc 0100     		.2byte	0x1
 2503 00fe 56       		.byte	0x56
 2504 00ff 54000000 		.4byte	.LVL11
 2505 0103 7C000000 		.4byte	.LVL19
 2506 0107 0100     		.2byte	0x1
 2507 0109 5A       		.byte	0x5a
ARM GAS  C:\Users\NICOMA~1\AppData\Local\Temp\ccd1FKNk.s 			page 45


 2508 010a 00000000 		.4byte	0
 2509 010e 00000000 		.4byte	0
 2510              	.LLST7:
 2511 0112 0C000000 		.4byte	.LVL1
 2512 0116 24000000 		.4byte	.LVL4
 2513 011a 0100     		.2byte	0x1
 2514 011c 51       		.byte	0x51
 2515 011d 24000000 		.4byte	.LVL4
 2516 0121 60000000 		.4byte	.LVL13
 2517 0125 0100     		.2byte	0x1
 2518 0127 5B       		.byte	0x5b
 2519 0128 60000000 		.4byte	.LVL13
 2520 012c 64000000 		.4byte	.LVL14
 2521 0130 0100     		.2byte	0x1
 2522 0132 50       		.byte	0x50
 2523 0133 64000000 		.4byte	.LVL14
 2524 0137 94000000 		.4byte	.LFE8
 2525 013b 0100     		.2byte	0x1
 2526 013d 5B       		.byte	0x5b
 2527 013e 00000000 		.4byte	0
 2528 0142 00000000 		.4byte	0
 2529              	.LLST8:
 2530 0146 18000000 		.4byte	.LVL2
 2531 014a 68000000 		.4byte	.LVL15
 2532 014e 0100     		.2byte	0x1
 2533 0150 58       		.byte	0x58
 2534 0151 68000000 		.4byte	.LVL15
 2535 0155 90000000 		.4byte	.LVL21
 2536 0159 0100     		.2byte	0x1
 2537 015b 50       		.byte	0x50
 2538 015c 90000000 		.4byte	.LVL21
 2539 0160 94000000 		.4byte	.LFE8
 2540 0164 0100     		.2byte	0x1
 2541 0166 58       		.byte	0x58
 2542 0167 00000000 		.4byte	0
 2543 016b 00000000 		.4byte	0
 2544              	.LLST9:
 2545 016f 00000000 		.4byte	.LFB11
 2546 0173 04000000 		.4byte	.LCFI1
 2547 0177 0200     		.2byte	0x2
 2548 0179 7D       		.byte	0x7d
 2549 017a 00       		.sleb128 0
 2550 017b 04000000 		.4byte	.LCFI1
 2551 017f 08000000 		.4byte	.LCFI2
 2552 0183 0200     		.2byte	0x2
 2553 0185 7D       		.byte	0x7d
 2554 0186 24       		.sleb128 36
 2555 0187 08000000 		.4byte	.LCFI2
 2556 018b E4040000 		.4byte	.LFE11
 2557 018f 0300     		.2byte	0x3
 2558 0191 7D       		.byte	0x7d
 2559 0192 D800     		.sleb128 88
 2560 0194 00000000 		.4byte	0
 2561 0198 00000000 		.4byte	0
 2562              	.LLST10:
 2563 019c 00000000 		.4byte	.LVL22
 2564 01a0 30000000 		.4byte	.LVL24
ARM GAS  C:\Users\NICOMA~1\AppData\Local\Temp\ccd1FKNk.s 			page 46


 2565 01a4 0100     		.2byte	0x1
 2566 01a6 50       		.byte	0x50
 2567 01a7 30000000 		.4byte	.LVL24
 2568 01ab E4040000 		.4byte	.LFE11
 2569 01af 0100     		.2byte	0x1
 2570 01b1 55       		.byte	0x55
 2571 01b2 00000000 		.4byte	0
 2572 01b6 00000000 		.4byte	0
 2573              	.LLST11:
 2574 01ba 00000000 		.4byte	.LVL22
 2575 01be 30000000 		.4byte	.LVL24
 2576 01c2 0100     		.2byte	0x1
 2577 01c4 51       		.byte	0x51
 2578 01c5 30000000 		.4byte	.LVL24
 2579 01c9 38000000 		.4byte	.LVL25
 2580 01cd 0100     		.2byte	0x1
 2581 01cf 57       		.byte	0x57
 2582 01d0 38000000 		.4byte	.LVL25
 2583 01d4 8C000000 		.4byte	.LVL32
 2584 01d8 0100     		.2byte	0x1
 2585 01da 54       		.byte	0x54
 2586 01db 8C000000 		.4byte	.LVL32
 2587 01df 9C000000 		.4byte	.LVL33
 2588 01e3 0300     		.2byte	0x3
 2589 01e5 74       		.byte	0x74
 2590 01e6 01       		.sleb128 1
 2591 01e7 9F       		.byte	0x9f
 2592 01e8 A8000000 		.4byte	.LVL34
 2593 01ec B0000000 		.4byte	.LVL35
 2594 01f0 0100     		.2byte	0x1
 2595 01f2 51       		.byte	0x51
 2596 01f3 B0000000 		.4byte	.LVL35
 2597 01f7 C8000000 		.4byte	.LVL40
 2598 01fb 0100     		.2byte	0x1
 2599 01fd 50       		.byte	0x50
 2600 01fe DC000000 		.4byte	.LVL41
 2601 0202 0C010000 		.4byte	.LVL45
 2602 0206 0100     		.2byte	0x1
 2603 0208 50       		.byte	0x50
 2604 0209 0C010000 		.4byte	.LVL45
 2605 020d 4C040000 		.4byte	.LVL114
 2606 0211 0100     		.2byte	0x1
 2607 0213 57       		.byte	0x57
 2608 0214 4C040000 		.4byte	.LVL114
 2609 0218 50040000 		.4byte	.LVL115
 2610 021c 0100     		.2byte	0x1
 2611 021e 50       		.byte	0x50
 2612 021f 50040000 		.4byte	.LVL115
 2613 0223 60040000 		.4byte	.LVL117
 2614 0227 0100     		.2byte	0x1
 2615 0229 57       		.byte	0x57
 2616 022a 60040000 		.4byte	.LVL117
 2617 022e 74040000 		.4byte	.LVL121
 2618 0232 0100     		.2byte	0x1
 2619 0234 50       		.byte	0x50
 2620 0235 8C040000 		.4byte	.LVL123
 2621 0239 9C040000 		.4byte	.LVL124
ARM GAS  C:\Users\NICOMA~1\AppData\Local\Temp\ccd1FKNk.s 			page 47


 2622 023d 0100     		.2byte	0x1
 2623 023f 50       		.byte	0x50
 2624 0240 9C040000 		.4byte	.LVL124
 2625 0244 E4040000 		.4byte	.LFE11
 2626 0248 0100     		.2byte	0x1
 2627 024a 57       		.byte	0x57
 2628 024b 00000000 		.4byte	0
 2629 024f 00000000 		.4byte	0
 2630              	.LLST12:
 2631 0253 00000000 		.4byte	.LVL22
 2632 0257 18000000 		.4byte	.LVL23
 2633 025b 0100     		.2byte	0x1
 2634 025d 52       		.byte	0x52
 2635 025e 30000000 		.4byte	.LVL24
 2636 0262 B0000000 		.4byte	.LVL35
 2637 0266 0300     		.2byte	0x3
 2638 0268 56       		.byte	0x56
 2639 0269 93       		.byte	0x93
 2640 026a 04       		.uleb128 0x4
 2641 026b B0000000 		.4byte	.LVL35
 2642 026f B8000000 		.4byte	.LVL37
 2643 0273 0500     		.2byte	0x5
 2644 0275 76       		.byte	0x76
 2645 0276 04       		.sleb128 4
 2646 0277 9F       		.byte	0x9f
 2647 0278 93       		.byte	0x93
 2648 0279 04       		.uleb128 0x4
 2649 027a B8000000 		.4byte	.LVL37
 2650 027e C8000000 		.4byte	.LVL40
 2651 0282 0300     		.2byte	0x3
 2652 0284 56       		.byte	0x56
 2653 0285 93       		.byte	0x93
 2654 0286 04       		.uleb128 0x4
 2655 0287 C8000000 		.4byte	.LVL40
 2656 028b F4000000 		.4byte	.LVL43
 2657 028f 0500     		.2byte	0x5
 2658 0291 76       		.byte	0x76
 2659 0292 04       		.sleb128 4
 2660 0293 9F       		.byte	0x9f
 2661 0294 93       		.byte	0x93
 2662 0295 04       		.uleb128 0x4
 2663 0296 F4000000 		.4byte	.LVL43
 2664 029a 24020000 		.4byte	.LVL52
 2665 029e 0300     		.2byte	0x3
 2666 02a0 56       		.byte	0x56
 2667 02a1 93       		.byte	0x93
 2668 02a2 04       		.uleb128 0x4
 2669 02a3 24020000 		.4byte	.LVL52
 2670 02a7 BC020000 		.4byte	.LVL70
 2671 02ab 0300     		.2byte	0x3
 2672 02ad 56       		.byte	0x56
 2673 02ae 93       		.byte	0x93
 2674 02af 04       		.uleb128 0x4
 2675 02b0 BC020000 		.4byte	.LVL70
 2676 02b4 C0020000 		.4byte	.LVL71
 2677 02b8 0500     		.2byte	0x5
 2678 02ba 76       		.byte	0x76
ARM GAS  C:\Users\NICOMA~1\AppData\Local\Temp\ccd1FKNk.s 			page 48


 2679 02bb 79       		.sleb128 -7
 2680 02bc 9F       		.byte	0x9f
 2681 02bd 93       		.byte	0x93
 2682 02be 04       		.uleb128 0x4
 2683 02bf 70030000 		.4byte	.LVL83
 2684 02c3 C0030000 		.4byte	.LVL92
 2685 02c7 0300     		.2byte	0x3
 2686 02c9 56       		.byte	0x56
 2687 02ca 93       		.byte	0x93
 2688 02cb 04       		.uleb128 0x4
 2689 02cc C0030000 		.4byte	.LVL92
 2690 02d0 D0030000 		.4byte	.LVL95
 2691 02d4 0500     		.2byte	0x5
 2692 02d6 76       		.byte	0x76
 2693 02d7 04       		.sleb128 4
 2694 02d8 9F       		.byte	0x9f
 2695 02d9 93       		.byte	0x93
 2696 02da 04       		.uleb128 0x4
 2697 02db D0030000 		.4byte	.LVL95
 2698 02df EC030000 		.4byte	.LVL100
 2699 02e3 0300     		.2byte	0x3
 2700 02e5 56       		.byte	0x56
 2701 02e6 93       		.byte	0x93
 2702 02e7 04       		.uleb128 0x4
 2703 02e8 EC030000 		.4byte	.LVL100
 2704 02ec 28040000 		.4byte	.LVL107
 2705 02f0 0300     		.2byte	0x3
 2706 02f2 56       		.byte	0x56
 2707 02f3 93       		.byte	0x93
 2708 02f4 04       		.uleb128 0x4
 2709 02f5 28040000 		.4byte	.LVL107
 2710 02f9 60040000 		.4byte	.LVL117
 2711 02fd 0300     		.2byte	0x3
 2712 02ff 56       		.byte	0x56
 2713 0300 93       		.byte	0x93
 2714 0301 04       		.uleb128 0x4
 2715 0302 60040000 		.4byte	.LVL117
 2716 0306 70040000 		.4byte	.LVL120
 2717 030a 0500     		.2byte	0x5
 2718 030c 76       		.byte	0x76
 2719 030d 04       		.sleb128 4
 2720 030e 9F       		.byte	0x9f
 2721 030f 93       		.byte	0x93
 2722 0310 04       		.uleb128 0x4
 2723 0311 70040000 		.4byte	.LVL120
 2724 0315 74040000 		.4byte	.LVL121
 2725 0319 0300     		.2byte	0x3
 2726 031b 56       		.byte	0x56
 2727 031c 93       		.byte	0x93
 2728 031d 04       		.uleb128 0x4
 2729 031e 74040000 		.4byte	.LVL121
 2730 0322 9C040000 		.4byte	.LVL124
 2731 0326 0500     		.2byte	0x5
 2732 0328 76       		.byte	0x76
 2733 0329 04       		.sleb128 4
 2734 032a 9F       		.byte	0x9f
 2735 032b 93       		.byte	0x93
ARM GAS  C:\Users\NICOMA~1\AppData\Local\Temp\ccd1FKNk.s 			page 49


 2736 032c 04       		.uleb128 0x4
 2737 032d 9C040000 		.4byte	.LVL124
 2738 0331 E4040000 		.4byte	.LFE11
 2739 0335 0300     		.2byte	0x3
 2740 0337 56       		.byte	0x56
 2741 0338 93       		.byte	0x93
 2742 0339 04       		.uleb128 0x4
 2743 033a 00000000 		.4byte	0
 2744 033e 00000000 		.4byte	0
 2745              	.LLST13:
 2746 0342 74000000 		.4byte	.LVL30
 2747 0346 24020000 		.4byte	.LVL52
 2748 034a 0300     		.2byte	0x3
 2749 034c 91       		.byte	0x91
 2750 034d A87F     		.sleb128 -88
 2751 034f 24020000 		.4byte	.LVL52
 2752 0353 34020000 		.4byte	.LVL55
 2753 0357 0100     		.2byte	0x1
 2754 0359 59       		.byte	0x59
 2755 035a 34020000 		.4byte	.LVL55
 2756 035e 44020000 		.4byte	.LVL56
 2757 0362 0100     		.2byte	0x1
 2758 0364 53       		.byte	0x53
 2759 0365 44020000 		.4byte	.LVL56
 2760 0369 54020000 		.4byte	.LVL57
 2761 036d 0100     		.2byte	0x1
 2762 036f 5B       		.byte	0x5b
 2763 0370 54020000 		.4byte	.LVL57
 2764 0374 60020000 		.4byte	.LVL59
 2765 0378 0100     		.2byte	0x1
 2766 037a 53       		.byte	0x53
 2767 037b B8020000 		.4byte	.LVL69
 2768 037f 70030000 		.4byte	.LVL83
 2769 0383 0300     		.2byte	0x3
 2770 0385 91       		.byte	0x91
 2771 0386 A87F     		.sleb128 -88
 2772 0388 C0030000 		.4byte	.LVL92
 2773 038c CC030000 		.4byte	.LVL94
 2774 0390 0300     		.2byte	0x3
 2775 0392 91       		.byte	0x91
 2776 0393 A87F     		.sleb128 -88
 2777 0395 CC030000 		.4byte	.LVL94
 2778 0399 DC030000 		.4byte	.LVL96
 2779 039d 0300     		.2byte	0x3
 2780 039f 91       		.byte	0x91
 2781 03a0 A47F     		.sleb128 -92
 2782 03a2 DC030000 		.4byte	.LVL96
 2783 03a6 EC030000 		.4byte	.LVL100
 2784 03aa 0300     		.2byte	0x3
 2785 03ac 91       		.byte	0x91
 2786 03ad A87F     		.sleb128 -88
 2787 03af EC030000 		.4byte	.LVL100
 2788 03b3 F3030000 		.4byte	.LVL101-1
 2789 03b7 0100     		.2byte	0x1
 2790 03b9 50       		.byte	0x50
 2791 03ba 04040000 		.4byte	.LVL102
 2792 03be 2C040000 		.4byte	.LVL108
ARM GAS  C:\Users\NICOMA~1\AppData\Local\Temp\ccd1FKNk.s 			page 50


 2793 03c2 0300     		.2byte	0x3
 2794 03c4 91       		.byte	0x91
 2795 03c5 A87F     		.sleb128 -88
 2796 03c7 2C040000 		.4byte	.LVL108
 2797 03cb 38040000 		.4byte	.LVL111
 2798 03cf 0300     		.2byte	0x3
 2799 03d1 91       		.byte	0x91
 2800 03d2 A47F     		.sleb128 -92
 2801 03d4 38040000 		.4byte	.LVL111
 2802 03d8 3C040000 		.4byte	.LVL112
 2803 03dc 0100     		.2byte	0x1
 2804 03de 50       		.byte	0x50
 2805 03df 3C040000 		.4byte	.LVL112
 2806 03e3 40040000 		.4byte	.LVL113
 2807 03e7 0300     		.2byte	0x3
 2808 03e9 91       		.byte	0x91
 2809 03ea A87F     		.sleb128 -88
 2810 03ec 40040000 		.4byte	.LVL113
 2811 03f0 4C040000 		.4byte	.LVL114
 2812 03f4 0300     		.2byte	0x3
 2813 03f6 91       		.byte	0x91
 2814 03f7 A47F     		.sleb128 -92
 2815 03f9 4C040000 		.4byte	.LVL114
 2816 03fd 9C040000 		.4byte	.LVL124
 2817 0401 0300     		.2byte	0x3
 2818 0403 91       		.byte	0x91
 2819 0404 A87F     		.sleb128 -88
 2820 0406 C0040000 		.4byte	.LVL128
 2821 040a CC040000 		.4byte	.LVL129
 2822 040e 0100     		.2byte	0x1
 2823 0410 53       		.byte	0x53
 2824 0411 CC040000 		.4byte	.LVL129
 2825 0415 E4040000 		.4byte	.LFE11
 2826 0419 0100     		.2byte	0x1
 2827 041b 59       		.byte	0x59
 2828 041c 00000000 		.4byte	0
 2829 0420 00000000 		.4byte	0
 2830              	.LLST14:
 2831 0424 74000000 		.4byte	.LVL30
 2832 0428 24020000 		.4byte	.LVL52
 2833 042c 0300     		.2byte	0x3
 2834 042e 91       		.byte	0x91
 2835 042f A87F     		.sleb128 -88
 2836 0431 24020000 		.4byte	.LVL52
 2837 0435 7C020000 		.4byte	.LVL64
 2838 0439 0100     		.2byte	0x1
 2839 043b 59       		.byte	0x59
 2840 043c 7C020000 		.4byte	.LVL64
 2841 0440 88020000 		.4byte	.LVL65
 2842 0444 0300     		.2byte	0x3
 2843 0446 79       		.byte	0x79
 2844 0447 7F       		.sleb128 -1
 2845 0448 9F       		.byte	0x9f
 2846 0449 88020000 		.4byte	.LVL65
 2847 044d B8020000 		.4byte	.LVL69
 2848 0451 0100     		.2byte	0x1
 2849 0453 59       		.byte	0x59
ARM GAS  C:\Users\NICOMA~1\AppData\Local\Temp\ccd1FKNk.s 			page 51


 2850 0454 B8020000 		.4byte	.LVL69
 2851 0458 78030000 		.4byte	.LVL84
 2852 045c 0300     		.2byte	0x3
 2853 045e 91       		.byte	0x91
 2854 045f A87F     		.sleb128 -88
 2855 0461 78030000 		.4byte	.LVL84
 2856 0465 A0030000 		.4byte	.LVL89
 2857 0469 0100     		.2byte	0x1
 2858 046b 59       		.byte	0x59
 2859 046c C0030000 		.4byte	.LVL92
 2860 0470 9C040000 		.4byte	.LVL124
 2861 0474 0300     		.2byte	0x3
 2862 0476 91       		.byte	0x91
 2863 0477 A87F     		.sleb128 -88
 2864 0479 9C040000 		.4byte	.LVL124
 2865 047d E4040000 		.4byte	.LFE11
 2866 0481 0100     		.2byte	0x1
 2867 0483 59       		.byte	0x59
 2868 0484 00000000 		.4byte	0
 2869 0488 00000000 		.4byte	0
 2870              	.LLST15:
 2871 048c 38000000 		.4byte	.LVL25
 2872 0490 40000000 		.4byte	.LVL26
 2873 0494 0200     		.2byte	0x2
 2874 0496 77       		.byte	0x77
 2875 0497 00       		.sleb128 0
 2876 0498 64000000 		.4byte	.LVL28
 2877 049c 6C000000 		.4byte	.LVL29
 2878 04a0 0200     		.2byte	0x2
 2879 04a2 77       		.byte	0x77
 2880 04a3 00       		.sleb128 0
 2881 04a4 B0000000 		.4byte	.LVL35
 2882 04a8 B4000000 		.4byte	.LVL36
 2883 04ac 0100     		.2byte	0x1
 2884 04ae 53       		.byte	0x53
 2885 04af B4000000 		.4byte	.LVL36
 2886 04b3 B8000000 		.4byte	.LVL37
 2887 04b7 0200     		.2byte	0x2
 2888 04b9 76       		.byte	0x76
 2889 04ba 00       		.sleb128 0
 2890 04bb B8000000 		.4byte	.LVL37
 2891 04bf C8000000 		.4byte	.LVL40
 2892 04c3 0100     		.2byte	0x1
 2893 04c5 52       		.byte	0x52
 2894 04c6 C8000000 		.4byte	.LVL40
 2895 04ca 0C010000 		.4byte	.LVL46
 2896 04ce 0100     		.2byte	0x1
 2897 04d0 53       		.byte	0x53
 2898 04d1 0C010000 		.4byte	.LVL46
 2899 04d5 10010000 		.4byte	.LVL47
 2900 04d9 0200     		.2byte	0x2
 2901 04db 77       		.byte	0x77
 2902 04dc 00       		.sleb128 0
 2903 04dd 10010000 		.4byte	.LVL47
 2904 04e1 18010000 		.4byte	.LVL48
 2905 04e5 0200     		.2byte	0x2
 2906 04e7 77       		.byte	0x77
ARM GAS  C:\Users\NICOMA~1\AppData\Local\Temp\ccd1FKNk.s 			page 52


 2907 04e8 7F       		.sleb128 -1
 2908 04e9 18010000 		.4byte	.LVL48
 2909 04ed 04020000 		.4byte	.LVL50
 2910 04f1 0100     		.2byte	0x1
 2911 04f3 53       		.byte	0x53
 2912 04f4 04020000 		.4byte	.LVL50
 2913 04f8 34020000 		.4byte	.LVL55
 2914 04fc 0400     		.2byte	0x4
 2915 04fe 72       		.byte	0x72
 2916 04ff C400     		.sleb128 68
 2917 0501 9F       		.byte	0x9f
 2918 0502 B8020000 		.4byte	.LVL69
 2919 0506 C7020000 		.4byte	.LVL73-1
 2920 050a 0100     		.2byte	0x1
 2921 050c 53       		.byte	0x53
 2922 050d C0030000 		.4byte	.LVL92
 2923 0511 C4030000 		.4byte	.LVL93
 2924 0515 0100     		.2byte	0x1
 2925 0517 53       		.byte	0x53
 2926 0518 C4030000 		.4byte	.LVL93
 2927 051c DC030000 		.4byte	.LVL96
 2928 0520 0400     		.2byte	0x4
 2929 0522 72       		.byte	0x72
 2930 0523 C400     		.sleb128 68
 2931 0525 9F       		.byte	0x9f
 2932 0526 DC030000 		.4byte	.LVL96
 2933 052a E0030000 		.4byte	.LVL97
 2934 052e 0100     		.2byte	0x1
 2935 0530 53       		.byte	0x53
 2936 0531 04040000 		.4byte	.LVL102
 2937 0535 0C040000 		.4byte	.LVL103
 2938 0539 0100     		.2byte	0x1
 2939 053b 53       		.byte	0x53
 2940 053c 0C040000 		.4byte	.LVL103
 2941 0540 14040000 		.4byte	.LVL104
 2942 0544 0200     		.2byte	0x2
 2943 0546 38       		.byte	0x38
 2944 0547 9F       		.byte	0x9f
 2945 0548 14040000 		.4byte	.LVL104
 2946 054c 24040000 		.4byte	.LVL106
 2947 0550 0100     		.2byte	0x1
 2948 0552 53       		.byte	0x53
 2949 0553 3C040000 		.4byte	.LVL112
 2950 0557 68040000 		.4byte	.LVL118
 2951 055b 0100     		.2byte	0x1
 2952 055d 53       		.byte	0x53
 2953 055e 68040000 		.4byte	.LVL118
 2954 0562 6C040000 		.4byte	.LVL119
 2955 0566 0200     		.2byte	0x2
 2956 0568 70       		.byte	0x70
 2957 0569 7F       		.sleb128 -1
 2958 056a 6C040000 		.4byte	.LVL119
 2959 056e 70040000 		.4byte	.LVL120
 2960 0572 0200     		.2byte	0x2
 2961 0574 76       		.byte	0x76
 2962 0575 00       		.sleb128 0
 2963 0576 70040000 		.4byte	.LVL120
ARM GAS  C:\Users\NICOMA~1\AppData\Local\Temp\ccd1FKNk.s 			page 53


 2964 057a 74040000 		.4byte	.LVL121
 2965 057e 0100     		.2byte	0x1
 2966 0580 52       		.byte	0x52
 2967 0581 78040000 		.4byte	.LVL122
 2968 0585 8C040000 		.4byte	.LVL123
 2969 0589 0200     		.2byte	0x2
 2970 058b 77       		.byte	0x77
 2971 058c 00       		.sleb128 0
 2972 058d 8C040000 		.4byte	.LVL123
 2973 0591 9C040000 		.4byte	.LVL124
 2974 0595 0200     		.2byte	0x2
 2975 0597 70       		.byte	0x70
 2976 0598 7F       		.sleb128 -1
 2977 0599 CC040000 		.4byte	.LVL129
 2978 059d E4040000 		.4byte	.LFE11
 2979 05a1 0400     		.2byte	0x4
 2980 05a3 72       		.byte	0x72
 2981 05a4 C400     		.sleb128 68
 2982 05a6 9F       		.byte	0x9f
 2983 05a7 00000000 		.4byte	0
 2984 05ab 00000000 		.4byte	0
 2985              	.LLST16:
 2986 05af 8C000000 		.4byte	.LVL32
 2987 05b3 A8000000 		.4byte	.LVL34
 2988 05b7 0300     		.2byte	0x3
 2989 05b9 08       		.byte	0x8
 2990 05ba 30       		.byte	0x30
 2991 05bb 9F       		.byte	0x9f
 2992 05bc A8000000 		.4byte	.LVL34
 2993 05c0 FC010000 		.4byte	.LVL49
 2994 05c4 0100     		.2byte	0x1
 2995 05c6 58       		.byte	0x58
 2996 05c7 FC010000 		.4byte	.LVL49
 2997 05cb 60020000 		.4byte	.LVL59
 2998 05cf 0300     		.2byte	0x3
 2999 05d1 08       		.byte	0x8
 3000 05d2 20       		.byte	0x20
 3001 05d3 9F       		.byte	0x9f
 3002 05d4 60020000 		.4byte	.LVL59
 3003 05d8 68020000 		.4byte	.LVL61
 3004 05dc 0100     		.2byte	0x1
 3005 05de 58       		.byte	0x58
 3006 05df B8020000 		.4byte	.LVL69
 3007 05e3 88030000 		.4byte	.LVL87
 3008 05e7 0100     		.2byte	0x1
 3009 05e9 58       		.byte	0x58
 3010 05ea C0030000 		.4byte	.LVL92
 3011 05ee DC030000 		.4byte	.LVL96
 3012 05f2 0300     		.2byte	0x3
 3013 05f4 08       		.byte	0x8
 3014 05f5 20       		.byte	0x20
 3015 05f6 9F       		.byte	0x9f
 3016 05f7 DC030000 		.4byte	.LVL96
 3017 05fb 9C040000 		.4byte	.LVL124
 3018 05ff 0100     		.2byte	0x1
 3019 0601 58       		.byte	0x58
 3020 0602 C0040000 		.4byte	.LVL128
ARM GAS  C:\Users\NICOMA~1\AppData\Local\Temp\ccd1FKNk.s 			page 54


 3021 0606 E4040000 		.4byte	.LFE11
 3022 060a 0300     		.2byte	0x3
 3023 060c 08       		.byte	0x8
 3024 060d 20       		.byte	0x20
 3025 060e 9F       		.byte	0x9f
 3026 060f 00000000 		.4byte	0
 3027 0613 00000000 		.4byte	0
 3028              	.LLST17:
 3029 0617 60020000 		.4byte	.LVL59
 3030 061b 68020000 		.4byte	.LVL61
 3031 061f 0100     		.2byte	0x1
 3032 0621 5B       		.byte	0x5b
 3033 0622 68020000 		.4byte	.LVL61
 3034 0626 74020000 		.4byte	.LVL63
 3035 062a 0300     		.2byte	0x3
 3036 062c 7B       		.byte	0x7b
 3037 062d 7F       		.sleb128 -1
 3038 062e 9F       		.byte	0x9f
 3039 062f 78030000 		.4byte	.LVL84
 3040 0633 A0030000 		.4byte	.LVL89
 3041 0637 0100     		.2byte	0x1
 3042 0639 5B       		.byte	0x5b
 3043 063a 9C040000 		.4byte	.LVL124
 3044 063e C0040000 		.4byte	.LVL128
 3045 0642 0100     		.2byte	0x1
 3046 0644 5B       		.byte	0x5b
 3047 0645 00000000 		.4byte	0
 3048 0649 00000000 		.4byte	0
 3049              	.LLST18:
 3050 064d E8000000 		.4byte	.LVL42
 3051 0651 F4000000 		.4byte	.LVL43
 3052 0655 0200     		.2byte	0x2
 3053 0657 30       		.byte	0x30
 3054 0658 9F       		.byte	0x9f
 3055 0659 F4000000 		.4byte	.LVL43
 3056 065d 1C020000 		.4byte	.LVL51
 3057 0661 0100     		.2byte	0x1
 3058 0663 51       		.byte	0x51
 3059 0664 24020000 		.4byte	.LVL52
 3060 0668 28020000 		.4byte	.LVL53
 3061 066c 0100     		.2byte	0x1
 3062 066e 51       		.byte	0x51
 3063 066f 28020000 		.4byte	.LVL53
 3064 0673 30020000 		.4byte	.LVL54
 3065 0677 0300     		.2byte	0x3
 3066 0679 71       		.byte	0x71
 3067 067a 7F       		.sleb128 -1
 3068 067b 9F       		.byte	0x9f
 3069 067c B8020000 		.4byte	.LVL69
 3070 0680 C7020000 		.4byte	.LVL73-1
 3071 0684 0100     		.2byte	0x1
 3072 0686 51       		.byte	0x51
 3073 0687 C0030000 		.4byte	.LVL92
 3074 068b E4030000 		.4byte	.LVL98
 3075 068f 0100     		.2byte	0x1
 3076 0691 51       		.byte	0x51
 3077 0692 04040000 		.4byte	.LVL102
ARM GAS  C:\Users\NICOMA~1\AppData\Local\Temp\ccd1FKNk.s 			page 55


 3078 0696 18040000 		.4byte	.LVL105
 3079 069a 0100     		.2byte	0x1
 3080 069c 51       		.byte	0x51
 3081 069d 3C040000 		.4byte	.LVL112
 3082 06a1 60040000 		.4byte	.LVL117
 3083 06a5 0100     		.2byte	0x1
 3084 06a7 51       		.byte	0x51
 3085 06a8 60040000 		.4byte	.LVL117
 3086 06ac 68040000 		.4byte	.LVL118
 3087 06b0 0200     		.2byte	0x2
 3088 06b2 30       		.byte	0x30
 3089 06b3 9F       		.byte	0x9f
 3090 06b4 68040000 		.4byte	.LVL118
 3091 06b8 70040000 		.4byte	.LVL120
 3092 06bc 0100     		.2byte	0x1
 3093 06be 51       		.byte	0x51
 3094 06bf 70040000 		.4byte	.LVL120
 3095 06c3 74040000 		.4byte	.LVL121
 3096 06c7 0500     		.2byte	0x5
 3097 06c9 7C       		.byte	0x7c
 3098 06ca 00       		.sleb128 0
 3099 06cb 31       		.byte	0x31
 3100 06cc 24       		.byte	0x24
 3101 06cd 9F       		.byte	0x9f
 3102 06ce 74040000 		.4byte	.LVL121
 3103 06d2 9C040000 		.4byte	.LVL124
 3104 06d6 0100     		.2byte	0x1
 3105 06d8 51       		.byte	0x51
 3106 06d9 CC040000 		.4byte	.LVL129
 3107 06dd E4040000 		.4byte	.LFE11
 3108 06e1 0100     		.2byte	0x1
 3109 06e3 51       		.byte	0x51
 3110 06e4 00000000 		.4byte	0
 3111 06e8 00000000 		.4byte	0
 3112              	.LLST19:
 3113 06ec A8000000 		.4byte	.LVL34
 3114 06f0 B0000000 		.4byte	.LVL35
 3115 06f4 0200     		.2byte	0x2
 3116 06f6 30       		.byte	0x30
 3117 06f7 9F       		.byte	0x9f
 3118 06f8 B0000000 		.4byte	.LVL35
 3119 06fc BC000000 		.4byte	.LVL38
 3120 0700 0100     		.2byte	0x1
 3121 0702 54       		.byte	0x54
 3122 0703 C4000000 		.4byte	.LVL39
 3123 0707 58020000 		.4byte	.LVL58
 3124 070b 0100     		.2byte	0x1
 3125 070d 54       		.byte	0x54
 3126 070e 60020000 		.4byte	.LVL59
 3127 0712 74020000 		.4byte	.LVL63
 3128 0716 0100     		.2byte	0x1
 3129 0718 54       		.byte	0x54
 3130 0719 90020000 		.4byte	.LVL66
 3131 071d AC020000 		.4byte	.LVL67
 3132 0721 0100     		.2byte	0x1
 3133 0723 54       		.byte	0x54
 3134 0724 AC020000 		.4byte	.LVL67
ARM GAS  C:\Users\NICOMA~1\AppData\Local\Temp\ccd1FKNk.s 			page 56


 3135 0728 B0020000 		.4byte	.LVL68
 3136 072c 0300     		.2byte	0x3
 3137 072e 74       		.byte	0x74
 3138 072f 7F       		.sleb128 -1
 3139 0730 9F       		.byte	0x9f
 3140 0731 B0020000 		.4byte	.LVL68
 3141 0735 B4030000 		.4byte	.LVL90
 3142 0739 0100     		.2byte	0x1
 3143 073b 54       		.byte	0x54
 3144 073c B4030000 		.4byte	.LVL90
 3145 0740 B8030000 		.4byte	.LVL91
 3146 0744 0300     		.2byte	0x3
 3147 0746 74       		.byte	0x74
 3148 0747 01       		.sleb128 1
 3149 0748 9F       		.byte	0x9f
 3150 0749 B8030000 		.4byte	.LVL91
 3151 074d E4040000 		.4byte	.LFE11
 3152 0751 0100     		.2byte	0x1
 3153 0753 54       		.byte	0x54
 3154 0754 00000000 		.4byte	0
 3155 0758 00000000 		.4byte	0
 3156              	.LLST20:
 3157 075c 00010000 		.4byte	.LVL44
 3158 0760 18010000 		.4byte	.LVL48
 3159 0764 0200     		.2byte	0x2
 3160 0766 31       		.byte	0x31
 3161 0767 9F       		.byte	0x9f
 3162 0768 18010000 		.4byte	.LVL48
 3163 076c 68020000 		.4byte	.LVL61
 3164 0770 0100     		.2byte	0x1
 3165 0772 50       		.byte	0x50
 3166 0773 B8020000 		.4byte	.LVL69
 3167 0777 C4020000 		.4byte	.LVL72
 3168 077b 0100     		.2byte	0x1
 3169 077d 50       		.byte	0x50
 3170 077e C0030000 		.4byte	.LVL92
 3171 0782 E8030000 		.4byte	.LVL99
 3172 0786 0100     		.2byte	0x1
 3173 0788 50       		.byte	0x50
 3174 0789 04040000 		.4byte	.LVL102
 3175 078d 34040000 		.4byte	.LVL110
 3176 0791 0100     		.2byte	0x1
 3177 0793 50       		.byte	0x50
 3178 0794 3C040000 		.4byte	.LVL112
 3179 0798 4C040000 		.4byte	.LVL114
 3180 079c 0100     		.2byte	0x1
 3181 079e 50       		.byte	0x50
 3182 079f 5C040000 		.4byte	.LVL116
 3183 07a3 60040000 		.4byte	.LVL117
 3184 07a7 0E00     		.2byte	0xe
 3185 07a9 73       		.byte	0x73
 3186 07aa BF7F     		.sleb128 -65
 3187 07ac 40       		.byte	0x40
 3188 07ad 4B       		.byte	0x4b
 3189 07ae 24       		.byte	0x24
 3190 07af 22       		.byte	0x22
 3191 07b0 0C       		.byte	0xc
ARM GAS  C:\Users\NICOMA~1\AppData\Local\Temp\ccd1FKNk.s 			page 57


 3192 07b1 19000080 		.4byte	0x80000019
 3193 07b5 2C       		.byte	0x2c
 3194 07b6 9F       		.byte	0x9f
 3195 07b7 C0040000 		.4byte	.LVL128
 3196 07bb E4040000 		.4byte	.LFE11
 3197 07bf 0100     		.2byte	0x1
 3198 07c1 50       		.byte	0x50
 3199 07c2 00000000 		.4byte	0
 3200 07c6 00000000 		.4byte	0
 3201              	.LLST21:
 3202 07ca 74000000 		.4byte	.LVL30
 3203 07ce 84000000 		.4byte	.LVL31
 3204 07d2 0200     		.2byte	0x2
 3205 07d4 30       		.byte	0x30
 3206 07d5 9F       		.byte	0x9f
 3207 07d6 84000000 		.4byte	.LVL31
 3208 07da 8C000000 		.4byte	.LVL32
 3209 07de 0200     		.2byte	0x2
 3210 07e0 31       		.byte	0x31
 3211 07e1 9F       		.byte	0x9f
 3212 07e2 8C000000 		.4byte	.LVL32
 3213 07e6 70020000 		.4byte	.LVL62
 3214 07ea 0100     		.2byte	0x1
 3215 07ec 5A       		.byte	0x5a
 3216 07ed B8020000 		.4byte	.LVL69
 3217 07f1 E4040000 		.4byte	.LFE11
 3218 07f5 0100     		.2byte	0x1
 3219 07f7 5A       		.byte	0x5a
 3220 07f8 00000000 		.4byte	0
 3221 07fc 00000000 		.4byte	0
 3222              	.LLST22:
 3223 0800 E4030000 		.4byte	.LVL98
 3224 0804 F3030000 		.4byte	.LVL101-1
 3225 0808 0100     		.2byte	0x1
 3226 080a 51       		.byte	0x51
 3227 080b 18040000 		.4byte	.LVL105
 3228 080f 3C040000 		.4byte	.LVL112
 3229 0813 0100     		.2byte	0x1
 3230 0815 51       		.byte	0x51
 3231 0816 00000000 		.4byte	0
 3232 081a 00000000 		.4byte	0
 3233              	.LLST23:
 3234 081e 70030000 		.4byte	.LVL83
 3235 0822 78030000 		.4byte	.LVL84
 3236 0826 0100     		.2byte	0x1
 3237 0828 5B       		.byte	0x5b
 3238 0829 00000000 		.4byte	0
 3239 082d 00000000 		.4byte	0
 3240              	.LLST24:
 3241 0831 70030000 		.4byte	.LVL83
 3242 0835 78030000 		.4byte	.LVL84
 3243 0839 0600     		.2byte	0x6
 3244 083b F5       		.byte	0xf5
 3245 083c 0B       		.uleb128 0xb
 3246 083d 30       		.uleb128 0x30
 3247 083e F7       		.byte	0xf7
 3248 083f 29       		.uleb128 0x29
ARM GAS  C:\Users\NICOMA~1\AppData\Local\Temp\ccd1FKNk.s 			page 58


 3249 0840 9F       		.byte	0x9f
 3250 0841 00000000 		.4byte	0
 3251 0845 00000000 		.4byte	0
 3252              	.LLST25:
 3253 0849 70030000 		.4byte	.LVL83
 3254 084d 78030000 		.4byte	.LVL84
 3255 0851 0600     		.2byte	0x6
 3256 0853 0C       		.byte	0xc
 3257 0854 A0860100 		.4byte	0x186a0
 3258 0858 9F       		.byte	0x9f
 3259 0859 00000000 		.4byte	0
 3260 085d 00000000 		.4byte	0
 3261              	.LLST26:
 3262 0861 38040000 		.4byte	.LVL111
 3263 0865 3C040000 		.4byte	.LVL112
 3264 0869 0200     		.2byte	0x2
 3265 086b 3A       		.byte	0x3a
 3266 086c 9F       		.byte	0x9f
 3267 086d 00000000 		.4byte	0
 3268 0871 00000000 		.4byte	0
 3269              	.LLST27:
 3270 0875 38040000 		.4byte	.LVL111
 3271 0879 3C040000 		.4byte	.LVL112
 3272 087d 0100     		.2byte	0x1
 3273 087f 51       		.byte	0x51
 3274 0880 00000000 		.4byte	0
 3275 0884 00000000 		.4byte	0
 3276              	.LLST28:
 3277 0888 38040000 		.4byte	.LVL111
 3278 088c 3C040000 		.4byte	.LVL112
 3279 0890 0100     		.2byte	0x1
 3280 0892 50       		.byte	0x50
 3281 0893 00000000 		.4byte	0
 3282 0897 00000000 		.4byte	0
 3283              	.LLST29:
 3284 089b 00000000 		.4byte	.LFB12
 3285 089f 04000000 		.4byte	.LCFI3
 3286 08a3 0200     		.2byte	0x2
 3287 08a5 7D       		.byte	0x7d
 3288 08a6 00       		.sleb128 0
 3289 08a7 04000000 		.4byte	.LCFI3
 3290 08ab 08000000 		.4byte	.LCFI4
 3291 08af 0200     		.2byte	0x2
 3292 08b1 7D       		.byte	0x7d
 3293 08b2 08       		.sleb128 8
 3294 08b3 08000000 		.4byte	.LCFI4
 3295 08b7 10000000 		.4byte	.LCFI5
 3296 08bb 0200     		.2byte	0x2
 3297 08bd 7D       		.byte	0x7d
 3298 08be 0C       		.sleb128 12
 3299 08bf 10000000 		.4byte	.LCFI5
 3300 08c3 68000000 		.4byte	.LFE12
 3301 08c7 0200     		.2byte	0x2
 3302 08c9 7D       		.byte	0x7d
 3303 08ca 28       		.sleb128 40
 3304 08cb 00000000 		.4byte	0
 3305 08cf 00000000 		.4byte	0
ARM GAS  C:\Users\NICOMA~1\AppData\Local\Temp\ccd1FKNk.s 			page 59


 3306              	.LLST30:
 3307 08d3 00000000 		.4byte	.LVL130
 3308 08d7 18000000 		.4byte	.LVL131
 3309 08db 0100     		.2byte	0x1
 3310 08dd 50       		.byte	0x50
 3311 08de 18000000 		.4byte	.LVL131
 3312 08e2 23000000 		.4byte	.LVL133-1
 3313 08e6 0100     		.2byte	0x1
 3314 08e8 5C       		.byte	0x5c
 3315 08e9 23000000 		.4byte	.LVL133-1
 3316 08ed 68000000 		.4byte	.LFE12
 3317 08f1 0400     		.2byte	0x4
 3318 08f3 F3       		.byte	0xf3
 3319 08f4 01       		.uleb128 0x1
 3320 08f5 50       		.byte	0x50
 3321 08f6 9F       		.byte	0x9f
 3322 08f7 00000000 		.4byte	0
 3323 08fb 00000000 		.4byte	0
 3324              	.LLST31:
 3325 08ff 00000000 		.4byte	.LVL130
 3326 0903 1C000000 		.4byte	.LVL132
 3327 0907 0100     		.2byte	0x1
 3328 0909 51       		.byte	0x51
 3329 090a 1C000000 		.4byte	.LVL132
 3330 090e 23000000 		.4byte	.LVL133-1
 3331 0912 0100     		.2byte	0x1
 3332 0914 52       		.byte	0x52
 3333 0915 23000000 		.4byte	.LVL133-1
 3334 0919 68000000 		.4byte	.LFE12
 3335 091d 0400     		.2byte	0x4
 3336 091f F3       		.byte	0xf3
 3337 0920 01       		.uleb128 0x1
 3338 0921 51       		.byte	0x51
 3339 0922 9F       		.byte	0x9f
 3340 0923 00000000 		.4byte	0
 3341 0927 00000000 		.4byte	0
 3342              	.LLST32:
 3343 092b 24000000 		.4byte	.LVL133
 3344 092f 30000000 		.4byte	.LVL134
 3345 0933 0300     		.2byte	0x3
 3346 0935 91       		.byte	0x91
 3347 0936 44       		.sleb128 -60
 3348 0937 9F       		.byte	0x9f
 3349 0938 30000000 		.4byte	.LVL134
 3350 093c 3B000000 		.4byte	.LVL135-1
 3351 0940 0100     		.2byte	0x1
 3352 0942 50       		.byte	0x50
 3353 0943 3B000000 		.4byte	.LVL135-1
 3354 0947 44000000 		.4byte	.LVL136
 3355 094b 0300     		.2byte	0x3
 3356 094d 91       		.byte	0x91
 3357 094e 44       		.sleb128 -60
 3358 094f 9F       		.byte	0x9f
 3359 0950 44000000 		.4byte	.LVL136
 3360 0954 4F000000 		.4byte	.LVL137-1
 3361 0958 0100     		.2byte	0x1
 3362 095a 50       		.byte	0x50
ARM GAS  C:\Users\NICOMA~1\AppData\Local\Temp\ccd1FKNk.s 			page 60


 3363 095b 4F000000 		.4byte	.LVL137-1
 3364 095f 68000000 		.4byte	.LFE12
 3365 0963 0300     		.2byte	0x3
 3366 0965 91       		.byte	0x91
 3367 0966 44       		.sleb128 -60
 3368 0967 9F       		.byte	0x9f
 3369 0968 00000000 		.4byte	0
 3370 096c 00000000 		.4byte	0
 3371              		.section	.debug_aranges,"",%progbits
 3372 0000 2C000000 		.4byte	0x2c
 3373 0004 0200     		.2byte	0x2
 3374 0006 00000000 		.4byte	.Ldebug_info0
 3375 000a 04       		.byte	0x4
 3376 000b 00       		.byte	0
 3377 000c 0000     		.2byte	0
 3378 000e 0000     		.2byte	0
 3379 0010 00000000 		.4byte	.LFB8
 3380 0014 94000000 		.4byte	.LFE8-.LFB8
 3381 0018 00000000 		.4byte	.LFB11
 3382 001c E4040000 		.4byte	.LFE11-.LFB11
 3383 0020 00000000 		.4byte	.LFB12
 3384 0024 68000000 		.4byte	.LFE12-.LFB12
 3385 0028 00000000 		.4byte	0
 3386 002c 00000000 		.4byte	0
 3387              		.section	.debug_ranges,"",%progbits
 3388              	.Ldebug_ranges0:
 3389 0000 E0020000 		.4byte	.LBB8
 3390 0004 E4020000 		.4byte	.LBE8
 3391 0008 F0020000 		.4byte	.LBB13
 3392 000c 1C030000 		.4byte	.LBE13
 3393 0010 24030000 		.4byte	.LBB14
 3394 0014 28030000 		.4byte	.LBE14
 3395 0018 2C030000 		.4byte	.LBB15
 3396 001c 6C030000 		.4byte	.LBE15
 3397 0020 00000000 		.4byte	0
 3398 0024 00000000 		.4byte	0
 3399 0028 E0020000 		.4byte	.LBB9
 3400 002c E4020000 		.4byte	.LBE9
 3401 0030 F0020000 		.4byte	.LBB10
 3402 0034 1C030000 		.4byte	.LBE10
 3403 0038 24030000 		.4byte	.LBB11
 3404 003c 28030000 		.4byte	.LBE11
 3405 0040 2C030000 		.4byte	.LBB12
 3406 0044 6C030000 		.4byte	.LBE12
 3407 0048 00000000 		.4byte	0
 3408 004c 00000000 		.4byte	0
 3409 0050 E4030000 		.4byte	.LBB16
 3410 0054 E8030000 		.4byte	.LBE16
 3411 0058 EC030000 		.4byte	.LBB19
 3412 005c F8030000 		.4byte	.LBE19
 3413 0060 00000000 		.4byte	0
 3414 0064 00000000 		.4byte	0
 3415 0068 00000000 		.4byte	.LFB8
 3416 006c 94000000 		.4byte	.LFE8
 3417 0070 00000000 		.4byte	.LFB11
 3418 0074 E4040000 		.4byte	.LFE11
 3419 0078 00000000 		.4byte	.LFB12
ARM GAS  C:\Users\NICOMA~1\AppData\Local\Temp\ccd1FKNk.s 			page 61


 3420 007c 68000000 		.4byte	.LFE12
 3421 0080 00000000 		.4byte	0
 3422 0084 00000000 		.4byte	0
 3423              		.section	.debug_line,"",%progbits
 3424              	.Ldebug_line0:
 3425 0000 EB020000 		.section	.debug_str,"MS",%progbits,1
 3425      02003A01 
 3425      00000201 
 3425      FB0E0D00 
 3425      01010101 
 3426              	.LASF4:
 3427 0000 73697A65 		.ascii	"size_t\000"
 3427      5F7400
 3428              	.LASF25:
 3429 0007 76615F6C 		.ascii	"va_list\000"
 3429      69737400 
 3430              	.LASF34:
 3431 000f 66746F61 		.ascii	"ftoa\000"
 3431      00
 3432              	.LASF13:
 3433 0014 6C6F6E67 		.ascii	"long long unsigned int\000"
 3433      206C6F6E 
 3433      6720756E 
 3433      7369676E 
 3433      65642069 
 3434              	.LASF12:
 3435 002b 6C6F6E67 		.ascii	"long long int\000"
 3435      206C6F6E 
 3435      6720696E 
 3435      7400
 3436              	.LASF3:
 3437 0039 7369676E 		.ascii	"signed char\000"
 3437      65642063 
 3437      68617200 
 3438              	.LASF14:
 3439 0045 626F6F6C 		.ascii	"bool_t\000"
 3439      5F7400
 3440              	.LASF40:
 3441 004c 746D7062 		.ascii	"tmpbuf\000"
 3441      756600
 3442              	.LASF10:
 3443 0053 6C6F6E67 		.ascii	"long int\000"
 3443      20696E74 
 3443      00
 3444              	.LASF48:
 3445 005c 6368736E 		.ascii	"chsnprintf\000"
 3445      7072696E 
 3445      746600
 3446              	.LASF24:
 3447 0067 5F5F7661 		.ascii	"__va_list\000"
 3447      5F6C6973 
 3447      7400
 3448              	.LASF0:
 3449 0071 646F7562 		.ascii	"double\000"
 3449      6C6500
 3450              	.LASF42:
 3451 0078 2E2E2F2E 		.ascii	"../../os/various/chprintf.c\000"
ARM GAS  C:\Users\NICOMA~1\AppData\Local\Temp\ccd1FKNk.s 			page 62


 3451      2E2F6F73 
 3451      2F766172 
 3451      696F7573 
 3451      2F636870 
 3452              	.LASF43:
 3453 0094 433A5C55 		.ascii	"C:\\Users\\Nico Maas\\Desktop\\ChibiOS\\demos\\ARM1"
 3453      73657273 
 3453      5C4E6963 
 3453      6F204D61 
 3453      61735C44 
 3454 00c1 312D4243 		.ascii	"1-BCM2835-GCC\000"
 3454      4D323833 
 3454      352D4743 
 3454      4300
 3455              	.LASF36:
 3456 00cf 66696C6C 		.ascii	"filler\000"
 3456      657200
 3457              	.LASF38:
 3458 00d6 69735F6C 		.ascii	"is_long\000"
 3458      6F6E6700 
 3459              	.LASF21:
 3460 00de 42617365 		.ascii	"BaseSequentialStream\000"
 3460      53657175 
 3460      656E7469 
 3460      616C5374 
 3460      7265616D 
 3461              	.LASF2:
 3462 00f3 756E7369 		.ascii	"unsigned int\000"
 3462      676E6564 
 3462      20696E74 
 3462      00
 3463              	.LASF11:
 3464 0100 6C6F6E67 		.ascii	"long unsigned int\000"
 3464      20756E73 
 3464      69676E65 
 3464      6420696E 
 3464      7400
 3465              	.LASF39:
 3466 0112 6C656674 		.ascii	"left_align\000"
 3466      5F616C69 
 3466      676E00
 3467              	.LASF37:
 3468 011d 77696474 		.ascii	"width\000"
 3468      6800
 3469              	.LASF28:
 3470 0123 73697A65 		.ascii	"size\000"
 3470      00
 3471              	.LASF8:
 3472 0128 73686F72 		.ascii	"short unsigned int\000"
 3472      7420756E 
 3472      7369676E 
 3472      65642069 
 3472      6E7400
 3473              	.LASF16:
 3474 013b 6D73675F 		.ascii	"msg_t\000"
 3474      7400
 3475              	.LASF33:
ARM GAS  C:\Users\NICOMA~1\AppData\Local\Temp\ccd1FKNk.s 			page 63


 3476 0141 6C746F61 		.ascii	"ltoa\000"
 3476      00
 3477              	.LASF49:
 3478 0146 6D734F62 		.ascii	"msObjectInit\000"
 3478      6A656374 
 3478      496E6974 
 3478      00
 3479              	.LASF19:
 3480 0153 77726974 		.ascii	"write\000"
 3480      6500
 3481              	.LASF18:
 3482 0159 73697A65 		.ascii	"sizetype\000"
 3482      74797065 
 3482      00
 3483              	.LASF47:
 3484 0162 756E7369 		.ascii	"unsigned_common\000"
 3484      676E6564 
 3484      5F636F6D 
 3484      6D6F6E00 
 3485              	.LASF32:
 3486 0172 64697669 		.ascii	"divisor\000"
 3486      736F7200 
 3487              	.LASF22:
 3488 017a 5F5F676E 		.ascii	"__gnuc_va_list\000"
 3488      75635F76 
 3488      615F6C69 
 3488      737400
 3489              	.LASF41:
 3490 0189 474E5520 		.ascii	"GNU C 4.7.2\000"
 3490      4320342E 
 3490      372E3200 
 3491              	.LASF26:
 3492 0195 4D656D53 		.ascii	"MemStreamVMT\000"
 3492      74726561 
 3492      6D564D54 
 3492      00
 3493              	.LASF1:
 3494 01a2 666C6F61 		.ascii	"float\000"
 3494      7400
 3495              	.LASF30:
 3496 01a8 4D656D6F 		.ascii	"MemoryStream\000"
 3496      72795374 
 3496      7265616D 
 3496      00
 3497              	.LASF15:
 3498 01b5 5F426F6F 		.ascii	"_Bool\000"
 3498      6C00
 3499              	.LASF9:
 3500 01bb 696E7433 		.ascii	"int32_t\000"
 3500      325F7400 
 3501              	.LASF6:
 3502 01c3 756E7369 		.ascii	"unsigned char\000"
 3502      676E6564 
 3502      20636861 
 3502      7200
 3503              	.LASF7:
 3504 01d1 73686F72 		.ascii	"short int\000"
ARM GAS  C:\Users\NICOMA~1\AppData\Local\Temp\ccd1FKNk.s 			page 64


 3504      7420696E 
 3504      7400
 3505              	.LASF23:
 3506 01db 42617365 		.ascii	"BaseSequentialStreamVMT\000"
 3506      53657175 
 3506      656E7469 
 3506      616C5374 
 3506      7265616D 
 3507              	.LASF31:
 3508 01f3 72616469 		.ascii	"radix\000"
 3508      7800
 3509              	.LASF17:
 3510 01f9 63686172 		.ascii	"char\000"
 3510      00
 3511              	.LASF35:
 3512 01fe 70726563 		.ascii	"precision\000"
 3512      6973696F 
 3512      6E00
 3513              	.LASF27:
 3514 0208 62756666 		.ascii	"buffer\000"
 3514      657200
 3515              	.LASF29:
 3516 020f 6F666673 		.ascii	"offset\000"
 3516      657400
 3517              	.LASF44:
 3518 0216 5F5F6170 		.ascii	"__ap\000"
 3518      00
 3519              	.LASF5:
 3520 021b 75696E74 		.ascii	"uint8_t\000"
 3520      385F7400 
 3521              	.LASF46:
 3522 0223 63687670 		.ascii	"chvprintf\000"
 3522      72696E74 
 3522      6600
 3523              	.LASF20:
 3524 022d 72656164 		.ascii	"read\000"
 3524      00
 3525              	.LASF45:
 3526 0232 6C6F6E67 		.ascii	"long_to_string_with_divisor\000"
 3526      5F746F5F 
 3526      73747269 
 3526      6E675F77 
 3526      6974685F 
 3527              		.ident	"GCC: (GNU) 4.7.2"
ARM GAS  C:\Users\NICOMA~1\AppData\Local\Temp\ccd1FKNk.s 			page 65


DEFINED SYMBOLS
                            *ABS*:00000000 chprintf.c
C:\Users\NICOMA~1\AppData\Local\Temp\ccd1FKNk.s:19     .text.long_to_string_with_divisor:00000000 $a
C:\Users\NICOMA~1\AppData\Local\Temp\ccd1FKNk.s:21     .text.long_to_string_with_divisor:00000000 long_to_string_with_divisor
C:\Users\NICOMA~1\AppData\Local\Temp\ccd1FKNk.s:137    .text.chvprintf:00000000 $a
C:\Users\NICOMA~1\AppData\Local\Temp\ccd1FKNk.s:140    .text.chvprintf:00000000 chvprintf
C:\Users\NICOMA~1\AppData\Local\Temp\ccd1FKNk.s:312    .text.chvprintf:00000128 $d
C:\Users\NICOMA~1\AppData\Local\Temp\ccd1FKNk.s:368    .text.chvprintf:000001fc $a
C:\Users\NICOMA~1\AppData\Local\Temp\ccd1FKNk.s:777    .text.chvprintf:000004d4 $d
C:\Users\NICOMA~1\AppData\Local\Temp\ccd1FKNk.s:785    .text.chsnprintf:00000000 $a
C:\Users\NICOMA~1\AppData\Local\Temp\ccd1FKNk.s:788    .text.chsnprintf:00000000 chsnprintf
C:\Users\NICOMA~1\AppData\Local\Temp\ccd1FKNk.s:850    .rodata.str1.4:00000000 $d
                     .debug_frame:00000010 $d

UNDEFINED SYMBOLS
__aeabi_uidivmod
__aeabi_uidiv
__aeabi_d2f
__aeabi_fcmplt
__aeabi_f2iz
__aeabi_f2d
__aeabi_i2d
__aeabi_dsub
__aeabi_dmul
__aeabi_d2iz
msObjectInit
