ARM GAS  C:\Users\NICOMA~1\AppData\Local\Temp\ccd1FKNk.s 			page 1


   1              		.cpu arm1176jz-s
   2              		.fpu softvfp
   3              		.eabi_attribute 20, 1
   4              		.eabi_attribute 21, 1
   5              		.eabi_attribute 23, 3
   6              		.eabi_attribute 24, 1
   7              		.eabi_attribute 25, 1
   8              		.eabi_attribute 26, 1
   9              		.eabi_attribute 30, 2
  10              		.eabi_attribute 34, 1
  11              		.eabi_attribute 18, 4
  12              		.file	"chprintf.c"
  13              		.text
  14              	.Ltext0:
  15              		.cfi_sections	.debug_frame
  16              		.global	__aeabi_uidivmod
  17              		.global	__aeabi_uidiv
  18              		.section	.text.long_to_string_with_divisor,"ax",%progbits
  19              		.align	2
  20              		.type	long_to_string_with_divisor, %function
  21              	long_to_string_with_divisor:
  22              	.LFB8:
  23              		.file 1 "../../os/various/chprintf.c"
  24              		.loc 1 40 0
  25              		.cfi_startproc
  26              		@ args = 0, pretend = 0, frame = 0
  27              		@ frame_needed = 0, uses_anonymous_args = 0
  28              	.LVL0:
  29              		.loc 1 47 0
  30 0000 000053E3 		cmp	r3, #0
  31              		.loc 1 40 0
  32 0004 F84F2DE9 		stmfd	sp!, {r3, r4, r5, r6, r7, r8, r9, sl, fp, lr}
  33              	.LCFI0:
  34              		.cfi_def_cfa_offset 40
  35              		.cfi_offset 3, -40
  36              		.cfi_offset 4, -36
  37              		.cfi_offset 5, -32
  38              		.cfi_offset 6, -28
  39              		.cfi_offset 7, -24
  40              		.cfi_offset 8, -20
  41              		.cfi_offset 9, -16
  42              		.cfi_offset 10, -12
  43              		.cfi_offset 11, -8
  44              		.cfi_offset 14, -4
  45              		.loc 1 40 0
  46 0008 0050A0E1 		mov	r5, r0
  47              	.LVL1:
  48 000c 0270A0E1 		mov	r7, r2
  49              		.loc 1 47 0
  50 0010 0380A011 		movne	r8, r3
  51 0014 0180A001 		moveq	r8, r1
  52              	.LVL2:
  53              		.loc 1 52 0
  54 0018 0B9080E2 		add	r9, r0, #11
  55              	.LVL3:
  56              		.loc 1 37 0
  57 001c 0A6080E2 		add	r6, r0, #10
ARM GAS  C:\Users\NICOMA~1\AppData\Local\Temp\ccd1FKNk.s 			page 2


  58              		.loc 1 45 0
  59 0020 01B0A0E1 		mov	fp, r1
  60              	.LVL4:
  61              	.L4:
  62              		.loc 1 54 0
  63 0024 0B00A0E1 		mov	r0, fp
  64 0028 0710A0E1 		mov	r1, r7
  65 002c FEFFFFEB 		bl	__aeabi_uidivmod
  66              	.LVL5:
  67 0030 0130A0E1 		mov	r3, r1
  68              	.LVL6:
  69              		.loc 1 55 0
  70 0034 304083E2 		add	r4, r3, #48
  71              	.LVL7:
  72              		.loc 1 56 0
  73 0038 390054E3 		cmp	r4, #57
  74              		.loc 1 57 0
  75 003c 374083C2 		addgt	r4, r3, #55
  76              	.LVL8:
  77              		.loc 1 58 0
  78 0040 7440EFE6 		uxtb	r4, r4
  79              	.LVL9:
  80              		.loc 1 59 0
  81 0044 0B00A0E1 		mov	r0, fp
  82 0048 0710A0E1 		mov	r1, r7
  83              	.LVL10:
  84              		.loc 1 58 0
  85 004c 06A0A0E1 		mov	sl, r6
  86 0050 014046E4 		strb	r4, [r6], #-1
  87              	.LVL11:
  88              		.loc 1 59 0
  89 0054 FEFFFFEB 		bl	__aeabi_uidiv
  90              	.LVL12:
  91              		.loc 1 60 0
  92 0058 0710A0E1 		mov	r1, r7
  93              		.loc 1 59 0
  94 005c 00B0A0E1 		mov	fp, r0
  95              	.LVL13:
  96              		.loc 1 60 0
  97 0060 0800A0E1 		mov	r0, r8
  98              	.LVL14:
  99 0064 FEFFFFEB 		bl	__aeabi_uidiv
 100              	.LVL15:
 101 0068 008050E2 		subs	r8, r0, #0
 102 006c ECFFFF1A 		bne	.L4
 103              	.LVL16:
 104              		.loc 1 62 0
 105 0070 09906AE0 		rsb	r9, sl, r9
 106              	.LVL17:
 107              		.loc 1 37 0
 108 0074 099085E0 		add	r9, r5, r9
 109              	.LVL18:
 110 0078 000000EA 		b	.L6
 111              	.LVL19:
 112              	.L11:
 113 007c 0140FAE5 		ldrb	r4, [sl, #1]!	@ zero_extendqisi2
 114              	.L6:
ARM GAS  C:\Users\NICOMA~1\AppData\Local\Temp\ccd1FKNk.s 			page 3


 115              		.loc 1 64 0 discriminator 1
 116 0080 0140C5E4 		strb	r4, [r5], #1
 117              	.LVL20:
 118              		.loc 1 65 0 discriminator 1
 119 0084 090055E1 		cmp	r5, r9
 120 0088 FBFFFF1A 		bne	.L11
 121              		.loc 1 68 0
 122 008c 0500A0E1 		mov	r0, r5
 123              	.LVL21:
 124 0090 F88FBDE8 		ldmfd	sp!, {r3, r4, r5, r6, r7, r8, r9, sl, fp, pc}
 125              		.cfi_endproc
 126              	.LFE8:
 127              		.size	long_to_string_with_divisor, .-long_to_string_with_divisor
 128              		.global	__aeabi_d2f
 129              		.global	__aeabi_fcmplt
 130              		.global	__aeabi_f2iz
 131              		.global	__aeabi_f2d
 132              		.global	__aeabi_i2d
 133              		.global	__aeabi_dsub
 134              		.global	__aeabi_dmul
 135              		.global	__aeabi_d2iz
 136              		.section	.text.chvprintf,"ax",%progbits
 137              		.align	2
 138              		.global	chvprintf
 139              		.type	chvprintf, %function
 140              	chvprintf:
 141              	.LFB11:
 142              		.loc 1 112 0
 143              		.cfi_startproc
 144              		@ args = 0, pretend = 0, frame = 48
 145              		@ frame_needed = 0, uses_anonymous_args = 0
 146              	.LVL22:
 147 0000 F04F2DE9 		stmfd	sp!, {r4, r5, r6, r7, r8, r9, sl, fp, lr}
 148              	.LCFI1:
 149              		.cfi_def_cfa_offset 36
 150              		.cfi_offset 4, -36
 151              		.cfi_offset 5, -32
 152              		.cfi_offset 6, -28
 153              		.cfi_offset 7, -24
 154              		.cfi_offset 8, -20
 155              		.cfi_offset 9, -16
 156              		.cfi_offset 10, -12
 157              		.cfi_offset 11, -8
 158              		.cfi_offset 14, -4
 159 0004 34D04DE2 		sub	sp, sp, #52
 160              	.LCFI2:
 161              		.cfi_def_cfa_offset 88
 162              		.loc 1 132 0
 163 0008 18308DE2 		add	r3, sp, #24
 164 000c 08308DE5 		str	r3, [sp, #8]
 165              		.loc 1 112 0
 166 0010 0260A0E1 		mov	r6, r2
 167 0014 08209DE5 		ldr	r2, [sp, #8]
 168              	.LVL23:
 169              		.loc 1 236 0
 170 0018 19308DE2 		add	r3, sp, #25
 171 001c 032062E0 		rsb	r2, r2, r3
ARM GAS  C:\Users\NICOMA~1\AppData\Local\Temp\ccd1FKNk.s 			page 4


 172 0020 04308DE5 		str	r3, [sp, #4]
 173              		.loc 1 112 0
 174 0024 0050A0E1 		mov	r5, r0
 175 0028 0170A0E1 		mov	r7, r1
 176 002c 0C208DE5 		str	r2, [sp, #12]
 177              	.LVL24:
 178              	.L76:
 179              		.loc 1 125 0
 180 0030 0740A0E1 		mov	r4, r7
 181 0034 0110D4E4 		ldrb	r1, [r4], #1	@ zero_extendqisi2
 182              	.LVL25:
 183              		.loc 1 126 0
 184 0038 000051E3 		cmp	r1, #0
 185 003c 0A00000A 		beq	.L12
 186              	.LVL26:
 187              	.L83:
 188              		.loc 1 128 0
 189 0040 250051E3 		cmp	r1, #37
 190 0044 0A00000A 		beq	.L15
 191              		.loc 1 129 0
 192 0048 003095E5 		ldr	r3, [r5, #0]
 193              		.loc 1 125 0
 194 004c 0470A0E1 		mov	r7, r4
 195              		.loc 1 129 0
 196 0050 0500A0E1 		mov	r0, r5
 197 0054 083093E5 		ldr	r3, [r3, #8]
 198              		.loc 1 125 0
 199 0058 0740A0E1 		mov	r4, r7
 200              		.loc 1 129 0
 201 005c 33FF2FE1 		blx	r3
 202              	.LVL27:
 203              		.loc 1 125 0
 204 0060 0110D4E4 		ldrb	r1, [r4], #1	@ zero_extendqisi2
 205              	.LVL28:
 206              		.loc 1 126 0
 207 0064 000051E3 		cmp	r1, #0
 208 0068 F4FFFF1A 		bne	.L83
 209              	.LVL29:
 210              	.L12:
 211              		.loc 1 261 0
 212 006c 34D08DE2 		add	sp, sp, #52
 213 0070 F08FBDE8 		ldmfd	sp!, {r4, r5, r6, r7, r8, r9, sl, fp, pc}
 214              	.L15:
 215              	.LVL30:
 216              		.loc 1 135 0
 217 0074 0130D7E5 		ldrb	r3, [r7, #1]	@ zero_extendqisi2
 218 0078 2D0053E3 		cmp	r3, #45
 219 007c 0230D705 		ldreqb	r3, [r7, #2]	@ zero_extendqisi2
 220              		.loc 1 136 0
 221 0080 02408702 		addeq	r4, r7, #2
 222              	.LVL31:
 223              		.loc 1 137 0
 224 0084 01A0A003 		moveq	sl, #1
 225              		.loc 1 134 0
 226 0088 00A0A013 		movne	sl, #0
 227              	.LVL32:
 228              		.loc 1 140 0
ARM GAS  C:\Users\NICOMA~1\AppData\Local\Temp\ccd1FKNk.s 			page 5


 229 008c 2E0053E3 		cmp	r3, #46
 230 0090 30005313 		cmpne	r3, #48
 231 0094 0130D405 		ldreqb	r3, [r4, #1]	@ zero_extendqisi2
 232              		.loc 1 141 0
 233 0098 01408402 		addeq	r4, r4, #1
 234              	.LVL33:
 235 009c 0410A0E1 		mov	r1, r4
 236              		.loc 1 142 0
 237 00a0 3080A003 		moveq	r8, #48
 238              		.loc 1 139 0
 239 00a4 2080A013 		movne	r8, #32
 240              	.LVL34:
 241              		.loc 1 144 0
 242 00a8 0040A0E3 		mov	r4, #0
 243 00ac 050000EA 		b	.L21
 244              	.LVL35:
 245              	.L84:
 246              		.loc 1 150 0
 247 00b0 0020D6E5 		ldrb	r2, [r6, #0]	@ zero_extendqisi2
 248              	.LVL36:
 249 00b4 046086E2 		add	r6, r6, #4
 250              	.LVL37:
 251              	.L19:
 252              		.loc 1 153 0
 253 00b8 044184E0 		add	r4, r4, r4, asl #2
 254              	.LVL38:
 255 00bc 0130D1E5 		ldrb	r3, [r1, #1]	@ zero_extendqisi2
 256 00c0 844082E0 		add	r4, r2, r4, asl #1
 257              	.LVL39:
 258 00c4 0010A0E1 		mov	r1, r0
 259              	.LVL40:
 260              	.L21:
 261              		.loc 1 147 0
 262 00c8 302043E2 		sub	r2, r3, #48
 263 00cc 7220EFE6 		uxtb	r2, r2
 264              		.loc 1 112 0
 265 00d0 010081E2 		add	r0, r1, #1
 266              		.loc 1 147 0
 267 00d4 090052E3 		cmp	r2, #9
 268              		.loc 1 112 0
 269 00d8 0070A0E1 		mov	r7, r0
 270              	.LVL41:
 271              		.loc 1 147 0
 272 00dc F5FFFF9A 		bls	.L19
 273              		.loc 1 149 0
 274 00e0 2A0053E3 		cmp	r3, #42
 275 00e4 F1FFFF0A 		beq	.L84
 276              	.LVL42:
 277              		.loc 1 156 0
 278 00e8 2E0053E3 		cmp	r3, #46
 279              		.loc 1 155 0
 280 00ec 0010A013 		movne	r1, #0
 281              		.loc 1 156 0
 282 00f0 DA00000A 		beq	.L85
 283              	.LVL43:
 284              	.L22:
 285              		.loc 1 170 0
ARM GAS  C:\Users\NICOMA~1\AppData\Local\Temp\ccd1FKNk.s 			page 6


 286 00f4 DF2003E2 		and	r2, r3, #223
 287 00f8 4C0052E3 		cmp	r2, #76
 288 00fc D200001A 		bne	.L25
 289              	.LVL44:
 290              		.loc 1 172 0
 291 0100 0020D7E5 		ldrb	r2, [r7, #0]	@ zero_extendqisi2
 292 0104 000052E3 		cmp	r2, #0
 293              		.loc 1 171 0
 294 0108 0100A003 		moveq	r0, #1
 295              	.LVL45:
 296              		.loc 1 172 0
 297              	.LVL46:
 298              		.loc 1 173 0
 299 010c 01708712 		addne	r7, r7, #1
 300              	.LVL47:
 301 0110 0230A011 		movne	r3, r2
 302              		.loc 1 171 0
 303 0114 0100A013 		movne	r0, #1
 304              	.LVL48:
 305              	.L26:
 306              		.loc 1 179 0
 307 0118 442043E2 		sub	r2, r3, #68
 308 011c 340052E3 		cmp	r2, #52
 309 0120 02F19F97 		ldrls	pc, [pc, r2, asl #2]
 310 0124 C40000EA 		b	.L27
 311              	.L35:
 312 0128 14040000 		.word	.L28
 313 012c 3C040000 		.word	.L27
 314 0130 3C040000 		.word	.L27
 315 0134 3C040000 		.word	.L27
 316 0138 3C040000 		.word	.L27
 317 013c 14040000 		.word	.L28
 318 0140 3C040000 		.word	.L27
 319 0144 3C040000 		.word	.L27
 320 0148 3C040000 		.word	.L27
 321 014c 3C040000 		.word	.L27
 322 0150 3C040000 		.word	.L27
 323 0154 0C040000 		.word	.L29
 324 0158 3C040000 		.word	.L27
 325 015c 3C040000 		.word	.L27
 326 0160 3C040000 		.word	.L27
 327 0164 3C040000 		.word	.L27
 328 0168 3C040000 		.word	.L27
 329 016c 04040000 		.word	.L60
 330 0170 3C040000 		.word	.L27
 331 0174 3C040000 		.word	.L27
 332 0178 DC030000 		.word	.L31
 333 017c 3C040000 		.word	.L27
 334 0180 3C040000 		.word	.L27
 335 0184 3C040000 		.word	.L27
 336 0188 3C040000 		.word	.L27
 337 018c 3C040000 		.word	.L27
 338 0190 3C040000 		.word	.L27
 339 0194 3C040000 		.word	.L27
 340 0198 3C040000 		.word	.L27
 341 019c 3C040000 		.word	.L27
 342 01a0 3C040000 		.word	.L27
ARM GAS  C:\Users\NICOMA~1\AppData\Local\Temp\ccd1FKNk.s 			page 7


 343 01a4 C0030000 		.word	.L32
 344 01a8 14040000 		.word	.L28
 345 01ac 3C040000 		.word	.L27
 346 01b0 B8020000 		.word	.L33
 347 01b4 3C040000 		.word	.L27
 348 01b8 3C040000 		.word	.L27
 349 01bc 14040000 		.word	.L28
 350 01c0 3C040000 		.word	.L27
 351 01c4 3C040000 		.word	.L27
 352 01c8 3C040000 		.word	.L27
 353 01cc 3C040000 		.word	.L27
 354 01d0 3C040000 		.word	.L27
 355 01d4 0C040000 		.word	.L29
 356 01d8 3C040000 		.word	.L27
 357 01dc 3C040000 		.word	.L27
 358 01e0 3C040000 		.word	.L27
 359 01e4 FC010000 		.word	.L34
 360 01e8 3C040000 		.word	.L27
 361 01ec 04040000 		.word	.L60
 362 01f0 3C040000 		.word	.L27
 363 01f4 3C040000 		.word	.L27
 364 01f8 DC030000 		.word	.L31
 365              	.L34:
 366              	.LVL49:
 367              		.loc 1 186 0
 368 01fc 009096E5 		ldr	r9, [r6, #0]
 369              		.loc 1 187 0
 370 0200 CC329FE5 		ldr	r3, .L90
 371              	.LVL50:
 372 0204 000059E3 		cmp	r9, #0
 373 0208 0390A001 		moveq	r9, r3
 374              		.loc 1 190 0
 375 020c 00B0D9E5 		ldrb	fp, [r9, #0]	@ zero_extendqisi2
 376              		.loc 1 189 0
 377 0210 C0329FE5 		ldr	r3, .L90+4
 378 0214 000051E3 		cmp	r1, #0
 379 0218 0310A001 		moveq	r1, r3
 380              	.LVL51:
 381              		.loc 1 190 0
 382 021c 00005BE3 		cmp	fp, #0
 383              		.loc 1 186 0
 384 0220 046086E2 		add	r6, r6, #4
 385              	.LVL52:
 386              		.loc 1 190 0
 387 0224 A800000A 		beq	.L63
 388              	.LVL53:
 389 0228 0930A0E1 		mov	r3, r9
 390              		.loc 1 112 0
 391 022c 011089E0 		add	r1, r9, r1
 392              	.LVL54:
 393 0230 010000EA 		b	.L40
 394              	.LVL55:
 395              	.L39:
 396              		.loc 1 190 0 discriminator 2
 397 0234 01005BE1 		cmp	fp, r1
 398 0238 A000000A 		beq	.L86
 399              	.L40:
ARM GAS  C:\Users\NICOMA~1\AppData\Local\Temp\ccd1FKNk.s 			page 8


 400              		.loc 1 190 0 is_stmt 0 discriminator 1
 401 023c 0120D3E5 		ldrb	r2, [r3, #1]	@ zero_extendqisi2
 402              		.loc 1 112 0 is_stmt 1 discriminator 1
 403 0240 01B083E2 		add	fp, r3, #1
 404              	.LVL56:
 405              		.loc 1 190 0 discriminator 1
 406 0244 000052E3 		cmp	r2, #0
 407 0248 0B30A0E1 		mov	r3, fp
 408 024c F8FFFF1A 		bne	.L39
 409 0250 0BB069E0 		rsb	fp, r9, fp
 410              	.LVL57:
 411              		.loc 1 240 0
 412 0254 04406BE0 		rsb	r4, fp, r4
 413              	.LVL58:
 414              		.loc 1 242 0
 415 0258 00005AE3 		cmp	sl, #0
 416              		.loc 1 185 0
 417 025c 2080A0E3 		mov	r8, #32
 418              	.LVL59:
 419 0260 C44FC4E1 		bic	r4, r4, r4, asr #31
 420              	.LVL60:
 421              		.loc 1 242 0
 422 0264 4700000A 		beq	.L87
 423              	.LVL61:
 424              	.L48:
 425              		.loc 1 253 0 discriminator 1
 426 0268 00005BE3 		cmp	fp, #0
 427              		.loc 1 112 0 discriminator 1
 428 026c 0BA089C0 		addgt	sl, r9, fp
 429              	.LVL62:
 430              		.loc 1 253 0 discriminator 1
 431 0270 060000DA 		ble	.L54
 432              	.LVL63:
 433              	.L53:
 434              		.loc 1 254 0
 435 0274 003095E5 		ldr	r3, [r5, #0]
 436 0278 0110D9E4 		ldrb	r1, [r9], #1	@ zero_extendqisi2
 437              	.LVL64:
 438 027c 083093E5 		ldr	r3, [r3, #8]
 439 0280 0500A0E1 		mov	r0, r5
 440 0284 33FF2FE1 		blx	r3
 441              	.LVL65:
 442              		.loc 1 253 0
 443 0288 0A0059E1 		cmp	r9, sl
 444 028c F8FFFF1A 		bne	.L53
 445              	.L54:
 446              	.LVL66:
 447              		.loc 1 256 0
 448 0290 000054E3 		cmp	r4, #0
 449 0294 65FFFF0A 		beq	.L76
 450              	.L69:
 451              		.loc 1 257 0
 452 0298 003095E5 		ldr	r3, [r5, #0]
 453 029c 0500A0E1 		mov	r0, r5
 454 02a0 083093E5 		ldr	r3, [r3, #8]
 455 02a4 0810A0E1 		mov	r1, r8
 456 02a8 33FF2FE1 		blx	r3
ARM GAS  C:\Users\NICOMA~1\AppData\Local\Temp\ccd1FKNk.s 			page 9


 457              	.LVL67:
 458              		.loc 1 256 0
 459 02ac 014054E2 		subs	r4, r4, #1
 460              	.LVL68:
 461 02b0 F8FFFF1A 		bne	.L69
 462 02b4 5DFFFFEA 		b	.L76
 463              	.LVL69:
 464              	.L33:
 465              		.loc 1 209 0
 466 02b8 076086E2 		add	r6, r6, #7
 467              	.LVL70:
 468 02bc 0760C6E3 		bic	r6, r6, #7
 469              	.LVL71:
 470 02c0 D000C6E1 		ldrd	r0, [r6]
 471              	.LVL72:
 472 02c4 FEFFFFEB 		bl	__aeabi_d2f
 473              	.LVL73:
 474              		.loc 1 210 0
 475 02c8 0010A0E3 		mov	r1, #0
 476              		.loc 1 209 0
 477 02cc 00B0A0E1 		mov	fp, r0
 478              		.loc 1 210 0
 479 02d0 FEFFFFEB 		bl	__aeabi_fcmplt
 480              	.LVL74:
 481 02d4 000050E3 		cmp	r0, #0
 482              		.loc 1 212 0
 483 02d8 02B18B12 		addne	fp, fp, #-2147483648
 484              		.loc 1 211 0
 485 02dc 2D30A013 		movne	r3, #45
 486              	.LBB8:
 487              	.LBB9:
 488              		.loc 1 80 0
 489 02e0 0B00A0E1 		mov	r0, fp
 490              	.LBE9:
 491              	.LBE8:
 492              		.loc 1 211 0
 493 02e4 19908D12 		addne	r9, sp, #25
 494              		.loc 1 132 0
 495 02e8 18908D02 		addeq	r9, sp, #24
 496              		.loc 1 211 0
 497 02ec 1830CD15 		strneb	r3, [sp, #24]
 498              	.LBB13:
 499              	.LBB10:
 500              		.loc 1 80 0
 501 02f0 FEFFFFEB 		bl	__aeabi_f2iz
 502              	.LVL75:
 503 02f4 00C0A0E1 		mov	ip, r0
 504              		.loc 1 81 0
 505 02f8 0A20A0E3 		mov	r2, #10
 506 02fc 0C10A0E1 		mov	r1, ip
 507 0300 0900A0E1 		mov	r0, r9
 508 0304 0030A0E3 		mov	r3, #0
 509 0308 00C08DE5 		str	ip, [sp, #0]
 510 030c FEFFFFEB 		bl	long_to_string_with_divisor
 511              	.LVL76:
 512              		.loc 1 82 0
 513 0310 2E30A0E3 		mov	r3, #46
ARM GAS  C:\Users\NICOMA~1\AppData\Local\Temp\ccd1FKNk.s 			page 10


 514 0314 0090A0E1 		mov	r9, r0
 515 0318 0130C9E4 		strb	r3, [r9], #1
 516              	.LBE10:
 517              	.LBE13:
 518              		.loc 1 214 0
 519 031c 0B00A0E1 		mov	r0, fp
 520 0320 FEFFFFEB 		bl	__aeabi_f2d
 521              	.LVL77:
 522              	.LBB14:
 523              	.LBB11:
 524              		.loc 1 83 0
 525 0324 00C09DE5 		ldr	ip, [sp, #0]
 526              	.LBE11:
 527              	.LBE14:
 528              		.loc 1 214 0
 529 0328 F001CDE1 		strd	r0, [sp, #16]
 530              	.LBB15:
 531              	.LBB12:
 532              		.loc 1 83 0
 533 032c 0C00A0E1 		mov	r0, ip
 534 0330 FEFFFFEB 		bl	__aeabi_i2d
 535              	.LVL78:
 536 0334 0020A0E1 		mov	r2, r0
 537 0338 0130A0E1 		mov	r3, r1
 538 033c D001CDE1 		ldrd	r0, [sp, #16]
 539 0340 FEFFFFEB 		bl	__aeabi_dsub
 540              	.LVL79:
 541 0344 0020A0E3 		mov	r2, #0
 542 0348 8C319FE5 		ldr	r3, .L90+8
 543 034c FEFFFFEB 		bl	__aeabi_dmul
 544              	.LVL80:
 545 0350 FEFFFFEB 		bl	__aeabi_d2iz
 546              	.LVL81:
 547              		.loc 1 84 0
 548 0354 84319FE5 		ldr	r3, .L90+12
 549              		.loc 1 83 0
 550 0358 0010A0E1 		mov	r1, r0
 551              		.loc 1 84 0
 552 035c 0A20A0E3 		mov	r2, #10
 553 0360 0900A0E1 		mov	r0, r9
 554 0364 FEFFFFEB 		bl	long_to_string_with_divisor
 555              	.LVL82:
 556 0368 08309DE5 		ldr	r3, [sp, #8]
 557              	.LBE12:
 558              	.LBE15:
 559              		.loc 1 209 0
 560 036c 086086E2 		add	r6, r6, #8
 561              	.LVL83:
 562              		.loc 1 133 0
 563 0370 18908DE2 		add	r9, sp, #24
 564 0374 00B063E0 		rsb	fp, r3, r0
 565              	.LVL84:
 566              	.L36:
 567              		.loc 1 240 0
 568 0378 04406BE0 		rsb	r4, fp, r4
 569              	.LVL85:
 570              		.loc 1 242 0
ARM GAS  C:\Users\NICOMA~1\AppData\Local\Temp\ccd1FKNk.s 			page 11


 571 037c 00005AE3 		cmp	sl, #0
 572 0380 C44FC4E1 		bic	r4, r4, r4, asr #31
 573              	.LVL86:
 574 0384 B7FFFF1A 		bne	.L48
 575              	.LVL87:
 576              	.L87:
 577              		.loc 1 243 0
 578 0388 004064E2 		rsb	r4, r4, #0
 579              	.LVL88:
 580              		.loc 1 244 0
 581 038c 000054E3 		cmp	r4, #0
 582 0390 B4FFFF0A 		beq	.L48
 583              		.loc 1 245 0
 584 0394 0010D9E5 		ldrb	r1, [r9, #0]	@ zero_extendqisi2
 585 0398 2D0051E3 		cmp	r1, #45
 586 039c 3E00000A 		beq	.L88
 587              	.LVL89:
 588              	.L70:
 589              		.loc 1 250 0 discriminator 1
 590 03a0 003095E5 		ldr	r3, [r5, #0]
 591 03a4 0500A0E1 		mov	r0, r5
 592 03a8 083093E5 		ldr	r3, [r3, #8]
 593 03ac 0810A0E1 		mov	r1, r8
 594 03b0 33FF2FE1 		blx	r3
 595              	.LVL90:
 596              		.loc 1 251 0 discriminator 1
 597 03b4 014094E2 		adds	r4, r4, #1
 598              	.LVL91:
 599 03b8 F8FFFF1A 		bne	.L70
 600 03bc A9FFFFEA 		b	.L48
 601              	.LVL92:
 602              	.L32:
 603              		.loc 1 182 0
 604 03c0 003096E5 		ldr	r3, [r6, #0]
 605              	.LVL93:
 606 03c4 0CB09DE5 		ldr	fp, [sp, #12]
 607 03c8 1830CDE5 		strb	r3, [sp, #24]
 608              	.LVL94:
 609 03cc 046086E2 		add	r6, r6, #4
 610              	.LVL95:
 611              		.loc 1 181 0
 612 03d0 2080A0E3 		mov	r8, #32
 613              		.loc 1 133 0
 614 03d4 18908DE2 		add	r9, sp, #24
 615              		.loc 1 183 0
 616 03d8 E6FFFFEA 		b	.L36
 617              	.LVL96:
 618              	.L31:
 619              		.loc 1 179 0
 620 03dc 1020A0E3 		mov	r2, #16
 621              	.LVL97:
 622              	.L30:
 623              		.loc 1 230 0
 624 03e0 001096E5 		ldr	r1, [r6, #0]
 625              	.LVL98:
 626              	.LBB16:
 627              	.LBB17:
ARM GAS  C:\Users\NICOMA~1\AppData\Local\Temp\ccd1FKNk.s 			page 12


 628              		.loc 1 72 0
 629 03e4 18008DE2 		add	r0, sp, #24
 630              	.LVL99:
 631              	.LBE17:
 632              	.LBE16:
 633              		.loc 1 230 0
 634 03e8 046086E2 		add	r6, r6, #4
 635              	.LVL100:
 636              	.L82:
 637              	.LBB19:
 638              	.LBB18:
 639              		.loc 1 72 0
 640 03ec 0030A0E3 		mov	r3, #0
 641 03f0 FEFFFFEB 		bl	long_to_string_with_divisor
 642              	.LVL101:
 643 03f4 08209DE5 		ldr	r2, [sp, #8]
 644              	.LBE18:
 645              	.LBE19:
 646              		.loc 1 133 0
 647 03f8 18908DE2 		add	r9, sp, #24
 648 03fc 00B062E0 		rsb	fp, r2, r0
 649              		.loc 1 234 0
 650 0400 DCFFFFEA 		b	.L36
 651              	.LVL102:
 652              	.L60:
 653              		.loc 1 179 0
 654 0404 0A20A0E3 		mov	r2, #10
 655 0408 F4FFFFEA 		b	.L30
 656              	.L29:
 657              	.LVL103:
 658 040c 0820A0E3 		mov	r2, #8
 659 0410 F2FFFFEA 		b	.L30
 660              	.LVL104:
 661              	.L28:
 662              		.loc 1 198 0
 663 0414 001096E5 		ldr	r1, [r6, #0]
 664              	.LVL105:
 665              	.LBB20:
 666              	.LBB21:
 667              		.loc 1 72 0
 668 0418 0A20A0E3 		mov	r2, #10
 669              	.LBE21:
 670              	.LBE20:
 671              		.loc 1 201 0
 672 041c 000051E3 		cmp	r1, #0
 673              		.loc 1 202 0
 674 0420 2D30A0B3 		movlt	r3, #45
 675              	.LVL106:
 676              		.loc 1 198 0
 677 0424 046086E2 		add	r6, r6, #4
 678              	.LVL107:
 679              		.loc 1 202 0
 680 0428 1830CDB5 		strltb	r3, [sp, #24]
 681              	.LVL108:
 682              		.loc 1 203 0
 683 042c 001061B2 		rsblt	r1, r1, #0
 684              	.LVL109:
ARM GAS  C:\Users\NICOMA~1\AppData\Local\Temp\ccd1FKNk.s 			page 13


 685              		.loc 1 202 0
 686 0430 19008DB2 		addlt	r0, sp, #25
 687              	.LVL110:
 688              		.loc 1 132 0
 689 0434 18008DA2 		addge	r0, sp, #24
 690              	.LVL111:
 691 0438 EBFFFFEA 		b	.L82
 692              	.LVL112:
 693              	.L27:
 694              		.loc 1 236 0
 695 043c 1830CDE5 		strb	r3, [sp, #24]
 696              	.LVL113:
 697 0440 0CB09DE5 		ldr	fp, [sp, #12]
 698              		.loc 1 133 0
 699 0444 18908DE2 		add	r9, sp, #24
 700              		.loc 1 237 0
 701 0448 CAFFFFEA 		b	.L36
 702              	.LVL114:
 703              	.L25:
 704              		.loc 1 176 0
 705 044c 410043E2 		sub	r0, r3, #65
 706              	.LVL115:
 707 0450 190050E3 		cmp	r0, #25
 708 0454 0000A083 		movhi	r0, #0
 709 0458 0100A093 		movls	r0, #1
 710              	.LVL116:
 711 045c 2DFFFFEA 		b	.L26
 712              	.LVL117:
 713              	.L85:
 714              		.loc 1 156 0
 715 0460 0010A0E3 		mov	r1, #0
 716 0464 020000EA 		b	.L24
 717              	.LVL118:
 718              	.L89:
 719              		.loc 1 162 0
 720 0468 0020D6E5 		ldrb	r2, [r6, #0]	@ zero_extendqisi2
 721              	.LVL119:
 722 046c 046086E2 		add	r6, r6, #4
 723              	.LVL120:
 724              	.L23:
 725              		.loc 1 166 0
 726 0470 8C1082E0 		add	r1, r2, ip, asl #1
 727              	.LVL121:
 728              	.L24:
 729              		.loc 1 158 0
 730 0474 0130D0E4 		ldrb	r3, [r0], #1	@ zero_extendqisi2
 731              	.LVL122:
 732              		.loc 1 165 0
 733 0478 01C181E0 		add	ip, r1, r1, asl #2
 734              		.loc 1 159 0
 735 047c 302043E2 		sub	r2, r3, #48
 736 0480 7220EFE6 		uxtb	r2, r2
 737 0484 090052E3 		cmp	r2, #9
 738              		.loc 1 158 0
 739 0488 0070A0E1 		mov	r7, r0
 740              	.LVL123:
 741              		.loc 1 159 0
ARM GAS  C:\Users\NICOMA~1\AppData\Local\Temp\ccd1FKNk.s 			page 14


 742 048c F7FFFF9A 		bls	.L23
 743              		.loc 1 161 0
 744 0490 2A0053E3 		cmp	r3, #42
 745 0494 F3FFFF0A 		beq	.L89
 746 0498 15FFFFEA 		b	.L22
 747              	.LVL124:
 748              	.L88:
 749              		.loc 1 245 0 discriminator 1
 750 049c 300058E3 		cmp	r8, #48
 751 04a0 BEFFFF1A 		bne	.L70
 752              		.loc 1 246 0
 753 04a4 003095E5 		ldr	r3, [r5, #0]
 754 04a8 0500A0E1 		mov	r0, r5
 755 04ac 083093E5 		ldr	r3, [r3, #8]
 756 04b0 33FF2FE1 		blx	r3
 757              	.LVL125:
 758 04b4 019089E2 		add	r9, r9, #1
 759              	.LVL126:
 760              		.loc 1 247 0
 761 04b8 01B04BE2 		sub	fp, fp, #1
 762              	.LVL127:
 763 04bc B7FFFFEA 		b	.L70
 764              	.LVL128:
 765              	.L86:
 766 04c0 0BB069E0 		rsb	fp, r9, fp
 767              		.loc 1 185 0
 768 04c4 2080A0E3 		mov	r8, #32
 769 04c8 AAFFFFEA 		b	.L36
 770              	.LVL129:
 771              	.L63:
 772 04cc 2080A0E3 		mov	r8, #32
 773 04d0 A8FFFFEA 		b	.L36
 774              	.L91:
 775              		.align	2
 776              	.L90:
 777 04d4 00000000 		.word	.LC0
 778 04d8 FF7F0000 		.word	32767
 779 04dc 006AF840 		.word	1090021888
 780 04e0 10270000 		.word	10000
 781              		.cfi_endproc
 782              	.LFE11:
 783              		.size	chvprintf, .-chvprintf
 784              		.section	.text.chsnprintf,"ax",%progbits
 785              		.align	2
 786              		.global	chsnprintf
 787              		.type	chsnprintf, %function
 788              	chsnprintf:
 789              	.LFB12:
 790              		.loc 1 288 0
 791              		.cfi_startproc
 792              		@ args = 4, pretend = 8, frame = 24
 793              		@ frame_needed = 0, uses_anonymous_args = 1
 794              	.LVL130:
 795 0000 0C002DE9 		stmfd	sp!, {r2, r3}
 796              	.LCFI3:
 797              		.cfi_def_cfa_offset 8
 798              		.cfi_offset 2, -8
ARM GAS  C:\Users\NICOMA~1\AppData\Local\Temp\ccd1FKNk.s 			page 15


 799              		.cfi_offset 3, -4
 800 0004 04E02DE5 		str	lr, [sp, #-4]!
 801              	.LCFI4:
 802              		.cfi_def_cfa_offset 12
 803              		.cfi_offset 14, -12
 804 0008 00C0A0E1 		mov	ip, r0
 805 000c 1CD04DE2 		sub	sp, sp, #28
 806              	.LCFI5:
 807              		.cfi_def_cfa_offset 40
 808              		.loc 1 288 0
 809 0010 0120A0E1 		mov	r2, r1
 810              		.loc 1 294 0
 811 0014 04008DE2 		add	r0, sp, #4
 812              	.LVL131:
 813 0018 0C10A0E1 		mov	r1, ip
 814              	.LVL132:
 815 001c 0030A0E3 		mov	r3, #0
 816 0020 FEFFFFEB 		bl	msObjectInit
 817              	.LVL133:
 818              		.loc 1 298 0
 819 0024 24308DE2 		add	r3, sp, #36
 820              		.loc 1 299 0
 821 0028 0320A0E1 		mov	r2, r3
 822 002c 04008DE2 		add	r0, sp, #4
 823              	.LVL134:
 824 0030 20109DE5 		ldr	r1, [sp, #32]
 825              		.loc 1 298 0
 826 0034 00308DE5 		str	r3, [sp, #0]
 827              		.loc 1 299 0
 828 0038 FEFFFFEB 		bl	chvprintf
 829              	.LVL135:
 830              		.loc 1 303 0
 831 003c 04309DE5 		ldr	r3, [sp, #4]
 832 0040 04008DE2 		add	r0, sp, #4
 833              	.LVL136:
 834 0044 083093E5 		ldr	r3, [r3, #8]
 835 0048 0010A0E3 		mov	r1, #0
 836 004c 33FF2FE1 		blx	r3
 837              	.LVL137:
 838              		.loc 1 304 0
 839 0050 10009DE5 		ldr	r0, [sp, #16]
 840              		.loc 1 305 0
 841 0054 010040E2 		sub	r0, r0, #1
 842 0058 1CD08DE2 		add	sp, sp, #28
 843 005c 04E09DE4 		ldr	lr, [sp], #4
 844 0060 08D08DE2 		add	sp, sp, #8
 845 0064 1EFF2FE1 		bx	lr
 846              		.cfi_endproc
 847              	.LFE12:
 848              		.size	chsnprintf, .-chsnprintf
 849              		.section	.rodata.str1.4,"aMS",%progbits,1
 850              		.align	2
 851              	.LC0:
 852 0000 286E756C 		.ascii	"(null)\000"
 852      6C2900
 853 0007 00       		.text
 854              	.Letext0:
ARM GAS  C:\Users\NICOMA~1\AppData\Local\Temp\ccd1FKNk.s 			page 16


 855              		.file 2 "c:\\yagarto-20121222\\bin\\../lib/gcc/arm-none-eabi/4.7.2/include/stddef.h"
 856              		.file 3 "c:/yagarto-20121222/lib/gcc/../../arm-none-eabi/sys-include/stdint.h"
 857              		.file 4 "../../os/ports/GCC/ARM/chtypes.h"
 858              		.file 5 "../../os/kernel/include/chstreams.h"
 859              		.file 6 "c:\\yagarto-20121222\\bin\\../lib/gcc/arm-none-eabi/4.7.2/include/stdarg.h"
 860              		.file 7 "<built-in>"
 861              		.file 8 "../../os/various/memstreams.h"