ARM GAS  C:\Users\NICOMA~1\AppData\Local\Temp\ccPFLohD.s 			page 1


   1              		.cpu arm1176jz-s
   2              		.fpu softvfp
   3              		.eabi_attribute 20, 1
   4              		.eabi_attribute 21, 1
   5              		.eabi_attribute 23, 3
   6              		.eabi_attribute 24, 1
   7              		.eabi_attribute 25, 1
   8              		.eabi_attribute 26, 1
   9              		.eabi_attribute 30, 2
  10              		.eabi_attribute 34, 1
  11              		.eabi_attribute 18, 4
  12              		.file	"chqueues.c"
  13              		.text
  14              	.Ltext0:
  15              		.cfi_sections	.debug_frame
  16              		.section	.text.qwait,"ax",%progbits
  17              		.align	2
  18              		.type	qwait, %function
  19              	qwait:
  20              	.LFB7:
  21              		.file 1 "../../os/kernel/src/chqueues.c"
  22              		.loc 1 70 0
  23              		.cfi_startproc
  24              		@ args = 0, pretend = 0, frame = 0
  25              		@ frame_needed = 0, uses_anonymous_args = 0
  26              		@ link register save eliminated.
  27              	.LVL0:
  28              		.loc 1 72 0
  29 0000 000051E3 		cmp	r1, #0
  30              		.loc 1 70 0
  31 0004 0020A0E1 		mov	r2, r0
  32              		.loc 1 72 0
  33 0008 0800000A 		beq	.L2
  34              		.loc 1 74 0
  35 000c 24309FE5 		ldr	r3, .L4
  36              		.loc 1 76 0
  37 0010 0D00A0E3 		mov	r0, #13
  38              	.LVL1:
  39              		.loc 1 74 0
  40 0014 183093E5 		ldr	r3, [r3, #24]
  41 0018 242083E5 		str	r2, [r3, #36]
  42              	.LVL2:
  43              	.LBB12:
  44              	.LBB13:
  45              		.file 2 "../../os/kernel/include/chinline.h"
  46              		.loc 2 55 0
  47 001c 04C092E5 		ldr	ip, [r2, #4]
  48 0020 041083E8 		stmia	r3, {r2, ip}
  49              		.loc 2 56 0
  50 0024 043082E5 		str	r3, [r2, #4]
  51 0028 00308CE5 		str	r3, [ip, #0]
  52              	.LBE13:
  53              	.LBE12:
  54              		.loc 1 77 0
  55              		.loc 1 76 0
  56 002c FEFFFFEA 		b	chSchGoSleepTimeoutS
  57              	.LVL3:
ARM GAS  C:\Users\NICOMA~1\AppData\Local\Temp\ccPFLohD.s 			page 2


  58              	.L2:
  59              		.loc 1 77 0
  60 0030 0000E0E3 		mvn	r0, #0
  61              	.LVL4:
  62 0034 1EFF2FE1 		bx	lr
  63              	.L5:
  64              		.align	2
  65              	.L4:
  66 0038 00000000 		.word	rlist
  67              		.cfi_endproc
  68              	.LFE7:
  69              		.size	qwait, .-qwait
  70              		.section	.text.chIQInit,"ax",%progbits
  71              		.align	2
  72              		.global	chIQInit
  73              		.type	chIQInit, %function
  74              	chIQInit:
  75              	.LFB8:
  76              		.loc 1 96 0
  77              		.cfi_startproc
  78              		@ args = 4, pretend = 0, frame = 0
  79              		@ frame_needed = 0, uses_anonymous_args = 0
  80              		@ link register save eliminated.
  81              	.LVL5:
  82              		.loc 1 102 0
  83 0000 1C3080E5 		str	r3, [r0, #28]
  84              		.loc 1 103 0
  85 0004 00309DE5 		ldr	r3, [sp, #0]
  86              	.LVL6:
  87              		.loc 1 101 0
  88 0008 022081E0 		add	r2, r1, r2
  89              	.LVL7:
  90              		.loc 1 99 0
  91 000c 00C0A0E3 		mov	ip, #0
  92              		.loc 1 98 0
  93 0010 040080E5 		str	r0, [r0, #4]
  94 0014 000080E5 		str	r0, [r0, #0]
  95              		.loc 1 99 0
  96 0018 08C080E5 		str	ip, [r0, #8]
  97              		.loc 1 100 0
  98 001c 141080E5 		str	r1, [r0, #20]
  99 0020 181080E5 		str	r1, [r0, #24]
 100 0024 0C1080E5 		str	r1, [r0, #12]
 101              		.loc 1 101 0
 102 0028 102080E5 		str	r2, [r0, #16]
 103              		.loc 1 103 0
 104 002c 203080E5 		str	r3, [r0, #32]
 105 0030 1EFF2FE1 		bx	lr
 106              		.cfi_endproc
 107              	.LFE8:
 108              		.size	chIQInit, .-chIQInit
 109              		.section	.text.chIQResetI,"ax",%progbits
 110              		.align	2
 111              		.global	chIQResetI
 112              		.type	chIQResetI, %function
 113              	chIQResetI:
 114              	.LFB9:
ARM GAS  C:\Users\NICOMA~1\AppData\Local\Temp\ccPFLohD.s 			page 3


 115              		.loc 1 117 0
 116              		.cfi_startproc
 117              		@ args = 0, pretend = 0, frame = 0
 118              		@ frame_needed = 0, uses_anonymous_args = 0
 119              	.LVL8:
 120 0000 38402DE9 		stmfd	sp!, {r3, r4, r5, lr}
 121              	.LCFI0:
 122              		.cfi_def_cfa_offset 16
 123              		.cfi_offset 3, -16
 124              		.cfi_offset 4, -12
 125              		.cfi_offset 5, -8
 126              		.cfi_offset 14, -4
 127              		.loc 1 117 0
 128 0004 0040A0E1 		mov	r4, r0
 129              		.loc 1 121 0
 130 0008 0C3094E5 		ldr	r3, [r4, #12]
 131              		.loc 1 123 0
 132 000c 000090E5 		ldr	r0, [r0, #0]
 133              	.LVL9:
 134              		.loc 1 121 0
 135 0010 143084E5 		str	r3, [r4, #20]
 136 0014 183084E5 		str	r3, [r4, #24]
 137              		.loc 1 123 0
 138 0018 040050E1 		cmp	r0, r4
 139              		.loc 1 122 0
 140 001c 0030A0E3 		mov	r3, #0
 141 0020 083084E5 		str	r3, [r4, #8]
 142              		.loc 1 123 0
 143 0024 3880BD08 		ldmeqfd	sp!, {r3, r4, r5, pc}
 144              		.loc 1 124 0
 145 0028 0150E0E3 		mvn	r5, #1
 146              	.L11:
 147              	.LVL10:
 148              	.LBB14:
 149              	.LBB15:
 150              		.loc 2 62 0
 151 002c 003090E5 		ldr	r3, [r0, #0]
 152 0030 003084E5 		str	r3, [r4, #0]
 153 0034 044083E5 		str	r4, [r3, #4]
 154              	.LBE15:
 155              	.LBE14:
 156              		.loc 1 124 0
 157 0038 FEFFFFEB 		bl	chSchReadyI
 158              	.LVL11:
 159 003c 245080E5 		str	r5, [r0, #36]
 160              		.loc 1 123 0
 161 0040 000094E5 		ldr	r0, [r4, #0]
 162 0044 040050E1 		cmp	r0, r4
 163 0048 F7FFFF1A 		bne	.L11
 164 004c 3880BDE8 		ldmfd	sp!, {r3, r4, r5, pc}
 165              		.cfi_endproc
 166              	.LFE9:
 167              		.size	chIQResetI, .-chIQResetI
 168              		.section	.text.chIQPutI,"ax",%progbits
 169              		.align	2
 170              		.global	chIQPutI
 171              		.type	chIQPutI, %function
ARM GAS  C:\Users\NICOMA~1\AppData\Local\Temp\ccPFLohD.s 			page 4


 172              	chIQPutI:
 173              	.LFB10:
 174              		.loc 1 140 0
 175              		.cfi_startproc
 176              		@ args = 0, pretend = 0, frame = 0
 177              		@ frame_needed = 0, uses_anonymous_args = 0
 178              	.LVL12:
 179              		.loc 1 144 0
 180 0000 142090E5 		ldr	r2, [r0, #20]
 181              		.loc 1 140 0
 182 0004 08402DE9 		stmfd	sp!, {r3, lr}
 183              	.LCFI1:
 184              		.cfi_def_cfa_offset 8
 185              		.cfi_offset 3, -8
 186              		.cfi_offset 14, -4
 187              		.loc 1 140 0
 188 0008 0030A0E1 		mov	r3, r0
 189              		.loc 1 144 0
 190 000c 180090E5 		ldr	r0, [r0, #24]
 191              	.LVL13:
 192 0010 000052E1 		cmp	r2, r0
 193 0014 080093E5 		ldr	r0, [r3, #8]
 194 0018 1800000A 		beq	.L22
 195              	.L16:
 196              		.loc 1 147 0
 197 001c 010080E2 		add	r0, r0, #1
 198 0020 080083E5 		str	r0, [r3, #8]
 199              		.loc 1 148 0
 200 0024 0110C2E4 		strb	r1, [r2], #1
 201              		.loc 1 149 0
 202 0028 101093E5 		ldr	r1, [r3, #16]
 203              	.LVL14:
 204              		.loc 1 148 0
 205 002c 142083E5 		str	r2, [r3, #20]
 206              		.loc 1 149 0
 207 0030 010052E1 		cmp	r2, r1
 208 0034 0A00002A 		bcs	.L17
 209              		.loc 1 152 0
 210 0038 000093E5 		ldr	r0, [r3, #0]
 211 003c 030050E1 		cmp	r0, r3
 212 0040 0C00000A 		beq	.L20
 213              	.L23:
 214              	.LVL15:
 215              	.LBB16:
 216              	.LBB17:
 217              		.loc 2 62 0
 218 0044 002090E5 		ldr	r2, [r0, #0]
 219 0048 002083E5 		str	r2, [r3, #0]
 220 004c 043082E5 		str	r3, [r2, #4]
 221              	.LBE17:
 222              	.LBE16:
 223              		.loc 1 153 0
 224 0050 FEFFFFEB 		bl	chSchReadyI
 225              	.LVL16:
 226 0054 0030A0E3 		mov	r3, #0
 227 0058 243080E5 		str	r3, [r0, #36]
 228              		.loc 1 155 0
ARM GAS  C:\Users\NICOMA~1\AppData\Local\Temp\ccPFLohD.s 			page 5


 229 005c 0300A0E1 		mov	r0, r3
 230 0060 0880BDE8 		ldmfd	sp!, {r3, pc}
 231              	.LVL17:
 232              	.L17:
 233              		.loc 1 152 0
 234 0064 000093E5 		ldr	r0, [r3, #0]
 235              		.loc 1 150 0
 236 0068 0C2093E5 		ldr	r2, [r3, #12]
 237              		.loc 1 152 0
 238 006c 030050E1 		cmp	r0, r3
 239              		.loc 1 150 0
 240 0070 142083E5 		str	r2, [r3, #20]
 241              		.loc 1 152 0
 242 0074 F2FFFF1A 		bne	.L23
 243              	.L20:
 244              		.loc 1 155 0
 245 0078 0000A0E3 		mov	r0, #0
 246 007c 0880BDE8 		ldmfd	sp!, {r3, pc}
 247              	.LVL18:
 248              	.L22:
 249              		.loc 1 144 0 discriminator 1
 250 0080 000050E3 		cmp	r0, #0
 251 0084 E4FFFF0A 		beq	.L16
 252              		.loc 1 145 0
 253 0088 0300E0E3 		mvn	r0, #3
 254 008c 0880BDE8 		ldmfd	sp!, {r3, pc}
 255              		.cfi_endproc
 256              	.LFE10:
 257              		.size	chIQPutI, .-chIQPutI
 258              		.section	.text.chIQGetTimeout,"ax",%progbits
 259              		.align	2
 260              		.global	chIQGetTimeout
 261              		.type	chIQGetTimeout, %function
 262              	chIQGetTimeout:
 263              	.LFB11:
 264              		.loc 1 178 0
 265              		.cfi_startproc
 266              		@ args = 0, pretend = 0, frame = 0
 267              		@ frame_needed = 0, uses_anonymous_args = 0
 268              	.LVL19:
 269 0000 38402DE9 		stmfd	sp!, {r3, r4, r5, lr}
 270              	.LCFI2:
 271              		.cfi_def_cfa_offset 16
 272              		.cfi_offset 3, -16
 273              		.cfi_offset 4, -12
 274              		.cfi_offset 5, -8
 275              		.cfi_offset 14, -4
 276              		.loc 1 178 0
 277 0004 0040A0E1 		mov	r4, r0
 278 0008 0150A0E1 		mov	r5, r1
 279              		.loc 1 181 0
 280              	@ 181 "../../os/kernel/src/chqueues.c" 1
 281 000c 9FF021E3 		msr     CPSR_c, #0x9F
 282              	@ 0 "" 2
 283              		.loc 1 182 0
 284 0010 1C3090E5 		ldr	r3, [r0, #28]
 285 0014 000053E3 		cmp	r3, #0
ARM GAS  C:\Users\NICOMA~1\AppData\Local\Temp\ccPFLohD.s 			page 6


 286 0018 0000000A 		beq	.L32
 287              		.loc 1 183 0
 288 001c 33FF2FE1 		blx	r3
 289              	.LVL20:
 290              	.L32:
 291              		.loc 1 185 0 discriminator 1
 292 0020 083094E5 		ldr	r3, [r4, #8]
 293              	.LBB18:
 294              		.loc 1 187 0 discriminator 1
 295 0024 0400A0E1 		mov	r0, r4
 296              	.LBE18:
 297              		.loc 1 185 0 discriminator 1
 298 0028 000053E3 		cmp	r3, #0
 299              	.LBB19:
 300              		.loc 1 187 0 discriminator 1
 301 002c 0510A0E1 		mov	r1, r5
 302              	.LBE19:
 303              		.loc 1 185 0 discriminator 1
 304 0030 0400001A 		bne	.L35
 305              	.LVL21:
 306              	.LBB20:
 307              		.loc 1 187 0
 308 0034 FEFFFFEB 		bl	qwait
 309              	.LVL22:
 310 0038 000050E3 		cmp	r0, #0
 311 003c F7FFFFAA 		bge	.L32
 312              	.LBE20:
 313              		.loc 1 198 0
 314              	@ 198 "../../os/kernel/src/chqueues.c" 1
 315 0040 1FF021E3 		msr     CPSR_c, #0x1F
 316              	@ 0 "" 2
 317              		.loc 1 200 0
 318 0044 3880BDE8 		ldmfd	sp!, {r3, r4, r5, pc}
 319              	.LVL23:
 320              	.L35:
 321              		.loc 1 194 0
 322 0048 182094E5 		ldr	r2, [r4, #24]
 323              		.loc 1 193 0
 324 004c 013043E2 		sub	r3, r3, #1
 325 0050 083084E5 		str	r3, [r4, #8]
 326              		.loc 1 194 0
 327 0054 0100D2E4 		ldrb	r0, [r2], #1	@ zero_extendqisi2
 328              	.LVL24:
 329              		.loc 1 195 0
 330 0058 103094E5 		ldr	r3, [r4, #16]
 331              		.loc 1 194 0
 332 005c 182084E5 		str	r2, [r4, #24]
 333              		.loc 1 195 0
 334 0060 030052E1 		cmp	r2, r3
 335              		.loc 1 196 0
 336 0064 0C309425 		ldrcs	r3, [r4, #12]
 337 0068 18308425 		strcs	r3, [r4, #24]
 338              		.loc 1 198 0
 339              	@ 198 "../../os/kernel/src/chqueues.c" 1
 340 006c 1FF021E3 		msr     CPSR_c, #0x1F
 341              	@ 0 "" 2
 342              		.loc 1 200 0
ARM GAS  C:\Users\NICOMA~1\AppData\Local\Temp\ccPFLohD.s 			page 7


 343 0070 3880BDE8 		ldmfd	sp!, {r3, r4, r5, pc}
 344              		.cfi_endproc
 345              	.LFE11:
 346              		.size	chIQGetTimeout, .-chIQGetTimeout
 347              		.section	.text.chIQReadTimeout,"ax",%progbits
 348              		.align	2
 349              		.global	chIQReadTimeout
 350              		.type	chIQReadTimeout, %function
 351              	chIQReadTimeout:
 352              	.LFB12:
 353              		.loc 1 227 0
 354              		.cfi_startproc
 355              		@ args = 0, pretend = 0, frame = 0
 356              		@ frame_needed = 0, uses_anonymous_args = 0
 357              	.LVL25:
 358 0000 F8452DE9 		stmfd	sp!, {r3, r4, r5, r6, r7, r8, sl, lr}
 359              	.LCFI3:
 360              		.cfi_def_cfa_offset 32
 361              		.cfi_offset 3, -32
 362              		.cfi_offset 4, -28
 363              		.cfi_offset 5, -24
 364              		.cfi_offset 6, -20
 365              		.cfi_offset 7, -16
 366              		.cfi_offset 8, -12
 367              		.cfi_offset 10, -8
 368              		.cfi_offset 14, -4
 369              		.loc 1 227 0
 370 0004 0040A0E1 		mov	r4, r0
 371 0008 0350A0E1 		mov	r5, r3
 372              		.loc 1 228 0
 373 000c 1C6090E5 		ldr	r6, [r0, #28]
 374              	.LVL26:
 375              		.loc 1 233 0
 376              	@ 233 "../../os/kernel/src/chqueues.c" 1
 377 0010 9FF021E3 		msr     CPSR_c, #0x9F
 378              	@ 0 "" 2
 379              		.loc 1 229 0
 380 0014 0070A0E3 		mov	r7, #0
 381              		.loc 1 226 0
 382 0018 018081E2 		add	r8, r1, #1
 383 001c 02A081E0 		add	sl, r1, r2
 384              	.LVL27:
 385              	.L42:
 386              		.loc 1 235 0
 387 0020 000056E3 		cmp	r6, #0
 388 0024 0100000A 		beq	.L47
 389              		.loc 1 236 0
 390 0028 0400A0E1 		mov	r0, r4
 391              	.LVL28:
 392 002c 36FF2FE1 		blx	r6
 393              	.LVL29:
 394              	.L47:
 395              		.loc 1 238 0 discriminator 1
 396 0030 08C094E5 		ldr	ip, [r4, #8]
 397              		.loc 1 239 0 discriminator 1
 398 0034 0400A0E1 		mov	r0, r4
 399              		.loc 1 238 0 discriminator 1
ARM GAS  C:\Users\NICOMA~1\AppData\Local\Temp\ccPFLohD.s 			page 8


 400 0038 00005CE3 		cmp	ip, #0
 401              		.loc 1 239 0 discriminator 1
 402 003c 0510A0E1 		mov	r1, r5
 403              		.loc 1 238 0 discriminator 1
 404 0040 0500001A 		bne	.L51
 405              	.LVL30:
 406              		.loc 1 239 0
 407 0044 FEFFFFEB 		bl	qwait
 408              	.LVL31:
 409 0048 000050E3 		cmp	r0, #0
 410 004c F7FFFF0A 		beq	.L47
 411              		.loc 1 240 0
 412              	@ 240 "../../os/kernel/src/chqueues.c" 1
 413 0050 1FF021E3 		msr     CPSR_c, #0x1F
 414              	@ 0 "" 2
 415              	.L39:
 416              		.loc 1 257 0
 417 0054 0700A0E1 		mov	r0, r7
 418 0058 F885BDE8 		ldmfd	sp!, {r3, r4, r5, r6, r7, r8, sl, pc}
 419              	.LVL32:
 420              	.L51:
 421              		.loc 1 246 0
 422 005c 183094E5 		ldr	r3, [r4, #24]
 423              		.loc 1 245 0
 424 0060 01C04CE2 		sub	ip, ip, #1
 425 0064 08C084E5 		str	ip, [r4, #8]
 426              		.loc 1 246 0
 427 0068 0120D3E4 		ldrb	r2, [r3], #1	@ zero_extendqisi2
 428 006c 012048E5 		strb	r2, [r8, #-1]
 429              		.loc 1 247 0
 430 0070 102094E5 		ldr	r2, [r4, #16]
 431              		.loc 1 246 0
 432 0074 183084E5 		str	r3, [r4, #24]
 433              		.loc 1 247 0
 434 0078 020053E1 		cmp	r3, r2
 435              		.loc 1 248 0
 436 007c 0C309425 		ldrcs	r3, [r4, #12]
 437 0080 18308425 		strcs	r3, [r4, #24]
 438              		.loc 1 250 0
 439              	@ 250 "../../os/kernel/src/chqueues.c" 1
 440 0084 1FF021E3 		msr     CPSR_c, #0x1F
 441              	@ 0 "" 2
 442              		.loc 1 252 0
 443 0088 0A0058E1 		cmp	r8, sl
 444              		.loc 1 251 0
 445 008c 017087E2 		add	r7, r7, #1
 446              	.LVL33:
 447              		.loc 1 252 0
 448 0090 EFFFFF0A 		beq	.L39
 449              		.loc 1 255 0
 450              	@ 255 "../../os/kernel/src/chqueues.c" 1
 451 0094 9FF021E3 		msr     CPSR_c, #0x9F
 452              	@ 0 "" 2
 453 0098 018088E2 		add	r8, r8, #1
 454              		.loc 1 256 0
 455 009c DFFFFFEA 		b	.L42
 456              		.cfi_endproc
ARM GAS  C:\Users\NICOMA~1\AppData\Local\Temp\ccPFLohD.s 			page 9


 457              	.LFE12:
 458              		.size	chIQReadTimeout, .-chIQReadTimeout
 459              		.section	.text.chOQInit,"ax",%progbits
 460              		.align	2
 461              		.global	chOQInit
 462              		.type	chOQInit, %function
 463              	chOQInit:
 464              	.LFB13:
 465              		.loc 1 276 0
 466              		.cfi_startproc
 467              		@ args = 4, pretend = 0, frame = 0
 468              		@ frame_needed = 0, uses_anonymous_args = 0
 469              		@ link register save eliminated.
 470              	.LVL34:
 471              		.loc 1 282 0
 472 0000 1C3080E5 		str	r3, [r0, #28]
 473              		.loc 1 283 0
 474 0004 00309DE5 		ldr	r3, [sp, #0]
 475              	.LVL35:
 476              		.loc 1 281 0
 477 0008 02C081E0 		add	ip, r1, r2
 478              		.loc 1 278 0
 479 000c 040080E5 		str	r0, [r0, #4]
 480 0010 000080E5 		str	r0, [r0, #0]
 481              		.loc 1 279 0
 482 0014 082080E5 		str	r2, [r0, #8]
 483              		.loc 1 280 0
 484 0018 141080E5 		str	r1, [r0, #20]
 485 001c 181080E5 		str	r1, [r0, #24]
 486 0020 0C1080E5 		str	r1, [r0, #12]
 487              		.loc 1 281 0
 488 0024 10C080E5 		str	ip, [r0, #16]
 489              		.loc 1 283 0
 490 0028 203080E5 		str	r3, [r0, #32]
 491 002c 1EFF2FE1 		bx	lr
 492              		.cfi_endproc
 493              	.LFE13:
 494              		.size	chOQInit, .-chOQInit
 495              		.section	.text.chOQResetI,"ax",%progbits
 496              		.align	2
 497              		.global	chOQResetI
 498              		.type	chOQResetI, %function
 499              	chOQResetI:
 500              	.LFB14:
 501              		.loc 1 297 0
 502              		.cfi_startproc
 503              		@ args = 0, pretend = 0, frame = 0
 504              		@ frame_needed = 0, uses_anonymous_args = 0
 505              	.LVL36:
 506 0000 38402DE9 		stmfd	sp!, {r3, r4, r5, lr}
 507              	.LCFI4:
 508              		.cfi_def_cfa_offset 16
 509              		.cfi_offset 3, -16
 510              		.cfi_offset 4, -12
 511              		.cfi_offset 5, -8
 512              		.cfi_offset 14, -4
 513              		.loc 1 302 0
ARM GAS  C:\Users\NICOMA~1\AppData\Local\Temp\ccPFLohD.s 			page 10


 514 0004 102090E5 		ldr	r2, [r0, #16]
 515              		.loc 1 297 0
 516 0008 0040A0E1 		mov	r4, r0
 517              		.loc 1 301 0
 518 000c 0C3090E5 		ldr	r3, [r0, #12]
 519              		.loc 1 303 0
 520 0010 000090E5 		ldr	r0, [r0, #0]
 521              	.LVL37:
 522              		.loc 1 302 0
 523 0014 022063E0 		rsb	r2, r3, r2
 524              		.loc 1 303 0
 525 0018 040050E1 		cmp	r0, r4
 526              		.loc 1 301 0
 527 001c 143084E5 		str	r3, [r4, #20]
 528 0020 183084E5 		str	r3, [r4, #24]
 529              		.loc 1 302 0
 530 0024 082084E5 		str	r2, [r4, #8]
 531              		.loc 1 303 0
 532 0028 3880BD08 		ldmeqfd	sp!, {r3, r4, r5, pc}
 533              		.loc 1 304 0
 534 002c 0150E0E3 		mvn	r5, #1
 535              	.L57:
 536              	.LVL38:
 537              	.LBB21:
 538              	.LBB22:
 539              		.loc 2 62 0
 540 0030 003090E5 		ldr	r3, [r0, #0]
 541 0034 003084E5 		str	r3, [r4, #0]
 542 0038 044083E5 		str	r4, [r3, #4]
 543              	.LBE22:
 544              	.LBE21:
 545              		.loc 1 304 0
 546 003c FEFFFFEB 		bl	chSchReadyI
 547              	.LVL39:
 548 0040 245080E5 		str	r5, [r0, #36]
 549              		.loc 1 303 0
 550 0044 000094E5 		ldr	r0, [r4, #0]
 551 0048 040050E1 		cmp	r0, r4
 552 004c F7FFFF1A 		bne	.L57
 553 0050 3880BDE8 		ldmfd	sp!, {r3, r4, r5, pc}
 554              		.cfi_endproc
 555              	.LFE14:
 556              		.size	chOQResetI, .-chOQResetI
 557              		.section	.text.chOQPutTimeout,"ax",%progbits
 558              		.align	2
 559              		.global	chOQPutTimeout
 560              		.type	chOQPutTimeout, %function
 561              	chOQPutTimeout:
 562              	.LFB15:
 563              		.loc 1 329 0
 564              		.cfi_startproc
 565              		@ args = 0, pretend = 0, frame = 0
 566              		@ frame_needed = 0, uses_anonymous_args = 0
 567              	.LVL40:
 568 0000 70402DE9 		stmfd	sp!, {r4, r5, r6, lr}
 569              	.LCFI5:
 570              		.cfi_def_cfa_offset 16
ARM GAS  C:\Users\NICOMA~1\AppData\Local\Temp\ccPFLohD.s 			page 11


 571              		.cfi_offset 4, -16
 572              		.cfi_offset 5, -12
 573              		.cfi_offset 6, -8
 574              		.cfi_offset 14, -4
 575              		.loc 1 329 0
 576 0004 0040A0E1 		mov	r4, r0
 577 0008 0160A0E1 		mov	r6, r1
 578 000c 0250A0E1 		mov	r5, r2
 579              		.loc 1 331 0
 580              	@ 331 "../../os/kernel/src/chqueues.c" 1
 581 0010 9FF021E3 		msr     CPSR_c, #0x9F
 582              	@ 0 "" 2
 583              	.LVL41:
 584              	.L60:
 585              		.loc 1 332 0 discriminator 1
 586 0014 083094E5 		ldr	r3, [r4, #8]
 587              	.LBB23:
 588              		.loc 1 335 0 discriminator 1
 589 0018 0400A0E1 		mov	r0, r4
 590              	.LBE23:
 591              		.loc 1 332 0 discriminator 1
 592 001c 000053E3 		cmp	r3, #0
 593              	.LBB24:
 594              		.loc 1 335 0 discriminator 1
 595 0020 0510A0E1 		mov	r1, r5
 596              	.LBE24:
 597              		.loc 1 332 0 discriminator 1
 598 0024 0400001A 		bne	.L69
 599              	.LVL42:
 600              	.LBB25:
 601              		.loc 1 335 0
 602 0028 FEFFFFEB 		bl	qwait
 603              	.LVL43:
 604 002c 000050E3 		cmp	r0, #0
 605 0030 F7FFFFAA 		bge	.L60
 606              		.loc 1 336 0
 607              	@ 336 "../../os/kernel/src/chqueues.c" 1
 608 0034 1FF021E3 		msr     CPSR_c, #0x1F
 609              	@ 0 "" 2
 610              		.loc 1 337 0
 611 0038 7080BDE8 		ldmfd	sp!, {r4, r5, r6, pc}
 612              	.LVL44:
 613              	.L69:
 614              	.LBE25:
 615              		.loc 1 342 0
 616 003c 142094E5 		ldr	r2, [r4, #20]
 617              		.loc 1 341 0
 618 0040 013043E2 		sub	r3, r3, #1
 619 0044 083084E5 		str	r3, [r4, #8]
 620              		.loc 1 342 0
 621 0048 0160C2E4 		strb	r6, [r2], #1
 622              		.loc 1 343 0
 623 004c 103094E5 		ldr	r3, [r4, #16]
 624              		.loc 1 342 0
 625 0050 142084E5 		str	r2, [r4, #20]
 626              		.loc 1 343 0
 627 0054 030052E1 		cmp	r2, r3
ARM GAS  C:\Users\NICOMA~1\AppData\Local\Temp\ccPFLohD.s 			page 12


 628              		.loc 1 344 0
 629 0058 0C309425 		ldrcs	r3, [r4, #12]
 630 005c 14308425 		strcs	r3, [r4, #20]
 631              		.loc 1 346 0
 632 0060 1C3094E5 		ldr	r3, [r4, #28]
 633 0064 000053E3 		cmp	r3, #0
 634 0068 0100000A 		beq	.L64
 635              		.loc 1 347 0
 636 006c 0400A0E1 		mov	r0, r4
 637              	.LVL45:
 638 0070 33FF2FE1 		blx	r3
 639              	.LVL46:
 640              	.L64:
 641              		.loc 1 349 0
 642              	@ 349 "../../os/kernel/src/chqueues.c" 1
 643 0074 1FF021E3 		msr     CPSR_c, #0x1F
 644              	@ 0 "" 2
 645              		.loc 1 350 0
 646 0078 0000A0E3 		mov	r0, #0
 647              		.loc 1 351 0
 648 007c 7080BDE8 		ldmfd	sp!, {r4, r5, r6, pc}
 649              		.cfi_endproc
 650              	.LFE15:
 651              		.size	chOQPutTimeout, .-chOQPutTimeout
 652              		.section	.text.chOQGetI,"ax",%progbits
 653              		.align	2
 654              		.global	chOQGetI
 655              		.type	chOQGetI, %function
 656              	chOQGetI:
 657              	.LFB16:
 658              		.loc 1 363 0
 659              		.cfi_startproc
 660              		@ args = 0, pretend = 0, frame = 0
 661              		@ frame_needed = 0, uses_anonymous_args = 0
 662              	.LVL47:
 663              		.loc 1 368 0
 664 0000 141090E5 		ldr	r1, [r0, #20]
 665 0004 182090E5 		ldr	r2, [r0, #24]
 666              		.loc 1 363 0
 667 0008 10402DE9 		stmfd	sp!, {r4, lr}
 668              	.LCFI6:
 669              		.cfi_def_cfa_offset 8
 670              		.cfi_offset 4, -8
 671              		.cfi_offset 14, -4
 672              		.loc 1 368 0
 673 000c 020051E1 		cmp	r1, r2
 674              		.loc 1 363 0
 675 0010 0030A0E1 		mov	r3, r0
 676              		.loc 1 368 0
 677 0014 081090E5 		ldr	r1, [r0, #8]
 678 0018 1400000A 		beq	.L79
 679              	.L73:
 680              		.loc 1 371 0
 681 001c 011081E2 		add	r1, r1, #1
 682 0020 081083E5 		str	r1, [r3, #8]
 683              		.loc 1 372 0
 684 0024 0140D2E4 		ldrb	r4, [r2], #1	@ zero_extendqisi2
ARM GAS  C:\Users\NICOMA~1\AppData\Local\Temp\ccPFLohD.s 			page 13


 685              	.LVL48:
 686              		.loc 1 373 0
 687 0028 101093E5 		ldr	r1, [r3, #16]
 688              		.loc 1 372 0
 689 002c 182083E5 		str	r2, [r3, #24]
 690              		.loc 1 373 0
 691 0030 010052E1 		cmp	r2, r1
 692 0034 0A00002A 		bcs	.L75
 693              	.L76:
 694              		.loc 1 376 0
 695 0038 000093E5 		ldr	r0, [r3, #0]
 696              	.LVL49:
 697 003c 030050E1 		cmp	r0, r3
 698 0040 0500000A 		beq	.L74
 699              	.LVL50:
 700              	.LBB26:
 701              	.LBB27:
 702              		.loc 2 62 0
 703 0044 002090E5 		ldr	r2, [r0, #0]
 704 0048 002083E5 		str	r2, [r3, #0]
 705 004c 043082E5 		str	r3, [r2, #4]
 706              	.LBE27:
 707              	.LBE26:
 708              		.loc 1 377 0
 709 0050 FEFFFFEB 		bl	chSchReadyI
 710              	.LVL51:
 711 0054 0030A0E3 		mov	r3, #0
 712 0058 243080E5 		str	r3, [r0, #36]
 713              	.LVL52:
 714              	.L74:
 715              		.loc 1 379 0
 716 005c 0400A0E1 		mov	r0, r4
 717 0060 1080BDE8 		ldmfd	sp!, {r4, pc}
 718              	.LVL53:
 719              	.L75:
 720              		.loc 1 374 0
 721 0064 0C2093E5 		ldr	r2, [r3, #12]
 722 0068 182083E5 		str	r2, [r3, #24]
 723 006c F1FFFFEA 		b	.L76
 724              	.LVL54:
 725              	.L79:
 726              		.loc 1 368 0 discriminator 1
 727 0070 000051E3 		cmp	r1, #0
 728 0074 E8FFFF0A 		beq	.L73
 729              		.loc 1 369 0
 730 0078 0200E0E3 		mvn	r0, #2
 731              	.LVL55:
 732 007c 1080BDE8 		ldmfd	sp!, {r4, pc}
 733              		.cfi_endproc
 734              	.LFE16:
 735              		.size	chOQGetI, .-chOQGetI
 736              		.section	.text.chOQWriteTimeout,"ax",%progbits
 737              		.align	2
 738              		.global	chOQWriteTimeout
 739              		.type	chOQWriteTimeout, %function
 740              	chOQWriteTimeout:
 741              	.LFB17:
ARM GAS  C:\Users\NICOMA~1\AppData\Local\Temp\ccPFLohD.s 			page 14


 742              		.loc 1 407 0
 743              		.cfi_startproc
 744              		@ args = 0, pretend = 0, frame = 0
 745              		@ frame_needed = 0, uses_anonymous_args = 0
 746              	.LVL56:
 747 0000 F8452DE9 		stmfd	sp!, {r3, r4, r5, r6, r7, r8, sl, lr}
 748              	.LCFI7:
 749              		.cfi_def_cfa_offset 32
 750              		.cfi_offset 3, -32
 751              		.cfi_offset 4, -28
 752              		.cfi_offset 5, -24
 753              		.cfi_offset 6, -20
 754              		.cfi_offset 7, -16
 755              		.cfi_offset 8, -12
 756              		.cfi_offset 10, -8
 757              		.cfi_offset 14, -4
 758              		.loc 1 407 0
 759 0004 0040A0E1 		mov	r4, r0
 760 0008 0170A0E1 		mov	r7, r1
 761 000c 0250A0E1 		mov	r5, r2
 762 0010 03A0A0E1 		mov	sl, r3
 763              		.loc 1 408 0
 764 0014 1C8090E5 		ldr	r8, [r0, #28]
 765              	.LVL57:
 766              		.loc 1 413 0
 767              	@ 413 "../../os/kernel/src/chqueues.c" 1
 768 0018 9FF021E3 		msr     CPSR_c, #0x9F
 769              	@ 0 "" 2
 770              		.loc 1 409 0
 771 001c 0060A0E3 		mov	r6, #0
 772              	.LVL58:
 773              	.L98:
 774              		.loc 1 415 0 discriminator 1
 775 0020 08C094E5 		ldr	ip, [r4, #8]
 776              		.loc 1 427 0 discriminator 1
 777 0024 0400A0E1 		mov	r0, r4
 778              		.loc 1 415 0 discriminator 1
 779 0028 00005CE3 		cmp	ip, #0
 780              		.loc 1 421 0 discriminator 1
 781 002c 01304CE2 		sub	r3, ip, #1
 782              		.loc 1 415 0 discriminator 1
 783 0030 1100000A 		beq	.L84
 784              	.LVL59:
 785              		.loc 1 421 0
 786 0034 083084E5 		str	r3, [r4, #8]
 787              		.loc 1 422 0
 788 0038 14C094E5 		ldr	ip, [r4, #20]
 789 003c 0130D7E4 		ldrb	r3, [r7], #1	@ zero_extendqisi2
 790              	.LVL60:
 791 0040 0130CCE4 		strb	r3, [ip], #1
 792              		.loc 1 423 0
 793 0044 103094E5 		ldr	r3, [r4, #16]
 794              		.loc 1 422 0
 795 0048 14C084E5 		str	ip, [r4, #20]
 796              	.LVL61:
 797              		.loc 1 423 0
 798 004c 03005CE1 		cmp	ip, r3
ARM GAS  C:\Users\NICOMA~1\AppData\Local\Temp\ccPFLohD.s 			page 15


 799              		.loc 1 424 0
 800 0050 0C309425 		ldrcs	r3, [r4, #12]
 801 0054 14308425 		strcs	r3, [r4, #20]
 802              		.loc 1 426 0
 803 0058 000058E3 		cmp	r8, #0
 804 005c 0000000A 		beq	.L86
 805              		.loc 1 427 0
 806 0060 38FF2FE1 		blx	r8
 807              	.LVL62:
 808              	.L86:
 809              		.loc 1 429 0
 810              	@ 429 "../../os/kernel/src/chqueues.c" 1
 811 0064 1FF021E3 		msr     CPSR_c, #0x1F
 812              	@ 0 "" 2
 813              		.loc 1 431 0
 814 0068 015055E2 		subs	r5, r5, #1
 815              	.LVL63:
 816              		.loc 1 430 0
 817 006c 016086E2 		add	r6, r6, #1
 818              	.LVL64:
 819              		.loc 1 431 0
 820 0070 0700000A 		beq	.L83
 821              		.loc 1 433 0
 822              	@ 433 "../../os/kernel/src/chqueues.c" 1
 823 0074 9FF021E3 		msr     CPSR_c, #0x9F
 824              	@ 0 "" 2
 825              		.loc 1 434 0
 826 0078 E8FFFFEA 		b	.L98
 827              	.LVL65:
 828              	.L84:
 829              		.loc 1 416 0
 830 007c 0400A0E1 		mov	r0, r4
 831              	.LVL66:
 832 0080 0A10A0E1 		mov	r1, sl
 833 0084 FEFFFFEB 		bl	qwait
 834              	.LVL67:
 835 0088 000050E3 		cmp	r0, #0
 836 008c E3FFFF0A 		beq	.L98
 837              		.loc 1 417 0
 838              	@ 417 "../../os/kernel/src/chqueues.c" 1
 839 0090 1FF021E3 		msr     CPSR_c, #0x1F
 840              	@ 0 "" 2
 841              	.LVL68:
 842              	.L83:
 843              		.loc 1 435 0
 844 0094 0600A0E1 		mov	r0, r6
 845 0098 F885BDE8 		ldmfd	sp!, {r3, r4, r5, r6, r7, r8, sl, pc}
 846              		.cfi_endproc
 847              	.LFE17:
 848              		.size	chOQWriteTimeout, .-chOQWriteTimeout
 849              		.text
 850              	.Letext0:
 851              		.file 3 "c:\\yagarto-20121222\\bin\\../lib/gcc/arm-none-eabi/4.7.2/include/stddef.h"
 852              		.file 4 "c:/yagarto-20121222/lib/gcc/../../arm-none-eabi/sys-include/stdint.h"
 853              		.file 5 "../../os/ports/GCC/ARM/chtypes.h"
 854              		.file 6 "../../os/kernel/include/chlists.h"
 855              		.file 7 "../../os/kernel/include/chthreads.h"
ARM GAS  C:\Users\NICOMA~1\AppData\Local\Temp\ccPFLohD.s 			page 16


 856              		.file 8 "../../os/ports/GCC/ARM/chcore.h"
 857              		.file 9 "../../os/kernel/include/chschd.h"
 858              		.file 10 "../../os/kernel/include/chmtx.h"
 859              		.file 11 "../../os/kernel/include/chqueues.h"
 860              		.section	.debug_info,"",%progbits
 861              	.Ldebug_info0:
 862 0000 D90A0000 		.4byte	0xad9
 863 0004 0200     		.2byte	0x2
 864 0006 00000000 		.4byte	.Ldebug_abbrev0
 865 000a 04       		.byte	0x4
 866 000b 01       		.uleb128 0x1
 867 000c 44020000 		.4byte	.LASF91
 868 0010 01       		.byte	0x1
 869 0011 AB010000 		.4byte	.LASF92
 870 0015 F2000000 		.4byte	.LASF93
 871 0019 40000000 		.4byte	.Ldebug_ranges0+0x40
 872 001d 00000000 		.4byte	0
 873 0021 00000000 		.4byte	0
 874 0025 00000000 		.4byte	.Ldebug_line0
 875 0029 02       		.uleb128 0x2
 876 002a 04       		.byte	0x4
 877 002b 05       		.byte	0x5
 878 002c 696E7400 		.ascii	"int\000"
 879 0030 03       		.uleb128 0x3
 880 0031 21000000 		.4byte	.LASF2
 881 0035 03       		.byte	0x3
 882 0036 D5       		.byte	0xd5
 883 0037 3B000000 		.4byte	0x3b
 884 003b 04       		.uleb128 0x4
 885 003c 04       		.byte	0x4
 886 003d 07       		.byte	0x7
 887 003e 5B010000 		.4byte	.LASF0
 888 0042 04       		.uleb128 0x4
 889 0043 01       		.byte	0x1
 890 0044 06       		.byte	0x6
 891 0045 93000000 		.4byte	.LASF1
 892 0049 03       		.uleb128 0x3
 893 004a 9D030000 		.4byte	.LASF3
 894 004e 04       		.byte	0x4
 895 004f 2A       		.byte	0x2a
 896 0050 54000000 		.4byte	0x54
 897 0054 04       		.uleb128 0x4
 898 0055 01       		.byte	0x1
 899 0056 08       		.byte	0x8
 900 0057 99020000 		.4byte	.LASF4
 901 005b 04       		.uleb128 0x4
 902 005c 02       		.byte	0x2
 903 005d 05       		.byte	0x5
 904 005e B1020000 		.4byte	.LASF5
 905 0062 04       		.uleb128 0x4
 906 0063 02       		.byte	0x2
 907 0064 07       		.byte	0x7
 908 0065 92010000 		.4byte	.LASF6
 909 0069 03       		.uleb128 0x3
 910 006a 91020000 		.4byte	.LASF7
 911 006e 04       		.byte	0x4
 912 006f 4F       		.byte	0x4f
ARM GAS  C:\Users\NICOMA~1\AppData\Local\Temp\ccPFLohD.s 			page 17


 913 0070 74000000 		.4byte	0x74
 914 0074 04       		.uleb128 0x4
 915 0075 04       		.byte	0x4
 916 0076 05       		.byte	0x5
 917 0077 BE000000 		.4byte	.LASF8
 918 007b 03       		.uleb128 0x3
 919 007c 04030000 		.4byte	.LASF9
 920 0080 04       		.byte	0x4
 921 0081 50       		.byte	0x50
 922 0082 86000000 		.4byte	0x86
 923 0086 04       		.uleb128 0x4
 924 0087 04       		.byte	0x4
 925 0088 07       		.byte	0x7
 926 0089 73010000 		.4byte	.LASF10
 927 008d 04       		.uleb128 0x4
 928 008e 08       		.byte	0x8
 929 008f 05       		.byte	0x5
 930 0090 85000000 		.4byte	.LASF11
 931 0094 04       		.uleb128 0x4
 932 0095 08       		.byte	0x8
 933 0096 07       		.byte	0x7
 934 0097 54000000 		.4byte	.LASF12
 935 009b 03       		.uleb128 0x3
 936 009c 9F000000 		.4byte	.LASF13
 937 00a0 05       		.byte	0x5
 938 00a1 2B       		.byte	0x2b
 939 00a2 A6000000 		.4byte	0xa6
 940 00a6 04       		.uleb128 0x4
 941 00a7 01       		.byte	0x1
 942 00a8 02       		.byte	0x2
 943 00a9 8B020000 		.4byte	.LASF14
 944 00ad 03       		.uleb128 0x3
 945 00ae E2020000 		.4byte	.LASF15
 946 00b2 05       		.byte	0x5
 947 00b3 2C       		.byte	0x2c
 948 00b4 49000000 		.4byte	0x49
 949 00b8 03       		.uleb128 0x3
 950 00b9 C7000000 		.4byte	.LASF16
 951 00bd 05       		.byte	0x5
 952 00be 2D       		.byte	0x2d
 953 00bf 49000000 		.4byte	0x49
 954 00c3 03       		.uleb128 0x3
 955 00c4 62020000 		.4byte	.LASF17
 956 00c8 05       		.byte	0x5
 957 00c9 2E       		.byte	0x2e
 958 00ca 49000000 		.4byte	0x49
 959 00ce 03       		.uleb128 0x3
 960 00cf AE000000 		.4byte	.LASF18
 961 00d3 05       		.byte	0x5
 962 00d4 2F       		.byte	0x2f
 963 00d5 49000000 		.4byte	0x49
 964 00d9 03       		.uleb128 0x3
 965 00da 7B020000 		.4byte	.LASF19
 966 00de 05       		.byte	0x5
 967 00df 30       		.byte	0x30
 968 00e0 7B000000 		.4byte	0x7b
 969 00e4 03       		.uleb128 0x3
ARM GAS  C:\Users\NICOMA~1\AppData\Local\Temp\ccPFLohD.s 			page 18


 970 00e5 A5010000 		.4byte	.LASF20
 971 00e9 05       		.byte	0x5
 972 00ea 31       		.byte	0x31
 973 00eb 69000000 		.4byte	0x69
 974 00ef 03       		.uleb128 0x3
 975 00f0 D6010000 		.4byte	.LASF21
 976 00f4 05       		.byte	0x5
 977 00f5 33       		.byte	0x33
 978 00f6 7B000000 		.4byte	0x7b
 979 00fa 03       		.uleb128 0x3
 980 00fb 39030000 		.4byte	.LASF22
 981 00ff 05       		.byte	0x5
 982 0100 35       		.byte	0x35
 983 0101 7B000000 		.4byte	0x7b
 984 0105 03       		.uleb128 0x3
 985 0106 F2020000 		.4byte	.LASF23
 986 010a 06       		.byte	0x6
 987 010b 2A       		.byte	0x2a
 988 010c 10010000 		.4byte	0x110
 989 0110 05       		.uleb128 0x5
 990 0111 F2020000 		.4byte	.LASF23
 991 0115 44       		.byte	0x44
 992 0116 07       		.byte	0x7
 993 0117 5E       		.byte	0x5e
 994 0118 27020000 		.4byte	0x227
 995 011c 06       		.uleb128 0x6
 996 011d DB020000 		.4byte	.LASF24
 997 0121 07       		.byte	0x7
 998 0122 5F       		.byte	0x5f
 999 0123 4C020000 		.4byte	0x24c
 1000 0127 02       		.byte	0x2
 1001 0128 23       		.byte	0x23
 1002 0129 00       		.uleb128 0
 1003 012a 06       		.uleb128 0x6
 1004 012b 74020000 		.4byte	.LASF25
 1005 012f 07       		.byte	0x7
 1006 0130 61       		.byte	0x61
 1007 0131 4C020000 		.4byte	0x24c
 1008 0135 02       		.byte	0x2
 1009 0136 23       		.byte	0x23
 1010 0137 04       		.uleb128 0x4
 1011 0138 06       		.uleb128 0x6
 1012 0139 74000000 		.4byte	.LASF26
 1013 013d 07       		.byte	0x7
 1014 013e 63       		.byte	0x63
 1015 013f D9000000 		.4byte	0xd9
 1016 0143 02       		.byte	0x2
 1017 0144 23       		.byte	0x23
 1018 0145 08       		.uleb128 0x8
 1019 0146 06       		.uleb128 0x6
 1020 0147 D7030000 		.4byte	.LASF27
 1021 014b 07       		.byte	0x7
 1022 014c 64       		.byte	0x64
 1023 014d 10030000 		.4byte	0x310
 1024 0151 02       		.byte	0x2
 1025 0152 23       		.byte	0x23
 1026 0153 0C       		.uleb128 0xc
ARM GAS  C:\Users\NICOMA~1\AppData\Local\Temp\ccPFLohD.s 			page 19


 1027 0154 06       		.uleb128 0x6
 1028 0155 EA000000 		.4byte	.LASF28
 1029 0159 07       		.byte	0x7
 1030 015a 66       		.byte	0x66
 1031 015b 4C020000 		.4byte	0x24c
 1032 015f 02       		.byte	0x2
 1033 0160 23       		.byte	0x23
 1034 0161 10       		.uleb128 0x10
 1035 0162 06       		.uleb128 0x6
 1036 0163 24020000 		.4byte	.LASF29
 1037 0167 07       		.byte	0x7
 1038 0168 67       		.byte	0x67
 1039 0169 4C020000 		.4byte	0x24c
 1040 016d 02       		.byte	0x2
 1041 016e 23       		.byte	0x23
 1042 016f 14       		.uleb128 0x14
 1043 0170 06       		.uleb128 0x6
 1044 0171 AC030000 		.4byte	.LASF30
 1045 0175 07       		.byte	0x7
 1046 0176 6E       		.byte	0x6e
 1047 0177 1B040000 		.4byte	0x41b
 1048 017b 02       		.byte	0x2
 1049 017c 23       		.byte	0x23
 1050 017d 18       		.uleb128 0x18
 1051 017e 06       		.uleb128 0x6
 1052 017f BB020000 		.4byte	.LASF31
 1053 0183 07       		.byte	0x7
 1054 0184 79       		.byte	0x79
 1055 0185 B8000000 		.4byte	0xb8
 1056 0189 02       		.byte	0x2
 1057 018a 23       		.byte	0x23
 1058 018b 1C       		.uleb128 0x1c
 1059 018c 06       		.uleb128 0x6
 1060 018d EA020000 		.4byte	.LASF32
 1061 0191 07       		.byte	0x7
 1062 0192 7D       		.byte	0x7d
 1063 0193 AD000000 		.4byte	0xad
 1064 0197 02       		.byte	0x2
 1065 0198 23       		.byte	0x23
 1066 0199 1D       		.uleb128 0x1d
 1067 019a 06       		.uleb128 0x6
 1068 019b 7D030000 		.4byte	.LASF33
 1069 019f 07       		.byte	0x7
 1070 01a0 82       		.byte	0x82
 1071 01a1 C3000000 		.4byte	0xc3
 1072 01a5 02       		.byte	0x2
 1073 01a6 23       		.byte	0x23
 1074 01a7 1E       		.uleb128 0x1e
 1075 01a8 06       		.uleb128 0x6
 1076 01a9 C3020000 		.4byte	.LASF34
 1077 01ad 07       		.byte	0x7
 1078 01ae 88       		.byte	0x88
 1079 01af CE000000 		.4byte	0xce
 1080 01b3 02       		.byte	0x2
 1081 01b4 23       		.byte	0x23
 1082 01b5 1F       		.uleb128 0x1f
 1083 01b6 06       		.uleb128 0x6
ARM GAS  C:\Users\NICOMA~1\AppData\Local\Temp\ccPFLohD.s 			page 20


 1084 01b7 5E030000 		.4byte	.LASF35
 1085 01bb 07       		.byte	0x7
 1086 01bc 8F       		.byte	0x8f
 1087 01bd 31030000 		.4byte	0x331
 1088 01c1 02       		.byte	0x2
 1089 01c2 23       		.byte	0x23
 1090 01c3 20       		.uleb128 0x20
 1091 01c4 07       		.uleb128 0x7
 1092 01c5 705F7500 		.ascii	"p_u\000"
 1093 01c9 07       		.byte	0x7
 1094 01ca B4       		.byte	0xb4
 1095 01cb E6030000 		.4byte	0x3e6
 1096 01cf 02       		.byte	0x2
 1097 01d0 23       		.byte	0x23
 1098 01d1 24       		.uleb128 0x24
 1099 01d2 06       		.uleb128 0x6
 1100 01d3 DD030000 		.4byte	.LASF36
 1101 01d7 07       		.byte	0x7
 1102 01d8 B9       		.byte	0xb9
 1103 01d9 74020000 		.4byte	0x274
 1104 01dd 02       		.byte	0x2
 1105 01de 23       		.byte	0x23
 1106 01df 28       		.uleb128 0x28
 1107 01e0 06       		.uleb128 0x6
 1108 01e1 6C030000 		.4byte	.LASF37
 1109 01e5 07       		.byte	0x7
 1110 01e6 BF       		.byte	0xbf
 1111 01e7 52020000 		.4byte	0x252
 1112 01eb 02       		.byte	0x2
 1113 01ec 23       		.byte	0x23
 1114 01ed 2C       		.uleb128 0x2c
 1115 01ee 06       		.uleb128 0x6
 1116 01ef 09000000 		.4byte	.LASF38
 1117 01f3 07       		.byte	0x7
 1118 01f4 C3       		.byte	0xc3
 1119 01f5 E4000000 		.4byte	0xe4
 1120 01f9 02       		.byte	0x2
 1121 01fa 23       		.byte	0x23
 1122 01fb 34       		.uleb128 0x34
 1123 01fc 06       		.uleb128 0x6
 1124 01fd F9020000 		.4byte	.LASF39
 1125 0201 07       		.byte	0x7
 1126 0202 C9       		.byte	0xc9
 1127 0203 EF000000 		.4byte	0xef
 1128 0207 02       		.byte	0x2
 1129 0208 23       		.byte	0x23
 1130 0209 38       		.uleb128 0x38
 1131 020a 06       		.uleb128 0x6
 1132 020b A7020000 		.4byte	.LASF40
 1133 020f 07       		.byte	0x7
 1134 0210 D0       		.byte	0xd0
 1135 0211 2D040000 		.4byte	0x42d
 1136 0215 02       		.byte	0x2
 1137 0216 23       		.byte	0x23
 1138 0217 3C       		.uleb128 0x3c
 1139 0218 06       		.uleb128 0x6
 1140 0219 43030000 		.4byte	.LASF41
ARM GAS  C:\Users\NICOMA~1\AppData\Local\Temp\ccPFLohD.s 			page 21


 1141 021d 07       		.byte	0x7
 1142 021e D4       		.byte	0xd4
 1143 021f D9000000 		.4byte	0xd9
 1144 0223 02       		.byte	0x2
 1145 0224 23       		.byte	0x23
 1146 0225 40       		.uleb128 0x40
 1147 0226 00       		.byte	0
 1148 0227 08       		.uleb128 0x8
 1149 0228 08       		.byte	0x8
 1150 0229 06       		.byte	0x6
 1151 022a 61       		.byte	0x61
 1152 022b 4C020000 		.4byte	0x24c
 1153 022f 06       		.uleb128 0x6
 1154 0230 DB020000 		.4byte	.LASF24
 1155 0234 06       		.byte	0x6
 1156 0235 62       		.byte	0x62
 1157 0236 4C020000 		.4byte	0x24c
 1158 023a 02       		.byte	0x2
 1159 023b 23       		.byte	0x23
 1160 023c 00       		.uleb128 0
 1161 023d 06       		.uleb128 0x6
 1162 023e 74020000 		.4byte	.LASF25
 1163 0242 06       		.byte	0x6
 1164 0243 64       		.byte	0x64
 1165 0244 4C020000 		.4byte	0x24c
 1166 0248 02       		.byte	0x2
 1167 0249 23       		.byte	0x23
 1168 024a 04       		.uleb128 0x4
 1169 024b 00       		.byte	0
 1170 024c 09       		.uleb128 0x9
 1171 024d 04       		.byte	0x4
 1172 024e 05010000 		.4byte	0x105
 1173 0252 03       		.uleb128 0x3
 1174 0253 32020000 		.4byte	.LASF42
 1175 0257 06       		.byte	0x6
 1176 0258 66       		.byte	0x66
 1177 0259 27020000 		.4byte	0x227
 1178 025d 08       		.uleb128 0x8
 1179 025e 04       		.byte	0x4
 1180 025f 06       		.byte	0x6
 1181 0260 6B       		.byte	0x6b
 1182 0261 74020000 		.4byte	0x274
 1183 0265 06       		.uleb128 0x6
 1184 0266 DB020000 		.4byte	.LASF24
 1185 026a 06       		.byte	0x6
 1186 026b 6D       		.byte	0x6d
 1187 026c 4C020000 		.4byte	0x24c
 1188 0270 02       		.byte	0x2
 1189 0271 23       		.byte	0x23
 1190 0272 00       		.uleb128 0
 1191 0273 00       		.byte	0
 1192 0274 03       		.uleb128 0x3
 1193 0275 CA010000 		.4byte	.LASF43
 1194 0279 06       		.byte	0x6
 1195 027a 70       		.byte	0x70
 1196 027b 5D020000 		.4byte	0x25d
 1197 027f 03       		.uleb128 0x3
ARM GAS  C:\Users\NICOMA~1\AppData\Local\Temp\ccPFLohD.s 			page 22


 1198 0280 35010000 		.4byte	.LASF44
 1199 0284 08       		.byte	0x8
 1200 0285 A9       		.byte	0xa9
 1201 0286 8A020000 		.4byte	0x28a
 1202 028a 0A       		.uleb128 0xa
 1203 028b 04       		.byte	0x4
 1204 028c 05       		.uleb128 0x5
 1205 028d 65030000 		.4byte	.LASF45
 1206 0291 24       		.byte	0x24
 1207 0292 08       		.byte	0x8
 1208 0293 C0       		.byte	0xc0
 1209 0294 10030000 		.4byte	0x310
 1210 0298 07       		.uleb128 0x7
 1211 0299 723400   		.ascii	"r4\000"
 1212 029c 08       		.byte	0x8
 1213 029d C1       		.byte	0xc1
 1214 029e 7F020000 		.4byte	0x27f
 1215 02a2 02       		.byte	0x2
 1216 02a3 23       		.byte	0x23
 1217 02a4 00       		.uleb128 0
 1218 02a5 07       		.uleb128 0x7
 1219 02a6 723500   		.ascii	"r5\000"
 1220 02a9 08       		.byte	0x8
 1221 02aa C2       		.byte	0xc2
 1222 02ab 7F020000 		.4byte	0x27f
 1223 02af 02       		.byte	0x2
 1224 02b0 23       		.byte	0x23
 1225 02b1 04       		.uleb128 0x4
 1226 02b2 07       		.uleb128 0x7
 1227 02b3 723600   		.ascii	"r6\000"
 1228 02b6 08       		.byte	0x8
 1229 02b7 C3       		.byte	0xc3
 1230 02b8 7F020000 		.4byte	0x27f
 1231 02bc 02       		.byte	0x2
 1232 02bd 23       		.byte	0x23
 1233 02be 08       		.uleb128 0x8
 1234 02bf 07       		.uleb128 0x7
 1235 02c0 723700   		.ascii	"r7\000"
 1236 02c3 08       		.byte	0x8
 1237 02c4 C4       		.byte	0xc4
 1238 02c5 7F020000 		.4byte	0x27f
 1239 02c9 02       		.byte	0x2
 1240 02ca 23       		.byte	0x23
 1241 02cb 0C       		.uleb128 0xc
 1242 02cc 07       		.uleb128 0x7
 1243 02cd 723800   		.ascii	"r8\000"
 1244 02d0 08       		.byte	0x8
 1245 02d1 C5       		.byte	0xc5
 1246 02d2 7F020000 		.4byte	0x27f
 1247 02d6 02       		.byte	0x2
 1248 02d7 23       		.byte	0x23
 1249 02d8 10       		.uleb128 0x10
 1250 02d9 07       		.uleb128 0x7
 1251 02da 723900   		.ascii	"r9\000"
 1252 02dd 08       		.byte	0x8
 1253 02de C6       		.byte	0xc6
 1254 02df 7F020000 		.4byte	0x27f
ARM GAS  C:\Users\NICOMA~1\AppData\Local\Temp\ccPFLohD.s 			page 23


 1255 02e3 02       		.byte	0x2
 1256 02e4 23       		.byte	0x23
 1257 02e5 14       		.uleb128 0x14
 1258 02e6 07       		.uleb128 0x7
 1259 02e7 72313000 		.ascii	"r10\000"
 1260 02eb 08       		.byte	0x8
 1261 02ec C7       		.byte	0xc7
 1262 02ed 7F020000 		.4byte	0x27f
 1263 02f1 02       		.byte	0x2
 1264 02f2 23       		.byte	0x23
 1265 02f3 18       		.uleb128 0x18
 1266 02f4 07       		.uleb128 0x7
 1267 02f5 72313100 		.ascii	"r11\000"
 1268 02f9 08       		.byte	0x8
 1269 02fa C8       		.byte	0xc8
 1270 02fb 7F020000 		.4byte	0x27f
 1271 02ff 02       		.byte	0x2
 1272 0300 23       		.byte	0x23
 1273 0301 1C       		.uleb128 0x1c
 1274 0302 07       		.uleb128 0x7
 1275 0303 6C7200   		.ascii	"lr\000"
 1276 0306 08       		.byte	0x8
 1277 0307 C9       		.byte	0xc9
 1278 0308 7F020000 		.4byte	0x27f
 1279 030c 02       		.byte	0x2
 1280 030d 23       		.byte	0x23
 1281 030e 20       		.uleb128 0x20
 1282 030f 00       		.byte	0
 1283 0310 05       		.uleb128 0x5
 1284 0311 85010000 		.4byte	.LASF46
 1285 0315 04       		.byte	0x4
 1286 0316 08       		.byte	0x8
 1287 0317 D1       		.byte	0xd1
 1288 0318 2B030000 		.4byte	0x32b
 1289 031c 07       		.uleb128 0x7
 1290 031d 72313300 		.ascii	"r13\000"
 1291 0321 08       		.byte	0x8
 1292 0322 D2       		.byte	0xd2
 1293 0323 2B030000 		.4byte	0x32b
 1294 0327 02       		.byte	0x2
 1295 0328 23       		.byte	0x23
 1296 0329 00       		.uleb128 0
 1297 032a 00       		.byte	0
 1298 032b 09       		.uleb128 0x9
 1299 032c 04       		.byte	0x4
 1300 032d 8C020000 		.4byte	0x28c
 1301 0331 0B       		.uleb128 0xb
 1302 0332 FA000000 		.4byte	0xfa
 1303 0336 08       		.uleb128 0x8
 1304 0337 1C       		.byte	0x1c
 1305 0338 09       		.byte	0x9
 1306 0339 5E       		.byte	0x5e
 1307 033a 93030000 		.4byte	0x393
 1308 033e 06       		.uleb128 0x6
 1309 033f 0D030000 		.4byte	.LASF47
 1310 0343 09       		.byte	0x9
 1311 0344 5F       		.byte	0x5f
ARM GAS  C:\Users\NICOMA~1\AppData\Local\Temp\ccPFLohD.s 			page 24


 1312 0345 52020000 		.4byte	0x252
 1313 0349 02       		.byte	0x2
 1314 034a 23       		.byte	0x23
 1315 034b 00       		.uleb128 0
 1316 034c 06       		.uleb128 0x6
 1317 034d CD020000 		.4byte	.LASF48
 1318 0351 09       		.byte	0x9
 1319 0352 60       		.byte	0x60
 1320 0353 D9000000 		.4byte	0xd9
 1321 0357 02       		.byte	0x2
 1322 0358 23       		.byte	0x23
 1323 0359 08       		.uleb128 0x8
 1324 035a 06       		.uleb128 0x6
 1325 035b 2C020000 		.4byte	.LASF49
 1326 035f 09       		.byte	0x9
 1327 0360 62       		.byte	0x62
 1328 0361 10030000 		.4byte	0x310
 1329 0365 02       		.byte	0x2
 1330 0366 23       		.byte	0x23
 1331 0367 0C       		.uleb128 0xc
 1332 0368 06       		.uleb128 0x6
 1333 0369 2D010000 		.4byte	.LASF50
 1334 036d 09       		.byte	0x9
 1335 036e 65       		.byte	0x65
 1336 036f 4C020000 		.4byte	0x24c
 1337 0373 02       		.byte	0x2
 1338 0374 23       		.byte	0x23
 1339 0375 10       		.uleb128 0x10
 1340 0376 06       		.uleb128 0x6
 1341 0377 5A020000 		.4byte	.LASF51
 1342 037b 09       		.byte	0x9
 1343 037c 66       		.byte	0x66
 1344 037d 4C020000 		.4byte	0x24c
 1345 0381 02       		.byte	0x2
 1346 0382 23       		.byte	0x23
 1347 0383 14       		.uleb128 0x14
 1348 0384 06       		.uleb128 0x6
 1349 0385 50020000 		.4byte	.LASF52
 1350 0389 09       		.byte	0x9
 1351 038a 69       		.byte	0x69
 1352 038b 4C020000 		.4byte	0x24c
 1353 038f 02       		.byte	0x2
 1354 0390 23       		.byte	0x23
 1355 0391 18       		.uleb128 0x18
 1356 0392 00       		.byte	0
 1357 0393 03       		.uleb128 0x3
 1358 0394 84030000 		.4byte	.LASF53
 1359 0398 09       		.byte	0x9
 1360 0399 6B       		.byte	0x6b
 1361 039a 36030000 		.4byte	0x336
 1362 039e 05       		.uleb128 0x5
 1363 039f ED010000 		.4byte	.LASF54
 1364 03a3 10       		.byte	0x10
 1365 03a4 0A       		.byte	0xa
 1366 03a5 2C       		.byte	0x2c
 1367 03a6 D5030000 		.4byte	0x3d5
 1368 03aa 06       		.uleb128 0x6
ARM GAS  C:\Users\NICOMA~1\AppData\Local\Temp\ccPFLohD.s 			page 25


 1369 03ab A6000000 		.4byte	.LASF55
 1370 03af 0A       		.byte	0xa
 1371 03b0 2D       		.byte	0x2d
 1372 03b1 52020000 		.4byte	0x252
 1373 03b5 02       		.byte	0x2
 1374 03b6 23       		.byte	0x23
 1375 03b7 00       		.uleb128 0
 1376 03b8 06       		.uleb128 0x6
 1377 03b9 CF030000 		.4byte	.LASF56
 1378 03bd 0A       		.byte	0xa
 1379 03be 2F       		.byte	0x2f
 1380 03bf 4C020000 		.4byte	0x24c
 1381 03c3 02       		.byte	0x2
 1382 03c4 23       		.byte	0x23
 1383 03c5 08       		.uleb128 0x8
 1384 03c6 06       		.uleb128 0x6
 1385 03c7 32030000 		.4byte	.LASF57
 1386 03cb 0A       		.byte	0xa
 1387 03cc 31       		.byte	0x31
 1388 03cd D5030000 		.4byte	0x3d5
 1389 03d1 02       		.byte	0x2
 1390 03d2 23       		.byte	0x23
 1391 03d3 0C       		.uleb128 0xc
 1392 03d4 00       		.byte	0
 1393 03d5 09       		.uleb128 0x9
 1394 03d6 04       		.byte	0x4
 1395 03d7 9E030000 		.4byte	0x39e
 1396 03db 03       		.uleb128 0x3
 1397 03dc ED010000 		.4byte	.LASF54
 1398 03e0 0A       		.byte	0xa
 1399 03e1 33       		.byte	0x33
 1400 03e2 9E030000 		.4byte	0x39e
 1401 03e6 0C       		.uleb128 0xc
 1402 03e7 04       		.byte	0x4
 1403 03e8 07       		.byte	0x7
 1404 03e9 96       		.byte	0x96
 1405 03ea 1B040000 		.4byte	0x41b
 1406 03ee 0D       		.uleb128 0xd
 1407 03ef 28000000 		.4byte	.LASF58
 1408 03f3 07       		.byte	0x7
 1409 03f4 9D       		.byte	0x9d
 1410 03f5 E4000000 		.4byte	0xe4
 1411 03f9 0D       		.uleb128 0xd
 1412 03fa 6B000000 		.4byte	.LASF59
 1413 03fe 07       		.byte	0x7
 1414 03ff A4       		.byte	0xa4
 1415 0400 E4000000 		.4byte	0xe4
 1416 0404 0D       		.uleb128 0xd
 1417 0405 A5030000 		.4byte	.LASF60
 1418 0409 07       		.byte	0x7
 1419 040a AB       		.byte	0xab
 1420 040b 8A020000 		.4byte	0x28a
 1421 040f 0D       		.uleb128 0xd
 1422 0410 D4020000 		.4byte	.LASF61
 1423 0414 07       		.byte	0x7
 1424 0415 B2       		.byte	0xb2
 1425 0416 EF000000 		.4byte	0xef
ARM GAS  C:\Users\NICOMA~1\AppData\Local\Temp\ccPFLohD.s 			page 26


 1426 041a 00       		.byte	0
 1427 041b 09       		.uleb128 0x9
 1428 041c 04       		.byte	0x4
 1429 041d 21040000 		.4byte	0x421
 1430 0421 0E       		.uleb128 0xe
 1431 0422 26040000 		.4byte	0x426
 1432 0426 04       		.uleb128 0x4
 1433 0427 01       		.byte	0x1
 1434 0428 08       		.byte	0x8
 1435 0429 21030000 		.4byte	.LASF62
 1436 042d 09       		.uleb128 0x9
 1437 042e 04       		.byte	0x4
 1438 042f DB030000 		.4byte	0x3db
 1439 0433 04       		.uleb128 0x4
 1440 0434 04       		.byte	0x4
 1441 0435 07       		.byte	0x7
 1442 0436 11020000 		.4byte	.LASF63
 1443 043a 03       		.uleb128 0x3
 1444 043b F3010000 		.4byte	.LASF64
 1445 043f 0B       		.byte	0xb
 1446 0440 37       		.byte	0x37
 1447 0441 45040000 		.4byte	0x445
 1448 0445 05       		.uleb128 0x5
 1449 0446 F3010000 		.4byte	.LASF64
 1450 044a 24       		.byte	0x24
 1451 044b 0B       		.byte	0xb
 1452 044c 45       		.byte	0x45
 1453 044d C2040000 		.4byte	0x4c2
 1454 0451 06       		.uleb128 0x6
 1455 0452 7B000000 		.4byte	.LASF65
 1456 0456 0B       		.byte	0xb
 1457 0457 46       		.byte	0x46
 1458 0458 52020000 		.4byte	0x252
 1459 045c 02       		.byte	0x2
 1460 045d 23       		.byte	0x23
 1461 045e 00       		.uleb128 0
 1462 045f 06       		.uleb128 0x6
 1463 0460 1A020000 		.4byte	.LASF66
 1464 0464 0B       		.byte	0xb
 1465 0465 47       		.byte	0x47
 1466 0466 30000000 		.4byte	0x30
 1467 046a 02       		.byte	0x2
 1468 046b 23       		.byte	0x23
 1469 046c 08       		.uleb128 0x8
 1470 046d 06       		.uleb128 0x6
 1471 046e D9000000 		.4byte	.LASF67
 1472 0472 0B       		.byte	0xb
 1473 0473 48       		.byte	0x48
 1474 0474 E5040000 		.4byte	0x4e5
 1475 0478 02       		.byte	0x2
 1476 0479 23       		.byte	0x23
 1477 047a 0C       		.uleb128 0xc
 1478 047b 06       		.uleb128 0x6
 1479 047c 77030000 		.4byte	.LASF68
 1480 0480 0B       		.byte	0xb
 1481 0481 49       		.byte	0x49
 1482 0482 E5040000 		.4byte	0x4e5
ARM GAS  C:\Users\NICOMA~1\AppData\Local\Temp\ccPFLohD.s 			page 27


 1483 0486 02       		.byte	0x2
 1484 0487 23       		.byte	0x23
 1485 0488 10       		.uleb128 0x10
 1486 0489 06       		.uleb128 0x6
 1487 048a E2000000 		.4byte	.LASF69
 1488 048e 0B       		.byte	0xb
 1489 048f 4B       		.byte	0x4b
 1490 0490 E5040000 		.4byte	0x4e5
 1491 0494 02       		.byte	0x2
 1492 0495 23       		.byte	0x23
 1493 0496 14       		.uleb128 0x14
 1494 0497 06       		.uleb128 0x6
 1495 0498 83020000 		.4byte	.LASF70
 1496 049c 0B       		.byte	0xb
 1497 049d 4C       		.byte	0x4c
 1498 049e E5040000 		.4byte	0x4e5
 1499 04a2 02       		.byte	0x2
 1500 04a3 23       		.byte	0x23
 1501 04a4 18       		.uleb128 0x18
 1502 04a5 06       		.uleb128 0x6
 1503 04a6 8E030000 		.4byte	.LASF71
 1504 04aa 0B       		.byte	0xb
 1505 04ab 4D       		.byte	0x4d
 1506 04ac C2040000 		.4byte	0x4c2
 1507 04b0 02       		.byte	0x2
 1508 04b1 23       		.byte	0x23
 1509 04b2 1C       		.uleb128 0x1c
 1510 04b3 06       		.uleb128 0x6
 1511 04b4 C8030000 		.4byte	.LASF72
 1512 04b8 0B       		.byte	0xb
 1513 04b9 4E       		.byte	0x4e
 1514 04ba 8A020000 		.4byte	0x28a
 1515 04be 02       		.byte	0x2
 1516 04bf 23       		.byte	0x23
 1517 04c0 20       		.uleb128 0x20
 1518 04c1 00       		.byte	0
 1519 04c2 03       		.uleb128 0x3
 1520 04c3 6A020000 		.4byte	.LASF73
 1521 04c7 0B       		.byte	0xb
 1522 04c8 3A       		.byte	0x3a
 1523 04c9 CD040000 		.4byte	0x4cd
 1524 04cd 09       		.uleb128 0x9
 1525 04ce 04       		.byte	0x4
 1526 04cf D3040000 		.4byte	0x4d3
 1527 04d3 0F       		.uleb128 0xf
 1528 04d4 01       		.byte	0x1
 1529 04d5 DF040000 		.4byte	0x4df
 1530 04d9 10       		.uleb128 0x10
 1531 04da DF040000 		.4byte	0x4df
 1532 04de 00       		.byte	0
 1533 04df 09       		.uleb128 0x9
 1534 04e0 04       		.byte	0x4
 1535 04e1 3A040000 		.4byte	0x43a
 1536 04e5 09       		.uleb128 0x9
 1537 04e6 04       		.byte	0x4
 1538 04e7 49000000 		.4byte	0x49
 1539 04eb 03       		.uleb128 0x3
ARM GAS  C:\Users\NICOMA~1\AppData\Local\Temp\ccPFLohD.s 			page 28


 1540 04ec E2010000 		.4byte	.LASF74
 1541 04f0 0B       		.byte	0xb
 1542 04f1 82       		.byte	0x82
 1543 04f2 3A040000 		.4byte	0x43a
 1544 04f6 03       		.uleb128 0x3
 1545 04f7 38000000 		.4byte	.LASF75
 1546 04fb 0B       		.byte	0xb
 1547 04fc F5       		.byte	0xf5
 1548 04fd 3A040000 		.4byte	0x43a
 1549 0501 09       		.uleb128 0x9
 1550 0502 04       		.byte	0x4
 1551 0503 07050000 		.4byte	0x507
 1552 0507 0E       		.uleb128 0xe
 1553 0508 49000000 		.4byte	0x49
 1554 050c 11       		.uleb128 0x11
 1555 050d 0F000000 		.4byte	.LASF94
 1556 0511 02       		.byte	0x2
 1557 0512 34       		.byte	0x34
 1558 0513 01       		.byte	0x1
 1559 0514 03       		.byte	0x3
 1560 0515 2F050000 		.4byte	0x52f
 1561 0519 12       		.uleb128 0x12
 1562 051a 747000   		.ascii	"tp\000"
 1563 051d 02       		.byte	0x2
 1564 051e 34       		.byte	0x34
 1565 051f 4C020000 		.4byte	0x24c
 1566 0523 12       		.uleb128 0x12
 1567 0524 74717000 		.ascii	"tqp\000"
 1568 0528 02       		.byte	0x2
 1569 0529 34       		.byte	0x34
 1570 052a 2F050000 		.4byte	0x52f
 1571 052e 00       		.byte	0
 1572 052f 09       		.uleb128 0x9
 1573 0530 04       		.byte	0x4
 1574 0531 52020000 		.4byte	0x252
 1575 0535 13       		.uleb128 0x13
 1576 0536 26030000 		.4byte	.LASF95
 1577 053a 02       		.byte	0x2
 1578 053b 3B       		.byte	0x3b
 1579 053c 01       		.byte	0x1
 1580 053d 4C020000 		.4byte	0x24c
 1581 0541 03       		.byte	0x3
 1582 0542 5C050000 		.4byte	0x55c
 1583 0546 12       		.uleb128 0x12
 1584 0547 74717000 		.ascii	"tqp\000"
 1585 054b 02       		.byte	0x2
 1586 054c 3B       		.byte	0x3b
 1587 054d 2F050000 		.4byte	0x52f
 1588 0551 14       		.uleb128 0x14
 1589 0552 747000   		.ascii	"tp\000"
 1590 0555 02       		.byte	0x2
 1591 0556 3C       		.byte	0x3c
 1592 0557 4C020000 		.4byte	0x24c
 1593 055b 00       		.byte	0
 1594 055c 15       		.uleb128 0x15
 1595 055d B8000000 		.4byte	.LASF96
 1596 0561 01       		.byte	0x1
ARM GAS  C:\Users\NICOMA~1\AppData\Local\Temp\ccPFLohD.s 			page 29


 1597 0562 46       		.byte	0x46
 1598 0563 01       		.byte	0x1
 1599 0564 E4000000 		.4byte	0xe4
 1600 0568 00000000 		.4byte	.LFB7
 1601 056c 3C000000 		.4byte	.LFE7
 1602 0570 02       		.byte	0x2
 1603 0571 7D       		.byte	0x7d
 1604 0572 00       		.sleb128 0
 1605 0573 01       		.byte	0x1
 1606 0574 D3050000 		.4byte	0x5d3
 1607 0578 16       		.uleb128 0x16
 1608 0579 717000   		.ascii	"qp\000"
 1609 057c 01       		.byte	0x1
 1610 057d 46       		.byte	0x46
 1611 057e DF040000 		.4byte	0x4df
 1612 0582 00000000 		.4byte	.LLST0
 1613 0586 17       		.uleb128 0x17
 1614 0587 3F020000 		.4byte	.LASF76
 1615 058b 01       		.byte	0x1
 1616 058c 46       		.byte	0x46
 1617 058d FA000000 		.4byte	0xfa
 1618 0591 42000000 		.4byte	.LLST1
 1619 0595 18       		.uleb128 0x18
 1620 0596 0C050000 		.4byte	0x50c
 1621 059a 1C000000 		.4byte	.LBB12
 1622 059e 2C000000 		.4byte	.LBE12
 1623 05a2 01       		.byte	0x1
 1624 05a3 4B       		.byte	0x4b
 1625 05a4 BB050000 		.4byte	0x5bb
 1626 05a8 19       		.uleb128 0x19
 1627 05a9 23050000 		.4byte	0x523
 1628 05ad 6E000000 		.4byte	.LLST2
 1629 05b1 19       		.uleb128 0x19
 1630 05b2 19050000 		.4byte	0x519
 1631 05b6 8F000000 		.4byte	.LLST3
 1632 05ba 00       		.byte	0
 1633 05bb 1A       		.uleb128 0x1a
 1634 05bc 30000000 		.4byte	.LVL3
 1635 05c0 01       		.byte	0x1
 1636 05c1 AB0A0000 		.4byte	0xaab
 1637 05c5 1B       		.uleb128 0x1b
 1638 05c6 01       		.byte	0x1
 1639 05c7 51       		.byte	0x51
 1640 05c8 03       		.byte	0x3
 1641 05c9 F3       		.byte	0xf3
 1642 05ca 01       		.uleb128 0x1
 1643 05cb 51       		.byte	0x51
 1644 05cc 1B       		.uleb128 0x1b
 1645 05cd 01       		.byte	0x1
 1646 05ce 50       		.byte	0x50
 1647 05cf 01       		.byte	0x1
 1648 05d0 3D       		.byte	0x3d
 1649 05d1 00       		.byte	0
 1650 05d2 00       		.byte	0
 1651 05d3 1C       		.uleb128 0x1c
 1652 05d4 01       		.byte	0x1
 1653 05d5 2F000000 		.4byte	.LASF80
ARM GAS  C:\Users\NICOMA~1\AppData\Local\Temp\ccPFLohD.s 			page 30


 1654 05d9 01       		.byte	0x1
 1655 05da 5F       		.byte	0x5f
 1656 05db 01       		.byte	0x1
 1657 05dc 00000000 		.4byte	.LFB8
 1658 05e0 34000000 		.4byte	.LFE8
 1659 05e4 02       		.byte	0x2
 1660 05e5 7D       		.byte	0x7d
 1661 05e6 00       		.sleb128 0
 1662 05e7 01       		.byte	0x1
 1663 05e8 32060000 		.4byte	0x632
 1664 05ec 1D       		.uleb128 0x1d
 1665 05ed 69717000 		.ascii	"iqp\000"
 1666 05f1 01       		.byte	0x1
 1667 05f2 5F       		.byte	0x5f
 1668 05f3 32060000 		.4byte	0x632
 1669 05f7 01       		.byte	0x1
 1670 05f8 50       		.byte	0x50
 1671 05f9 1D       		.uleb128 0x1d
 1672 05fa 627000   		.ascii	"bp\000"
 1673 05fd 01       		.byte	0x1
 1674 05fe 5F       		.byte	0x5f
 1675 05ff E5040000 		.4byte	0x4e5
 1676 0603 01       		.byte	0x1
 1677 0604 51       		.byte	0x51
 1678 0605 17       		.uleb128 0x17
 1679 0606 8D010000 		.4byte	.LASF77
 1680 060a 01       		.byte	0x1
 1681 060b 5F       		.byte	0x5f
 1682 060c 30000000 		.4byte	0x30
 1683 0610 A2000000 		.4byte	.LLST4
 1684 0614 17       		.uleb128 0x17
 1685 0615 4E030000 		.4byte	.LASF78
 1686 0619 01       		.byte	0x1
 1687 061a 5F       		.byte	0x5f
 1688 061b C2040000 		.4byte	0x4c2
 1689 061f C3000000 		.4byte	.LLST5
 1690 0623 1E       		.uleb128 0x1e
 1691 0624 3E010000 		.4byte	.LASF79
 1692 0628 01       		.byte	0x1
 1693 0629 60       		.byte	0x60
 1694 062a 8A020000 		.4byte	0x28a
 1695 062e 02       		.byte	0x2
 1696 062f 91       		.byte	0x91
 1697 0630 00       		.sleb128 0
 1698 0631 00       		.byte	0
 1699 0632 09       		.uleb128 0x9
 1700 0633 04       		.byte	0x4
 1701 0634 EB040000 		.4byte	0x4eb
 1702 0638 1F       		.uleb128 0x1f
 1703 0639 01       		.byte	0x1
 1704 063a 68010000 		.4byte	.LASF81
 1705 063e 01       		.byte	0x1
 1706 063f 75       		.byte	0x75
 1707 0640 01       		.byte	0x1
 1708 0641 00000000 		.4byte	.LFB9
 1709 0645 50000000 		.4byte	.LFE9
 1710 0649 E2000000 		.4byte	.LLST6
ARM GAS  C:\Users\NICOMA~1\AppData\Local\Temp\ccPFLohD.s 			page 31


 1711 064d 01       		.byte	0x1
 1712 064e 99060000 		.4byte	0x699
 1713 0652 16       		.uleb128 0x16
 1714 0653 69717000 		.ascii	"iqp\000"
 1715 0657 01       		.byte	0x1
 1716 0658 75       		.byte	0x75
 1717 0659 32060000 		.4byte	0x632
 1718 065d 02010000 		.4byte	.LLST7
 1719 0661 18       		.uleb128 0x18
 1720 0662 35050000 		.4byte	0x535
 1721 0666 2C000000 		.4byte	.LBB14
 1722 066a 38000000 		.4byte	.LBE14
 1723 066e 01       		.byte	0x1
 1724 066f 7C       		.byte	0x7c
 1725 0670 8F060000 		.4byte	0x68f
 1726 0674 20       		.uleb128 0x20
 1727 0675 46050000 		.4byte	0x546
 1728 0679 01       		.byte	0x1
 1729 067a 54       		.byte	0x54
 1730 067b 21       		.uleb128 0x21
 1731 067c 2C000000 		.4byte	.LBB15
 1732 0680 38000000 		.4byte	.LBE15
 1733 0684 22       		.uleb128 0x22
 1734 0685 51050000 		.4byte	0x551
 1735 0689 20010000 		.4byte	.LLST8
 1736 068d 00       		.byte	0
 1737 068e 00       		.byte	0
 1738 068f 23       		.uleb128 0x23
 1739 0690 3C000000 		.4byte	.LVL11
 1740 0694 C80A0000 		.4byte	0xac8
 1741 0698 00       		.byte	0
 1742 0699 24       		.uleb128 0x24
 1743 069a 01       		.byte	0x1
 1744 069b 52010000 		.4byte	.LASF82
 1745 069f 01       		.byte	0x1
 1746 06a0 8C       		.byte	0x8c
 1747 06a1 01       		.byte	0x1
 1748 06a2 E4000000 		.4byte	0xe4
 1749 06a6 00000000 		.4byte	.LFB10
 1750 06aa 90000000 		.4byte	.LFE10
 1751 06ae 33010000 		.4byte	.LLST9
 1752 06b2 01       		.byte	0x1
 1753 06b3 0D070000 		.4byte	0x70d
 1754 06b7 16       		.uleb128 0x16
 1755 06b8 69717000 		.ascii	"iqp\000"
 1756 06bc 01       		.byte	0x1
 1757 06bd 8C       		.byte	0x8c
 1758 06be 32060000 		.4byte	0x632
 1759 06c2 53010000 		.4byte	.LLST10
 1760 06c6 16       		.uleb128 0x16
 1761 06c7 6200     		.ascii	"b\000"
 1762 06c9 01       		.byte	0x1
 1763 06ca 8C       		.byte	0x8c
 1764 06cb 49000000 		.4byte	0x49
 1765 06cf 8A010000 		.4byte	.LLST11
 1766 06d3 18       		.uleb128 0x18
 1767 06d4 35050000 		.4byte	0x535
ARM GAS  C:\Users\NICOMA~1\AppData\Local\Temp\ccPFLohD.s 			page 32


 1768 06d8 44000000 		.4byte	.LBB16
 1769 06dc 50000000 		.4byte	.LBE16
 1770 06e0 01       		.byte	0x1
 1771 06e1 99       		.byte	0x99
 1772 06e2 03070000 		.4byte	0x703
 1773 06e6 19       		.uleb128 0x19
 1774 06e7 46050000 		.4byte	0x546
 1775 06eb D0010000 		.4byte	.LLST12
 1776 06ef 21       		.uleb128 0x21
 1777 06f0 44000000 		.4byte	.LBB17
 1778 06f4 50000000 		.4byte	.LBE17
 1779 06f8 22       		.uleb128 0x22
 1780 06f9 51050000 		.4byte	0x551
 1781 06fd F1010000 		.4byte	.LLST13
 1782 0701 00       		.byte	0
 1783 0702 00       		.byte	0
 1784 0703 23       		.uleb128 0x23
 1785 0704 54000000 		.4byte	.LVL16
 1786 0708 C80A0000 		.4byte	0xac8
 1787 070c 00       		.byte	0
 1788 070d 24       		.uleb128 0x24
 1789 070e 01       		.byte	0x1
 1790 070f E7030000 		.4byte	.LASF83
 1791 0713 01       		.byte	0x1
 1792 0714 B2       		.byte	0xb2
 1793 0715 01       		.byte	0x1
 1794 0716 E4000000 		.4byte	0xe4
 1795 071a 00000000 		.4byte	.LFB11
 1796 071e 74000000 		.4byte	.LFE11
 1797 0722 04020000 		.4byte	.LLST14
 1798 0726 01       		.byte	0x1
 1799 0727 92070000 		.4byte	0x792
 1800 072b 16       		.uleb128 0x16
 1801 072c 69717000 		.ascii	"iqp\000"
 1802 0730 01       		.byte	0x1
 1803 0731 B2       		.byte	0xb2
 1804 0732 32060000 		.4byte	0x632
 1805 0736 24020000 		.4byte	.LLST15
 1806 073a 17       		.uleb128 0x17
 1807 073b 3F020000 		.4byte	.LASF76
 1808 073f 01       		.byte	0x1
 1809 0740 B2       		.byte	0xb2
 1810 0741 FA000000 		.4byte	0xfa
 1811 0745 6E020000 		.4byte	.LLST16
 1812 0749 25       		.uleb128 0x25
 1813 074a 6200     		.ascii	"b\000"
 1814 074c 01       		.byte	0x1
 1815 074d B3       		.byte	0xb3
 1816 074e 49000000 		.4byte	0x49
 1817 0752 03       		.byte	0x3
 1818 0753 74       		.byte	0x74
 1819 0754 18       		.sleb128 24
 1820 0755 06       		.byte	0x6
 1821 0756 26       		.uleb128 0x26
 1822 0757 00000000 		.4byte	.Ldebug_ranges0+0
 1823 075b 85070000 		.4byte	0x785
 1824 075f 27       		.uleb128 0x27
ARM GAS  C:\Users\NICOMA~1\AppData\Local\Temp\ccPFLohD.s 			page 33


 1825 0760 6D736700 		.ascii	"msg\000"
 1826 0764 01       		.byte	0x1
 1827 0765 BA       		.byte	0xba
 1828 0766 E4000000 		.4byte	0xe4
 1829 076a AD020000 		.4byte	.LLST17
 1830 076e 28       		.uleb128 0x28
 1831 076f 38000000 		.4byte	.LVL22
 1832 0773 5C050000 		.4byte	0x55c
 1833 0777 1B       		.uleb128 0x1b
 1834 0778 01       		.byte	0x1
 1835 0779 51       		.byte	0x51
 1836 077a 02       		.byte	0x2
 1837 077b 75       		.byte	0x75
 1838 077c 00       		.sleb128 0
 1839 077d 1B       		.uleb128 0x1b
 1840 077e 01       		.byte	0x1
 1841 077f 50       		.byte	0x50
 1842 0780 02       		.byte	0x2
 1843 0781 74       		.byte	0x74
 1844 0782 00       		.sleb128 0
 1845 0783 00       		.byte	0
 1846 0784 00       		.byte	0
 1847 0785 29       		.uleb128 0x29
 1848 0786 20000000 		.4byte	.LVL20
 1849 078a 1B       		.uleb128 0x1b
 1850 078b 01       		.byte	0x1
 1851 078c 50       		.byte	0x50
 1852 078d 02       		.byte	0x2
 1853 078e 74       		.byte	0x74
 1854 078f 00       		.sleb128 0
 1855 0790 00       		.byte	0
 1856 0791 00       		.byte	0
 1857 0792 24       		.uleb128 0x24
 1858 0793 01       		.byte	0x1
 1859 0794 44000000 		.4byte	.LASF84
 1860 0798 01       		.byte	0x1
 1861 0799 E2       		.byte	0xe2
 1862 079a 01       		.byte	0x1
 1863 079b 30000000 		.4byte	0x30
 1864 079f 00000000 		.4byte	.LFB12
 1865 07a3 A0000000 		.4byte	.LFE12
 1866 07a7 C0020000 		.4byte	.LLST18
 1867 07ab 01       		.byte	0x1
 1868 07ac 2D080000 		.4byte	0x82d
 1869 07b0 16       		.uleb128 0x16
 1870 07b1 69717000 		.ascii	"iqp\000"
 1871 07b5 01       		.byte	0x1
 1872 07b6 E2       		.byte	0xe2
 1873 07b7 32060000 		.4byte	0x632
 1874 07bb E0020000 		.4byte	.LLST19
 1875 07bf 16       		.uleb128 0x16
 1876 07c0 627000   		.ascii	"bp\000"
 1877 07c3 01       		.byte	0x1
 1878 07c4 E2       		.byte	0xe2
 1879 07c5 E5040000 		.4byte	0x4e5
 1880 07c9 1F030000 		.4byte	.LLST20
 1881 07cd 16       		.uleb128 0x16
ARM GAS  C:\Users\NICOMA~1\AppData\Local\Temp\ccPFLohD.s 			page 34


 1882 07ce 6E00     		.ascii	"n\000"
 1883 07d0 01       		.byte	0x1
 1884 07d1 E3       		.byte	0xe3
 1885 07d2 30000000 		.4byte	0x30
 1886 07d6 32030000 		.4byte	.LLST21
 1887 07da 17       		.uleb128 0x17
 1888 07db 3F020000 		.4byte	.LASF76
 1889 07df 01       		.byte	0x1
 1890 07e0 E3       		.byte	0xe3
 1891 07e1 FA000000 		.4byte	0xfa
 1892 07e5 45030000 		.4byte	.LLST22
 1893 07e9 25       		.uleb128 0x25
 1894 07ea 6E667900 		.ascii	"nfy\000"
 1895 07ee 01       		.byte	0x1
 1896 07ef E4       		.byte	0xe4
 1897 07f0 C2040000 		.4byte	0x4c2
 1898 07f4 01       		.byte	0x1
 1899 07f5 56       		.byte	0x56
 1900 07f6 27       		.uleb128 0x27
 1901 07f7 7200     		.ascii	"r\000"
 1902 07f9 01       		.byte	0x1
 1903 07fa E5       		.byte	0xe5
 1904 07fb 30000000 		.4byte	0x30
 1905 07ff 84030000 		.4byte	.LLST23
 1906 0803 2A       		.uleb128 0x2a
 1907 0804 30000000 		.4byte	.LVL29
 1908 0808 02       		.byte	0x2
 1909 0809 76       		.byte	0x76
 1910 080a 00       		.sleb128 0
 1911 080b 16080000 		.4byte	0x816
 1912 080f 1B       		.uleb128 0x1b
 1913 0810 01       		.byte	0x1
 1914 0811 50       		.byte	0x50
 1915 0812 02       		.byte	0x2
 1916 0813 74       		.byte	0x74
 1917 0814 00       		.sleb128 0
 1918 0815 00       		.byte	0
 1919 0816 28       		.uleb128 0x28
 1920 0817 48000000 		.4byte	.LVL31
 1921 081b 5C050000 		.4byte	0x55c
 1922 081f 1B       		.uleb128 0x1b
 1923 0820 01       		.byte	0x1
 1924 0821 51       		.byte	0x51
 1925 0822 02       		.byte	0x2
 1926 0823 75       		.byte	0x75
 1927 0824 00       		.sleb128 0
 1928 0825 1B       		.uleb128 0x1b
 1929 0826 01       		.byte	0x1
 1930 0827 50       		.byte	0x50
 1931 0828 02       		.byte	0x2
 1932 0829 74       		.byte	0x74
 1933 082a 00       		.sleb128 0
 1934 082b 00       		.byte	0
 1935 082c 00       		.byte	0
 1936 082d 2B       		.uleb128 0x2b
 1937 082e 01       		.byte	0x1
 1938 082f 00000000 		.4byte	.LASF85
ARM GAS  C:\Users\NICOMA~1\AppData\Local\Temp\ccPFLohD.s 			page 35


 1939 0833 01       		.byte	0x1
 1940 0834 1301     		.2byte	0x113
 1941 0836 01       		.byte	0x1
 1942 0837 00000000 		.4byte	.LFB13
 1943 083b 30000000 		.4byte	.LFE13
 1944 083f 02       		.byte	0x2
 1945 0840 7D       		.byte	0x7d
 1946 0841 00       		.sleb128 0
 1947 0842 01       		.byte	0x1
 1948 0843 90080000 		.4byte	0x890
 1949 0847 2C       		.uleb128 0x2c
 1950 0848 6F717000 		.ascii	"oqp\000"
 1951 084c 01       		.byte	0x1
 1952 084d 1301     		.2byte	0x113
 1953 084f 90080000 		.4byte	0x890
 1954 0853 01       		.byte	0x1
 1955 0854 50       		.byte	0x50
 1956 0855 2C       		.uleb128 0x2c
 1957 0856 627000   		.ascii	"bp\000"
 1958 0859 01       		.byte	0x1
 1959 085a 1301     		.2byte	0x113
 1960 085c E5040000 		.4byte	0x4e5
 1961 0860 01       		.byte	0x1
 1962 0861 51       		.byte	0x51
 1963 0862 2D       		.uleb128 0x2d
 1964 0863 8D010000 		.4byte	.LASF77
 1965 0867 01       		.byte	0x1
 1966 0868 1301     		.2byte	0x113
 1967 086a 30000000 		.4byte	0x30
 1968 086e 01       		.byte	0x1
 1969 086f 52       		.byte	0x52
 1970 0870 2E       		.uleb128 0x2e
 1971 0871 1C000000 		.4byte	.LASF86
 1972 0875 01       		.byte	0x1
 1973 0876 1301     		.2byte	0x113
 1974 0878 C2040000 		.4byte	0x4c2
 1975 087c A3030000 		.4byte	.LLST24
 1976 0880 2D       		.uleb128 0x2d
 1977 0881 3E010000 		.4byte	.LASF79
 1978 0885 01       		.byte	0x1
 1979 0886 1401     		.2byte	0x114
 1980 0888 8A020000 		.4byte	0x28a
 1981 088c 02       		.byte	0x2
 1982 088d 91       		.byte	0x91
 1983 088e 00       		.sleb128 0
 1984 088f 00       		.byte	0
 1985 0890 09       		.uleb128 0x9
 1986 0891 04       		.byte	0x4
 1987 0892 F6040000 		.4byte	0x4f6
 1988 0896 2F       		.uleb128 0x2f
 1989 0897 01       		.byte	0x1
 1990 0898 53030000 		.4byte	.LASF87
 1991 089c 01       		.byte	0x1
 1992 089d 2901     		.2byte	0x129
 1993 089f 01       		.byte	0x1
 1994 08a0 00000000 		.4byte	.LFB14
 1995 08a4 54000000 		.4byte	.LFE14
ARM GAS  C:\Users\NICOMA~1\AppData\Local\Temp\ccPFLohD.s 			page 36


 1996 08a8 C2030000 		.4byte	.LLST25
 1997 08ac 01       		.byte	0x1
 1998 08ad FA080000 		.4byte	0x8fa
 1999 08b1 30       		.uleb128 0x30
 2000 08b2 6F717000 		.ascii	"oqp\000"
 2001 08b6 01       		.byte	0x1
 2002 08b7 2901     		.2byte	0x129
 2003 08b9 90080000 		.4byte	0x890
 2004 08bd E2030000 		.4byte	.LLST26
 2005 08c1 31       		.uleb128 0x31
 2006 08c2 35050000 		.4byte	0x535
 2007 08c6 30000000 		.4byte	.LBB21
 2008 08ca 3C000000 		.4byte	.LBE21
 2009 08ce 01       		.byte	0x1
 2010 08cf 3001     		.2byte	0x130
 2011 08d1 F0080000 		.4byte	0x8f0
 2012 08d5 20       		.uleb128 0x20
 2013 08d6 46050000 		.4byte	0x546
 2014 08da 01       		.byte	0x1
 2015 08db 54       		.byte	0x54
 2016 08dc 21       		.uleb128 0x21
 2017 08dd 30000000 		.4byte	.LBB22
 2018 08e1 3C000000 		.4byte	.LBE22
 2019 08e5 22       		.uleb128 0x22
 2020 08e6 51050000 		.4byte	0x551
 2021 08ea 00040000 		.4byte	.LLST27
 2022 08ee 00       		.byte	0
 2023 08ef 00       		.byte	0
 2024 08f0 23       		.uleb128 0x23
 2025 08f1 40000000 		.4byte	.LVL39
 2026 08f5 C80A0000 		.4byte	0xac8
 2027 08f9 00       		.byte	0
 2028 08fa 32       		.uleb128 0x32
 2029 08fb 01       		.byte	0x1
 2030 08fc 43010000 		.4byte	.LASF88
 2031 0900 01       		.byte	0x1
 2032 0901 4901     		.2byte	0x149
 2033 0903 01       		.byte	0x1
 2034 0904 E4000000 		.4byte	0xe4
 2035 0908 00000000 		.4byte	.LFB15
 2036 090c 80000000 		.4byte	.LFE15
 2037 0910 13040000 		.4byte	.LLST28
 2038 0914 01       		.byte	0x1
 2039 0915 84090000 		.4byte	0x984
 2040 0919 30       		.uleb128 0x30
 2041 091a 6F717000 		.ascii	"oqp\000"
 2042 091e 01       		.byte	0x1
 2043 091f 4901     		.2byte	0x149
 2044 0921 90080000 		.4byte	0x890
 2045 0925 33040000 		.4byte	.LLST29
 2046 0929 30       		.uleb128 0x30
 2047 092a 6200     		.ascii	"b\000"
 2048 092c 01       		.byte	0x1
 2049 092d 4901     		.2byte	0x149
 2050 092f 49000000 		.4byte	0x49
 2051 0933 7D040000 		.4byte	.LLST30
 2052 0937 2E       		.uleb128 0x2e
ARM GAS  C:\Users\NICOMA~1\AppData\Local\Temp\ccPFLohD.s 			page 37


 2053 0938 3F020000 		.4byte	.LASF76
 2054 093c 01       		.byte	0x1
 2055 093d 4901     		.2byte	0x149
 2056 093f FA000000 		.4byte	0xfa
 2057 0943 9E040000 		.4byte	.LLST31
 2058 0947 26       		.uleb128 0x26
 2059 0948 20000000 		.4byte	.Ldebug_ranges0+0x20
 2060 094c 77090000 		.4byte	0x977
 2061 0950 33       		.uleb128 0x33
 2062 0951 6D736700 		.ascii	"msg\000"
 2063 0955 01       		.byte	0x1
 2064 0956 4D01     		.2byte	0x14d
 2065 0958 E4000000 		.4byte	0xe4
 2066 095c E8040000 		.4byte	.LLST32
 2067 0960 28       		.uleb128 0x28
 2068 0961 2C000000 		.4byte	.LVL43
 2069 0965 5C050000 		.4byte	0x55c
 2070 0969 1B       		.uleb128 0x1b
 2071 096a 01       		.byte	0x1
 2072 096b 51       		.byte	0x51
 2073 096c 02       		.byte	0x2
 2074 096d 75       		.byte	0x75
 2075 096e 00       		.sleb128 0
 2076 096f 1B       		.uleb128 0x1b
 2077 0970 01       		.byte	0x1
 2078 0971 50       		.byte	0x50
 2079 0972 02       		.byte	0x2
 2080 0973 74       		.byte	0x74
 2081 0974 00       		.sleb128 0
 2082 0975 00       		.byte	0
 2083 0976 00       		.byte	0
 2084 0977 29       		.uleb128 0x29
 2085 0978 74000000 		.4byte	.LVL46
 2086 097c 1B       		.uleb128 0x1b
 2087 097d 01       		.byte	0x1
 2088 097e 50       		.byte	0x50
 2089 097f 02       		.byte	0x2
 2090 0980 74       		.byte	0x74
 2091 0981 00       		.sleb128 0
 2092 0982 00       		.byte	0
 2093 0983 00       		.byte	0
 2094 0984 32       		.uleb128 0x32
 2095 0985 01       		.byte	0x1
 2096 0986 D0000000 		.4byte	.LASF89
 2097 098a 01       		.byte	0x1
 2098 098b 6B01     		.2byte	0x16b
 2099 098d 01       		.byte	0x1
 2100 098e E4000000 		.4byte	0xe4
 2101 0992 00000000 		.4byte	.LFB16
 2102 0996 80000000 		.4byte	.LFE16
 2103 099a FB040000 		.4byte	.LLST33
 2104 099e 01       		.byte	0x1
 2105 099f FC090000 		.4byte	0x9fc
 2106 09a3 30       		.uleb128 0x30
 2107 09a4 6F717000 		.ascii	"oqp\000"
 2108 09a8 01       		.byte	0x1
 2109 09a9 6B01     		.2byte	0x16b
ARM GAS  C:\Users\NICOMA~1\AppData\Local\Temp\ccPFLohD.s 			page 38


 2110 09ab 90080000 		.4byte	0x890
 2111 09af 1B050000 		.4byte	.LLST34
 2112 09b3 33       		.uleb128 0x33
 2113 09b4 6200     		.ascii	"b\000"
 2114 09b6 01       		.byte	0x1
 2115 09b7 6C01     		.2byte	0x16c
 2116 09b9 49000000 		.4byte	0x49
 2117 09bd 5D050000 		.4byte	.LLST35
 2118 09c1 31       		.uleb128 0x31
 2119 09c2 35050000 		.4byte	0x535
 2120 09c6 44000000 		.4byte	.LBB26
 2121 09ca 50000000 		.4byte	.LBE26
 2122 09ce 01       		.byte	0x1
 2123 09cf 7901     		.2byte	0x179
 2124 09d1 F2090000 		.4byte	0x9f2
 2125 09d5 19       		.uleb128 0x19
 2126 09d6 46050000 		.4byte	0x546
 2127 09da 97050000 		.4byte	.LLST36
 2128 09de 21       		.uleb128 0x21
 2129 09df 44000000 		.4byte	.LBB27
 2130 09e3 50000000 		.4byte	.LBE27
 2131 09e7 22       		.uleb128 0x22
 2132 09e8 51050000 		.4byte	0x551
 2133 09ec B8050000 		.4byte	.LLST37
 2134 09f0 00       		.byte	0
 2135 09f1 00       		.byte	0
 2136 09f2 23       		.uleb128 0x23
 2137 09f3 54000000 		.4byte	.LVL51
 2138 09f7 C80A0000 		.4byte	0xac8
 2139 09fb 00       		.byte	0
 2140 09fc 32       		.uleb128 0x32
 2141 09fd 01       		.byte	0x1
 2142 09fe 00020000 		.4byte	.LASF90
 2143 0a02 01       		.byte	0x1
 2144 0a03 9601     		.2byte	0x196
 2145 0a05 01       		.byte	0x1
 2146 0a06 30000000 		.4byte	0x30
 2147 0a0a 00000000 		.4byte	.LFB17
 2148 0a0e 9C000000 		.4byte	.LFE17
 2149 0a12 CB050000 		.4byte	.LLST38
 2150 0a16 01       		.byte	0x1
 2151 0a17 9E0A0000 		.4byte	0xa9e
 2152 0a1b 30       		.uleb128 0x30
 2153 0a1c 6F717000 		.ascii	"oqp\000"
 2154 0a20 01       		.byte	0x1
 2155 0a21 9601     		.2byte	0x196
 2156 0a23 90080000 		.4byte	0x890
 2157 0a27 EB050000 		.4byte	.LLST39
 2158 0a2b 30       		.uleb128 0x30
 2159 0a2c 627000   		.ascii	"bp\000"
 2160 0a2f 01       		.byte	0x1
 2161 0a30 9601     		.2byte	0x196
 2162 0a32 01050000 		.4byte	0x501
 2163 0a36 35060000 		.4byte	.LLST40
 2164 0a3a 30       		.uleb128 0x30
 2165 0a3b 6E00     		.ascii	"n\000"
 2166 0a3d 01       		.byte	0x1
ARM GAS  C:\Users\NICOMA~1\AppData\Local\Temp\ccPFLohD.s 			page 39


 2167 0a3e 9701     		.2byte	0x197
 2168 0a40 30000000 		.4byte	0x30
 2169 0a44 6B060000 		.4byte	.LLST41
 2170 0a48 2E       		.uleb128 0x2e
 2171 0a49 3F020000 		.4byte	.LASF76
 2172 0a4d 01       		.byte	0x1
 2173 0a4e 9701     		.2byte	0x197
 2174 0a50 FA000000 		.4byte	0xfa
 2175 0a54 A1060000 		.4byte	.LLST42
 2176 0a58 34       		.uleb128 0x34
 2177 0a59 6E667900 		.ascii	"nfy\000"
 2178 0a5d 01       		.byte	0x1
 2179 0a5e 9801     		.2byte	0x198
 2180 0a60 C2040000 		.4byte	0x4c2
 2181 0a64 01       		.byte	0x1
 2182 0a65 58       		.byte	0x58
 2183 0a66 33       		.uleb128 0x33
 2184 0a67 7700     		.ascii	"w\000"
 2185 0a69 01       		.byte	0x1
 2186 0a6a 9901     		.2byte	0x199
 2187 0a6c 30000000 		.4byte	0x30
 2188 0a70 BF060000 		.4byte	.LLST43
 2189 0a74 2A       		.uleb128 0x2a
 2190 0a75 64000000 		.4byte	.LVL62
 2191 0a79 02       		.byte	0x2
 2192 0a7a 78       		.byte	0x78
 2193 0a7b 00       		.sleb128 0
 2194 0a7c 870A0000 		.4byte	0xa87
 2195 0a80 1B       		.uleb128 0x1b
 2196 0a81 01       		.byte	0x1
 2197 0a82 50       		.byte	0x50
 2198 0a83 02       		.byte	0x2
 2199 0a84 74       		.byte	0x74
 2200 0a85 00       		.sleb128 0
 2201 0a86 00       		.byte	0
 2202 0a87 28       		.uleb128 0x28
 2203 0a88 88000000 		.4byte	.LVL67
 2204 0a8c 5C050000 		.4byte	0x55c
 2205 0a90 1B       		.uleb128 0x1b
 2206 0a91 01       		.byte	0x1
 2207 0a92 51       		.byte	0x51
 2208 0a93 02       		.byte	0x2
 2209 0a94 7A       		.byte	0x7a
 2210 0a95 00       		.sleb128 0
 2211 0a96 1B       		.uleb128 0x1b
 2212 0a97 01       		.byte	0x1
 2213 0a98 50       		.byte	0x50
 2214 0a99 02       		.byte	0x2
 2215 0a9a 74       		.byte	0x74
 2216 0a9b 00       		.sleb128 0
 2217 0a9c 00       		.byte	0
 2218 0a9d 00       		.byte	0
 2219 0a9e 35       		.uleb128 0x35
 2220 0a9f 97030000 		.4byte	.LASF97
 2221 0aa3 09       		.byte	0x9
 2222 0aa4 6F       		.byte	0x6f
 2223 0aa5 93030000 		.4byte	0x393
ARM GAS  C:\Users\NICOMA~1\AppData\Local\Temp\ccPFLohD.s 			page 40


 2224 0aa9 01       		.byte	0x1
 2225 0aaa 01       		.byte	0x1
 2226 0aab 36       		.uleb128 0x36
 2227 0aac 01       		.byte	0x1
 2228 0aad B3030000 		.4byte	.LASF98
 2229 0ab1 09       		.byte	0x9
 2230 0ab2 96       		.byte	0x96
 2231 0ab3 01       		.byte	0x1
 2232 0ab4 E4000000 		.4byte	0xe4
 2233 0ab8 01       		.byte	0x1
 2234 0ab9 C80A0000 		.4byte	0xac8
 2235 0abd 10       		.uleb128 0x10
 2236 0abe B8000000 		.4byte	0xb8
 2237 0ac2 10       		.uleb128 0x10
 2238 0ac3 FA000000 		.4byte	0xfa
 2239 0ac7 00       		.byte	0
 2240 0ac8 37       		.uleb128 0x37
 2241 0ac9 01       		.byte	0x1
 2242 0aca 15030000 		.4byte	.LASF99
 2243 0ace 09       		.byte	0x9
 2244 0acf 90       		.byte	0x90
 2245 0ad0 01       		.byte	0x1
 2246 0ad1 4C020000 		.4byte	0x24c
 2247 0ad5 01       		.byte	0x1
 2248 0ad6 10       		.uleb128 0x10
 2249 0ad7 4C020000 		.4byte	0x24c
 2250 0adb 00       		.byte	0
 2251 0adc 00       		.byte	0
 2252              		.section	.debug_abbrev,"",%progbits
 2253              	.Ldebug_abbrev0:
 2254 0000 01       		.uleb128 0x1
 2255 0001 11       		.uleb128 0x11
 2256 0002 01       		.byte	0x1
 2257 0003 25       		.uleb128 0x25
 2258 0004 0E       		.uleb128 0xe
 2259 0005 13       		.uleb128 0x13
 2260 0006 0B       		.uleb128 0xb
 2261 0007 03       		.uleb128 0x3
 2262 0008 0E       		.uleb128 0xe
 2263 0009 1B       		.uleb128 0x1b
 2264 000a 0E       		.uleb128 0xe
 2265 000b 55       		.uleb128 0x55
 2266 000c 06       		.uleb128 0x6
 2267 000d 11       		.uleb128 0x11
 2268 000e 01       		.uleb128 0x1
 2269 000f 52       		.uleb128 0x52
 2270 0010 01       		.uleb128 0x1
 2271 0011 10       		.uleb128 0x10
 2272 0012 06       		.uleb128 0x6
 2273 0013 00       		.byte	0
 2274 0014 00       		.byte	0
 2275 0015 02       		.uleb128 0x2
 2276 0016 24       		.uleb128 0x24
 2277 0017 00       		.byte	0
 2278 0018 0B       		.uleb128 0xb
 2279 0019 0B       		.uleb128 0xb
 2280 001a 3E       		.uleb128 0x3e
ARM GAS  C:\Users\NICOMA~1\AppData\Local\Temp\ccPFLohD.s 			page 41


 2281 001b 0B       		.uleb128 0xb
 2282 001c 03       		.uleb128 0x3
 2283 001d 08       		.uleb128 0x8
 2284 001e 00       		.byte	0
 2285 001f 00       		.byte	0
 2286 0020 03       		.uleb128 0x3
 2287 0021 16       		.uleb128 0x16
 2288 0022 00       		.byte	0
 2289 0023 03       		.uleb128 0x3
 2290 0024 0E       		.uleb128 0xe
 2291 0025 3A       		.uleb128 0x3a
 2292 0026 0B       		.uleb128 0xb
 2293 0027 3B       		.uleb128 0x3b
 2294 0028 0B       		.uleb128 0xb
 2295 0029 49       		.uleb128 0x49
 2296 002a 13       		.uleb128 0x13
 2297 002b 00       		.byte	0
 2298 002c 00       		.byte	0
 2299 002d 04       		.uleb128 0x4
 2300 002e 24       		.uleb128 0x24
 2301 002f 00       		.byte	0
 2302 0030 0B       		.uleb128 0xb
 2303 0031 0B       		.uleb128 0xb
 2304 0032 3E       		.uleb128 0x3e
 2305 0033 0B       		.uleb128 0xb
 2306 0034 03       		.uleb128 0x3
 2307 0035 0E       		.uleb128 0xe
 2308 0036 00       		.byte	0
 2309 0037 00       		.byte	0
 2310 0038 05       		.uleb128 0x5
 2311 0039 13       		.uleb128 0x13
 2312 003a 01       		.byte	0x1
 2313 003b 03       		.uleb128 0x3
 2314 003c 0E       		.uleb128 0xe
 2315 003d 0B       		.uleb128 0xb
 2316 003e 0B       		.uleb128 0xb
 2317 003f 3A       		.uleb128 0x3a
 2318 0040 0B       		.uleb128 0xb
 2319 0041 3B       		.uleb128 0x3b
 2320 0042 0B       		.uleb128 0xb
 2321 0043 01       		.uleb128 0x1
 2322 0044 13       		.uleb128 0x13
 2323 0045 00       		.byte	0
 2324 0046 00       		.byte	0
 2325 0047 06       		.uleb128 0x6
 2326 0048 0D       		.uleb128 0xd
 2327 0049 00       		.byte	0
 2328 004a 03       		.uleb128 0x3
 2329 004b 0E       		.uleb128 0xe
 2330 004c 3A       		.uleb128 0x3a
 2331 004d 0B       		.uleb128 0xb
 2332 004e 3B       		.uleb128 0x3b
 2333 004f 0B       		.uleb128 0xb
 2334 0050 49       		.uleb128 0x49
 2335 0051 13       		.uleb128 0x13
 2336 0052 38       		.uleb128 0x38
 2337 0053 0A       		.uleb128 0xa
ARM GAS  C:\Users\NICOMA~1\AppData\Local\Temp\ccPFLohD.s 			page 42


 2338 0054 00       		.byte	0
 2339 0055 00       		.byte	0
 2340 0056 07       		.uleb128 0x7
 2341 0057 0D       		.uleb128 0xd
 2342 0058 00       		.byte	0
 2343 0059 03       		.uleb128 0x3
 2344 005a 08       		.uleb128 0x8
 2345 005b 3A       		.uleb128 0x3a
 2346 005c 0B       		.uleb128 0xb
 2347 005d 3B       		.uleb128 0x3b
 2348 005e 0B       		.uleb128 0xb
 2349 005f 49       		.uleb128 0x49
 2350 0060 13       		.uleb128 0x13
 2351 0061 38       		.uleb128 0x38
 2352 0062 0A       		.uleb128 0xa
 2353 0063 00       		.byte	0
 2354 0064 00       		.byte	0
 2355 0065 08       		.uleb128 0x8
 2356 0066 13       		.uleb128 0x13
 2357 0067 01       		.byte	0x1
 2358 0068 0B       		.uleb128 0xb
 2359 0069 0B       		.uleb128 0xb
 2360 006a 3A       		.uleb128 0x3a
 2361 006b 0B       		.uleb128 0xb
 2362 006c 3B       		.uleb128 0x3b
 2363 006d 0B       		.uleb128 0xb
 2364 006e 01       		.uleb128 0x1
 2365 006f 13       		.uleb128 0x13
 2366 0070 00       		.byte	0
 2367 0071 00       		.byte	0
 2368 0072 09       		.uleb128 0x9
 2369 0073 0F       		.uleb128 0xf
 2370 0074 00       		.byte	0
 2371 0075 0B       		.uleb128 0xb
 2372 0076 0B       		.uleb128 0xb
 2373 0077 49       		.uleb128 0x49
 2374 0078 13       		.uleb128 0x13
 2375 0079 00       		.byte	0
 2376 007a 00       		.byte	0
 2377 007b 0A       		.uleb128 0xa
 2378 007c 0F       		.uleb128 0xf
 2379 007d 00       		.byte	0
 2380 007e 0B       		.uleb128 0xb
 2381 007f 0B       		.uleb128 0xb
 2382 0080 00       		.byte	0
 2383 0081 00       		.byte	0
 2384 0082 0B       		.uleb128 0xb
 2385 0083 35       		.uleb128 0x35
 2386 0084 00       		.byte	0
 2387 0085 49       		.uleb128 0x49
 2388 0086 13       		.uleb128 0x13
 2389 0087 00       		.byte	0
 2390 0088 00       		.byte	0
 2391 0089 0C       		.uleb128 0xc
 2392 008a 17       		.uleb128 0x17
 2393 008b 01       		.byte	0x1
 2394 008c 0B       		.uleb128 0xb
ARM GAS  C:\Users\NICOMA~1\AppData\Local\Temp\ccPFLohD.s 			page 43


 2395 008d 0B       		.uleb128 0xb
 2396 008e 3A       		.uleb128 0x3a
 2397 008f 0B       		.uleb128 0xb
 2398 0090 3B       		.uleb128 0x3b
 2399 0091 0B       		.uleb128 0xb
 2400 0092 01       		.uleb128 0x1
 2401 0093 13       		.uleb128 0x13
 2402 0094 00       		.byte	0
 2403 0095 00       		.byte	0
 2404 0096 0D       		.uleb128 0xd
 2405 0097 0D       		.uleb128 0xd
 2406 0098 00       		.byte	0
 2407 0099 03       		.uleb128 0x3
 2408 009a 0E       		.uleb128 0xe
 2409 009b 3A       		.uleb128 0x3a
 2410 009c 0B       		.uleb128 0xb
 2411 009d 3B       		.uleb128 0x3b
 2412 009e 0B       		.uleb128 0xb
 2413 009f 49       		.uleb128 0x49
 2414 00a0 13       		.uleb128 0x13
 2415 00a1 00       		.byte	0
 2416 00a2 00       		.byte	0
 2417 00a3 0E       		.uleb128 0xe
 2418 00a4 26       		.uleb128 0x26
 2419 00a5 00       		.byte	0
 2420 00a6 49       		.uleb128 0x49
 2421 00a7 13       		.uleb128 0x13
 2422 00a8 00       		.byte	0
 2423 00a9 00       		.byte	0
 2424 00aa 0F       		.uleb128 0xf
 2425 00ab 15       		.uleb128 0x15
 2426 00ac 01       		.byte	0x1
 2427 00ad 27       		.uleb128 0x27
 2428 00ae 0C       		.uleb128 0xc
 2429 00af 01       		.uleb128 0x1
 2430 00b0 13       		.uleb128 0x13
 2431 00b1 00       		.byte	0
 2432 00b2 00       		.byte	0
 2433 00b3 10       		.uleb128 0x10
 2434 00b4 05       		.uleb128 0x5
 2435 00b5 00       		.byte	0
 2436 00b6 49       		.uleb128 0x49
 2437 00b7 13       		.uleb128 0x13
 2438 00b8 00       		.byte	0
 2439 00b9 00       		.byte	0
 2440 00ba 11       		.uleb128 0x11
 2441 00bb 2E       		.uleb128 0x2e
 2442 00bc 01       		.byte	0x1
 2443 00bd 03       		.uleb128 0x3
 2444 00be 0E       		.uleb128 0xe
 2445 00bf 3A       		.uleb128 0x3a
 2446 00c0 0B       		.uleb128 0xb
 2447 00c1 3B       		.uleb128 0x3b
 2448 00c2 0B       		.uleb128 0xb
 2449 00c3 27       		.uleb128 0x27
 2450 00c4 0C       		.uleb128 0xc
 2451 00c5 20       		.uleb128 0x20
ARM GAS  C:\Users\NICOMA~1\AppData\Local\Temp\ccPFLohD.s 			page 44


 2452 00c6 0B       		.uleb128 0xb
 2453 00c7 01       		.uleb128 0x1
 2454 00c8 13       		.uleb128 0x13
 2455 00c9 00       		.byte	0
 2456 00ca 00       		.byte	0
 2457 00cb 12       		.uleb128 0x12
 2458 00cc 05       		.uleb128 0x5
 2459 00cd 00       		.byte	0
 2460 00ce 03       		.uleb128 0x3
 2461 00cf 08       		.uleb128 0x8
 2462 00d0 3A       		.uleb128 0x3a
 2463 00d1 0B       		.uleb128 0xb
 2464 00d2 3B       		.uleb128 0x3b
 2465 00d3 0B       		.uleb128 0xb
 2466 00d4 49       		.uleb128 0x49
 2467 00d5 13       		.uleb128 0x13
 2468 00d6 00       		.byte	0
 2469 00d7 00       		.byte	0
 2470 00d8 13       		.uleb128 0x13
 2471 00d9 2E       		.uleb128 0x2e
 2472 00da 01       		.byte	0x1
 2473 00db 03       		.uleb128 0x3
 2474 00dc 0E       		.uleb128 0xe
 2475 00dd 3A       		.uleb128 0x3a
 2476 00de 0B       		.uleb128 0xb
 2477 00df 3B       		.uleb128 0x3b
 2478 00e0 0B       		.uleb128 0xb
 2479 00e1 27       		.uleb128 0x27
 2480 00e2 0C       		.uleb128 0xc
 2481 00e3 49       		.uleb128 0x49
 2482 00e4 13       		.uleb128 0x13
 2483 00e5 20       		.uleb128 0x20
 2484 00e6 0B       		.uleb128 0xb
 2485 00e7 01       		.uleb128 0x1
 2486 00e8 13       		.uleb128 0x13
 2487 00e9 00       		.byte	0
 2488 00ea 00       		.byte	0
 2489 00eb 14       		.uleb128 0x14
 2490 00ec 34       		.uleb128 0x34
 2491 00ed 00       		.byte	0
 2492 00ee 03       		.uleb128 0x3
 2493 00ef 08       		.uleb128 0x8
 2494 00f0 3A       		.uleb128 0x3a
 2495 00f1 0B       		.uleb128 0xb
 2496 00f2 3B       		.uleb128 0x3b
 2497 00f3 0B       		.uleb128 0xb
 2498 00f4 49       		.uleb128 0x49
 2499 00f5 13       		.uleb128 0x13
 2500 00f6 00       		.byte	0
 2501 00f7 00       		.byte	0
 2502 00f8 15       		.uleb128 0x15
 2503 00f9 2E       		.uleb128 0x2e
 2504 00fa 01       		.byte	0x1
 2505 00fb 03       		.uleb128 0x3
 2506 00fc 0E       		.uleb128 0xe
 2507 00fd 3A       		.uleb128 0x3a
 2508 00fe 0B       		.uleb128 0xb
ARM GAS  C:\Users\NICOMA~1\AppData\Local\Temp\ccPFLohD.s 			page 45


 2509 00ff 3B       		.uleb128 0x3b
 2510 0100 0B       		.uleb128 0xb
 2511 0101 27       		.uleb128 0x27
 2512 0102 0C       		.uleb128 0xc
 2513 0103 49       		.uleb128 0x49
 2514 0104 13       		.uleb128 0x13
 2515 0105 11       		.uleb128 0x11
 2516 0106 01       		.uleb128 0x1
 2517 0107 12       		.uleb128 0x12
 2518 0108 01       		.uleb128 0x1
 2519 0109 40       		.uleb128 0x40
 2520 010a 0A       		.uleb128 0xa
 2521 010b 9742     		.uleb128 0x2117
 2522 010d 0C       		.uleb128 0xc
 2523 010e 01       		.uleb128 0x1
 2524 010f 13       		.uleb128 0x13
 2525 0110 00       		.byte	0
 2526 0111 00       		.byte	0
 2527 0112 16       		.uleb128 0x16
 2528 0113 05       		.uleb128 0x5
 2529 0114 00       		.byte	0
 2530 0115 03       		.uleb128 0x3
 2531 0116 08       		.uleb128 0x8
 2532 0117 3A       		.uleb128 0x3a
 2533 0118 0B       		.uleb128 0xb
 2534 0119 3B       		.uleb128 0x3b
 2535 011a 0B       		.uleb128 0xb
 2536 011b 49       		.uleb128 0x49
 2537 011c 13       		.uleb128 0x13
 2538 011d 02       		.uleb128 0x2
 2539 011e 06       		.uleb128 0x6
 2540 011f 00       		.byte	0
 2541 0120 00       		.byte	0
 2542 0121 17       		.uleb128 0x17
 2543 0122 05       		.uleb128 0x5
 2544 0123 00       		.byte	0
 2545 0124 03       		.uleb128 0x3
 2546 0125 0E       		.uleb128 0xe
 2547 0126 3A       		.uleb128 0x3a
 2548 0127 0B       		.uleb128 0xb
 2549 0128 3B       		.uleb128 0x3b
 2550 0129 0B       		.uleb128 0xb
 2551 012a 49       		.uleb128 0x49
 2552 012b 13       		.uleb128 0x13
 2553 012c 02       		.uleb128 0x2
 2554 012d 06       		.uleb128 0x6
 2555 012e 00       		.byte	0
 2556 012f 00       		.byte	0
 2557 0130 18       		.uleb128 0x18
 2558 0131 1D       		.uleb128 0x1d
 2559 0132 01       		.byte	0x1
 2560 0133 31       		.uleb128 0x31
 2561 0134 13       		.uleb128 0x13
 2562 0135 11       		.uleb128 0x11
 2563 0136 01       		.uleb128 0x1
 2564 0137 12       		.uleb128 0x12
 2565 0138 01       		.uleb128 0x1
ARM GAS  C:\Users\NICOMA~1\AppData\Local\Temp\ccPFLohD.s 			page 46


 2566 0139 58       		.uleb128 0x58
 2567 013a 0B       		.uleb128 0xb
 2568 013b 59       		.uleb128 0x59
 2569 013c 0B       		.uleb128 0xb
 2570 013d 01       		.uleb128 0x1
 2571 013e 13       		.uleb128 0x13
 2572 013f 00       		.byte	0
 2573 0140 00       		.byte	0
 2574 0141 19       		.uleb128 0x19
 2575 0142 05       		.uleb128 0x5
 2576 0143 00       		.byte	0
 2577 0144 31       		.uleb128 0x31
 2578 0145 13       		.uleb128 0x13
 2579 0146 02       		.uleb128 0x2
 2580 0147 06       		.uleb128 0x6
 2581 0148 00       		.byte	0
 2582 0149 00       		.byte	0
 2583 014a 1A       		.uleb128 0x1a
 2584 014b 898201   		.uleb128 0x4109
 2585 014e 01       		.byte	0x1
 2586 014f 11       		.uleb128 0x11
 2587 0150 01       		.uleb128 0x1
 2588 0151 9542     		.uleb128 0x2115
 2589 0153 0C       		.uleb128 0xc
 2590 0154 31       		.uleb128 0x31
 2591 0155 13       		.uleb128 0x13
 2592 0156 00       		.byte	0
 2593 0157 00       		.byte	0
 2594 0158 1B       		.uleb128 0x1b
 2595 0159 8A8201   		.uleb128 0x410a
 2596 015c 00       		.byte	0
 2597 015d 02       		.uleb128 0x2
 2598 015e 0A       		.uleb128 0xa
 2599 015f 9142     		.uleb128 0x2111
 2600 0161 0A       		.uleb128 0xa
 2601 0162 00       		.byte	0
 2602 0163 00       		.byte	0
 2603 0164 1C       		.uleb128 0x1c
 2604 0165 2E       		.uleb128 0x2e
 2605 0166 01       		.byte	0x1
 2606 0167 3F       		.uleb128 0x3f
 2607 0168 0C       		.uleb128 0xc
 2608 0169 03       		.uleb128 0x3
 2609 016a 0E       		.uleb128 0xe
 2610 016b 3A       		.uleb128 0x3a
 2611 016c 0B       		.uleb128 0xb
 2612 016d 3B       		.uleb128 0x3b
 2613 016e 0B       		.uleb128 0xb
 2614 016f 27       		.uleb128 0x27
 2615 0170 0C       		.uleb128 0xc
 2616 0171 11       		.uleb128 0x11
 2617 0172 01       		.uleb128 0x1
 2618 0173 12       		.uleb128 0x12
 2619 0174 01       		.uleb128 0x1
 2620 0175 40       		.uleb128 0x40
 2621 0176 0A       		.uleb128 0xa
 2622 0177 9742     		.uleb128 0x2117
ARM GAS  C:\Users\NICOMA~1\AppData\Local\Temp\ccPFLohD.s 			page 47


 2623 0179 0C       		.uleb128 0xc
 2624 017a 01       		.uleb128 0x1
 2625 017b 13       		.uleb128 0x13
 2626 017c 00       		.byte	0
 2627 017d 00       		.byte	0
 2628 017e 1D       		.uleb128 0x1d
 2629 017f 05       		.uleb128 0x5
 2630 0180 00       		.byte	0
 2631 0181 03       		.uleb128 0x3
 2632 0182 08       		.uleb128 0x8
 2633 0183 3A       		.uleb128 0x3a
 2634 0184 0B       		.uleb128 0xb
 2635 0185 3B       		.uleb128 0x3b
 2636 0186 0B       		.uleb128 0xb
 2637 0187 49       		.uleb128 0x49
 2638 0188 13       		.uleb128 0x13
 2639 0189 02       		.uleb128 0x2
 2640 018a 0A       		.uleb128 0xa
 2641 018b 00       		.byte	0
 2642 018c 00       		.byte	0
 2643 018d 1E       		.uleb128 0x1e
 2644 018e 05       		.uleb128 0x5
 2645 018f 00       		.byte	0
 2646 0190 03       		.uleb128 0x3
 2647 0191 0E       		.uleb128 0xe
 2648 0192 3A       		.uleb128 0x3a
 2649 0193 0B       		.uleb128 0xb
 2650 0194 3B       		.uleb128 0x3b
 2651 0195 0B       		.uleb128 0xb
 2652 0196 49       		.uleb128 0x49
 2653 0197 13       		.uleb128 0x13
 2654 0198 02       		.uleb128 0x2
 2655 0199 0A       		.uleb128 0xa
 2656 019a 00       		.byte	0
 2657 019b 00       		.byte	0
 2658 019c 1F       		.uleb128 0x1f
 2659 019d 2E       		.uleb128 0x2e
 2660 019e 01       		.byte	0x1
 2661 019f 3F       		.uleb128 0x3f
 2662 01a0 0C       		.uleb128 0xc
 2663 01a1 03       		.uleb128 0x3
 2664 01a2 0E       		.uleb128 0xe
 2665 01a3 3A       		.uleb128 0x3a
 2666 01a4 0B       		.uleb128 0xb
 2667 01a5 3B       		.uleb128 0x3b
 2668 01a6 0B       		.uleb128 0xb
 2669 01a7 27       		.uleb128 0x27
 2670 01a8 0C       		.uleb128 0xc
 2671 01a9 11       		.uleb128 0x11
 2672 01aa 01       		.uleb128 0x1
 2673 01ab 12       		.uleb128 0x12
 2674 01ac 01       		.uleb128 0x1
 2675 01ad 40       		.uleb128 0x40
 2676 01ae 06       		.uleb128 0x6
 2677 01af 9742     		.uleb128 0x2117
 2678 01b1 0C       		.uleb128 0xc
 2679 01b2 01       		.uleb128 0x1
ARM GAS  C:\Users\NICOMA~1\AppData\Local\Temp\ccPFLohD.s 			page 48


 2680 01b3 13       		.uleb128 0x13
 2681 01b4 00       		.byte	0
 2682 01b5 00       		.byte	0
 2683 01b6 20       		.uleb128 0x20
 2684 01b7 05       		.uleb128 0x5
 2685 01b8 00       		.byte	0
 2686 01b9 31       		.uleb128 0x31
 2687 01ba 13       		.uleb128 0x13
 2688 01bb 02       		.uleb128 0x2
 2689 01bc 0A       		.uleb128 0xa
 2690 01bd 00       		.byte	0
 2691 01be 00       		.byte	0
 2692 01bf 21       		.uleb128 0x21
 2693 01c0 0B       		.uleb128 0xb
 2694 01c1 01       		.byte	0x1
 2695 01c2 11       		.uleb128 0x11
 2696 01c3 01       		.uleb128 0x1
 2697 01c4 12       		.uleb128 0x12
 2698 01c5 01       		.uleb128 0x1
 2699 01c6 00       		.byte	0
 2700 01c7 00       		.byte	0
 2701 01c8 22       		.uleb128 0x22
 2702 01c9 34       		.uleb128 0x34
 2703 01ca 00       		.byte	0
 2704 01cb 31       		.uleb128 0x31
 2705 01cc 13       		.uleb128 0x13
 2706 01cd 02       		.uleb128 0x2
 2707 01ce 06       		.uleb128 0x6
 2708 01cf 00       		.byte	0
 2709 01d0 00       		.byte	0
 2710 01d1 23       		.uleb128 0x23
 2711 01d2 898201   		.uleb128 0x4109
 2712 01d5 00       		.byte	0
 2713 01d6 11       		.uleb128 0x11
 2714 01d7 01       		.uleb128 0x1
 2715 01d8 31       		.uleb128 0x31
 2716 01d9 13       		.uleb128 0x13
 2717 01da 00       		.byte	0
 2718 01db 00       		.byte	0
 2719 01dc 24       		.uleb128 0x24
 2720 01dd 2E       		.uleb128 0x2e
 2721 01de 01       		.byte	0x1
 2722 01df 3F       		.uleb128 0x3f
 2723 01e0 0C       		.uleb128 0xc
 2724 01e1 03       		.uleb128 0x3
 2725 01e2 0E       		.uleb128 0xe
 2726 01e3 3A       		.uleb128 0x3a
 2727 01e4 0B       		.uleb128 0xb
 2728 01e5 3B       		.uleb128 0x3b
 2729 01e6 0B       		.uleb128 0xb
 2730 01e7 27       		.uleb128 0x27
 2731 01e8 0C       		.uleb128 0xc
 2732 01e9 49       		.uleb128 0x49
 2733 01ea 13       		.uleb128 0x13
 2734 01eb 11       		.uleb128 0x11
 2735 01ec 01       		.uleb128 0x1
 2736 01ed 12       		.uleb128 0x12
ARM GAS  C:\Users\NICOMA~1\AppData\Local\Temp\ccPFLohD.s 			page 49


 2737 01ee 01       		.uleb128 0x1
 2738 01ef 40       		.uleb128 0x40
 2739 01f0 06       		.uleb128 0x6
 2740 01f1 9742     		.uleb128 0x2117
 2741 01f3 0C       		.uleb128 0xc
 2742 01f4 01       		.uleb128 0x1
 2743 01f5 13       		.uleb128 0x13
 2744 01f6 00       		.byte	0
 2745 01f7 00       		.byte	0
 2746 01f8 25       		.uleb128 0x25
 2747 01f9 34       		.uleb128 0x34
 2748 01fa 00       		.byte	0
 2749 01fb 03       		.uleb128 0x3
 2750 01fc 08       		.uleb128 0x8
 2751 01fd 3A       		.uleb128 0x3a
 2752 01fe 0B       		.uleb128 0xb
 2753 01ff 3B       		.uleb128 0x3b
 2754 0200 0B       		.uleb128 0xb
 2755 0201 49       		.uleb128 0x49
 2756 0202 13       		.uleb128 0x13
 2757 0203 02       		.uleb128 0x2
 2758 0204 0A       		.uleb128 0xa
 2759 0205 00       		.byte	0
 2760 0206 00       		.byte	0
 2761 0207 26       		.uleb128 0x26
 2762 0208 0B       		.uleb128 0xb
 2763 0209 01       		.byte	0x1
 2764 020a 55       		.uleb128 0x55
 2765 020b 06       		.uleb128 0x6
 2766 020c 01       		.uleb128 0x1
 2767 020d 13       		.uleb128 0x13
 2768 020e 00       		.byte	0
 2769 020f 00       		.byte	0
 2770 0210 27       		.uleb128 0x27
 2771 0211 34       		.uleb128 0x34
 2772 0212 00       		.byte	0
 2773 0213 03       		.uleb128 0x3
 2774 0214 08       		.uleb128 0x8
 2775 0215 3A       		.uleb128 0x3a
 2776 0216 0B       		.uleb128 0xb
 2777 0217 3B       		.uleb128 0x3b
 2778 0218 0B       		.uleb128 0xb
 2779 0219 49       		.uleb128 0x49
 2780 021a 13       		.uleb128 0x13
 2781 021b 02       		.uleb128 0x2
 2782 021c 06       		.uleb128 0x6
 2783 021d 00       		.byte	0
 2784 021e 00       		.byte	0
 2785 021f 28       		.uleb128 0x28
 2786 0220 898201   		.uleb128 0x4109
 2787 0223 01       		.byte	0x1
 2788 0224 11       		.uleb128 0x11
 2789 0225 01       		.uleb128 0x1
 2790 0226 31       		.uleb128 0x31
 2791 0227 13       		.uleb128 0x13
 2792 0228 00       		.byte	0
 2793 0229 00       		.byte	0
ARM GAS  C:\Users\NICOMA~1\AppData\Local\Temp\ccPFLohD.s 			page 50


 2794 022a 29       		.uleb128 0x29
 2795 022b 898201   		.uleb128 0x4109
 2796 022e 01       		.byte	0x1
 2797 022f 11       		.uleb128 0x11
 2798 0230 01       		.uleb128 0x1
 2799 0231 00       		.byte	0
 2800 0232 00       		.byte	0
 2801 0233 2A       		.uleb128 0x2a
 2802 0234 898201   		.uleb128 0x4109
 2803 0237 01       		.byte	0x1
 2804 0238 11       		.uleb128 0x11
 2805 0239 01       		.uleb128 0x1
 2806 023a 9342     		.uleb128 0x2113
 2807 023c 0A       		.uleb128 0xa
 2808 023d 01       		.uleb128 0x1
 2809 023e 13       		.uleb128 0x13
 2810 023f 00       		.byte	0
 2811 0240 00       		.byte	0
 2812 0241 2B       		.uleb128 0x2b
 2813 0242 2E       		.uleb128 0x2e
 2814 0243 01       		.byte	0x1
 2815 0244 3F       		.uleb128 0x3f
 2816 0245 0C       		.uleb128 0xc
 2817 0246 03       		.uleb128 0x3
 2818 0247 0E       		.uleb128 0xe
 2819 0248 3A       		.uleb128 0x3a
 2820 0249 0B       		.uleb128 0xb
 2821 024a 3B       		.uleb128 0x3b
 2822 024b 05       		.uleb128 0x5
 2823 024c 27       		.uleb128 0x27
 2824 024d 0C       		.uleb128 0xc
 2825 024e 11       		.uleb128 0x11
 2826 024f 01       		.uleb128 0x1
 2827 0250 12       		.uleb128 0x12
 2828 0251 01       		.uleb128 0x1
 2829 0252 40       		.uleb128 0x40
 2830 0253 0A       		.uleb128 0xa
 2831 0254 9742     		.uleb128 0x2117
 2832 0256 0C       		.uleb128 0xc
 2833 0257 01       		.uleb128 0x1
 2834 0258 13       		.uleb128 0x13
 2835 0259 00       		.byte	0
 2836 025a 00       		.byte	0
 2837 025b 2C       		.uleb128 0x2c
 2838 025c 05       		.uleb128 0x5
 2839 025d 00       		.byte	0
 2840 025e 03       		.uleb128 0x3
 2841 025f 08       		.uleb128 0x8
 2842 0260 3A       		.uleb128 0x3a
 2843 0261 0B       		.uleb128 0xb
 2844 0262 3B       		.uleb128 0x3b
 2845 0263 05       		.uleb128 0x5
 2846 0264 49       		.uleb128 0x49
 2847 0265 13       		.uleb128 0x13
 2848 0266 02       		.uleb128 0x2
 2849 0267 0A       		.uleb128 0xa
 2850 0268 00       		.byte	0
ARM GAS  C:\Users\NICOMA~1\AppData\Local\Temp\ccPFLohD.s 			page 51


 2851 0269 00       		.byte	0
 2852 026a 2D       		.uleb128 0x2d
 2853 026b 05       		.uleb128 0x5
 2854 026c 00       		.byte	0
 2855 026d 03       		.uleb128 0x3
 2856 026e 0E       		.uleb128 0xe
 2857 026f 3A       		.uleb128 0x3a
 2858 0270 0B       		.uleb128 0xb
 2859 0271 3B       		.uleb128 0x3b
 2860 0272 05       		.uleb128 0x5
 2861 0273 49       		.uleb128 0x49
 2862 0274 13       		.uleb128 0x13
 2863 0275 02       		.uleb128 0x2
 2864 0276 0A       		.uleb128 0xa
 2865 0277 00       		.byte	0
 2866 0278 00       		.byte	0
 2867 0279 2E       		.uleb128 0x2e
 2868 027a 05       		.uleb128 0x5
 2869 027b 00       		.byte	0
 2870 027c 03       		.uleb128 0x3
 2871 027d 0E       		.uleb128 0xe
 2872 027e 3A       		.uleb128 0x3a
 2873 027f 0B       		.uleb128 0xb
 2874 0280 3B       		.uleb128 0x3b
 2875 0281 05       		.uleb128 0x5
 2876 0282 49       		.uleb128 0x49
 2877 0283 13       		.uleb128 0x13
 2878 0284 02       		.uleb128 0x2
 2879 0285 06       		.uleb128 0x6
 2880 0286 00       		.byte	0
 2881 0287 00       		.byte	0
 2882 0288 2F       		.uleb128 0x2f
 2883 0289 2E       		.uleb128 0x2e
 2884 028a 01       		.byte	0x1
 2885 028b 3F       		.uleb128 0x3f
 2886 028c 0C       		.uleb128 0xc
 2887 028d 03       		.uleb128 0x3
 2888 028e 0E       		.uleb128 0xe
 2889 028f 3A       		.uleb128 0x3a
 2890 0290 0B       		.uleb128 0xb
 2891 0291 3B       		.uleb128 0x3b
 2892 0292 05       		.uleb128 0x5
 2893 0293 27       		.uleb128 0x27
 2894 0294 0C       		.uleb128 0xc
 2895 0295 11       		.uleb128 0x11
 2896 0296 01       		.uleb128 0x1
 2897 0297 12       		.uleb128 0x12
 2898 0298 01       		.uleb128 0x1
 2899 0299 40       		.uleb128 0x40
 2900 029a 06       		.uleb128 0x6
 2901 029b 9742     		.uleb128 0x2117
 2902 029d 0C       		.uleb128 0xc
 2903 029e 01       		.uleb128 0x1
 2904 029f 13       		.uleb128 0x13
 2905 02a0 00       		.byte	0
 2906 02a1 00       		.byte	0
 2907 02a2 30       		.uleb128 0x30
ARM GAS  C:\Users\NICOMA~1\AppData\Local\Temp\ccPFLohD.s 			page 52


 2908 02a3 05       		.uleb128 0x5
 2909 02a4 00       		.byte	0
 2910 02a5 03       		.uleb128 0x3
 2911 02a6 08       		.uleb128 0x8
 2912 02a7 3A       		.uleb128 0x3a
 2913 02a8 0B       		.uleb128 0xb
 2914 02a9 3B       		.uleb128 0x3b
 2915 02aa 05       		.uleb128 0x5
 2916 02ab 49       		.uleb128 0x49
 2917 02ac 13       		.uleb128 0x13
 2918 02ad 02       		.uleb128 0x2
 2919 02ae 06       		.uleb128 0x6
 2920 02af 00       		.byte	0
 2921 02b0 00       		.byte	0
 2922 02b1 31       		.uleb128 0x31
 2923 02b2 1D       		.uleb128 0x1d
 2924 02b3 01       		.byte	0x1
 2925 02b4 31       		.uleb128 0x31
 2926 02b5 13       		.uleb128 0x13
 2927 02b6 11       		.uleb128 0x11
 2928 02b7 01       		.uleb128 0x1
 2929 02b8 12       		.uleb128 0x12
 2930 02b9 01       		.uleb128 0x1
 2931 02ba 58       		.uleb128 0x58
 2932 02bb 0B       		.uleb128 0xb
 2933 02bc 59       		.uleb128 0x59
 2934 02bd 05       		.uleb128 0x5
 2935 02be 01       		.uleb128 0x1
 2936 02bf 13       		.uleb128 0x13
 2937 02c0 00       		.byte	0
 2938 02c1 00       		.byte	0
 2939 02c2 32       		.uleb128 0x32
 2940 02c3 2E       		.uleb128 0x2e
 2941 02c4 01       		.byte	0x1
 2942 02c5 3F       		.uleb128 0x3f
 2943 02c6 0C       		.uleb128 0xc
 2944 02c7 03       		.uleb128 0x3
 2945 02c8 0E       		.uleb128 0xe
 2946 02c9 3A       		.uleb128 0x3a
 2947 02ca 0B       		.uleb128 0xb
 2948 02cb 3B       		.uleb128 0x3b
 2949 02cc 05       		.uleb128 0x5
 2950 02cd 27       		.uleb128 0x27
 2951 02ce 0C       		.uleb128 0xc
 2952 02cf 49       		.uleb128 0x49
 2953 02d0 13       		.uleb128 0x13
 2954 02d1 11       		.uleb128 0x11
 2955 02d2 01       		.uleb128 0x1
 2956 02d3 12       		.uleb128 0x12
 2957 02d4 01       		.uleb128 0x1
 2958 02d5 40       		.uleb128 0x40
 2959 02d6 06       		.uleb128 0x6
 2960 02d7 9742     		.uleb128 0x2117
 2961 02d9 0C       		.uleb128 0xc
 2962 02da 01       		.uleb128 0x1
 2963 02db 13       		.uleb128 0x13
 2964 02dc 00       		.byte	0
ARM GAS  C:\Users\NICOMA~1\AppData\Local\Temp\ccPFLohD.s 			page 53


 2965 02dd 00       		.byte	0
 2966 02de 33       		.uleb128 0x33
 2967 02df 34       		.uleb128 0x34
 2968 02e0 00       		.byte	0
 2969 02e1 03       		.uleb128 0x3
 2970 02e2 08       		.uleb128 0x8
 2971 02e3 3A       		.uleb128 0x3a
 2972 02e4 0B       		.uleb128 0xb
 2973 02e5 3B       		.uleb128 0x3b
 2974 02e6 05       		.uleb128 0x5
 2975 02e7 49       		.uleb128 0x49
 2976 02e8 13       		.uleb128 0x13
 2977 02e9 02       		.uleb128 0x2
 2978 02ea 06       		.uleb128 0x6
 2979 02eb 00       		.byte	0
 2980 02ec 00       		.byte	0
 2981 02ed 34       		.uleb128 0x34
 2982 02ee 34       		.uleb128 0x34
 2983 02ef 00       		.byte	0
 2984 02f0 03       		.uleb128 0x3
 2985 02f1 08       		.uleb128 0x8
 2986 02f2 3A       		.uleb128 0x3a
 2987 02f3 0B       		.uleb128 0xb
 2988 02f4 3B       		.uleb128 0x3b
 2989 02f5 05       		.uleb128 0x5
 2990 02f6 49       		.uleb128 0x49
 2991 02f7 13       		.uleb128 0x13
 2992 02f8 02       		.uleb128 0x2
 2993 02f9 0A       		.uleb128 0xa
 2994 02fa 00       		.byte	0
 2995 02fb 00       		.byte	0
 2996 02fc 35       		.uleb128 0x35
 2997 02fd 34       		.uleb128 0x34
 2998 02fe 00       		.byte	0
 2999 02ff 03       		.uleb128 0x3
 3000 0300 0E       		.uleb128 0xe
 3001 0301 3A       		.uleb128 0x3a
 3002 0302 0B       		.uleb128 0xb
 3003 0303 3B       		.uleb128 0x3b
 3004 0304 0B       		.uleb128 0xb
 3005 0305 49       		.uleb128 0x49
 3006 0306 13       		.uleb128 0x13
 3007 0307 3F       		.uleb128 0x3f
 3008 0308 0C       		.uleb128 0xc
 3009 0309 3C       		.uleb128 0x3c
 3010 030a 0C       		.uleb128 0xc
 3011 030b 00       		.byte	0
 3012 030c 00       		.byte	0
 3013 030d 36       		.uleb128 0x36
 3014 030e 2E       		.uleb128 0x2e
 3015 030f 01       		.byte	0x1
 3016 0310 3F       		.uleb128 0x3f
 3017 0311 0C       		.uleb128 0xc
 3018 0312 03       		.uleb128 0x3
 3019 0313 0E       		.uleb128 0xe
 3020 0314 3A       		.uleb128 0x3a
 3021 0315 0B       		.uleb128 0xb
ARM GAS  C:\Users\NICOMA~1\AppData\Local\Temp\ccPFLohD.s 			page 54


 3022 0316 3B       		.uleb128 0x3b
 3023 0317 0B       		.uleb128 0xb
 3024 0318 27       		.uleb128 0x27
 3025 0319 0C       		.uleb128 0xc
 3026 031a 49       		.uleb128 0x49
 3027 031b 13       		.uleb128 0x13
 3028 031c 3C       		.uleb128 0x3c
 3029 031d 0C       		.uleb128 0xc
 3030 031e 01       		.uleb128 0x1
 3031 031f 13       		.uleb128 0x13
 3032 0320 00       		.byte	0
 3033 0321 00       		.byte	0
 3034 0322 37       		.uleb128 0x37
 3035 0323 2E       		.uleb128 0x2e
 3036 0324 01       		.byte	0x1
 3037 0325 3F       		.uleb128 0x3f
 3038 0326 0C       		.uleb128 0xc
 3039 0327 03       		.uleb128 0x3
 3040 0328 0E       		.uleb128 0xe
 3041 0329 3A       		.uleb128 0x3a
 3042 032a 0B       		.uleb128 0xb
 3043 032b 3B       		.uleb128 0x3b
 3044 032c 0B       		.uleb128 0xb
 3045 032d 27       		.uleb128 0x27
 3046 032e 0C       		.uleb128 0xc
 3047 032f 49       		.uleb128 0x49
 3048 0330 13       		.uleb128 0x13
 3049 0331 3C       		.uleb128 0x3c
 3050 0332 0C       		.uleb128 0xc
 3051 0333 00       		.byte	0
 3052 0334 00       		.byte	0
 3053 0335 00       		.byte	0
 3054              		.section	.debug_loc,"",%progbits
 3055              	.Ldebug_loc0:
 3056              	.LLST0:
 3057 0000 00000000 		.4byte	.LVL0
 3058 0004 14000000 		.4byte	.LVL1
 3059 0008 0100     		.2byte	0x1
 3060 000a 50       		.byte	0x50
 3061 000b 14000000 		.4byte	.LVL1
 3062 000f 2F000000 		.4byte	.LVL3-1
 3063 0013 0100     		.2byte	0x1
 3064 0015 52       		.byte	0x52
 3065 0016 2F000000 		.4byte	.LVL3-1
 3066 001a 30000000 		.4byte	.LVL3
 3067 001e 0400     		.2byte	0x4
 3068 0020 F3       		.byte	0xf3
 3069 0021 01       		.uleb128 0x1
 3070 0022 50       		.byte	0x50
 3071 0023 9F       		.byte	0x9f
 3072 0024 30000000 		.4byte	.LVL3
 3073 0028 34000000 		.4byte	.LVL4
 3074 002c 0100     		.2byte	0x1
 3075 002e 50       		.byte	0x50
 3076 002f 34000000 		.4byte	.LVL4
 3077 0033 3C000000 		.4byte	.LFE7
 3078 0037 0100     		.2byte	0x1
ARM GAS  C:\Users\NICOMA~1\AppData\Local\Temp\ccPFLohD.s 			page 55


 3079 0039 52       		.byte	0x52
 3080 003a 00000000 		.4byte	0
 3081 003e 00000000 		.4byte	0
 3082              	.LLST1:
 3083 0042 00000000 		.4byte	.LVL0
 3084 0046 2F000000 		.4byte	.LVL3-1
 3085 004a 0100     		.2byte	0x1
 3086 004c 51       		.byte	0x51
 3087 004d 2F000000 		.4byte	.LVL3-1
 3088 0051 30000000 		.4byte	.LVL3
 3089 0055 0400     		.2byte	0x4
 3090 0057 F3       		.byte	0xf3
 3091 0058 01       		.uleb128 0x1
 3092 0059 51       		.byte	0x51
 3093 005a 9F       		.byte	0x9f
 3094 005b 30000000 		.4byte	.LVL3
 3095 005f 3C000000 		.4byte	.LFE7
 3096 0063 0100     		.2byte	0x1
 3097 0065 51       		.byte	0x51
 3098 0066 00000000 		.4byte	0
 3099 006a 00000000 		.4byte	0
 3100              	.LLST2:
 3101 006e 1C000000 		.4byte	.LVL2
 3102 0072 2F000000 		.4byte	.LVL3-1
 3103 0076 0100     		.2byte	0x1
 3104 0078 52       		.byte	0x52
 3105 0079 2F000000 		.4byte	.LVL3-1
 3106 007d 30000000 		.4byte	.LVL3
 3107 0081 0400     		.2byte	0x4
 3108 0083 F3       		.byte	0xf3
 3109 0084 01       		.uleb128 0x1
 3110 0085 50       		.byte	0x50
 3111 0086 9F       		.byte	0x9f
 3112 0087 00000000 		.4byte	0
 3113 008b 00000000 		.4byte	0
 3114              	.LLST3:
 3115 008f 1C000000 		.4byte	.LVL2
 3116 0093 2F000000 		.4byte	.LVL3-1
 3117 0097 0100     		.2byte	0x1
 3118 0099 53       		.byte	0x53
 3119 009a 00000000 		.4byte	0
 3120 009e 00000000 		.4byte	0
 3121              	.LLST4:
 3122 00a2 00000000 		.4byte	.LVL5
 3123 00a6 0C000000 		.4byte	.LVL7
 3124 00aa 0100     		.2byte	0x1
 3125 00ac 52       		.byte	0x52
 3126 00ad 0C000000 		.4byte	.LVL7
 3127 00b1 34000000 		.4byte	.LFE8
 3128 00b5 0400     		.2byte	0x4
 3129 00b7 F3       		.byte	0xf3
 3130 00b8 01       		.uleb128 0x1
 3131 00b9 52       		.byte	0x52
 3132 00ba 9F       		.byte	0x9f
 3133 00bb 00000000 		.4byte	0
 3134 00bf 00000000 		.4byte	0
 3135              	.LLST5:
ARM GAS  C:\Users\NICOMA~1\AppData\Local\Temp\ccPFLohD.s 			page 56


 3136 00c3 00000000 		.4byte	.LVL5
 3137 00c7 08000000 		.4byte	.LVL6
 3138 00cb 0100     		.2byte	0x1
 3139 00cd 53       		.byte	0x53
 3140 00ce 08000000 		.4byte	.LVL6
 3141 00d2 34000000 		.4byte	.LFE8
 3142 00d6 0200     		.2byte	0x2
 3143 00d8 70       		.byte	0x70
 3144 00d9 1C       		.sleb128 28
 3145 00da 00000000 		.4byte	0
 3146 00de 00000000 		.4byte	0
 3147              	.LLST6:
 3148 00e2 00000000 		.4byte	.LFB9
 3149 00e6 04000000 		.4byte	.LCFI0
 3150 00ea 0200     		.2byte	0x2
 3151 00ec 7D       		.byte	0x7d
 3152 00ed 00       		.sleb128 0
 3153 00ee 04000000 		.4byte	.LCFI0
 3154 00f2 50000000 		.4byte	.LFE9
 3155 00f6 0200     		.2byte	0x2
 3156 00f8 7D       		.byte	0x7d
 3157 00f9 10       		.sleb128 16
 3158 00fa 00000000 		.4byte	0
 3159 00fe 00000000 		.4byte	0
 3160              	.LLST7:
 3161 0102 00000000 		.4byte	.LVL8
 3162 0106 10000000 		.4byte	.LVL9
 3163 010a 0100     		.2byte	0x1
 3164 010c 50       		.byte	0x50
 3165 010d 10000000 		.4byte	.LVL9
 3166 0111 50000000 		.4byte	.LFE9
 3167 0115 0100     		.2byte	0x1
 3168 0117 54       		.byte	0x54
 3169 0118 00000000 		.4byte	0
 3170 011c 00000000 		.4byte	0
 3171              	.LLST8:
 3172 0120 2C000000 		.4byte	.LVL10
 3173 0124 3B000000 		.4byte	.LVL11-1
 3174 0128 0100     		.2byte	0x1
 3175 012a 50       		.byte	0x50
 3176 012b 00000000 		.4byte	0
 3177 012f 00000000 		.4byte	0
 3178              	.LLST9:
 3179 0133 00000000 		.4byte	.LFB10
 3180 0137 08000000 		.4byte	.LCFI1
 3181 013b 0200     		.2byte	0x2
 3182 013d 7D       		.byte	0x7d
 3183 013e 00       		.sleb128 0
 3184 013f 08000000 		.4byte	.LCFI1
 3185 0143 90000000 		.4byte	.LFE10
 3186 0147 0200     		.2byte	0x2
 3187 0149 7D       		.byte	0x7d
 3188 014a 08       		.sleb128 8
 3189 014b 00000000 		.4byte	0
 3190 014f 00000000 		.4byte	0
 3191              	.LLST10:
 3192 0153 00000000 		.4byte	.LVL12
ARM GAS  C:\Users\NICOMA~1\AppData\Local\Temp\ccPFLohD.s 			page 57


 3193 0157 10000000 		.4byte	.LVL13
 3194 015b 0100     		.2byte	0x1
 3195 015d 50       		.byte	0x50
 3196 015e 10000000 		.4byte	.LVL13
 3197 0162 53000000 		.4byte	.LVL16-1
 3198 0166 0100     		.2byte	0x1
 3199 0168 53       		.byte	0x53
 3200 0169 53000000 		.4byte	.LVL16-1
 3201 016d 64000000 		.4byte	.LVL17
 3202 0171 0400     		.2byte	0x4
 3203 0173 F3       		.byte	0xf3
 3204 0174 01       		.uleb128 0x1
 3205 0175 50       		.byte	0x50
 3206 0176 9F       		.byte	0x9f
 3207 0177 64000000 		.4byte	.LVL17
 3208 017b 90000000 		.4byte	.LFE10
 3209 017f 0100     		.2byte	0x1
 3210 0181 53       		.byte	0x53
 3211 0182 00000000 		.4byte	0
 3212 0186 00000000 		.4byte	0
 3213              	.LLST11:
 3214 018a 00000000 		.4byte	.LVL12
 3215 018e 2C000000 		.4byte	.LVL14
 3216 0192 0100     		.2byte	0x1
 3217 0194 51       		.byte	0x51
 3218 0195 2C000000 		.4byte	.LVL14
 3219 0199 53000000 		.4byte	.LVL16-1
 3220 019d 0300     		.2byte	0x3
 3221 019f 73       		.byte	0x73
 3222 01a0 14       		.sleb128 20
 3223 01a1 06       		.byte	0x6
 3224 01a2 53000000 		.4byte	.LVL16-1
 3225 01a6 64000000 		.4byte	.LVL17
 3226 01aa 0400     		.2byte	0x4
 3227 01ac F3       		.byte	0xf3
 3228 01ad 01       		.uleb128 0x1
 3229 01ae 51       		.byte	0x51
 3230 01af 9F       		.byte	0x9f
 3231 01b0 64000000 		.4byte	.LVL17
 3232 01b4 80000000 		.4byte	.LVL18
 3233 01b8 0300     		.2byte	0x3
 3234 01ba 73       		.byte	0x73
 3235 01bb 14       		.sleb128 20
 3236 01bc 06       		.byte	0x6
 3237 01bd 80000000 		.4byte	.LVL18
 3238 01c1 90000000 		.4byte	.LFE10
 3239 01c5 0100     		.2byte	0x1
 3240 01c7 51       		.byte	0x51
 3241 01c8 00000000 		.4byte	0
 3242 01cc 00000000 		.4byte	0
 3243              	.LLST12:
 3244 01d0 44000000 		.4byte	.LVL15
 3245 01d4 53000000 		.4byte	.LVL16-1
 3246 01d8 0100     		.2byte	0x1
 3247 01da 53       		.byte	0x53
 3248 01db 53000000 		.4byte	.LVL16-1
 3249 01df 64000000 		.4byte	.LVL17
ARM GAS  C:\Users\NICOMA~1\AppData\Local\Temp\ccPFLohD.s 			page 58


 3250 01e3 0400     		.2byte	0x4
 3251 01e5 F3       		.byte	0xf3
 3252 01e6 01       		.uleb128 0x1
 3253 01e7 50       		.byte	0x50
 3254 01e8 9F       		.byte	0x9f
 3255 01e9 00000000 		.4byte	0
 3256 01ed 00000000 		.4byte	0
 3257              	.LLST13:
 3258 01f1 44000000 		.4byte	.LVL15
 3259 01f5 53000000 		.4byte	.LVL16-1
 3260 01f9 0100     		.2byte	0x1
 3261 01fb 50       		.byte	0x50
 3262 01fc 00000000 		.4byte	0
 3263 0200 00000000 		.4byte	0
 3264              	.LLST14:
 3265 0204 00000000 		.4byte	.LFB11
 3266 0208 04000000 		.4byte	.LCFI2
 3267 020c 0200     		.2byte	0x2
 3268 020e 7D       		.byte	0x7d
 3269 020f 00       		.sleb128 0
 3270 0210 04000000 		.4byte	.LCFI2
 3271 0214 74000000 		.4byte	.LFE11
 3272 0218 0200     		.2byte	0x2
 3273 021a 7D       		.byte	0x7d
 3274 021b 10       		.sleb128 16
 3275 021c 00000000 		.4byte	0
 3276 0220 00000000 		.4byte	0
 3277              	.LLST15:
 3278 0224 00000000 		.4byte	.LVL19
 3279 0228 1F000000 		.4byte	.LVL20-1
 3280 022c 0100     		.2byte	0x1
 3281 022e 50       		.byte	0x50
 3282 022f 1F000000 		.4byte	.LVL20-1
 3283 0233 34000000 		.4byte	.LVL21
 3284 0237 0100     		.2byte	0x1
 3285 0239 54       		.byte	0x54
 3286 023a 34000000 		.4byte	.LVL21
 3287 023e 37000000 		.4byte	.LVL22-1
 3288 0242 0100     		.2byte	0x1
 3289 0244 50       		.byte	0x50
 3290 0245 37000000 		.4byte	.LVL22-1
 3291 0249 48000000 		.4byte	.LVL23
 3292 024d 0100     		.2byte	0x1
 3293 024f 54       		.byte	0x54
 3294 0250 48000000 		.4byte	.LVL23
 3295 0254 58000000 		.4byte	.LVL24
 3296 0258 0100     		.2byte	0x1
 3297 025a 50       		.byte	0x50
 3298 025b 58000000 		.4byte	.LVL24
 3299 025f 74000000 		.4byte	.LFE11
 3300 0263 0100     		.2byte	0x1
 3301 0265 54       		.byte	0x54
 3302 0266 00000000 		.4byte	0
 3303 026a 00000000 		.4byte	0
 3304              	.LLST16:
 3305 026e 00000000 		.4byte	.LVL19
 3306 0272 1F000000 		.4byte	.LVL20-1
ARM GAS  C:\Users\NICOMA~1\AppData\Local\Temp\ccPFLohD.s 			page 59


 3307 0276 0100     		.2byte	0x1
 3308 0278 51       		.byte	0x51
 3309 0279 1F000000 		.4byte	.LVL20-1
 3310 027d 34000000 		.4byte	.LVL21
 3311 0281 0100     		.2byte	0x1
 3312 0283 55       		.byte	0x55
 3313 0284 34000000 		.4byte	.LVL21
 3314 0288 37000000 		.4byte	.LVL22-1
 3315 028c 0100     		.2byte	0x1
 3316 028e 51       		.byte	0x51
 3317 028f 37000000 		.4byte	.LVL22-1
 3318 0293 48000000 		.4byte	.LVL23
 3319 0297 0100     		.2byte	0x1
 3320 0299 55       		.byte	0x55
 3321 029a 48000000 		.4byte	.LVL23
 3322 029e 74000000 		.4byte	.LFE11
 3323 02a2 0100     		.2byte	0x1
 3324 02a4 51       		.byte	0x51
 3325 02a5 00000000 		.4byte	0
 3326 02a9 00000000 		.4byte	0
 3327              	.LLST17:
 3328 02ad 38000000 		.4byte	.LVL22
 3329 02b1 48000000 		.4byte	.LVL23
 3330 02b5 0100     		.2byte	0x1
 3331 02b7 50       		.byte	0x50
 3332 02b8 00000000 		.4byte	0
 3333 02bc 00000000 		.4byte	0
 3334              	.LLST18:
 3335 02c0 00000000 		.4byte	.LFB12
 3336 02c4 04000000 		.4byte	.LCFI3
 3337 02c8 0200     		.2byte	0x2
 3338 02ca 7D       		.byte	0x7d
 3339 02cb 00       		.sleb128 0
 3340 02cc 04000000 		.4byte	.LCFI3
 3341 02d0 A0000000 		.4byte	.LFE12
 3342 02d4 0200     		.2byte	0x2
 3343 02d6 7D       		.byte	0x7d
 3344 02d7 20       		.sleb128 32
 3345 02d8 00000000 		.4byte	0
 3346 02dc 00000000 		.4byte	0
 3347              	.LLST19:
 3348 02e0 00000000 		.4byte	.LVL25
 3349 02e4 2C000000 		.4byte	.LVL28
 3350 02e8 0100     		.2byte	0x1
 3351 02ea 50       		.byte	0x50
 3352 02eb 2C000000 		.4byte	.LVL28
 3353 02ef 44000000 		.4byte	.LVL30
 3354 02f3 0100     		.2byte	0x1
 3355 02f5 54       		.byte	0x54
 3356 02f6 44000000 		.4byte	.LVL30
 3357 02fa 47000000 		.4byte	.LVL31-1
 3358 02fe 0100     		.2byte	0x1
 3359 0300 50       		.byte	0x50
 3360 0301 47000000 		.4byte	.LVL31-1
 3361 0305 5C000000 		.4byte	.LVL32
 3362 0309 0100     		.2byte	0x1
 3363 030b 54       		.byte	0x54
ARM GAS  C:\Users\NICOMA~1\AppData\Local\Temp\ccPFLohD.s 			page 60


 3364 030c 5C000000 		.4byte	.LVL32
 3365 0310 A0000000 		.4byte	.LFE12
 3366 0314 0100     		.2byte	0x1
 3367 0316 50       		.byte	0x50
 3368 0317 00000000 		.4byte	0
 3369 031b 00000000 		.4byte	0
 3370              	.LLST20:
 3371 031f 00000000 		.4byte	.LVL25
 3372 0323 20000000 		.4byte	.LVL27
 3373 0327 0100     		.2byte	0x1
 3374 0329 51       		.byte	0x51
 3375 032a 00000000 		.4byte	0
 3376 032e 00000000 		.4byte	0
 3377              	.LLST21:
 3378 0332 00000000 		.4byte	.LVL25
 3379 0336 20000000 		.4byte	.LVL27
 3380 033a 0100     		.2byte	0x1
 3381 033c 52       		.byte	0x52
 3382 033d 00000000 		.4byte	0
 3383 0341 00000000 		.4byte	0
 3384              	.LLST22:
 3385 0345 00000000 		.4byte	.LVL25
 3386 0349 20000000 		.4byte	.LVL27
 3387 034d 0100     		.2byte	0x1
 3388 034f 53       		.byte	0x53
 3389 0350 20000000 		.4byte	.LVL27
 3390 0354 44000000 		.4byte	.LVL30
 3391 0358 0100     		.2byte	0x1
 3392 035a 55       		.byte	0x55
 3393 035b 44000000 		.4byte	.LVL30
 3394 035f 47000000 		.4byte	.LVL31-1
 3395 0363 0100     		.2byte	0x1
 3396 0365 51       		.byte	0x51
 3397 0366 47000000 		.4byte	.LVL31-1
 3398 036a 5C000000 		.4byte	.LVL32
 3399 036e 0100     		.2byte	0x1
 3400 0370 55       		.byte	0x55
 3401 0371 5C000000 		.4byte	.LVL32
 3402 0375 A0000000 		.4byte	.LFE12
 3403 0379 0100     		.2byte	0x1
 3404 037b 51       		.byte	0x51
 3405 037c 00000000 		.4byte	0
 3406 0380 00000000 		.4byte	0
 3407              	.LLST23:
 3408 0384 10000000 		.4byte	.LVL26
 3409 0388 20000000 		.4byte	.LVL27
 3410 038c 0200     		.2byte	0x2
 3411 038e 30       		.byte	0x30
 3412 038f 9F       		.byte	0x9f
 3413 0390 20000000 		.4byte	.LVL27
 3414 0394 A0000000 		.4byte	.LFE12
 3415 0398 0100     		.2byte	0x1
 3416 039a 57       		.byte	0x57
 3417 039b 00000000 		.4byte	0
 3418 039f 00000000 		.4byte	0
 3419              	.LLST24:
 3420 03a3 00000000 		.4byte	.LVL34
ARM GAS  C:\Users\NICOMA~1\AppData\Local\Temp\ccPFLohD.s 			page 61


 3421 03a7 08000000 		.4byte	.LVL35
 3422 03ab 0100     		.2byte	0x1
 3423 03ad 53       		.byte	0x53
 3424 03ae 08000000 		.4byte	.LVL35
 3425 03b2 30000000 		.4byte	.LFE13
 3426 03b6 0200     		.2byte	0x2
 3427 03b8 70       		.byte	0x70
 3428 03b9 1C       		.sleb128 28
 3429 03ba 00000000 		.4byte	0
 3430 03be 00000000 		.4byte	0
 3431              	.LLST25:
 3432 03c2 00000000 		.4byte	.LFB14
 3433 03c6 04000000 		.4byte	.LCFI4
 3434 03ca 0200     		.2byte	0x2
 3435 03cc 7D       		.byte	0x7d
 3436 03cd 00       		.sleb128 0
 3437 03ce 04000000 		.4byte	.LCFI4
 3438 03d2 54000000 		.4byte	.LFE14
 3439 03d6 0200     		.2byte	0x2
 3440 03d8 7D       		.byte	0x7d
 3441 03d9 10       		.sleb128 16
 3442 03da 00000000 		.4byte	0
 3443 03de 00000000 		.4byte	0
 3444              	.LLST26:
 3445 03e2 00000000 		.4byte	.LVL36
 3446 03e6 14000000 		.4byte	.LVL37
 3447 03ea 0100     		.2byte	0x1
 3448 03ec 50       		.byte	0x50
 3449 03ed 14000000 		.4byte	.LVL37
 3450 03f1 54000000 		.4byte	.LFE14
 3451 03f5 0100     		.2byte	0x1
 3452 03f7 54       		.byte	0x54
 3453 03f8 00000000 		.4byte	0
 3454 03fc 00000000 		.4byte	0
 3455              	.LLST27:
 3456 0400 30000000 		.4byte	.LVL38
 3457 0404 3F000000 		.4byte	.LVL39-1
 3458 0408 0100     		.2byte	0x1
 3459 040a 50       		.byte	0x50
 3460 040b 00000000 		.4byte	0
 3461 040f 00000000 		.4byte	0
 3462              	.LLST28:
 3463 0413 00000000 		.4byte	.LFB15
 3464 0417 04000000 		.4byte	.LCFI5
 3465 041b 0200     		.2byte	0x2
 3466 041d 7D       		.byte	0x7d
 3467 041e 00       		.sleb128 0
 3468 041f 04000000 		.4byte	.LCFI5
 3469 0423 80000000 		.4byte	.LFE15
 3470 0427 0200     		.2byte	0x2
 3471 0429 7D       		.byte	0x7d
 3472 042a 10       		.sleb128 16
 3473 042b 00000000 		.4byte	0
 3474 042f 00000000 		.4byte	0
 3475              	.LLST29:
 3476 0433 00000000 		.4byte	.LVL40
 3477 0437 14000000 		.4byte	.LVL41
ARM GAS  C:\Users\NICOMA~1\AppData\Local\Temp\ccPFLohD.s 			page 62


 3478 043b 0100     		.2byte	0x1
 3479 043d 50       		.byte	0x50
 3480 043e 14000000 		.4byte	.LVL41
 3481 0442 28000000 		.4byte	.LVL42
 3482 0446 0100     		.2byte	0x1
 3483 0448 54       		.byte	0x54
 3484 0449 28000000 		.4byte	.LVL42
 3485 044d 2B000000 		.4byte	.LVL43-1
 3486 0451 0100     		.2byte	0x1
 3487 0453 50       		.byte	0x50
 3488 0454 2B000000 		.4byte	.LVL43-1
 3489 0458 3C000000 		.4byte	.LVL44
 3490 045c 0100     		.2byte	0x1
 3491 045e 54       		.byte	0x54
 3492 045f 3C000000 		.4byte	.LVL44
 3493 0463 70000000 		.4byte	.LVL45
 3494 0467 0100     		.2byte	0x1
 3495 0469 50       		.byte	0x50
 3496 046a 70000000 		.4byte	.LVL45
 3497 046e 80000000 		.4byte	.LFE15
 3498 0472 0100     		.2byte	0x1
 3499 0474 54       		.byte	0x54
 3500 0475 00000000 		.4byte	0
 3501 0479 00000000 		.4byte	0
 3502              	.LLST30:
 3503 047d 00000000 		.4byte	.LVL40
 3504 0481 14000000 		.4byte	.LVL41
 3505 0485 0100     		.2byte	0x1
 3506 0487 51       		.byte	0x51
 3507 0488 14000000 		.4byte	.LVL41
 3508 048c 80000000 		.4byte	.LFE15
 3509 0490 0400     		.2byte	0x4
 3510 0492 F3       		.byte	0xf3
 3511 0493 01       		.uleb128 0x1
 3512 0494 51       		.byte	0x51
 3513 0495 9F       		.byte	0x9f
 3514 0496 00000000 		.4byte	0
 3515 049a 00000000 		.4byte	0
 3516              	.LLST31:
 3517 049e 00000000 		.4byte	.LVL40
 3518 04a2 14000000 		.4byte	.LVL41
 3519 04a6 0100     		.2byte	0x1
 3520 04a8 52       		.byte	0x52
 3521 04a9 14000000 		.4byte	.LVL41
 3522 04ad 28000000 		.4byte	.LVL42
 3523 04b1 0100     		.2byte	0x1
 3524 04b3 55       		.byte	0x55
 3525 04b4 28000000 		.4byte	.LVL42
 3526 04b8 2B000000 		.4byte	.LVL43-1
 3527 04bc 0100     		.2byte	0x1
 3528 04be 51       		.byte	0x51
 3529 04bf 2B000000 		.4byte	.LVL43-1
 3530 04c3 3C000000 		.4byte	.LVL44
 3531 04c7 0100     		.2byte	0x1
 3532 04c9 55       		.byte	0x55
 3533 04ca 3C000000 		.4byte	.LVL44
 3534 04ce 73000000 		.4byte	.LVL46-1
ARM GAS  C:\Users\NICOMA~1\AppData\Local\Temp\ccPFLohD.s 			page 63


 3535 04d2 0100     		.2byte	0x1
 3536 04d4 51       		.byte	0x51
 3537 04d5 73000000 		.4byte	.LVL46-1
 3538 04d9 80000000 		.4byte	.LFE15
 3539 04dd 0100     		.2byte	0x1
 3540 04df 55       		.byte	0x55
 3541 04e0 00000000 		.4byte	0
 3542 04e4 00000000 		.4byte	0
 3543              	.LLST32:
 3544 04e8 2C000000 		.4byte	.LVL43
 3545 04ec 3C000000 		.4byte	.LVL44
 3546 04f0 0100     		.2byte	0x1
 3547 04f2 50       		.byte	0x50
 3548 04f3 00000000 		.4byte	0
 3549 04f7 00000000 		.4byte	0
 3550              	.LLST33:
 3551 04fb 00000000 		.4byte	.LFB16
 3552 04ff 0C000000 		.4byte	.LCFI6
 3553 0503 0200     		.2byte	0x2
 3554 0505 7D       		.byte	0x7d
 3555 0506 00       		.sleb128 0
 3556 0507 0C000000 		.4byte	.LCFI6
 3557 050b 80000000 		.4byte	.LFE16
 3558 050f 0200     		.2byte	0x2
 3559 0511 7D       		.byte	0x7d
 3560 0512 08       		.sleb128 8
 3561 0513 00000000 		.4byte	0
 3562 0517 00000000 		.4byte	0
 3563              	.LLST34:
 3564 051b 00000000 		.4byte	.LVL47
 3565 051f 3C000000 		.4byte	.LVL49
 3566 0523 0100     		.2byte	0x1
 3567 0525 50       		.byte	0x50
 3568 0526 3C000000 		.4byte	.LVL49
 3569 052a 53000000 		.4byte	.LVL51-1
 3570 052e 0100     		.2byte	0x1
 3571 0530 53       		.byte	0x53
 3572 0531 53000000 		.4byte	.LVL51-1
 3573 0535 64000000 		.4byte	.LVL53
 3574 0539 0400     		.2byte	0x4
 3575 053b F3       		.byte	0xf3
 3576 053c 01       		.uleb128 0x1
 3577 053d 50       		.byte	0x50
 3578 053e 9F       		.byte	0x9f
 3579 053f 64000000 		.4byte	.LVL53
 3580 0543 7C000000 		.4byte	.LVL55
 3581 0547 0100     		.2byte	0x1
 3582 0549 50       		.byte	0x50
 3583 054a 7C000000 		.4byte	.LVL55
 3584 054e 80000000 		.4byte	.LFE16
 3585 0552 0100     		.2byte	0x1
 3586 0554 53       		.byte	0x53
 3587 0555 00000000 		.4byte	0
 3588 0559 00000000 		.4byte	0
 3589              	.LLST35:
 3590 055d 28000000 		.4byte	.LVL48
 3591 0561 3C000000 		.4byte	.LVL49
ARM GAS  C:\Users\NICOMA~1\AppData\Local\Temp\ccPFLohD.s 			page 64


 3592 0565 0300     		.2byte	0x3
 3593 0567 70       		.byte	0x70
 3594 0568 18       		.sleb128 24
 3595 0569 06       		.byte	0x6
 3596 056a 3C000000 		.4byte	.LVL49
 3597 056e 53000000 		.4byte	.LVL51-1
 3598 0572 0300     		.2byte	0x3
 3599 0574 73       		.byte	0x73
 3600 0575 18       		.sleb128 24
 3601 0576 06       		.byte	0x6
 3602 0577 53000000 		.4byte	.LVL51-1
 3603 057b 64000000 		.4byte	.LVL53
 3604 057f 0100     		.2byte	0x1
 3605 0581 54       		.byte	0x54
 3606 0582 64000000 		.4byte	.LVL53
 3607 0586 70000000 		.4byte	.LVL54
 3608 058a 0300     		.2byte	0x3
 3609 058c 70       		.byte	0x70
 3610 058d 18       		.sleb128 24
 3611 058e 06       		.byte	0x6
 3612 058f 00000000 		.4byte	0
 3613 0593 00000000 		.4byte	0
 3614              	.LLST36:
 3615 0597 44000000 		.4byte	.LVL50
 3616 059b 53000000 		.4byte	.LVL51-1
 3617 059f 0100     		.2byte	0x1
 3618 05a1 53       		.byte	0x53
 3619 05a2 53000000 		.4byte	.LVL51-1
 3620 05a6 5C000000 		.4byte	.LVL52
 3621 05aa 0400     		.2byte	0x4
 3622 05ac F3       		.byte	0xf3
 3623 05ad 01       		.uleb128 0x1
 3624 05ae 50       		.byte	0x50
 3625 05af 9F       		.byte	0x9f
 3626 05b0 00000000 		.4byte	0
 3627 05b4 00000000 		.4byte	0
 3628              	.LLST37:
 3629 05b8 44000000 		.4byte	.LVL50
 3630 05bc 53000000 		.4byte	.LVL51-1
 3631 05c0 0100     		.2byte	0x1
 3632 05c2 50       		.byte	0x50
 3633 05c3 00000000 		.4byte	0
 3634 05c7 00000000 		.4byte	0
 3635              	.LLST38:
 3636 05cb 00000000 		.4byte	.LFB17
 3637 05cf 04000000 		.4byte	.LCFI7
 3638 05d3 0200     		.2byte	0x2
 3639 05d5 7D       		.byte	0x7d
 3640 05d6 00       		.sleb128 0
 3641 05d7 04000000 		.4byte	.LCFI7
 3642 05db 9C000000 		.4byte	.LFE17
 3643 05df 0200     		.2byte	0x2
 3644 05e1 7D       		.byte	0x7d
 3645 05e2 20       		.sleb128 32
 3646 05e3 00000000 		.4byte	0
 3647 05e7 00000000 		.4byte	0
 3648              	.LLST39:
ARM GAS  C:\Users\NICOMA~1\AppData\Local\Temp\ccPFLohD.s 			page 65


 3649 05eb 00000000 		.4byte	.LVL56
 3650 05ef 20000000 		.4byte	.LVL58
 3651 05f3 0100     		.2byte	0x1
 3652 05f5 50       		.byte	0x50
 3653 05f6 20000000 		.4byte	.LVL58
 3654 05fa 34000000 		.4byte	.LVL59
 3655 05fe 0100     		.2byte	0x1
 3656 0600 54       		.byte	0x54
 3657 0601 34000000 		.4byte	.LVL59
 3658 0605 63000000 		.4byte	.LVL62-1
 3659 0609 0100     		.2byte	0x1
 3660 060b 50       		.byte	0x50
 3661 060c 63000000 		.4byte	.LVL62-1
 3662 0610 7C000000 		.4byte	.LVL65
 3663 0614 0100     		.2byte	0x1
 3664 0616 54       		.byte	0x54
 3665 0617 7C000000 		.4byte	.LVL65
 3666 061b 80000000 		.4byte	.LVL66
 3667 061f 0100     		.2byte	0x1
 3668 0621 50       		.byte	0x50
 3669 0622 80000000 		.4byte	.LVL66
 3670 0626 9C000000 		.4byte	.LFE17
 3671 062a 0100     		.2byte	0x1
 3672 062c 54       		.byte	0x54
 3673 062d 00000000 		.4byte	0
 3674 0631 00000000 		.4byte	0
 3675              	.LLST40:
 3676 0635 00000000 		.4byte	.LVL56
 3677 0639 20000000 		.4byte	.LVL58
 3678 063d 0100     		.2byte	0x1
 3679 063f 51       		.byte	0x51
 3680 0640 20000000 		.4byte	.LVL58
 3681 0644 40000000 		.4byte	.LVL60
 3682 0648 0100     		.2byte	0x1
 3683 064a 57       		.byte	0x57
 3684 064b 40000000 		.4byte	.LVL60
 3685 064f 4C000000 		.4byte	.LVL61
 3686 0653 0300     		.2byte	0x3
 3687 0655 77       		.byte	0x77
 3688 0656 7F       		.sleb128 -1
 3689 0657 9F       		.byte	0x9f
 3690 0658 4C000000 		.4byte	.LVL61
 3691 065c 9C000000 		.4byte	.LFE17
 3692 0660 0100     		.2byte	0x1
 3693 0662 57       		.byte	0x57
 3694 0663 00000000 		.4byte	0
 3695 0667 00000000 		.4byte	0
 3696              	.LLST41:
 3697 066b 00000000 		.4byte	.LVL56
 3698 066f 20000000 		.4byte	.LVL58
 3699 0673 0100     		.2byte	0x1
 3700 0675 52       		.byte	0x52
 3701 0676 20000000 		.4byte	.LVL58
 3702 067a 6C000000 		.4byte	.LVL63
 3703 067e 0100     		.2byte	0x1
 3704 0680 55       		.byte	0x55
 3705 0681 6C000000 		.4byte	.LVL63
ARM GAS  C:\Users\NICOMA~1\AppData\Local\Temp\ccPFLohD.s 			page 66


 3706 0685 70000000 		.4byte	.LVL64
 3707 0689 0300     		.2byte	0x3
 3708 068b 75       		.byte	0x75
 3709 068c 01       		.sleb128 1
 3710 068d 9F       		.byte	0x9f
 3711 068e 7C000000 		.4byte	.LVL65
 3712 0692 94000000 		.4byte	.LVL68
 3713 0696 0100     		.2byte	0x1
 3714 0698 55       		.byte	0x55
 3715 0699 00000000 		.4byte	0
 3716 069d 00000000 		.4byte	0
 3717              	.LLST42:
 3718 06a1 00000000 		.4byte	.LVL56
 3719 06a5 20000000 		.4byte	.LVL58
 3720 06a9 0100     		.2byte	0x1
 3721 06ab 53       		.byte	0x53
 3722 06ac 20000000 		.4byte	.LVL58
 3723 06b0 9C000000 		.4byte	.LFE17
 3724 06b4 0100     		.2byte	0x1
 3725 06b6 5A       		.byte	0x5a
 3726 06b7 00000000 		.4byte	0
 3727 06bb 00000000 		.4byte	0
 3728              	.LLST43:
 3729 06bf 18000000 		.4byte	.LVL57
 3730 06c3 20000000 		.4byte	.LVL58
 3731 06c7 0200     		.2byte	0x2
 3732 06c9 30       		.byte	0x30
 3733 06ca 9F       		.byte	0x9f
 3734 06cb 20000000 		.4byte	.LVL58
 3735 06cf 9C000000 		.4byte	.LFE17
 3736 06d3 0100     		.2byte	0x1
 3737 06d5 56       		.byte	0x56
 3738 06d6 00000000 		.4byte	0
 3739 06da 00000000 		.4byte	0
 3740              		.section	.debug_aranges,"",%progbits
 3741 0000 6C000000 		.4byte	0x6c
 3742 0004 0200     		.2byte	0x2
 3743 0006 00000000 		.4byte	.Ldebug_info0
 3744 000a 04       		.byte	0x4
 3745 000b 00       		.byte	0
 3746 000c 0000     		.2byte	0
 3747 000e 0000     		.2byte	0
 3748 0010 00000000 		.4byte	.LFB7
 3749 0014 3C000000 		.4byte	.LFE7-.LFB7
 3750 0018 00000000 		.4byte	.LFB8
 3751 001c 34000000 		.4byte	.LFE8-.LFB8
 3752 0020 00000000 		.4byte	.LFB9
 3753 0024 50000000 		.4byte	.LFE9-.LFB9
 3754 0028 00000000 		.4byte	.LFB10
 3755 002c 90000000 		.4byte	.LFE10-.LFB10
 3756 0030 00000000 		.4byte	.LFB11
 3757 0034 74000000 		.4byte	.LFE11-.LFB11
 3758 0038 00000000 		.4byte	.LFB12
 3759 003c A0000000 		.4byte	.LFE12-.LFB12
 3760 0040 00000000 		.4byte	.LFB13
 3761 0044 30000000 		.4byte	.LFE13-.LFB13
 3762 0048 00000000 		.4byte	.LFB14
ARM GAS  C:\Users\NICOMA~1\AppData\Local\Temp\ccPFLohD.s 			page 67


 3763 004c 54000000 		.4byte	.LFE14-.LFB14
 3764 0050 00000000 		.4byte	.LFB15
 3765 0054 80000000 		.4byte	.LFE15-.LFB15
 3766 0058 00000000 		.4byte	.LFB16
 3767 005c 80000000 		.4byte	.LFE16-.LFB16
 3768 0060 00000000 		.4byte	.LFB17
 3769 0064 9C000000 		.4byte	.LFE17-.LFB17
 3770 0068 00000000 		.4byte	0
 3771 006c 00000000 		.4byte	0
 3772              		.section	.debug_ranges,"",%progbits
 3773              	.Ldebug_ranges0:
 3774 0000 24000000 		.4byte	.LBB18
 3775 0004 28000000 		.4byte	.LBE18
 3776 0008 2C000000 		.4byte	.LBB19
 3777 000c 30000000 		.4byte	.LBE19
 3778 0010 34000000 		.4byte	.LBB20
 3779 0014 40000000 		.4byte	.LBE20
 3780 0018 00000000 		.4byte	0
 3781 001c 00000000 		.4byte	0
 3782 0020 18000000 		.4byte	.LBB23
 3783 0024 1C000000 		.4byte	.LBE23
 3784 0028 20000000 		.4byte	.LBB24
 3785 002c 24000000 		.4byte	.LBE24
 3786 0030 28000000 		.4byte	.LBB25
 3787 0034 3C000000 		.4byte	.LBE25
 3788 0038 00000000 		.4byte	0
 3789 003c 00000000 		.4byte	0
 3790 0040 00000000 		.4byte	.LFB7
 3791 0044 3C000000 		.4byte	.LFE7
 3792 0048 00000000 		.4byte	.LFB8
 3793 004c 34000000 		.4byte	.LFE8
 3794 0050 00000000 		.4byte	.LFB9
 3795 0054 50000000 		.4byte	.LFE9
 3796 0058 00000000 		.4byte	.LFB10
 3797 005c 90000000 		.4byte	.LFE10
 3798 0060 00000000 		.4byte	.LFB11
 3799 0064 74000000 		.4byte	.LFE11
 3800 0068 00000000 		.4byte	.LFB12
 3801 006c A0000000 		.4byte	.LFE12
 3802 0070 00000000 		.4byte	.LFB13
 3803 0074 30000000 		.4byte	.LFE13
 3804 0078 00000000 		.4byte	.LFB14
 3805 007c 54000000 		.4byte	.LFE14
 3806 0080 00000000 		.4byte	.LFB15
 3807 0084 80000000 		.4byte	.LFE15
 3808 0088 00000000 		.4byte	.LFB16
 3809 008c 80000000 		.4byte	.LFE16
 3810 0090 00000000 		.4byte	.LFB17
 3811 0094 9C000000 		.4byte	.LFE17
 3812 0098 00000000 		.4byte	0
 3813 009c 00000000 		.4byte	0
 3814              		.section	.debug_line,"",%progbits
 3815              	.Ldebug_line0:
 3816 0000 6E030000 		.section	.debug_str,"MS",%progbits,1
 3816      02005F01 
 3816      00000201 
 3816      FB0E0D00 
ARM GAS  C:\Users\NICOMA~1\AppData\Local\Temp\ccPFLohD.s 			page 68


 3816      01010101 
 3817              	.LASF85:
 3818 0000 63684F51 		.ascii	"chOQInit\000"
 3818      496E6974 
 3818      00
 3819              	.LASF38:
 3820 0009 705F6D73 		.ascii	"p_msg\000"
 3820      6700
 3821              	.LASF94:
 3822 000f 71756575 		.ascii	"queue_insert\000"
 3822      655F696E 
 3822      73657274 
 3822      00
 3823              	.LASF86:
 3824 001c 6F6E6679 		.ascii	"onfy\000"
 3824      00
 3825              	.LASF2:
 3826 0021 73697A65 		.ascii	"size_t\000"
 3826      5F7400
 3827              	.LASF58:
 3828 0028 7264796D 		.ascii	"rdymsg\000"
 3828      736700
 3829              	.LASF80:
 3830 002f 63684951 		.ascii	"chIQInit\000"
 3830      496E6974 
 3830      00
 3831              	.LASF75:
 3832 0038 4F757470 		.ascii	"OutputQueue\000"
 3832      75745175 
 3832      65756500 
 3833              	.LASF84:
 3834 0044 63684951 		.ascii	"chIQReadTimeout\000"
 3834      52656164 
 3834      54696D65 
 3834      6F757400 
 3835              	.LASF12:
 3836 0054 6C6F6E67 		.ascii	"long long unsigned int\000"
 3836      206C6F6E 
 3836      6720756E 
 3836      7369676E 
 3836      65642069 
 3837              	.LASF59:
 3838 006b 65786974 		.ascii	"exitcode\000"
 3838      636F6465 
 3838      00
 3839              	.LASF26:
 3840 0074 705F7072 		.ascii	"p_prio\000"
 3840      696F00
 3841              	.LASF65:
 3842 007b 715F7761 		.ascii	"q_waiting\000"
 3842      6974696E 
 3842      6700
 3843              	.LASF11:
 3844 0085 6C6F6E67 		.ascii	"long long int\000"
 3844      206C6F6E 
 3844      6720696E 
 3844      7400
ARM GAS  C:\Users\NICOMA~1\AppData\Local\Temp\ccPFLohD.s 			page 69


 3845              	.LASF1:
 3846 0093 7369676E 		.ascii	"signed char\000"
 3846      65642063 
 3846      68617200 
 3847              	.LASF13:
 3848 009f 626F6F6C 		.ascii	"bool_t\000"
 3848      5F7400
 3849              	.LASF55:
 3850 00a6 6D5F7175 		.ascii	"m_queue\000"
 3850      65756500 
 3851              	.LASF18:
 3852 00ae 74736C69 		.ascii	"tslices_t\000"
 3852      6365735F 
 3852      7400
 3853              	.LASF96:
 3854 00b8 71776169 		.ascii	"qwait\000"
 3854      7400
 3855              	.LASF8:
 3856 00be 6C6F6E67 		.ascii	"long int\000"
 3856      20696E74 
 3856      00
 3857              	.LASF16:
 3858 00c7 74737461 		.ascii	"tstate_t\000"
 3858      74655F74 
 3858      00
 3859              	.LASF89:
 3860 00d0 63684F51 		.ascii	"chOQGetI\000"
 3860      47657449 
 3860      00
 3861              	.LASF67:
 3862 00d9 715F6275 		.ascii	"q_buffer\000"
 3862      66666572 
 3862      00
 3863              	.LASF69:
 3864 00e2 715F7772 		.ascii	"q_wrptr\000"
 3864      70747200 
 3865              	.LASF28:
 3866 00ea 705F6E65 		.ascii	"p_newer\000"
 3866      77657200 
 3867              	.LASF93:
 3868 00f2 433A5C55 		.ascii	"C:\\Users\\Nico Maas\\Desktop\\ChibiOS\\demos\\ARM1"
 3868      73657273 
 3868      5C4E6963 
 3868      6F204D61 
 3868      61735C44 
 3869 011f 312D4243 		.ascii	"1-BCM2835-GCC\000"
 3869      4D323833 
 3869      352D4743 
 3869      4300
 3870              	.LASF50:
 3871 012d 725F6E65 		.ascii	"r_newer\000"
 3871      77657200 
 3872              	.LASF44:
 3873 0135 72656761 		.ascii	"regarm_t\000"
 3873      726D5F74 
 3873      00
 3874              	.LASF79:
ARM GAS  C:\Users\NICOMA~1\AppData\Local\Temp\ccPFLohD.s 			page 70


 3875 013e 6C696E6B 		.ascii	"link\000"
 3875      00
 3876              	.LASF88:
 3877 0143 63684F51 		.ascii	"chOQPutTimeout\000"
 3877      50757454 
 3877      696D656F 
 3877      757400
 3878              	.LASF82:
 3879 0152 63684951 		.ascii	"chIQPutI\000"
 3879      50757449 
 3879      00
 3880              	.LASF0:
 3881 015b 756E7369 		.ascii	"unsigned int\000"
 3881      676E6564 
 3881      20696E74 
 3881      00
 3882              	.LASF81:
 3883 0168 63684951 		.ascii	"chIQResetI\000"
 3883      52657365 
 3883      744900
 3884              	.LASF10:
 3885 0173 6C6F6E67 		.ascii	"long unsigned int\000"
 3885      20756E73 
 3885      69676E65 
 3885      6420696E 
 3885      7400
 3886              	.LASF46:
 3887 0185 636F6E74 		.ascii	"context\000"
 3887      65787400 
 3888              	.LASF77:
 3889 018d 73697A65 		.ascii	"size\000"
 3889      00
 3890              	.LASF6:
 3891 0192 73686F72 		.ascii	"short unsigned int\000"
 3891      7420756E 
 3891      7369676E 
 3891      65642069 
 3891      6E7400
 3892              	.LASF20:
 3893 01a5 6D73675F 		.ascii	"msg_t\000"
 3893      7400
 3894              	.LASF92:
 3895 01ab 2E2E2F2E 		.ascii	"../../os/kernel/src/chqueues.c\000"
 3895      2E2F6F73 
 3895      2F6B6572 
 3895      6E656C2F 
 3895      7372632F 
 3896              	.LASF43:
 3897 01ca 54687265 		.ascii	"ThreadsList\000"
 3897      6164734C 
 3897      69737400 
 3898              	.LASF21:
 3899 01d6 6576656E 		.ascii	"eventmask_t\000"
 3899      746D6173 
 3899      6B5F7400 
 3900              	.LASF74:
 3901 01e2 496E7075 		.ascii	"InputQueue\000"
ARM GAS  C:\Users\NICOMA~1\AppData\Local\Temp\ccPFLohD.s 			page 71


 3901      74517565 
 3901      756500
 3902              	.LASF54:
 3903 01ed 4D757465 		.ascii	"Mutex\000"
 3903      7800
 3904              	.LASF64:
 3905 01f3 47656E65 		.ascii	"GenericQueue\000"
 3905      72696351 
 3905      75657565 
 3905      00
 3906              	.LASF90:
 3907 0200 63684F51 		.ascii	"chOQWriteTimeout\000"
 3907      57726974 
 3907      6554696D 
 3907      656F7574 
 3907      00
 3908              	.LASF63:
 3909 0211 73697A65 		.ascii	"sizetype\000"
 3909      74797065 
 3909      00
 3910              	.LASF66:
 3911 021a 715F636F 		.ascii	"q_counter\000"
 3911      756E7465 
 3911      7200
 3912              	.LASF29:
 3913 0224 705F6F6C 		.ascii	"p_older\000"
 3913      64657200 
 3914              	.LASF49:
 3915 022c 725F6374 		.ascii	"r_ctx\000"
 3915      7800
 3916              	.LASF42:
 3917 0232 54687265 		.ascii	"ThreadsQueue\000"
 3917      61647351 
 3917      75657565 
 3917      00
 3918              	.LASF76:
 3919 023f 74696D65 		.ascii	"time\000"
 3919      00
 3920              	.LASF91:
 3921 0244 474E5520 		.ascii	"GNU C 4.7.2\000"
 3921      4320342E 
 3921      372E3200 
 3922              	.LASF52:
 3923 0250 725F6375 		.ascii	"r_current\000"
 3923      7272656E 
 3923      7400
 3924              	.LASF51:
 3925 025a 725F6F6C 		.ascii	"r_older\000"
 3925      64657200 
 3926              	.LASF17:
 3927 0262 74726566 		.ascii	"trefs_t\000"
 3927      735F7400 
 3928              	.LASF73:
 3929 026a 716E6F74 		.ascii	"qnotify_t\000"
 3929      6966795F 
 3929      7400
 3930              	.LASF25:
ARM GAS  C:\Users\NICOMA~1\AppData\Local\Temp\ccPFLohD.s 			page 72


 3931 0274 705F7072 		.ascii	"p_prev\000"
 3931      657600
 3932              	.LASF19:
 3933 027b 74707269 		.ascii	"tprio_t\000"
 3933      6F5F7400 
 3934              	.LASF70:
 3935 0283 715F7264 		.ascii	"q_rdptr\000"
 3935      70747200 
 3936              	.LASF14:
 3937 028b 5F426F6F 		.ascii	"_Bool\000"
 3937      6C00
 3938              	.LASF7:
 3939 0291 696E7433 		.ascii	"int32_t\000"
 3939      325F7400 
 3940              	.LASF4:
 3941 0299 756E7369 		.ascii	"unsigned char\000"
 3941      676E6564 
 3941      20636861 
 3941      7200
 3942              	.LASF40:
 3943 02a7 705F6D74 		.ascii	"p_mtxlist\000"
 3943      786C6973 
 3943      7400
 3944              	.LASF5:
 3945 02b1 73686F72 		.ascii	"short int\000"
 3945      7420696E 
 3945      7400
 3946              	.LASF31:
 3947 02bb 705F7374 		.ascii	"p_state\000"
 3947      61746500 
 3948              	.LASF34:
 3949 02c3 705F7072 		.ascii	"p_preempt\000"
 3949      65656D70 
 3949      7400
 3950              	.LASF48:
 3951 02cd 725F7072 		.ascii	"r_prio\000"
 3951      696F00
 3952              	.LASF61:
 3953 02d4 65776D61 		.ascii	"ewmask\000"
 3953      736B00
 3954              	.LASF24:
 3955 02db 705F6E65 		.ascii	"p_next\000"
 3955      787400
 3956              	.LASF15:
 3957 02e2 746D6F64 		.ascii	"tmode_t\000"
 3957      655F7400 
 3958              	.LASF32:
 3959 02ea 705F666C 		.ascii	"p_flags\000"
 3959      61677300 
 3960              	.LASF23:
 3961 02f2 54687265 		.ascii	"Thread\000"
 3961      616400
 3962              	.LASF39:
 3963 02f9 705F6570 		.ascii	"p_epending\000"
 3963      656E6469 
 3963      6E6700
 3964              	.LASF9:
ARM GAS  C:\Users\NICOMA~1\AppData\Local\Temp\ccPFLohD.s 			page 73


 3965 0304 75696E74 		.ascii	"uint32_t\000"
 3965      33325F74 
 3965      00
 3966              	.LASF47:
 3967 030d 725F7175 		.ascii	"r_queue\000"
 3967      65756500 
 3968              	.LASF99:
 3969 0315 63685363 		.ascii	"chSchReadyI\000"
 3969      68526561 
 3969      64794900 
 3970              	.LASF62:
 3971 0321 63686172 		.ascii	"char\000"
 3971      00
 3972              	.LASF95:
 3973 0326 6669666F 		.ascii	"fifo_remove\000"
 3973      5F72656D 
 3973      6F766500 
 3974              	.LASF57:
 3975 0332 6D5F6E65 		.ascii	"m_next\000"
 3975      787400
 3976              	.LASF22:
 3977 0339 73797374 		.ascii	"systime_t\000"
 3977      696D655F 
 3977      7400
 3978              	.LASF41:
 3979 0343 705F7265 		.ascii	"p_realprio\000"
 3979      616C7072 
 3979      696F00
 3980              	.LASF78:
 3981 034e 696E6679 		.ascii	"infy\000"
 3981      00
 3982              	.LASF87:
 3983 0353 63684F51 		.ascii	"chOQResetI\000"
 3983      52657365 
 3983      744900
 3984              	.LASF35:
 3985 035e 705F7469 		.ascii	"p_time\000"
 3985      6D6500
 3986              	.LASF45:
 3987 0365 696E7463 		.ascii	"intctx\000"
 3987      747800
 3988              	.LASF37:
 3989 036c 705F6D73 		.ascii	"p_msgqueue\000"
 3989      67717565 
 3989      756500
 3990              	.LASF68:
 3991 0377 715F746F 		.ascii	"q_top\000"
 3991      7000
 3992              	.LASF33:
 3993 037d 705F7265 		.ascii	"p_refs\000"
 3993      667300
 3994              	.LASF53:
 3995 0384 52656164 		.ascii	"ReadyList\000"
 3995      794C6973 
 3995      7400
 3996              	.LASF71:
 3997 038e 715F6E6F 		.ascii	"q_notify\000"
ARM GAS  C:\Users\NICOMA~1\AppData\Local\Temp\ccPFLohD.s 			page 74


 3997      74696679 
 3997      00
 3998              	.LASF97:
 3999 0397 726C6973 		.ascii	"rlist\000"
 3999      7400
 4000              	.LASF3:
 4001 039d 75696E74 		.ascii	"uint8_t\000"
 4001      385F7400 
 4002              	.LASF60:
 4003 03a5 77746F62 		.ascii	"wtobjp\000"
 4003      6A7000
 4004              	.LASF30:
 4005 03ac 705F6E61 		.ascii	"p_name\000"
 4005      6D6500
 4006              	.LASF98:
 4007 03b3 63685363 		.ascii	"chSchGoSleepTimeoutS\000"
 4007      68476F53 
 4007      6C656570 
 4007      54696D65 
 4007      6F757453 
 4008              	.LASF72:
 4009 03c8 715F6C69 		.ascii	"q_link\000"
 4009      6E6B00
 4010              	.LASF56:
 4011 03cf 6D5F6F77 		.ascii	"m_owner\000"
 4011      6E657200 
 4012              	.LASF27:
 4013 03d7 705F6374 		.ascii	"p_ctx\000"
 4013      7800
 4014              	.LASF36:
 4015 03dd 705F7761 		.ascii	"p_waiting\000"
 4015      6974696E 
 4015      6700
 4016              	.LASF83:
 4017 03e7 63684951 		.ascii	"chIQGetTimeout\000"
 4017      47657454 
 4017      696D656F 
 4017      757400
 4018              		.ident	"GCC: (GNU) 4.7.2"
ARM GAS  C:\Users\NICOMA~1\AppData\Local\Temp\ccPFLohD.s 			page 75


DEFINED SYMBOLS
                            *ABS*:00000000 chqueues.c
C:\Users\NICOMA~1\AppData\Local\Temp\ccPFLohD.s:17     .text.qwait:00000000 $a
C:\Users\NICOMA~1\AppData\Local\Temp\ccPFLohD.s:19     .text.qwait:00000000 qwait
C:\Users\NICOMA~1\AppData\Local\Temp\ccPFLohD.s:66     .text.qwait:00000038 $d
C:\Users\NICOMA~1\AppData\Local\Temp\ccPFLohD.s:71     .text.chIQInit:00000000 $a
C:\Users\NICOMA~1\AppData\Local\Temp\ccPFLohD.s:74     .text.chIQInit:00000000 chIQInit
C:\Users\NICOMA~1\AppData\Local\Temp\ccPFLohD.s:110    .text.chIQResetI:00000000 $a
C:\Users\NICOMA~1\AppData\Local\Temp\ccPFLohD.s:113    .text.chIQResetI:00000000 chIQResetI
C:\Users\NICOMA~1\AppData\Local\Temp\ccPFLohD.s:169    .text.chIQPutI:00000000 $a
C:\Users\NICOMA~1\AppData\Local\Temp\ccPFLohD.s:172    .text.chIQPutI:00000000 chIQPutI
C:\Users\NICOMA~1\AppData\Local\Temp\ccPFLohD.s:259    .text.chIQGetTimeout:00000000 $a
C:\Users\NICOMA~1\AppData\Local\Temp\ccPFLohD.s:262    .text.chIQGetTimeout:00000000 chIQGetTimeout
C:\Users\NICOMA~1\AppData\Local\Temp\ccPFLohD.s:348    .text.chIQReadTimeout:00000000 $a
C:\Users\NICOMA~1\AppData\Local\Temp\ccPFLohD.s:351    .text.chIQReadTimeout:00000000 chIQReadTimeout
C:\Users\NICOMA~1\AppData\Local\Temp\ccPFLohD.s:460    .text.chOQInit:00000000 $a
C:\Users\NICOMA~1\AppData\Local\Temp\ccPFLohD.s:463    .text.chOQInit:00000000 chOQInit
C:\Users\NICOMA~1\AppData\Local\Temp\ccPFLohD.s:496    .text.chOQResetI:00000000 $a
C:\Users\NICOMA~1\AppData\Local\Temp\ccPFLohD.s:499    .text.chOQResetI:00000000 chOQResetI
C:\Users\NICOMA~1\AppData\Local\Temp\ccPFLohD.s:558    .text.chOQPutTimeout:00000000 $a
C:\Users\NICOMA~1\AppData\Local\Temp\ccPFLohD.s:561    .text.chOQPutTimeout:00000000 chOQPutTimeout
C:\Users\NICOMA~1\AppData\Local\Temp\ccPFLohD.s:653    .text.chOQGetI:00000000 $a
C:\Users\NICOMA~1\AppData\Local\Temp\ccPFLohD.s:656    .text.chOQGetI:00000000 chOQGetI
C:\Users\NICOMA~1\AppData\Local\Temp\ccPFLohD.s:737    .text.chOQWriteTimeout:00000000 $a
C:\Users\NICOMA~1\AppData\Local\Temp\ccPFLohD.s:740    .text.chOQWriteTimeout:00000000 chOQWriteTimeout
                     .debug_frame:00000010 $d

UNDEFINED SYMBOLS
chSchGoSleepTimeoutS
rlist
chSchReadyI
