ARM GAS  C:\Users\NICOMA~1\AppData\Local\Temp\ccPFLohD.s 			page 1


   1              		.cpu arm1176jz-s
   2              		.fpu softvfp
   3              		.eabi_attribute 20, 1
   4              		.eabi_attribute 21, 1
   5              		.eabi_attribute 23, 3
   6              		.eabi_attribute 24, 1
   7              		.eabi_attribute 25, 1
   8              		.eabi_attribute 26, 1
   9              		.eabi_attribute 30, 2
  10              		.eabi_attribute 34, 1
  11              		.eabi_attribute 18, 4
  12              		.file	"chqueues.c"
  13              		.text
  14              	.Ltext0:
  15              		.cfi_sections	.debug_frame
  16              		.section	.text.qwait,"ax",%progbits
  17              		.align	2
  18              		.type	qwait, %function
  19              	qwait:
  20              	.LFB7:
  21              		.file 1 "../../os/kernel/src/chqueues.c"
  22              		.loc 1 70 0
  23              		.cfi_startproc
  24              		@ args = 0, pretend = 0, frame = 0
  25              		@ frame_needed = 0, uses_anonymous_args = 0
  26              		@ link register save eliminated.
  27              	.LVL0:
  28              		.loc 1 72 0
  29 0000 000051E3 		cmp	r1, #0
  30              		.loc 1 70 0
  31 0004 0020A0E1 		mov	r2, r0
  32              		.loc 1 72 0
  33 0008 0800000A 		beq	.L2
  34              		.loc 1 74 0
  35 000c 24309FE5 		ldr	r3, .L4
  36              		.loc 1 76 0
  37 0010 0D00A0E3 		mov	r0, #13
  38              	.LVL1:
  39              		.loc 1 74 0
  40 0014 183093E5 		ldr	r3, [r3, #24]
  41 0018 242083E5 		str	r2, [r3, #36]
  42              	.LVL2:
  43              	.LBB12:
  44              	.LBB13:
  45              		.file 2 "../../os/kernel/include/chinline.h"
  46              		.loc 2 55 0
  47 001c 04C092E5 		ldr	ip, [r2, #4]
  48 0020 041083E8 		stmia	r3, {r2, ip}
  49              		.loc 2 56 0
  50 0024 043082E5 		str	r3, [r2, #4]
  51 0028 00308CE5 		str	r3, [ip, #0]
  52              	.LBE13:
  53              	.LBE12:
  54              		.loc 1 77 0
  55              		.loc 1 76 0
  56 002c FEFFFFEA 		b	chSchGoSleepTimeoutS
  57              	.LVL3:
ARM GAS  C:\Users\NICOMA~1\AppData\Local\Temp\ccPFLohD.s 			page 2


  58              	.L2:
  59              		.loc 1 77 0
  60 0030 0000E0E3 		mvn	r0, #0
  61              	.LVL4:
  62 0034 1EFF2FE1 		bx	lr
  63              	.L5:
  64              		.align	2
  65              	.L4:
  66 0038 00000000 		.word	rlist
  67              		.cfi_endproc
  68              	.LFE7:
  69              		.size	qwait, .-qwait
  70              		.section	.text.chIQInit,"ax",%progbits
  71              		.align	2
  72              		.global	chIQInit
  73              		.type	chIQInit, %function
  74              	chIQInit:
  75              	.LFB8:
  76              		.loc 1 96 0
  77              		.cfi_startproc
  78              		@ args = 4, pretend = 0, frame = 0
  79              		@ frame_needed = 0, uses_anonymous_args = 0
  80              		@ link register save eliminated.
  81              	.LVL5:
  82              		.loc 1 102 0
  83 0000 1C3080E5 		str	r3, [r0, #28]
  84              		.loc 1 103 0
  85 0004 00309DE5 		ldr	r3, [sp, #0]
  86              	.LVL6:
  87              		.loc 1 101 0
  88 0008 022081E0 		add	r2, r1, r2
  89              	.LVL7:
  90              		.loc 1 99 0
  91 000c 00C0A0E3 		mov	ip, #0
  92              		.loc 1 98 0
  93 0010 040080E5 		str	r0, [r0, #4]
  94 0014 000080E5 		str	r0, [r0, #0]
  95              		.loc 1 99 0
  96 0018 08C080E5 		str	ip, [r0, #8]
  97              		.loc 1 100 0
  98 001c 141080E5 		str	r1, [r0, #20]
  99 0020 181080E5 		str	r1, [r0, #24]
 100 0024 0C1080E5 		str	r1, [r0, #12]
 101              		.loc 1 101 0
 102 0028 102080E5 		str	r2, [r0, #16]
 103              		.loc 1 103 0
 104 002c 203080E5 		str	r3, [r0, #32]
 105 0030 1EFF2FE1 		bx	lr
 106              		.cfi_endproc
 107              	.LFE8:
 108              		.size	chIQInit, .-chIQInit
 109              		.section	.text.chIQResetI,"ax",%progbits
 110              		.align	2
 111              		.global	chIQResetI
 112              		.type	chIQResetI, %function
 113              	chIQResetI:
 114              	.LFB9:
ARM GAS  C:\Users\NICOMA~1\AppData\Local\Temp\ccPFLohD.s 			page 3


 115              		.loc 1 117 0
 116              		.cfi_startproc
 117              		@ args = 0, pretend = 0, frame = 0
 118              		@ frame_needed = 0, uses_anonymous_args = 0
 119              	.LVL8:
 120 0000 38402DE9 		stmfd	sp!, {r3, r4, r5, lr}
 121              	.LCFI0:
 122              		.cfi_def_cfa_offset 16
 123              		.cfi_offset 3, -16
 124              		.cfi_offset 4, -12
 125              		.cfi_offset 5, -8
 126              		.cfi_offset 14, -4
 127              		.loc 1 117 0
 128 0004 0040A0E1 		mov	r4, r0
 129              		.loc 1 121 0
 130 0008 0C3094E5 		ldr	r3, [r4, #12]
 131              		.loc 1 123 0
 132 000c 000090E5 		ldr	r0, [r0, #0]
 133              	.LVL9:
 134              		.loc 1 121 0
 135 0010 143084E5 		str	r3, [r4, #20]
 136 0014 183084E5 		str	r3, [r4, #24]
 137              		.loc 1 123 0
 138 0018 040050E1 		cmp	r0, r4
 139              		.loc 1 122 0
 140 001c 0030A0E3 		mov	r3, #0
 141 0020 083084E5 		str	r3, [r4, #8]
 142              		.loc 1 123 0
 143 0024 3880BD08 		ldmeqfd	sp!, {r3, r4, r5, pc}
 144              		.loc 1 124 0
 145 0028 0150E0E3 		mvn	r5, #1
 146              	.L11:
 147              	.LVL10:
 148              	.LBB14:
 149              	.LBB15:
 150              		.loc 2 62 0
 151 002c 003090E5 		ldr	r3, [r0, #0]
 152 0030 003084E5 		str	r3, [r4, #0]
 153 0034 044083E5 		str	r4, [r3, #4]
 154              	.LBE15:
 155              	.LBE14:
 156              		.loc 1 124 0
 157 0038 FEFFFFEB 		bl	chSchReadyI
 158              	.LVL11:
 159 003c 245080E5 		str	r5, [r0, #36]
 160              		.loc 1 123 0
 161 0040 000094E5 		ldr	r0, [r4, #0]
 162 0044 040050E1 		cmp	r0, r4
 163 0048 F7FFFF1A 		bne	.L11
 164 004c 3880BDE8 		ldmfd	sp!, {r3, r4, r5, pc}
 165              		.cfi_endproc
 166              	.LFE9:
 167              		.size	chIQResetI, .-chIQResetI
 168              		.section	.text.chIQPutI,"ax",%progbits
 169              		.align	2
 170              		.global	chIQPutI
 171              		.type	chIQPutI, %function
ARM GAS  C:\Users\NICOMA~1\AppData\Local\Temp\ccPFLohD.s 			page 4


 172              	chIQPutI:
 173              	.LFB10:
 174              		.loc 1 140 0
 175              		.cfi_startproc
 176              		@ args = 0, pretend = 0, frame = 0
 177              		@ frame_needed = 0, uses_anonymous_args = 0
 178              	.LVL12:
 179              		.loc 1 144 0
 180 0000 142090E5 		ldr	r2, [r0, #20]
 181              		.loc 1 140 0
 182 0004 08402DE9 		stmfd	sp!, {r3, lr}
 183              	.LCFI1:
 184              		.cfi_def_cfa_offset 8
 185              		.cfi_offset 3, -8
 186              		.cfi_offset 14, -4
 187              		.loc 1 140 0
 188 0008 0030A0E1 		mov	r3, r0
 189              		.loc 1 144 0
 190 000c 180090E5 		ldr	r0, [r0, #24]
 191              	.LVL13:
 192 0010 000052E1 		cmp	r2, r0
 193 0014 080093E5 		ldr	r0, [r3, #8]
 194 0018 1800000A 		beq	.L22
 195              	.L16:
 196              		.loc 1 147 0
 197 001c 010080E2 		add	r0, r0, #1
 198 0020 080083E5 		str	r0, [r3, #8]
 199              		.loc 1 148 0
 200 0024 0110C2E4 		strb	r1, [r2], #1
 201              		.loc 1 149 0
 202 0028 101093E5 		ldr	r1, [r3, #16]
 203              	.LVL14:
 204              		.loc 1 148 0
 205 002c 142083E5 		str	r2, [r3, #20]
 206              		.loc 1 149 0
 207 0030 010052E1 		cmp	r2, r1
 208 0034 0A00002A 		bcs	.L17
 209              		.loc 1 152 0
 210 0038 000093E5 		ldr	r0, [r3, #0]
 211 003c 030050E1 		cmp	r0, r3
 212 0040 0C00000A 		beq	.L20
 213              	.L23:
 214              	.LVL15:
 215              	.LBB16:
 216              	.LBB17:
 217              		.loc 2 62 0
 218 0044 002090E5 		ldr	r2, [r0, #0]
 219 0048 002083E5 		str	r2, [r3, #0]
 220 004c 043082E5 		str	r3, [r2, #4]
 221              	.LBE17:
 222              	.LBE16:
 223              		.loc 1 153 0
 224 0050 FEFFFFEB 		bl	chSchReadyI
 225              	.LVL16:
 226 0054 0030A0E3 		mov	r3, #0
 227 0058 243080E5 		str	r3, [r0, #36]
 228              		.loc 1 155 0
ARM GAS  C:\Users\NICOMA~1\AppData\Local\Temp\ccPFLohD.s 			page 5


 229 005c 0300A0E1 		mov	r0, r3
 230 0060 0880BDE8 		ldmfd	sp!, {r3, pc}
 231              	.LVL17:
 232              	.L17:
 233              		.loc 1 152 0
 234 0064 000093E5 		ldr	r0, [r3, #0]
 235              		.loc 1 150 0
 236 0068 0C2093E5 		ldr	r2, [r3, #12]
 237              		.loc 1 152 0
 238 006c 030050E1 		cmp	r0, r3
 239              		.loc 1 150 0
 240 0070 142083E5 		str	r2, [r3, #20]
 241              		.loc 1 152 0
 242 0074 F2FFFF1A 		bne	.L23
 243              	.L20:
 244              		.loc 1 155 0
 245 0078 0000A0E3 		mov	r0, #0
 246 007c 0880BDE8 		ldmfd	sp!, {r3, pc}
 247              	.LVL18:
 248              	.L22:
 249              		.loc 1 144 0 discriminator 1
 250 0080 000050E3 		cmp	r0, #0
 251 0084 E4FFFF0A 		beq	.L16
 252              		.loc 1 145 0
 253 0088 0300E0E3 		mvn	r0, #3
 254 008c 0880BDE8 		ldmfd	sp!, {r3, pc}
 255              		.cfi_endproc
 256              	.LFE10:
 257              		.size	chIQPutI, .-chIQPutI
 258              		.section	.text.chIQGetTimeout,"ax",%progbits
 259              		.align	2
 260              		.global	chIQGetTimeout
 261              		.type	chIQGetTimeout, %function
 262              	chIQGetTimeout:
 263              	.LFB11:
 264              		.loc 1 178 0
 265              		.cfi_startproc
 266              		@ args = 0, pretend = 0, frame = 0
 267              		@ frame_needed = 0, uses_anonymous_args = 0
 268              	.LVL19:
 269 0000 38402DE9 		stmfd	sp!, {r3, r4, r5, lr}
 270              	.LCFI2:
 271              		.cfi_def_cfa_offset 16
 272              		.cfi_offset 3, -16
 273              		.cfi_offset 4, -12
 274              		.cfi_offset 5, -8
 275              		.cfi_offset 14, -4
 276              		.loc 1 178 0
 277 0004 0040A0E1 		mov	r4, r0
 278 0008 0150A0E1 		mov	r5, r1
 279              		.loc 1 181 0
 280              	@ 181 "../../os/kernel/src/chqueues.c" 1
 281 000c 9FF021E3 		msr     CPSR_c, #0x9F
 282              	@ 0 "" 2
 283              		.loc 1 182 0
 284 0010 1C3090E5 		ldr	r3, [r0, #28]
 285 0014 000053E3 		cmp	r3, #0
ARM GAS  C:\Users\NICOMA~1\AppData\Local\Temp\ccPFLohD.s 			page 6


 286 0018 0000000A 		beq	.L32
 287              		.loc 1 183 0
 288 001c 33FF2FE1 		blx	r3
 289              	.LVL20:
 290              	.L32:
 291              		.loc 1 185 0 discriminator 1
 292 0020 083094E5 		ldr	r3, [r4, #8]
 293              	.LBB18:
 294              		.loc 1 187 0 discriminator 1
 295 0024 0400A0E1 		mov	r0, r4
 296              	.LBE18:
 297              		.loc 1 185 0 discriminator 1
 298 0028 000053E3 		cmp	r3, #0
 299              	.LBB19:
 300              		.loc 1 187 0 discriminator 1
 301 002c 0510A0E1 		mov	r1, r5
 302              	.LBE19:
 303              		.loc 1 185 0 discriminator 1
 304 0030 0400001A 		bne	.L35
 305              	.LVL21:
 306              	.LBB20:
 307              		.loc 1 187 0
 308 0034 FEFFFFEB 		bl	qwait
 309              	.LVL22:
 310 0038 000050E3 		cmp	r0, #0
 311 003c F7FFFFAA 		bge	.L32
 312              	.LBE20:
 313              		.loc 1 198 0
 314              	@ 198 "../../os/kernel/src/chqueues.c" 1
 315 0040 1FF021E3 		msr     CPSR_c, #0x1F
 316              	@ 0 "" 2
 317              		.loc 1 200 0
 318 0044 3880BDE8 		ldmfd	sp!, {r3, r4, r5, pc}
 319              	.LVL23:
 320              	.L35:
 321              		.loc 1 194 0
 322 0048 182094E5 		ldr	r2, [r4, #24]
 323              		.loc 1 193 0
 324 004c 013043E2 		sub	r3, r3, #1
 325 0050 083084E5 		str	r3, [r4, #8]
 326              		.loc 1 194 0
 327 0054 0100D2E4 		ldrb	r0, [r2], #1	@ zero_extendqisi2
 328              	.LVL24:
 329              		.loc 1 195 0
 330 0058 103094E5 		ldr	r3, [r4, #16]
 331              		.loc 1 194 0
 332 005c 182084E5 		str	r2, [r4, #24]
 333              		.loc 1 195 0
 334 0060 030052E1 		cmp	r2, r3
 335              		.loc 1 196 0
 336 0064 0C309425 		ldrcs	r3, [r4, #12]
 337 0068 18308425 		strcs	r3, [r4, #24]
 338              		.loc 1 198 0
 339              	@ 198 "../../os/kernel/src/chqueues.c" 1
 340 006c 1FF021E3 		msr     CPSR_c, #0x1F
 341              	@ 0 "" 2
 342              		.loc 1 200 0
ARM GAS  C:\Users\NICOMA~1\AppData\Local\Temp\ccPFLohD.s 			page 7


 343 0070 3880BDE8 		ldmfd	sp!, {r3, r4, r5, pc}
 344              		.cfi_endproc
 345              	.LFE11:
 346              		.size	chIQGetTimeout, .-chIQGetTimeout
 347              		.section	.text.chIQReadTimeout,"ax",%progbits
 348              		.align	2
 349              		.global	chIQReadTimeout
 350              		.type	chIQReadTimeout, %function
 351              	chIQReadTimeout:
 352              	.LFB12:
 353              		.loc 1 227 0
 354              		.cfi_startproc
 355              		@ args = 0, pretend = 0, frame = 0
 356              		@ frame_needed = 0, uses_anonymous_args = 0
 357              	.LVL25:
 358 0000 F8452DE9 		stmfd	sp!, {r3, r4, r5, r6, r7, r8, sl, lr}
 359              	.LCFI3:
 360              		.cfi_def_cfa_offset 32
 361              		.cfi_offset 3, -32
 362              		.cfi_offset 4, -28
 363              		.cfi_offset 5, -24
 364              		.cfi_offset 6, -20
 365              		.cfi_offset 7, -16
 366              		.cfi_offset 8, -12
 367              		.cfi_offset 10, -8
 368              		.cfi_offset 14, -4
 369              		.loc 1 227 0
 370 0004 0040A0E1 		mov	r4, r0
 371 0008 0350A0E1 		mov	r5, r3
 372              		.loc 1 228 0
 373 000c 1C6090E5 		ldr	r6, [r0, #28]
 374              	.LVL26:
 375              		.loc 1 233 0
 376              	@ 233 "../../os/kernel/src/chqueues.c" 1
 377 0010 9FF021E3 		msr     CPSR_c, #0x9F
 378              	@ 0 "" 2
 379              		.loc 1 229 0
 380 0014 0070A0E3 		mov	r7, #0
 381              		.loc 1 226 0
 382 0018 018081E2 		add	r8, r1, #1
 383 001c 02A081E0 		add	sl, r1, r2
 384              	.LVL27:
 385              	.L42:
 386              		.loc 1 235 0
 387 0020 000056E3 		cmp	r6, #0
 388 0024 0100000A 		beq	.L47
 389              		.loc 1 236 0
 390 0028 0400A0E1 		mov	r0, r4
 391              	.LVL28:
 392 002c 36FF2FE1 		blx	r6
 393              	.LVL29:
 394              	.L47:
 395              		.loc 1 238 0 discriminator 1
 396 0030 08C094E5 		ldr	ip, [r4, #8]
 397              		.loc 1 239 0 discriminator 1
 398 0034 0400A0E1 		mov	r0, r4
 399              		.loc 1 238 0 discriminator 1
ARM GAS  C:\Users\NICOMA~1\AppData\Local\Temp\ccPFLohD.s 			page 8


 400 0038 00005CE3 		cmp	ip, #0
 401              		.loc 1 239 0 discriminator 1
 402 003c 0510A0E1 		mov	r1, r5
 403              		.loc 1 238 0 discriminator 1
 404 0040 0500001A 		bne	.L51
 405              	.LVL30:
 406              		.loc 1 239 0
 407 0044 FEFFFFEB 		bl	qwait
 408              	.LVL31:
 409 0048 000050E3 		cmp	r0, #0
 410 004c F7FFFF0A 		beq	.L47
 411              		.loc 1 240 0
 412              	@ 240 "../../os/kernel/src/chqueues.c" 1
 413 0050 1FF021E3 		msr     CPSR_c, #0x1F
 414              	@ 0 "" 2
 415              	.L39:
 416              		.loc 1 257 0
 417 0054 0700A0E1 		mov	r0, r7
 418 0058 F885BDE8 		ldmfd	sp!, {r3, r4, r5, r6, r7, r8, sl, pc}
 419              	.LVL32:
 420              	.L51:
 421              		.loc 1 246 0
 422 005c 183094E5 		ldr	r3, [r4, #24]
 423              		.loc 1 245 0
 424 0060 01C04CE2 		sub	ip, ip, #1
 425 0064 08C084E5 		str	ip, [r4, #8]
 426              		.loc 1 246 0
 427 0068 0120D3E4 		ldrb	r2, [r3], #1	@ zero_extendqisi2
 428 006c 012048E5 		strb	r2, [r8, #-1]
 429              		.loc 1 247 0
 430 0070 102094E5 		ldr	r2, [r4, #16]
 431              		.loc 1 246 0
 432 0074 183084E5 		str	r3, [r4, #24]
 433              		.loc 1 247 0
 434 0078 020053E1 		cmp	r3, r2
 435              		.loc 1 248 0
 436 007c 0C309425 		ldrcs	r3, [r4, #12]
 437 0080 18308425 		strcs	r3, [r4, #24]
 438              		.loc 1 250 0
 439              	@ 250 "../../os/kernel/src/chqueues.c" 1
 440 0084 1FF021E3 		msr     CPSR_c, #0x1F
 441              	@ 0 "" 2
 442              		.loc 1 252 0
 443 0088 0A0058E1 		cmp	r8, sl
 444              		.loc 1 251 0
 445 008c 017087E2 		add	r7, r7, #1
 446              	.LVL33:
 447              		.loc 1 252 0
 448 0090 EFFFFF0A 		beq	.L39
 449              		.loc 1 255 0
 450              	@ 255 "../../os/kernel/src/chqueues.c" 1
 451 0094 9FF021E3 		msr     CPSR_c, #0x9F
 452              	@ 0 "" 2
 453 0098 018088E2 		add	r8, r8, #1
 454              		.loc 1 256 0
 455 009c DFFFFFEA 		b	.L42
 456              		.cfi_endproc
ARM GAS  C:\Users\NICOMA~1\AppData\Local\Temp\ccPFLohD.s 			page 9


 457              	.LFE12:
 458              		.size	chIQReadTimeout, .-chIQReadTimeout
 459              		.section	.text.chOQInit,"ax",%progbits
 460              		.align	2
 461              		.global	chOQInit
 462              		.type	chOQInit, %function
 463              	chOQInit:
 464              	.LFB13:
 465              		.loc 1 276 0
 466              		.cfi_startproc
 467              		@ args = 4, pretend = 0, frame = 0
 468              		@ frame_needed = 0, uses_anonymous_args = 0
 469              		@ link register save eliminated.
 470              	.LVL34:
 471              		.loc 1 282 0
 472 0000 1C3080E5 		str	r3, [r0, #28]
 473              		.loc 1 283 0
 474 0004 00309DE5 		ldr	r3, [sp, #0]
 475              	.LVL35:
 476              		.loc 1 281 0
 477 0008 02C081E0 		add	ip, r1, r2
 478              		.loc 1 278 0
 479 000c 040080E5 		str	r0, [r0, #4]
 480 0010 000080E5 		str	r0, [r0, #0]
 481              		.loc 1 279 0
 482 0014 082080E5 		str	r2, [r0, #8]
 483              		.loc 1 280 0
 484 0018 141080E5 		str	r1, [r0, #20]
 485 001c 181080E5 		str	r1, [r0, #24]
 486 0020 0C1080E5 		str	r1, [r0, #12]
 487              		.loc 1 281 0
 488 0024 10C080E5 		str	ip, [r0, #16]
 489              		.loc 1 283 0
 490 0028 203080E5 		str	r3, [r0, #32]
 491 002c 1EFF2FE1 		bx	lr
 492              		.cfi_endproc
 493              	.LFE13:
 494              		.size	chOQInit, .-chOQInit
 495              		.section	.text.chOQResetI,"ax",%progbits
 496              		.align	2
 497              		.global	chOQResetI
 498              		.type	chOQResetI, %function
 499              	chOQResetI:
 500              	.LFB14:
 501              		.loc 1 297 0
 502              		.cfi_startproc
 503              		@ args = 0, pretend = 0, frame = 0
 504              		@ frame_needed = 0, uses_anonymous_args = 0
 505              	.LVL36:
 506 0000 38402DE9 		stmfd	sp!, {r3, r4, r5, lr}
 507              	.LCFI4:
 508              		.cfi_def_cfa_offset 16
 509              		.cfi_offset 3, -16
 510              		.cfi_offset 4, -12
 511              		.cfi_offset 5, -8
 512              		.cfi_offset 14, -4
 513              		.loc 1 302 0
ARM GAS  C:\Users\NICOMA~1\AppData\Local\Temp\ccPFLohD.s 			page 10


 514 0004 102090E5 		ldr	r2, [r0, #16]
 515              		.loc 1 297 0
 516 0008 0040A0E1 		mov	r4, r0
 517              		.loc 1 301 0
 518 000c 0C3090E5 		ldr	r3, [r0, #12]
 519              		.loc 1 303 0
 520 0010 000090E5 		ldr	r0, [r0, #0]
 521              	.LVL37:
 522              		.loc 1 302 0
 523 0014 022063E0 		rsb	r2, r3, r2
 524              		.loc 1 303 0
 525 0018 040050E1 		cmp	r0, r4
 526              		.loc 1 301 0
 527 001c 143084E5 		str	r3, [r4, #20]
 528 0020 183084E5 		str	r3, [r4, #24]
 529              		.loc 1 302 0
 530 0024 082084E5 		str	r2, [r4, #8]
 531              		.loc 1 303 0
 532 0028 3880BD08 		ldmeqfd	sp!, {r3, r4, r5, pc}
 533              		.loc 1 304 0
 534 002c 0150E0E3 		mvn	r5, #1
 535              	.L57:
 536              	.LVL38:
 537              	.LBB21:
 538              	.LBB22:
 539              		.loc 2 62 0
 540 0030 003090E5 		ldr	r3, [r0, #0]
 541 0034 003084E5 		str	r3, [r4, #0]
 542 0038 044083E5 		str	r4, [r3, #4]
 543              	.LBE22:
 544              	.LBE21:
 545              		.loc 1 304 0
 546 003c FEFFFFEB 		bl	chSchReadyI
 547              	.LVL39:
 548 0040 245080E5 		str	r5, [r0, #36]
 549              		.loc 1 303 0
 550 0044 000094E5 		ldr	r0, [r4, #0]
 551 0048 040050E1 		cmp	r0, r4
 552 004c F7FFFF1A 		bne	.L57
 553 0050 3880BDE8 		ldmfd	sp!, {r3, r4, r5, pc}
 554              		.cfi_endproc
 555              	.LFE14:
 556              		.size	chOQResetI, .-chOQResetI
 557              		.section	.text.chOQPutTimeout,"ax",%progbits
 558              		.align	2
 559              		.global	chOQPutTimeout
 560              		.type	chOQPutTimeout, %function
 561              	chOQPutTimeout:
 562              	.LFB15:
 563              		.loc 1 329 0
 564              		.cfi_startproc
 565              		@ args = 0, pretend = 0, frame = 0
 566              		@ frame_needed = 0, uses_anonymous_args = 0
 567              	.LVL40:
 568 0000 70402DE9 		stmfd	sp!, {r4, r5, r6, lr}
 569              	.LCFI5:
 570              		.cfi_def_cfa_offset 16
ARM GAS  C:\Users\NICOMA~1\AppData\Local\Temp\ccPFLohD.s 			page 11


 571              		.cfi_offset 4, -16
 572              		.cfi_offset 5, -12
 573              		.cfi_offset 6, -8
 574              		.cfi_offset 14, -4
 575              		.loc 1 329 0
 576 0004 0040A0E1 		mov	r4, r0
 577 0008 0160A0E1 		mov	r6, r1
 578 000c 0250A0E1 		mov	r5, r2
 579              		.loc 1 331 0
 580              	@ 331 "../../os/kernel/src/chqueues.c" 1
 581 0010 9FF021E3 		msr     CPSR_c, #0x9F
 582              	@ 0 "" 2
 583              	.LVL41:
 584              	.L60:
 585              		.loc 1 332 0 discriminator 1
 586 0014 083094E5 		ldr	r3, [r4, #8]
 587              	.LBB23:
 588              		.loc 1 335 0 discriminator 1
 589 0018 0400A0E1 		mov	r0, r4
 590              	.LBE23:
 591              		.loc 1 332 0 discriminator 1
 592 001c 000053E3 		cmp	r3, #0
 593              	.LBB24:
 594              		.loc 1 335 0 discriminator 1
 595 0020 0510A0E1 		mov	r1, r5
 596              	.LBE24:
 597              		.loc 1 332 0 discriminator 1
 598 0024 0400001A 		bne	.L69
 599              	.LVL42:
 600              	.LBB25:
 601              		.loc 1 335 0
 602 0028 FEFFFFEB 		bl	qwait
 603              	.LVL43:
 604 002c 000050E3 		cmp	r0, #0
 605 0030 F7FFFFAA 		bge	.L60
 606              		.loc 1 336 0
 607              	@ 336 "../../os/kernel/src/chqueues.c" 1
 608 0034 1FF021E3 		msr     CPSR_c, #0x1F
 609              	@ 0 "" 2
 610              		.loc 1 337 0
 611 0038 7080BDE8 		ldmfd	sp!, {r4, r5, r6, pc}
 612              	.LVL44:
 613              	.L69:
 614              	.LBE25:
 615              		.loc 1 342 0
 616 003c 142094E5 		ldr	r2, [r4, #20]
 617              		.loc 1 341 0
 618 0040 013043E2 		sub	r3, r3, #1
 619 0044 083084E5 		str	r3, [r4, #8]
 620              		.loc 1 342 0
 621 0048 0160C2E4 		strb	r6, [r2], #1
 622              		.loc 1 343 0
 623 004c 103094E5 		ldr	r3, [r4, #16]
 624              		.loc 1 342 0
 625 0050 142084E5 		str	r2, [r4, #20]
 626              		.loc 1 343 0
 627 0054 030052E1 		cmp	r2, r3
ARM GAS  C:\Users\NICOMA~1\AppData\Local\Temp\ccPFLohD.s 			page 12


 628              		.loc 1 344 0
 629 0058 0C309425 		ldrcs	r3, [r4, #12]
 630 005c 14308425 		strcs	r3, [r4, #20]
 631              		.loc 1 346 0
 632 0060 1C3094E5 		ldr	r3, [r4, #28]
 633 0064 000053E3 		cmp	r3, #0
 634 0068 0100000A 		beq	.L64
 635              		.loc 1 347 0
 636 006c 0400A0E1 		mov	r0, r4
 637              	.LVL45:
 638 0070 33FF2FE1 		blx	r3
 639              	.LVL46:
 640              	.L64:
 641              		.loc 1 349 0
 642              	@ 349 "../../os/kernel/src/chqueues.c" 1
 643 0074 1FF021E3 		msr     CPSR_c, #0x1F
 644              	@ 0 "" 2
 645              		.loc 1 350 0
 646 0078 0000A0E3 		mov	r0, #0
 647              		.loc 1 351 0
 648 007c 7080BDE8 		ldmfd	sp!, {r4, r5, r6, pc}
 649              		.cfi_endproc
 650              	.LFE15:
 651              		.size	chOQPutTimeout, .-chOQPutTimeout
 652              		.section	.text.chOQGetI,"ax",%progbits
 653              		.align	2
 654              		.global	chOQGetI
 655              		.type	chOQGetI, %function
 656              	chOQGetI:
 657              	.LFB16:
 658              		.loc 1 363 0
 659              		.cfi_startproc
 660              		@ args = 0, pretend = 0, frame = 0
 661              		@ frame_needed = 0, uses_anonymous_args = 0
 662              	.LVL47:
 663              		.loc 1 368 0
 664 0000 141090E5 		ldr	r1, [r0, #20]
 665 0004 182090E5 		ldr	r2, [r0, #24]
 666              		.loc 1 363 0
 667 0008 10402DE9 		stmfd	sp!, {r4, lr}
 668              	.LCFI6:
 669              		.cfi_def_cfa_offset 8
 670              		.cfi_offset 4, -8
 671              		.cfi_offset 14, -4
 672              		.loc 1 368 0
 673 000c 020051E1 		cmp	r1, r2
 674              		.loc 1 363 0
 675 0010 0030A0E1 		mov	r3, r0
 676              		.loc 1 368 0
 677 0014 081090E5 		ldr	r1, [r0, #8]
 678 0018 1400000A 		beq	.L79
 679              	.L73:
 680              		.loc 1 371 0
 681 001c 011081E2 		add	r1, r1, #1
 682 0020 081083E5 		str	r1, [r3, #8]
 683              		.loc 1 372 0
 684 0024 0140D2E4 		ldrb	r4, [r2], #1	@ zero_extendqisi2
ARM GAS  C:\Users\NICOMA~1\AppData\Local\Temp\ccPFLohD.s 			page 13


 685              	.LVL48:
 686              		.loc 1 373 0
 687 0028 101093E5 		ldr	r1, [r3, #16]
 688              		.loc 1 372 0
 689 002c 182083E5 		str	r2, [r3, #24]
 690              		.loc 1 373 0
 691 0030 010052E1 		cmp	r2, r1
 692 0034 0A00002A 		bcs	.L75
 693              	.L76:
 694              		.loc 1 376 0
 695 0038 000093E5 		ldr	r0, [r3, #0]
 696              	.LVL49:
 697 003c 030050E1 		cmp	r0, r3
 698 0040 0500000A 		beq	.L74
 699              	.LVL50:
 700              	.LBB26:
 701              	.LBB27:
 702              		.loc 2 62 0
 703 0044 002090E5 		ldr	r2, [r0, #0]
 704 0048 002083E5 		str	r2, [r3, #0]
 705 004c 043082E5 		str	r3, [r2, #4]
 706              	.LBE27:
 707              	.LBE26:
 708              		.loc 1 377 0
 709 0050 FEFFFFEB 		bl	chSchReadyI
 710              	.LVL51:
 711 0054 0030A0E3 		mov	r3, #0
 712 0058 243080E5 		str	r3, [r0, #36]
 713              	.LVL52:
 714              	.L74:
 715              		.loc 1 379 0
 716 005c 0400A0E1 		mov	r0, r4
 717 0060 1080BDE8 		ldmfd	sp!, {r4, pc}
 718              	.LVL53:
 719              	.L75:
 720              		.loc 1 374 0
 721 0064 0C2093E5 		ldr	r2, [r3, #12]
 722 0068 182083E5 		str	r2, [r3, #24]
 723 006c F1FFFFEA 		b	.L76
 724              	.LVL54:
 725              	.L79:
 726              		.loc 1 368 0 discriminator 1
 727 0070 000051E3 		cmp	r1, #0
 728 0074 E8FFFF0A 		beq	.L73
 729              		.loc 1 369 0
 730 0078 0200E0E3 		mvn	r0, #2
 731              	.LVL55:
 732 007c 1080BDE8 		ldmfd	sp!, {r4, pc}
 733              		.cfi_endproc
 734              	.LFE16:
 735              		.size	chOQGetI, .-chOQGetI
 736              		.section	.text.chOQWriteTimeout,"ax",%progbits
 737              		.align	2
 738              		.global	chOQWriteTimeout
 739              		.type	chOQWriteTimeout, %function
 740              	chOQWriteTimeout:
 741              	.LFB17:
ARM GAS  C:\Users\NICOMA~1\AppData\Local\Temp\ccPFLohD.s 			page 14


 742              		.loc 1 407 0
 743              		.cfi_startproc
 744              		@ args = 0, pretend = 0, frame = 0
 745              		@ frame_needed = 0, uses_anonymous_args = 0
 746              	.LVL56:
 747 0000 F8452DE9 		stmfd	sp!, {r3, r4, r5, r6, r7, r8, sl, lr}
 748              	.LCFI7:
 749              		.cfi_def_cfa_offset 32
 750              		.cfi_offset 3, -32
 751              		.cfi_offset 4, -28
 752              		.cfi_offset 5, -24
 753              		.cfi_offset 6, -20
 754              		.cfi_offset 7, -16
 755              		.cfi_offset 8, -12
 756              		.cfi_offset 10, -8
 757              		.cfi_offset 14, -4
 758              		.loc 1 407 0
 759 0004 0040A0E1 		mov	r4, r0
 760 0008 0170A0E1 		mov	r7, r1
 761 000c 0250A0E1 		mov	r5, r2
 762 0010 03A0A0E1 		mov	sl, r3
 763              		.loc 1 408 0
 764 0014 1C8090E5 		ldr	r8, [r0, #28]
 765              	.LVL57:
 766              		.loc 1 413 0
 767              	@ 413 "../../os/kernel/src/chqueues.c" 1
 768 0018 9FF021E3 		msr     CPSR_c, #0x9F
 769              	@ 0 "" 2
 770              		.loc 1 409 0
 771 001c 0060A0E3 		mov	r6, #0
 772              	.LVL58:
 773              	.L98:
 774              		.loc 1 415 0 discriminator 1
 775 0020 08C094E5 		ldr	ip, [r4, #8]
 776              		.loc 1 427 0 discriminator 1
 777 0024 0400A0E1 		mov	r0, r4
 778              		.loc 1 415 0 discriminator 1
 779 0028 00005CE3 		cmp	ip, #0
 780              		.loc 1 421 0 discriminator 1
 781 002c 01304CE2 		sub	r3, ip, #1
 782              		.loc 1 415 0 discriminator 1
 783 0030 1100000A 		beq	.L84
 784              	.LVL59:
 785              		.loc 1 421 0
 786 0034 083084E5 		str	r3, [r4, #8]
 787              		.loc 1 422 0
 788 0038 14C094E5 		ldr	ip, [r4, #20]
 789 003c 0130D7E4 		ldrb	r3, [r7], #1	@ zero_extendqisi2
 790              	.LVL60:
 791 0040 0130CCE4 		strb	r3, [ip], #1
 792              		.loc 1 423 0
 793 0044 103094E5 		ldr	r3, [r4, #16]
 794              		.loc 1 422 0
 795 0048 14C084E5 		str	ip, [r4, #20]
 796              	.LVL61:
 797              		.loc 1 423 0
 798 004c 03005CE1 		cmp	ip, r3
ARM GAS  C:\Users\NICOMA~1\AppData\Local\Temp\ccPFLohD.s 			page 15


 799              		.loc 1 424 0
 800 0050 0C309425 		ldrcs	r3, [r4, #12]
 801 0054 14308425 		strcs	r3, [r4, #20]
 802              		.loc 1 426 0
 803 0058 000058E3 		cmp	r8, #0
 804 005c 0000000A 		beq	.L86
 805              		.loc 1 427 0
 806 0060 38FF2FE1 		blx	r8
 807              	.LVL62:
 808              	.L86:
 809              		.loc 1 429 0
 810              	@ 429 "../../os/kernel/src/chqueues.c" 1
 811 0064 1FF021E3 		msr     CPSR_c, #0x1F
 812              	@ 0 "" 2
 813              		.loc 1 431 0
 814 0068 015055E2 		subs	r5, r5, #1
 815              	.LVL63:
 816              		.loc 1 430 0
 817 006c 016086E2 		add	r6, r6, #1
 818              	.LVL64:
 819              		.loc 1 431 0
 820 0070 0700000A 		beq	.L83
 821              		.loc 1 433 0
 822              	@ 433 "../../os/kernel/src/chqueues.c" 1
 823 0074 9FF021E3 		msr     CPSR_c, #0x9F
 824              	@ 0 "" 2
 825              		.loc 1 434 0
 826 0078 E8FFFFEA 		b	.L98
 827              	.LVL65:
 828              	.L84:
 829              		.loc 1 416 0
 830 007c 0400A0E1 		mov	r0, r4
 831              	.LVL66:
 832 0080 0A10A0E1 		mov	r1, sl
 833 0084 FEFFFFEB 		bl	qwait
 834              	.LVL67:
 835 0088 000050E3 		cmp	r0, #0
 836 008c E3FFFF0A 		beq	.L98
 837              		.loc 1 417 0
 838              	@ 417 "../../os/kernel/src/chqueues.c" 1
 839 0090 1FF021E3 		msr     CPSR_c, #0x1F
 840              	@ 0 "" 2
 841              	.LVL68:
 842              	.L83:
 843              		.loc 1 435 0
 844 0094 0600A0E1 		mov	r0, r6
 845 0098 F885BDE8 		ldmfd	sp!, {r3, r4, r5, r6, r7, r8, sl, pc}
 846              		.cfi_endproc
 847              	.LFE17:
 848              		.size	chOQWriteTimeout, .-chOQWriteTimeout
 849              		.text
 850              	.Letext0:
 851              		.file 3 "c:\\yagarto-20121222\\bin\\../lib/gcc/arm-none-eabi/4.7.2/include/stddef.h"
 852              		.file 4 "c:/yagarto-20121222/lib/gcc/../../arm-none-eabi/sys-include/stdint.h"
 853              		.file 5 "../../os/ports/GCC/ARM/chtypes.h"
 854              		.file 6 "../../os/kernel/include/chlists.h"
 855              		.file 7 "../../os/kernel/include/chthreads.h"
ARM GAS  C:\Users\NICOMA~1\AppData\Local\Temp\ccPFLohD.s 			page 16


 856              		.file 8 "../../os/ports/GCC/ARM/chcore.h"
 857              		.file 9 "../../os/kernel/include/chschd.h"
 858              		.file 10 "../../os/kernel/include/chmtx.h"
 859              		.file 11 "../../os/kernel/include/chqueues.h"