ARM GAS  C:\Users\NICOMA~1\AppData\Local\Temp\ccecnAv7.s 			page 1


   1              		.cpu arm1176jz-s
   2              		.fpu softvfp
   3              		.eabi_attribute 20, 1
   4              		.eabi_attribute 21, 1
   5              		.eabi_attribute 23, 3
   6              		.eabi_attribute 24, 1
   7              		.eabi_attribute 25, 1
   8              		.eabi_attribute 26, 1
   9              		.eabi_attribute 30, 2
  10              		.eabi_attribute 34, 1
  11              		.eabi_attribute 18, 4
  12              		.file	"chschd.c"
  13              		.text
  14              	.Ltext0:
  15              		.cfi_sections	.debug_frame
  16              		.section	.text.wakeup,"ax",%progbits
  17              		.align	2
  18              		.type	wakeup, %function
  19              	wakeup:
  20              	.LFB10:
  21              		.file 1 "../../os/kernel/src/chschd.c"
  22              		.loc 1 136 0
  23              		.cfi_startproc
  24              		@ args = 0, pretend = 0, frame = 0
  25              		@ frame_needed = 0, uses_anonymous_args = 0
  26              		@ link register save eliminated.
  27              	.LVL0:
  28              		.loc 1 140 0
  29 0000 1C30D0E5 		ldrb	r3, [r0, #28]	@ zero_extendqisi2
  30 0004 0D0053E3 		cmp	r3, #13
  31 0008 03F19F97 		ldrls	pc, [pc, r3, asl #2]
  32 000c 150000EA 		b	.L2
  33              	.L6:
  34 0010 A4000000 		.word	.L1
  35 0014 68000000 		.word	.L2
  36 0018 68000000 		.word	.L2
  37 001c 48000000 		.word	.L4
  38 0020 68000000 		.word	.L2
  39 0024 58000000 		.word	.L5
  40 0028 68000000 		.word	.L2
  41 002c 68000000 		.word	.L2
  42 0030 68000000 		.word	.L2
  43 0034 68000000 		.word	.L2
  44 0038 68000000 		.word	.L2
  45 003c 68000000 		.word	.L2
  46 0040 68000000 		.word	.L2
  47 0044 58000000 		.word	.L5
  48              	.L4:
  49              		.loc 1 150 0
  50 0048 243090E5 		ldr	r3, [r0, #36]
  51 004c 082093E5 		ldr	r2, [r3, #8]
  52 0050 012082E2 		add	r2, r2, #1
  53 0054 082083E5 		str	r2, [r3, #8]
  54              	.L5:
  55              	.LVL1:
  56              	.LBB19:
  57              	.LBB20:
ARM GAS  C:\Users\NICOMA~1\AppData\Local\Temp\ccecnAv7.s 			page 2


  58              		.file 2 "../../os/kernel/include/chinline.h"
  59              		.loc 2 75 0
  60 0058 0C0090E8 		ldmia	r0, {r2, r3}
  61 005c 002083E5 		str	r2, [r3, #0]
  62              		.loc 2 76 0
  63 0060 002090E5 		ldr	r2, [r0, #0]
  64 0064 043082E5 		str	r3, [r2, #4]
  65              	.LVL2:
  66              	.L2:
  67              	.LBE20:
  68              	.LBE19:
  69              		.loc 1 163 0
  70 0068 0020E0E3 		mvn	r2, #0
  71 006c 242080E5 		str	r2, [r0, #36]
  72              	.LVL3:
  73 0070 081090E5 		ldr	r1, [r0, #8]
  74              	.LBB21:
  75              	.LBB22:
  76              		.loc 1 92 0
  77 0074 0020A0E3 		mov	r2, #0
  78              		.loc 1 93 0
  79 0078 28309FE5 		ldr	r3, .L10
  80              		.loc 1 92 0
  81 007c 1C20C0E5 		strb	r2, [r0, #28]
  82              	.LVL4:
  83              	.L7:
  84              		.loc 1 95 0
  85 0080 003093E5 		ldr	r3, [r3, #0]
  86              	.LVL5:
  87              		.loc 1 96 0
  88 0084 082093E5 		ldr	r2, [r3, #8]
  89 0088 010052E1 		cmp	r2, r1
  90 008c FBFFFF2A 		bcs	.L7
  91              		.loc 1 99 0
  92 0090 042093E5 		ldr	r2, [r3, #4]
  93              		.loc 1 98 0
  94 0094 003080E5 		str	r3, [r0, #0]
  95              		.loc 1 99 0
  96 0098 042080E5 		str	r2, [r0, #4]
  97              		.loc 1 100 0
  98 009c 000082E5 		str	r0, [r2, #0]
  99 00a0 040083E5 		str	r0, [r3, #4]
 100              	.LVL6:
 101              	.L1:
 102 00a4 1EFF2FE1 		bx	lr
 103              	.L11:
 104              		.align	2
 105              	.L10:
 106 00a8 00000000 		.word	rlist
 107              	.LBE22:
 108              	.LBE21:
 109              		.cfi_endproc
 110              	.LFE10:
 111              		.size	wakeup, .-wakeup
 112              		.section	.text._scheduler_init,"ax",%progbits
 113              		.align	2
 114              		.global	_scheduler_init
ARM GAS  C:\Users\NICOMA~1\AppData\Local\Temp\ccecnAv7.s 			page 3


 115              		.type	_scheduler_init, %function
 116              	_scheduler_init:
 117              	.LFB7:
 118              		.loc 1 55 0
 119              		.cfi_startproc
 120              		@ args = 0, pretend = 0, frame = 0
 121              		@ frame_needed = 0, uses_anonymous_args = 0
 122              		@ link register save eliminated.
 123              		.loc 1 57 0
 124 0000 18309FE5 		ldr	r3, .L13
 125              		.loc 1 58 0
 126 0004 0020A0E3 		mov	r2, #0
 127              		.loc 1 57 0
 128 0008 043083E5 		str	r3, [r3, #4]
 129 000c 003083E5 		str	r3, [r3, #0]
 130              		.loc 1 58 0
 131 0010 082083E5 		str	r2, [r3, #8]
 132              		.loc 1 60 0
 133 0014 143083E5 		str	r3, [r3, #20]
 134 0018 103083E5 		str	r3, [r3, #16]
 135 001c 1EFF2FE1 		bx	lr
 136              	.L14:
 137              		.align	2
 138              	.L13:
 139 0020 00000000 		.word	rlist
 140              		.cfi_endproc
 141              	.LFE7:
 142              		.size	_scheduler_init, .-_scheduler_init
 143              		.section	.text.chSchReadyI,"ax",%progbits
 144              		.align	2
 145              		.global	chSchReadyI
 146              		.type	chSchReadyI, %function
 147              	chSchReadyI:
 148              	.LFB8:
 149              		.loc 1 81 0
 150              		.cfi_startproc
 151              		@ args = 0, pretend = 0, frame = 0
 152              		@ frame_needed = 0, uses_anonymous_args = 0
 153              		@ link register save eliminated.
 154              	.LVL7:
 155              		.loc 1 92 0
 156 0000 0020A0E3 		mov	r2, #0
 157 0004 081090E5 		ldr	r1, [r0, #8]
 158              		.loc 1 93 0
 159 0008 28309FE5 		ldr	r3, .L18
 160              		.loc 1 92 0
 161 000c 1C20C0E5 		strb	r2, [r0, #28]
 162              	.LVL8:
 163              	.L16:
 164              		.loc 1 95 0 discriminator 1
 165 0010 003093E5 		ldr	r3, [r3, #0]
 166              	.LVL9:
 167              		.loc 1 96 0 discriminator 1
 168 0014 082093E5 		ldr	r2, [r3, #8]
 169 0018 010052E1 		cmp	r2, r1
 170 001c FBFFFF2A 		bcs	.L16
 171              		.loc 1 99 0
ARM GAS  C:\Users\NICOMA~1\AppData\Local\Temp\ccecnAv7.s 			page 4


 172 0020 042093E5 		ldr	r2, [r3, #4]
 173              		.loc 1 98 0
 174 0024 003080E5 		str	r3, [r0, #0]
 175              		.loc 1 99 0
 176 0028 042080E5 		str	r2, [r0, #4]
 177              		.loc 1 100 0
 178 002c 000082E5 		str	r0, [r2, #0]
 179 0030 040083E5 		str	r0, [r3, #4]
 180              		.loc 1 102 0
 181 0034 1EFF2FE1 		bx	lr
 182              	.L19:
 183              		.align	2
 184              	.L18:
 185 0038 00000000 		.word	rlist
 186              		.cfi_endproc
 187              	.LFE8:
 188              		.size	chSchReadyI, .-chSchReadyI
 189              		.section	.text.chSchGoSleepS,"ax",%progbits
 190              		.align	2
 191              		.global	chSchGoSleepS
 192              		.type	chSchGoSleepS, %function
 193              	chSchGoSleepS:
 194              	.LFB9:
 195              		.loc 1 115 0
 196              		.cfi_startproc
 197              		@ args = 0, pretend = 0, frame = 0
 198              		@ frame_needed = 0, uses_anonymous_args = 0
 199              		@ link register save eliminated.
 200              	.LVL10:
 201              		.loc 1 120 0
 202 0000 30309FE5 		ldr	r3, .L21
 203 0004 181093E5 		ldr	r1, [r3, #24]
 204              	.LVL11:
 205              	.LBB23:
 206              	.LBB24:
 207              		.loc 2 60 0
 208 0008 002093E5 		ldr	r2, [r3, #0]
 209              	.LBE24:
 210              	.LBE23:
 211              		.loc 1 120 0
 212 000c 1C00C1E5 		strb	r0, [r1, #28]
 213              		.loc 1 124 0
 214 0010 1400A0E3 		mov	r0, #20
 215              	.LVL12:
 216              	.LBB27:
 217              	.LBB25:
 218              		.loc 2 62 0
 219 0014 00C092E5 		ldr	ip, [r2, #0]
 220              	.LBE25:
 221              	.LBE27:
 222              		.loc 1 124 0
 223 0018 1F00C1E5 		strb	r0, [r1, #31]
 224              	.LVL13:
 225              		.loc 1 127 0
 226 001c 0100A0E3 		mov	r0, #1
 227 0020 1C00C2E5 		strb	r0, [r2, #28]
 228              		.loc 1 128 0
ARM GAS  C:\Users\NICOMA~1\AppData\Local\Temp\ccecnAv7.s 			page 5


 229 0024 0200A0E1 		mov	r0, r2
 230              	.LBB28:
 231              	.LBB26:
 232              		.loc 2 62 0
 233 0028 04308CE5 		str	r3, [ip, #4]
 234 002c 00C083E5 		str	ip, [r3, #0]
 235              	.LBE26:
 236              	.LBE28:
 237              		.loc 1 126 0
 238 0030 182083E5 		str	r2, [r3, #24]
 239              		.loc 1 129 0
 240              		.loc 1 128 0
 241 0034 FEFFFFEA 		b	_port_switch_arm
 242              	.LVL14:
 243              	.L22:
 244              		.align	2
 245              	.L21:
 246 0038 00000000 		.word	rlist
 247              		.cfi_endproc
 248              	.LFE9:
 249              		.size	chSchGoSleepS, .-chSchGoSleepS
 250              		.section	.text.chSchGoSleepTimeoutS,"ax",%progbits
 251              		.align	2
 252              		.global	chSchGoSleepTimeoutS
 253              		.type	chSchGoSleepTimeoutS, %function
 254              	chSchGoSleepTimeoutS:
 255              	.LFB11:
 256              		.loc 1 189 0
 257              		.cfi_startproc
 258              		@ args = 0, pretend = 0, frame = 24
 259              		@ frame_needed = 0, uses_anonymous_args = 0
 260              	.LVL15:
 261 0000 30402DE9 		stmfd	sp!, {r4, r5, lr}
 262              	.LCFI0:
 263              		.cfi_def_cfa_offset 12
 264              		.cfi_offset 4, -12
 265              		.cfi_offset 5, -8
 266              		.cfi_offset 14, -4
 267              		.loc 1 193 0
 268 0004 010071E3 		cmn	r1, #1
 269              		.loc 1 189 0
 270 0008 1CD04DE2 		sub	sp, sp, #28
 271              	.LCFI1:
 272              		.cfi_def_cfa_offset 40
 273              		.loc 1 189 0
 274 000c 0050A0E1 		mov	r5, r0
 275              		.loc 1 193 0
 276 0010 0F00000A 		beq	.L24
 277              	.LBB29:
 278              		.loc 1 196 0
 279 0014 44409FE5 		ldr	r4, .L30
 280 0018 44209FE5 		ldr	r2, .L30+4
 281 001c 183094E5 		ldr	r3, [r4, #24]
 282 0020 04008DE2 		add	r0, sp, #4
 283              	.LVL16:
 284 0024 FEFFFFEB 		bl	chVTSetI
 285              	.LVL17:
ARM GAS  C:\Users\NICOMA~1\AppData\Local\Temp\ccecnAv7.s 			page 6


 286              		.loc 1 197 0
 287 0028 0500A0E1 		mov	r0, r5
 288 002c FEFFFFEB 		bl	chSchGoSleepS
 289              	.LVL18:
 290              		.loc 1 198 0
 291 0030 10309DE5 		ldr	r3, [sp, #16]
 292 0034 000053E3 		cmp	r3, #0
 293 0038 0100000A 		beq	.L26
 294              		.loc 1 199 0
 295 003c 04008DE2 		add	r0, sp, #4
 296 0040 FEFFFFEB 		bl	chVTResetI
 297              	.LVL19:
 298              	.L26:
 299              	.LBE29:
 300              		.loc 1 203 0
 301 0044 183094E5 		ldr	r3, [r4, #24]
 302              		.loc 1 204 0
 303 0048 240093E5 		ldr	r0, [r3, #36]
 304 004c 1CD08DE2 		add	sp, sp, #28
 305 0050 3080BDE8 		ldmfd	sp!, {r4, r5, pc}
 306              	.LVL20:
 307              	.L24:
 308              		.loc 1 202 0
 309 0054 FEFFFFEB 		bl	chSchGoSleepS
 310              	.LVL21:
 311 0058 00409FE5 		ldr	r4, .L30
 312 005c F8FFFFEA 		b	.L26
 313              	.L31:
 314              		.align	2
 315              	.L30:
 316 0060 00000000 		.word	rlist
 317 0064 00000000 		.word	wakeup
 318              		.cfi_endproc
 319              	.LFE11:
 320              		.size	chSchGoSleepTimeoutS, .-chSchGoSleepTimeoutS
 321              		.section	.text.chSchWakeupS,"ax",%progbits
 322              		.align	2
 323              		.global	chSchWakeupS
 324              		.type	chSchWakeupS, %function
 325              	chSchWakeupS:
 326              	.LFB12:
 327              		.loc 1 225 0
 328              		.cfi_startproc
 329              		@ args = 0, pretend = 0, frame = 0
 330              		@ frame_needed = 0, uses_anonymous_args = 0
 331              		@ link register save eliminated.
 332              	.LVL22:
 333 0000 70002DE9 		stmfd	sp!, {r4, r5, r6}
 334              	.LCFI2:
 335              		.cfi_def_cfa_offset 12
 336              		.cfi_offset 4, -12
 337              		.cfi_offset 5, -8
 338              		.cfi_offset 6, -4
 339              		.loc 1 234 0
 340 0004 98609FE5 		ldr	r6, .L40
 341              		.loc 1 225 0
 342 0008 00C0A0E1 		mov	ip, r0
ARM GAS  C:\Users\NICOMA~1\AppData\Local\Temp\ccecnAv7.s 			page 7


 343              		.loc 1 234 0
 344 000c 185096E5 		ldr	r5, [r6, #24]
 345 0010 084090E5 		ldr	r4, [r0, #8]
 346 0014 080095E5 		ldr	r0, [r5, #8]
 347              	.LVL23:
 348              		.loc 1 229 0
 349 0018 24108CE5 		str	r1, [ip, #36]
 350              		.loc 1 234 0
 351 001c 000054E1 		cmp	r4, r0
 352              	.LBB30:
 353              	.LBB31:
 354              		.loc 1 92 0
 355 0020 0030A0E3 		mov	r3, #0
 356              	.LBE31:
 357              	.LBE30:
 358              		.loc 1 234 0
 359 0024 0C00008A 		bhi	.L33
 360              	.LVL24:
 361              	.LBB33:
 362              	.LBB32:
 363              		.loc 1 92 0
 364 0028 1C30CCE5 		strb	r3, [ip, #28]
 365              	.LVL25:
 366              		.loc 1 93 0
 367 002c 0630A0E1 		mov	r3, r6
 368              	.LVL26:
 369              	.L34:
 370              		.loc 1 95 0
 371 0030 003093E5 		ldr	r3, [r3, #0]
 372              	.LVL27:
 373              		.loc 1 96 0
 374 0034 082093E5 		ldr	r2, [r3, #8]
 375 0038 020054E1 		cmp	r4, r2
 376 003c FBFFFF9A 		bls	.L34
 377              		.loc 1 99 0
 378 0040 042093E5 		ldr	r2, [r3, #4]
 379              		.loc 1 98 0
 380 0044 00308CE5 		str	r3, [ip, #0]
 381              		.loc 1 99 0
 382 0048 04208CE5 		str	r2, [ip, #4]
 383              		.loc 1 100 0
 384 004c 00C082E5 		str	ip, [r2, #0]
 385 0050 04C083E5 		str	ip, [r3, #4]
 386              	.LBE32:
 387              	.LBE33:
 388              		.loc 1 242 0
 389 0054 7000BDE8 		ldmfd	sp!, {r4, r5, r6}
 390 0058 1EFF2FE1 		bx	lr
 391              	.LVL28:
 392              	.L33:
 393              	.LBB34:
 394              	.LBB35:
 395              	.LBB36:
 396              		.loc 1 92 0
 397 005c 1C30C5E5 		strb	r3, [r5, #28]
 398              	.LVL29:
 399              		.loc 1 93 0
ARM GAS  C:\Users\NICOMA~1\AppData\Local\Temp\ccecnAv7.s 			page 8


 400 0060 0630A0E1 		mov	r3, r6
 401              	.LVL30:
 402              	.L36:
 403              		.loc 1 95 0
 404 0064 003093E5 		ldr	r3, [r3, #0]
 405              	.LVL31:
 406              		.loc 1 96 0
 407 0068 082093E5 		ldr	r2, [r3, #8]
 408 006c 020050E1 		cmp	r0, r2
 409 0070 FBFFFF9A 		bls	.L36
 410              		.loc 1 99 0
 411 0074 042093E5 		ldr	r2, [r3, #4]
 412              		.loc 1 98 0
 413 0078 003085E5 		str	r3, [r5, #0]
 414              		.loc 1 99 0
 415 007c 042085E5 		str	r2, [r5, #4]
 416              	.LBE36:
 417              	.LBE35:
 418              		.loc 1 240 0
 419 0080 0C00A0E1 		mov	r0, ip
 420              	.LBB39:
 421              	.LBB37:
 422              		.loc 1 100 0
 423 0084 045083E5 		str	r5, [r3, #4]
 424              	.LBE37:
 425              	.LBE39:
 426              		.loc 1 240 0
 427 0088 0510A0E1 		mov	r1, r5
 428              	.LVL32:
 429              		.loc 1 239 0
 430 008c 0130A0E3 		mov	r3, #1
 431              	.LVL33:
 432              	.LBB40:
 433              	.LBB38:
 434              		.loc 1 100 0
 435 0090 005082E5 		str	r5, [r2, #0]
 436              	.LBE38:
 437              	.LBE40:
 438              		.loc 1 239 0
 439 0094 1C30CCE5 		strb	r3, [ip, #28]
 440              		.loc 1 238 0
 441 0098 18C086E5 		str	ip, [r6, #24]
 442              	.LBE34:
 443              		.loc 1 242 0
 444 009c 7000BDE8 		ldmfd	sp!, {r4, r5, r6}
 445              	.LBB41:
 446              		.loc 1 240 0
 447 00a0 FEFFFFEA 		b	_port_switch_arm
 448              	.LVL34:
 449              	.L41:
 450              		.align	2
 451              	.L40:
 452 00a4 00000000 		.word	rlist
 453              	.LBE41:
 454              		.cfi_endproc
 455              	.LFE12:
 456              		.size	chSchWakeupS, .-chSchWakeupS
ARM GAS  C:\Users\NICOMA~1\AppData\Local\Temp\ccecnAv7.s 			page 9


 457              		.section	.text.chSchIsPreemptionRequired,"ax",%progbits
 458              		.align	2
 459              		.global	chSchIsPreemptionRequired
 460              		.type	chSchIsPreemptionRequired, %function
 461              	chSchIsPreemptionRequired:
 462              	.LFB14:
 463              		.loc 1 276 0
 464              		.cfi_startproc
 465              		@ args = 0, pretend = 0, frame = 0
 466              		@ frame_needed = 0, uses_anonymous_args = 0
 467              		@ link register save eliminated.
 468              		.loc 1 277 0
 469 0000 38209FE5 		ldr	r2, .L46
 470              		.loc 1 278 0
 471 0004 183092E5 		ldr	r3, [r2, #24]
 472              		.loc 1 277 0
 473 0008 001092E5 		ldr	r1, [r2, #0]
 474              		.loc 1 284 0
 475 000c 1F20D3E5 		ldrb	r2, [r3, #31]	@ zero_extendqisi2
 476              		.loc 1 277 0
 477 0010 080091E5 		ldr	r0, [r1, #8]
 478              	.LVL35:
 479              		.loc 1 284 0
 480 0014 000052E3 		cmp	r2, #0
 481              		.loc 1 278 0
 482 0018 083093E5 		ldr	r3, [r3, #8]
 483              	.LVL36:
 484              		.loc 1 284 0
 485 001c 0300001A 		bne	.L45
 486              		.loc 1 284 0 is_stmt 0 discriminator 2
 487 0020 030050E1 		cmp	r0, r3
 488 0024 0000A033 		movcc	r0, #0
 489              	.LVL37:
 490 0028 0100A023 		movcs	r0, #1
 491              		.loc 1 290 0 is_stmt 1 discriminator 2
 492 002c 1EFF2FE1 		bx	lr
 493              	.LVL38:
 494              	.L45:
 495              		.loc 1 284 0 discriminator 1
 496 0030 030050E1 		cmp	r0, r3
 497 0034 0000A093 		movls	r0, #0
 498              	.LVL39:
 499 0038 0100A083 		movhi	r0, #1
 500 003c 1EFF2FE1 		bx	lr
 501              	.L47:
 502              		.align	2
 503              	.L46:
 504 0040 00000000 		.word	rlist
 505              		.cfi_endproc
 506              	.LFE14:
 507              		.size	chSchIsPreemptionRequired, .-chSchIsPreemptionRequired
 508              		.section	.text.chSchDoRescheduleBehind,"ax",%progbits
 509              		.align	2
 510              		.global	chSchDoRescheduleBehind
 511              		.type	chSchDoRescheduleBehind, %function
 512              	chSchDoRescheduleBehind:
 513              	.LFB15:
ARM GAS  C:\Users\NICOMA~1\AppData\Local\Temp\ccecnAv7.s 			page 10


 514              		.loc 1 304 0
 515              		.cfi_startproc
 516              		@ args = 0, pretend = 0, frame = 0
 517              		@ frame_needed = 0, uses_anonymous_args = 0
 518              		@ link register save eliminated.
 519              		.loc 1 307 0
 520 0000 68309FE5 		ldr	r3, .L52
 521              		.loc 1 304 0
 522 0004 04402DE5 		str	r4, [sp, #-4]!
 523              	.LCFI3:
 524              		.cfi_def_cfa_offset 4
 525              		.cfi_offset 4, -4
 526              	.LBB42:
 527              	.LBB43:
 528              		.loc 2 60 0
 529 0008 000093E5 		ldr	r0, [r3, #0]
 530              	.LBE43:
 531              	.LBE42:
 532              		.loc 1 307 0
 533 000c 181093E5 		ldr	r1, [r3, #24]
 534              	.LVL40:
 535              	.LBB45:
 536              	.LBB44:
 537              		.loc 2 62 0
 538 0010 002090E5 		ldr	r2, [r0, #0]
 539 0014 08C091E5 		ldr	ip, [r1, #8]
 540 0018 043082E5 		str	r3, [r2, #4]
 541 001c 002083E5 		str	r2, [r3, #0]
 542              	.LBE44:
 543              	.LBE45:
 544              		.loc 1 309 0
 545 0020 180083E5 		str	r0, [r3, #24]
 546              		.loc 1 312 0
 547 0024 1430A0E3 		mov	r3, #20
 548              		.loc 1 310 0
 549 0028 0140A0E3 		mov	r4, #1
 550              		.loc 1 312 0
 551 002c 1F30C1E5 		strb	r3, [r1, #31]
 552              	.LVL41:
 553              	.LBB46:
 554              	.LBB47:
 555              		.loc 1 92 0
 556 0030 0030A0E3 		mov	r3, #0
 557              	.LBE47:
 558              	.LBE46:
 559              		.loc 1 310 0
 560 0034 1C40C0E5 		strb	r4, [r0, #28]
 561              	.LBB49:
 562              	.LBB48:
 563              		.loc 1 92 0
 564 0038 1C30C1E5 		strb	r3, [r1, #28]
 565              	.LVL42:
 566 003c 0030A0E1 		mov	r3, r0
 567 0040 000000EA 		b	.L50
 568              	.LVL43:
 569              	.L51:
 570 0044 003093E5 		ldr	r3, [r3, #0]
ARM GAS  C:\Users\NICOMA~1\AppData\Local\Temp\ccecnAv7.s 			page 11


 571              	.LVL44:
 572              	.L50:
 573              		.loc 1 96 0
 574 0048 082093E5 		ldr	r2, [r3, #8]
 575 004c 0C0052E1 		cmp	r2, ip
 576 0050 FBFFFF2A 		bcs	.L51
 577              		.loc 1 99 0
 578 0054 042093E5 		ldr	r2, [r3, #4]
 579              		.loc 1 98 0
 580 0058 003081E5 		str	r3, [r1, #0]
 581              		.loc 1 99 0
 582 005c 042081E5 		str	r2, [r1, #4]
 583              		.loc 1 100 0
 584 0060 001082E5 		str	r1, [r2, #0]
 585 0064 041083E5 		str	r1, [r3, #4]
 586              	.LBE48:
 587              	.LBE49:
 588              		.loc 1 316 0
 589 0068 1000BDE8 		ldmfd	sp!, {r4}
 590              		.loc 1 315 0
 591 006c FEFFFFEA 		b	_port_switch_arm
 592              	.LVL45:
 593              	.L53:
 594              		.align	2
 595              	.L52:
 596 0070 00000000 		.word	rlist
 597              		.cfi_endproc
 598              	.LFE15:
 599              		.size	chSchDoRescheduleBehind, .-chSchDoRescheduleBehind
 600              		.section	.text.chSchDoRescheduleAhead,"ax",%progbits
 601              		.align	2
 602              		.global	chSchDoRescheduleAhead
 603              		.type	chSchDoRescheduleAhead, %function
 604              	chSchDoRescheduleAhead:
 605              	.LFB16:
 606              		.loc 1 329 0
 607              		.cfi_startproc
 608              		@ args = 0, pretend = 0, frame = 0
 609              		@ frame_needed = 0, uses_anonymous_args = 0
 610              		@ link register save eliminated.
 611              		.loc 1 332 0
 612 0000 60309FE5 		ldr	r3, .L58
 613              		.loc 1 329 0
 614 0004 04402DE5 		str	r4, [sp, #-4]!
 615              	.LCFI4:
 616              		.cfi_def_cfa_offset 4
 617              		.cfi_offset 4, -4
 618              	.LBB50:
 619              	.LBB51:
 620              		.loc 2 60 0
 621 0008 000093E5 		ldr	r0, [r3, #0]
 622              	.LBE51:
 623              	.LBE50:
 624              		.loc 1 332 0
 625 000c 181093E5 		ldr	r1, [r3, #24]
 626              	.LVL46:
 627              	.LBB54:
ARM GAS  C:\Users\NICOMA~1\AppData\Local\Temp\ccecnAv7.s 			page 12


 628              	.LBB52:
 629              		.loc 2 62 0
 630 0010 002090E5 		ldr	r2, [r0, #0]
 631 0014 08C091E5 		ldr	ip, [r1, #8]
 632 0018 043082E5 		str	r3, [r2, #4]
 633              	.LBE52:
 634              	.LBE54:
 635              		.loc 1 335 0
 636 001c 0140A0E3 		mov	r4, #1
 637              	.LBB55:
 638              	.LBB53:
 639              		.loc 2 62 0
 640 0020 002083E5 		str	r2, [r3, #0]
 641              	.LBE53:
 642              	.LBE55:
 643              		.loc 1 334 0
 644 0024 180083E5 		str	r0, [r3, #24]
 645              		.loc 1 337 0
 646 0028 0030A0E3 		mov	r3, #0
 647              		.loc 1 335 0
 648 002c 1C40C0E5 		strb	r4, [r0, #28]
 649              		.loc 1 337 0
 650 0030 1C30C1E5 		strb	r3, [r1, #28]
 651              	.LVL47:
 652 0034 0030A0E1 		mov	r3, r0
 653 0038 000000EA 		b	.L56
 654              	.LVL48:
 655              	.L57:
 656 003c 003093E5 		ldr	r3, [r3, #0]
 657              	.LVL49:
 658              	.L56:
 659              		.loc 1 341 0 discriminator 1
 660 0040 082093E5 		ldr	r2, [r3, #8]
 661 0044 0C0052E1 		cmp	r2, ip
 662 0048 FBFFFF8A 		bhi	.L57
 663              		.loc 1 344 0
 664 004c 042093E5 		ldr	r2, [r3, #4]
 665              		.loc 1 343 0
 666 0050 003081E5 		str	r3, [r1, #0]
 667              		.loc 1 344 0
 668 0054 042081E5 		str	r2, [r1, #4]
 669              		.loc 1 345 0
 670 0058 001082E5 		str	r1, [r2, #0]
 671 005c 041083E5 		str	r1, [r3, #4]
 672              		.loc 1 348 0
 673 0060 1000BDE8 		ldmfd	sp!, {r4}
 674              		.loc 1 347 0
 675 0064 FEFFFFEA 		b	_port_switch_arm
 676              	.LVL50:
 677              	.L59:
 678              		.align	2
 679              	.L58:
 680 0068 00000000 		.word	rlist
 681              		.cfi_endproc
 682              	.LFE16:
 683              		.size	chSchDoRescheduleAhead, .-chSchDoRescheduleAhead
 684              		.section	.text.chSchRescheduleS,"ax",%progbits
ARM GAS  C:\Users\NICOMA~1\AppData\Local\Temp\ccecnAv7.s 			page 13


 685              		.align	2
 686              		.global	chSchRescheduleS
 687              		.type	chSchRescheduleS, %function
 688              	chSchRescheduleS:
 689              	.LFB13:
 690              		.loc 1 253 0
 691              		.cfi_startproc
 692              		@ args = 0, pretend = 0, frame = 0
 693              		@ frame_needed = 0, uses_anonymous_args = 0
 694              		@ link register save eliminated.
 695              		.loc 1 257 0
 696 0000 18309FE5 		ldr	r3, .L62
 697 0004 002093E5 		ldr	r2, [r3, #0]
 698 0008 183093E5 		ldr	r3, [r3, #24]
 699 000c 082092E5 		ldr	r2, [r2, #8]
 700 0010 083093E5 		ldr	r3, [r3, #8]
 701 0014 030052E1 		cmp	r2, r3
 702 0018 1EFF2F91 		bxls	lr
 703              		.loc 1 259 0
 704              		.loc 1 258 0
 705 001c FEFFFFEA 		b	chSchDoRescheduleAhead
 706              	.LVL51:
 707              	.L63:
 708              		.align	2
 709              	.L62:
 710 0020 00000000 		.word	rlist
 711              		.cfi_endproc
 712              	.LFE13:
 713              		.size	chSchRescheduleS, .-chSchRescheduleS
 714              		.section	.text.chSchDoReschedule,"ax",%progbits
 715              		.align	2
 716              		.global	chSchDoReschedule
 717              		.type	chSchDoReschedule, %function
 718              	chSchDoReschedule:
 719              	.LFB17:
 720              		.loc 1 362 0
 721              		.cfi_startproc
 722              		@ args = 0, pretend = 0, frame = 0
 723              		@ frame_needed = 0, uses_anonymous_args = 0
 724              		@ link register save eliminated.
 725              		.loc 1 367 0
 726 0000 14309FE5 		ldr	r3, .L67
 727 0004 183093E5 		ldr	r3, [r3, #24]
 728 0008 1F30D3E5 		ldrb	r3, [r3, #31]	@ zero_extendqisi2
 729 000c 000053E3 		cmp	r3, #0
 730 0010 0000000A 		beq	.L66
 731              		.loc 1 382 0
 732              		.loc 1 375 0
 733 0014 FEFFFFEA 		b	chSchDoRescheduleAhead
 734              	.LVL52:
 735              	.L66:
 736              		.loc 1 382 0
 737              		.loc 1 370 0
 738 0018 FEFFFFEA 		b	chSchDoRescheduleBehind
 739              	.LVL53:
 740              	.L68:
 741              		.align	2
ARM GAS  C:\Users\NICOMA~1\AppData\Local\Temp\ccecnAv7.s 			page 14


 742              	.L67:
 743 001c 00000000 		.word	rlist
 744              		.cfi_endproc
 745              	.LFE17:
 746              		.size	chSchDoReschedule, .-chSchDoReschedule
 747              		.comm	rlist,28,4
 748              		.text
 749              	.Letext0:
 750              		.file 3 "c:/yagarto-20121222/lib/gcc/../../arm-none-eabi/sys-include/stdint.h"
 751              		.file 4 "../../os/ports/GCC/ARM/chtypes.h"
 752              		.file 5 "../../os/kernel/include/chlists.h"
 753              		.file 6 "../../os/kernel/include/chthreads.h"
 754              		.file 7 "../../os/ports/GCC/ARM/chcore.h"
 755              		.file 8 "../../os/kernel/include/chvt.h"
 756              		.file 9 "../../os/kernel/include/chschd.h"
 757              		.file 10 "../../os/kernel/include/chsem.h"
 758              		.file 11 "../../os/kernel/include/chmtx.h"