ARM GAS  C:\Users\NICOMA~1\AppData\Local\Temp\cc7z2zN2.s 			page 1


   1              		.cpu arm1176jz-s
   2              		.fpu softvfp
   3              		.eabi_attribute 20, 1
   4              		.eabi_attribute 21, 1
   5              		.eabi_attribute 23, 3
   6              		.eabi_attribute 24, 1
   7              		.eabi_attribute 25, 1
   8              		.eabi_attribute 26, 1
   9              		.eabi_attribute 30, 2
  10              		.eabi_attribute 34, 1
  11              		.eabi_attribute 18, 4
  12              		.file	"chsem.c"
  13              		.text
  14              	.Ltext0:
  15              		.cfi_sections	.debug_frame
  16              		.section	.text.chSemInit,"ax",%progbits
  17              		.align	2
  18              		.global	chSemInit
  19              		.type	chSemInit, %function
  20              	chSemInit:
  21              	.LFB7:
  22              		.file 1 "../../os/kernel/src/chsem.c"
  23              		.loc 1 86 0
  24              		.cfi_startproc
  25              		@ args = 0, pretend = 0, frame = 0
  26              		@ frame_needed = 0, uses_anonymous_args = 0
  27              		@ link register save eliminated.
  28              	.LVL0:
  29              		.loc 1 90 0
  30 0000 040080E5 		str	r0, [r0, #4]
  31 0004 000080E5 		str	r0, [r0, #0]
  32              		.loc 1 91 0
  33 0008 081080E5 		str	r1, [r0, #8]
  34 000c 1EFF2FE1 		bx	lr
  35              		.cfi_endproc
  36              	.LFE7:
  37              		.size	chSemInit, .-chSemInit
  38              		.section	.text.chSemResetI,"ax",%progbits
  39              		.align	2
  40              		.global	chSemResetI
  41              		.type	chSemResetI, %function
  42              	chSemResetI:
  43              	.LFB9:
  44              		.loc 1 136 0
  45              		.cfi_startproc
  46              		@ args = 0, pretend = 0, frame = 0
  47              		@ frame_needed = 0, uses_anonymous_args = 0
  48              	.LVL1:
  49 0000 70402DE9 		stmfd	sp!, {r4, r5, r6, lr}
  50              	.LCFI0:
  51              		.cfi_def_cfa_offset 16
  52              		.cfi_offset 4, -16
  53              		.cfi_offset 5, -12
  54              		.cfi_offset 6, -8
  55              		.cfi_offset 14, -4
  56              		.loc 1 141 0
  57 0004 085090E5 		ldr	r5, [r0, #8]
ARM GAS  C:\Users\NICOMA~1\AppData\Local\Temp\cc7z2zN2.s 			page 2


  58              	.LVL2:
  59              		.loc 1 136 0
  60 0008 0040A0E1 		mov	r4, r0
  61              		.loc 1 148 0
  62 000c 015085E2 		add	r5, r5, #1
  63              	.LVL3:
  64 0010 000055E3 		cmp	r5, #0
  65              		.loc 1 147 0
  66 0014 081080E5 		str	r1, [r0, #8]
  67              	.LVL4:
  68              		.loc 1 148 0
  69 0018 7080BDC8 		ldmgtfd	sp!, {r4, r5, r6, pc}
  70              		.loc 1 149 0
  71 001c 0160E0E3 		mvn	r6, #1
  72              	.LVL5:
  73              	.L6:
  74              	.LBB20:
  75              	.LBB21:
  76              		.file 2 "../../os/kernel/include/chinline.h"
  77              		.loc 2 67 0
  78 0020 040094E5 		ldr	r0, [r4, #4]
  79              	.LVL6:
  80              	.LBE21:
  81              	.LBE20:
  82              		.loc 1 148 0
  83 0024 015085E2 		add	r5, r5, #1
  84              	.LVL7:
  85              	.LBB23:
  86              	.LBB22:
  87              		.loc 2 69 0
  88 0028 043090E5 		ldr	r3, [r0, #4]
  89 002c 043084E5 		str	r3, [r4, #4]
  90 0030 004083E5 		str	r4, [r3, #0]
  91              	.LBE22:
  92              	.LBE23:
  93              		.loc 1 149 0
  94 0034 FEFFFFEB 		bl	chSchReadyI
  95              	.LVL8:
  96              		.loc 1 148 0
  97 0038 010055E3 		cmp	r5, #1
  98              		.loc 1 149 0
  99 003c 246080E5 		str	r6, [r0, #36]
 100              	.LVL9:
 101              		.loc 1 148 0
 102 0040 F6FFFF1A 		bne	.L6
 103 0044 7080BDE8 		ldmfd	sp!, {r4, r5, r6, pc}
 104              		.cfi_endproc
 105              	.LFE9:
 106              		.size	chSemResetI, .-chSemResetI
 107              		.section	.text.chSemReset,"ax",%progbits
 108              		.align	2
 109              		.global	chSemReset
 110              		.type	chSemReset, %function
 111              	chSemReset:
 112              	.LFB8:
 113              		.loc 1 109 0
 114              		.cfi_startproc
ARM GAS  C:\Users\NICOMA~1\AppData\Local\Temp\cc7z2zN2.s 			page 3


 115              		@ args = 0, pretend = 0, frame = 0
 116              		@ frame_needed = 0, uses_anonymous_args = 0
 117              	.LVL10:
 118 0000 08402DE9 		stmfd	sp!, {r3, lr}
 119              	.LCFI1:
 120              		.cfi_def_cfa_offset 8
 121              		.cfi_offset 3, -8
 122              		.cfi_offset 14, -4
 123              		.loc 1 111 0
 124              	@ 111 "../../os/kernel/src/chsem.c" 1
 125 0004 9FF021E3 		msr     CPSR_c, #0x9F
 126              	@ 0 "" 2
 127              		.loc 1 112 0
 128 0008 FEFFFFEB 		bl	chSemResetI
 129              	.LVL11:
 130              		.loc 1 113 0
 131 000c FEFFFFEB 		bl	chSchRescheduleS
 132              	.LVL12:
 133              		.loc 1 114 0
 134              	@ 114 "../../os/kernel/src/chsem.c" 1
 135 0010 1FF021E3 		msr     CPSR_c, #0x1F
 136              	@ 0 "" 2
 137 0014 0880BDE8 		ldmfd	sp!, {r3, pc}
 138              		.cfi_endproc
 139              	.LFE8:
 140              		.size	chSemReset, .-chSemReset
 141              		.section	.text.chSemWaitS,"ax",%progbits
 142              		.align	2
 143              		.global	chSemWaitS
 144              		.type	chSemWaitS, %function
 145              	chSemWaitS:
 146              	.LFB11:
 147              		.loc 1 185 0
 148              		.cfi_startproc
 149              		@ args = 0, pretend = 0, frame = 0
 150              		@ frame_needed = 0, uses_anonymous_args = 0
 151              	.LVL13:
 152              		.loc 1 194 0
 153 0000 082090E5 		ldr	r2, [r0, #8]
 154              		.loc 1 185 0
 155 0004 10402DE9 		stmfd	sp!, {r4, lr}
 156              	.LCFI2:
 157              		.cfi_def_cfa_offset 8
 158              		.cfi_offset 4, -8
 159              		.cfi_offset 14, -4
 160              		.loc 1 194 0
 161 0008 012042E2 		sub	r2, r2, #1
 162 000c 000052E3 		cmp	r2, #0
 163              		.loc 1 185 0
 164 0010 0030A0E1 		mov	r3, r0
 165              		.loc 1 194 0
 166 0014 082080E5 		str	r2, [r0, #8]
 167 0018 010000BA 		blt	.L13
 168              		.loc 1 200 0
 169 001c 0000A0E3 		mov	r0, #0
 170              	.LVL14:
 171              		.loc 1 201 0
ARM GAS  C:\Users\NICOMA~1\AppData\Local\Temp\cc7z2zN2.s 			page 4


 172 0020 1080BDE8 		ldmfd	sp!, {r4, pc}
 173              	.LVL15:
 174              	.L13:
 175              		.loc 1 195 0
 176 0024 2C409FE5 		ldr	r4, .L14
 177              		.loc 1 197 0
 178 0028 0300A0E3 		mov	r0, #3
 179              	.LVL16:
 180              		.loc 1 195 0
 181 002c 182094E5 		ldr	r2, [r4, #24]
 182 0030 243082E5 		str	r3, [r2, #36]
 183              	.LVL17:
 184              	.LBB24:
 185              	.LBB25:
 186              		.loc 2 55 0
 187 0034 041093E5 		ldr	r1, [r3, #4]
 188              		.loc 2 54 0
 189 0038 003082E5 		str	r3, [r2, #0]
 190              		.loc 2 55 0
 191 003c 041082E5 		str	r1, [r2, #4]
 192              		.loc 2 56 0
 193 0040 042083E5 		str	r2, [r3, #4]
 194 0044 002081E5 		str	r2, [r1, #0]
 195              	.LBE25:
 196              	.LBE24:
 197              		.loc 1 197 0
 198 0048 FEFFFFEB 		bl	chSchGoSleepS
 199              	.LVL18:
 200              		.loc 1 198 0
 201 004c 183094E5 		ldr	r3, [r4, #24]
 202 0050 240093E5 		ldr	r0, [r3, #36]
 203 0054 1080BDE8 		ldmfd	sp!, {r4, pc}
 204              	.L15:
 205              		.align	2
 206              	.L14:
 207 0058 00000000 		.word	rlist
 208              		.cfi_endproc
 209              	.LFE11:
 210              		.size	chSemWaitS, .-chSemWaitS
 211              		.section	.text.chSemWait,"ax",%progbits
 212              		.align	2
 213              		.global	chSemWait
 214              		.type	chSemWait, %function
 215              	chSemWait:
 216              	.LFB10:
 217              		.loc 1 164 0
 218              		.cfi_startproc
 219              		@ args = 0, pretend = 0, frame = 0
 220              		@ frame_needed = 0, uses_anonymous_args = 0
 221              	.LVL19:
 222 0000 08402DE9 		stmfd	sp!, {r3, lr}
 223              	.LCFI3:
 224              		.cfi_def_cfa_offset 8
 225              		.cfi_offset 3, -8
 226              		.cfi_offset 14, -4
 227              		.loc 1 167 0
 228              	@ 167 "../../os/kernel/src/chsem.c" 1
ARM GAS  C:\Users\NICOMA~1\AppData\Local\Temp\cc7z2zN2.s 			page 5


 229 0004 9FF021E3 		msr     CPSR_c, #0x9F
 230              	@ 0 "" 2
 231              		.loc 1 168 0
 232 0008 FEFFFFEB 		bl	chSemWaitS
 233              	.LVL20:
 234              		.loc 1 169 0
 235              	@ 169 "../../os/kernel/src/chsem.c" 1
 236 000c 1FF021E3 		msr     CPSR_c, #0x1F
 237              	@ 0 "" 2
 238              		.loc 1 171 0
 239 0010 0880BDE8 		ldmfd	sp!, {r3, pc}
 240              		.cfi_endproc
 241              	.LFE10:
 242              		.size	chSemWait, .-chSemWait
 243              		.section	.text.chSemWaitTimeoutS,"ax",%progbits
 244              		.align	2
 245              		.global	chSemWaitTimeoutS
 246              		.type	chSemWaitTimeoutS, %function
 247              	chSemWaitTimeoutS:
 248              	.LFB13:
 249              		.loc 1 250 0
 250              		.cfi_startproc
 251              		@ args = 0, pretend = 0, frame = 0
 252              		@ frame_needed = 0, uses_anonymous_args = 0
 253              		@ link register save eliminated.
 254              	.LVL21:
 255              		.loc 1 250 0
 256 0000 0030A0E1 		mov	r3, r0
 257              		.loc 1 254 0
 258 0004 080090E5 		ldr	r0, [r0, #8]
 259              	.LVL22:
 260              		.loc 1 259 0
 261 0008 012040E2 		sub	r2, r0, #1
 262 000c 000052E3 		cmp	r2, #0
 263 0010 082083E5 		str	r2, [r3, #8]
 264 0014 010000BA 		blt	.L21
 265              		.loc 1 268 0
 266 0018 0000A0E3 		mov	r0, #0
 267              		.loc 1 269 0
 268 001c 1EFF2FE1 		bx	lr
 269              	.L21:
 270              		.loc 1 260 0
 271 0020 000051E3 		cmp	r1, #0
 272 0024 0800000A 		beq	.L22
 273              		.loc 1 264 0
 274 0028 28209FE5 		ldr	r2, .L23
 275              		.loc 1 266 0
 276 002c 0300A0E3 		mov	r0, #3
 277              		.loc 1 264 0
 278 0030 182092E5 		ldr	r2, [r2, #24]
 279 0034 243082E5 		str	r3, [r2, #36]
 280              	.LVL23:
 281              	.LBB26:
 282              	.LBB27:
 283              		.loc 2 55 0
 284 0038 04C093E5 		ldr	ip, [r3, #4]
 285 003c 081082E8 		stmia	r2, {r3, ip}
ARM GAS  C:\Users\NICOMA~1\AppData\Local\Temp\cc7z2zN2.s 			page 6


 286              		.loc 2 56 0
 287 0040 042083E5 		str	r2, [r3, #4]
 288 0044 00208CE5 		str	r2, [ip, #0]
 289              	.LBE27:
 290              	.LBE26:
 291              		.loc 1 269 0
 292              		.loc 1 266 0
 293 0048 FEFFFFEA 		b	chSchGoSleepTimeoutS
 294              	.LVL24:
 295              	.L22:
 296              		.loc 1 261 0
 297 004c 080083E5 		str	r0, [r3, #8]
 298              		.loc 1 262 0
 299 0050 0000E0E3 		mvn	r0, #0
 300 0054 1EFF2FE1 		bx	lr
 301              	.L24:
 302              		.align	2
 303              	.L23:
 304 0058 00000000 		.word	rlist
 305              		.cfi_endproc
 306              	.LFE13:
 307              		.size	chSemWaitTimeoutS, .-chSemWaitTimeoutS
 308              		.section	.text.chSemWaitTimeout,"ax",%progbits
 309              		.align	2
 310              		.global	chSemWaitTimeout
 311              		.type	chSemWaitTimeout, %function
 312              	chSemWaitTimeout:
 313              	.LFB12:
 314              		.loc 1 222 0
 315              		.cfi_startproc
 316              		@ args = 0, pretend = 0, frame = 0
 317              		@ frame_needed = 0, uses_anonymous_args = 0
 318              	.LVL25:
 319 0000 08402DE9 		stmfd	sp!, {r3, lr}
 320              	.LCFI4:
 321              		.cfi_def_cfa_offset 8
 322              		.cfi_offset 3, -8
 323              		.cfi_offset 14, -4
 324              		.loc 1 225 0
 325              	@ 225 "../../os/kernel/src/chsem.c" 1
 326 0004 9FF021E3 		msr     CPSR_c, #0x9F
 327              	@ 0 "" 2
 328              		.loc 1 226 0
 329 0008 FEFFFFEB 		bl	chSemWaitTimeoutS
 330              	.LVL26:
 331              		.loc 1 227 0
 332              	@ 227 "../../os/kernel/src/chsem.c" 1
 333 000c 1FF021E3 		msr     CPSR_c, #0x1F
 334              	@ 0 "" 2
 335              		.loc 1 229 0
 336 0010 0880BDE8 		ldmfd	sp!, {r3, pc}
 337              		.cfi_endproc
 338              	.LFE12:
 339              		.size	chSemWaitTimeout, .-chSemWaitTimeout
 340              		.section	.text.chSemSignal,"ax",%progbits
 341              		.align	2
 342              		.global	chSemSignal
ARM GAS  C:\Users\NICOMA~1\AppData\Local\Temp\cc7z2zN2.s 			page 7


 343              		.type	chSemSignal, %function
 344              	chSemSignal:
 345              	.LFB14:
 346              		.loc 1 278 0
 347              		.cfi_startproc
 348              		@ args = 0, pretend = 0, frame = 0
 349              		@ frame_needed = 0, uses_anonymous_args = 0
 350              	.LVL27:
 351 0000 08402DE9 		stmfd	sp!, {r3, lr}
 352              	.LCFI5:
 353              		.cfi_def_cfa_offset 8
 354              		.cfi_offset 3, -8
 355              		.cfi_offset 14, -4
 356              		.loc 1 278 0
 357 0004 0030A0E1 		mov	r3, r0
 358              		.loc 1 286 0
 359              	@ 286 "../../os/kernel/src/chsem.c" 1
 360 0008 9FF021E3 		msr     CPSR_c, #0x9F
 361              	@ 0 "" 2
 362              		.loc 1 287 0
 363 000c 082090E5 		ldr	r2, [r0, #8]
 364 0010 012082E2 		add	r2, r2, #1
 365 0014 000052E3 		cmp	r2, #0
 366 0018 082080E5 		str	r2, [r0, #8]
 367 001c 010000DA 		ble	.L28
 368              		.loc 1 289 0
 369              	@ 289 "../../os/kernel/src/chsem.c" 1
 370 0020 1FF021E3 		msr     CPSR_c, #0x1F
 371              	@ 0 "" 2
 372 0024 0880BDE8 		ldmfd	sp!, {r3, pc}
 373              	.L28:
 374              	.LVL28:
 375              	.LBB28:
 376              	.LBB29:
 377              		.loc 2 60 0
 378 0028 000090E5 		ldr	r0, [r0, #0]
 379              	.LVL29:
 380              	.LBE29:
 381              	.LBE28:
 382              		.loc 1 288 0
 383 002c 0010A0E3 		mov	r1, #0
 384              	.LBB31:
 385              	.LBB30:
 386              		.loc 2 62 0
 387 0030 002090E5 		ldr	r2, [r0, #0]
 388 0034 002083E5 		str	r2, [r3, #0]
 389 0038 043082E5 		str	r3, [r2, #4]
 390              	.LBE30:
 391              	.LBE31:
 392              		.loc 1 288 0
 393 003c FEFFFFEB 		bl	chSchWakeupS
 394              	.LVL30:
 395              		.loc 1 289 0
 396              	@ 289 "../../os/kernel/src/chsem.c" 1
 397 0040 1FF021E3 		msr     CPSR_c, #0x1F
 398              	@ 0 "" 2
 399 0044 0880BDE8 		ldmfd	sp!, {r3, pc}
ARM GAS  C:\Users\NICOMA~1\AppData\Local\Temp\cc7z2zN2.s 			page 8


 400              		.cfi_endproc
 401              	.LFE14:
 402              		.size	chSemSignal, .-chSemSignal
 403              		.section	.text.chSemSignalI,"ax",%progbits
 404              		.align	2
 405              		.global	chSemSignalI
 406              		.type	chSemSignalI, %function
 407              	chSemSignalI:
 408              	.LFB15:
 409              		.loc 1 303 0
 410              		.cfi_startproc
 411              		@ args = 0, pretend = 0, frame = 0
 412              		@ frame_needed = 0, uses_anonymous_args = 0
 413              		@ link register save eliminated.
 414              	.LVL31:
 415              		.loc 1 312 0
 416 0000 082090E5 		ldr	r2, [r0, #8]
 417              		.loc 1 303 0
 418 0004 0030A0E1 		mov	r3, r0
 419              		.loc 1 312 0
 420 0008 012082E2 		add	r2, r2, #1
 421 000c 000052E3 		cmp	r2, #0
 422 0010 082080E5 		str	r2, [r0, #8]
 423 0014 1EFF2FC1 		bxgt	lr
 424              	.LVL32:
 425              	.LBB32:
 426              	.LBB33:
 427              	.LBB34:
 428              		.loc 2 60 0
 429 0018 002090E5 		ldr	r2, [r0, #0]
 430              	.LVL33:
 431              		.loc 2 62 0
 432 001c 001092E5 		ldr	r1, [r2, #0]
 433              	.LBE34:
 434              	.LBE33:
 435              		.loc 1 317 0
 436 0020 0200A0E1 		mov	r0, r2
 437              	.LVL34:
 438              	.LBB36:
 439              	.LBB35:
 440              		.loc 2 62 0
 441 0024 001083E5 		str	r1, [r3, #0]
 442 0028 043081E5 		str	r3, [r1, #4]
 443              	.LBE35:
 444              	.LBE36:
 445              		.loc 1 316 0
 446 002c 0030A0E3 		mov	r3, #0
 447              	.LVL35:
 448 0030 243082E5 		str	r3, [r2, #36]
 449              	.LBE32:
 450              		.loc 1 319 0
 451              	.LBB37:
 452              		.loc 1 317 0
 453 0034 FEFFFFEA 		b	chSchReadyI
 454              	.LVL36:
 455              	.LBE37:
 456              		.cfi_endproc
ARM GAS  C:\Users\NICOMA~1\AppData\Local\Temp\cc7z2zN2.s 			page 9


 457              	.LFE15:
 458              		.size	chSemSignalI, .-chSemSignalI
 459              		.section	.text.chSemAddCounterI,"ax",%progbits
 460              		.align	2
 461              		.global	chSemAddCounterI
 462              		.type	chSemAddCounterI, %function
 463              	chSemAddCounterI:
 464              	.LFB16:
 465              		.loc 1 334 0
 466              		.cfi_startproc
 467              		@ args = 0, pretend = 0, frame = 0
 468              		@ frame_needed = 0, uses_anonymous_args = 0
 469              	.LVL37:
 470 0000 70402DE9 		stmfd	sp!, {r4, r5, r6, lr}
 471              	.LCFI6:
 472              		.cfi_def_cfa_offset 16
 473              		.cfi_offset 4, -16
 474              		.cfi_offset 5, -12
 475              		.cfi_offset 6, -8
 476              		.cfi_offset 14, -4
 477              		.loc 1 343 0
 478 0004 004051E2 		subs	r4, r1, #0
 479              		.loc 1 334 0
 480 0008 0050A0E1 		mov	r5, r0
 481              		.loc 1 343 0
 482 000c 7080BDD8 		ldmlefd	sp!, {r4, r5, r6, pc}
 483              		.loc 1 345 0
 484 0010 0060A0E3 		mov	r6, #0
 485 0014 010000EA 		b	.L36
 486              	.LVL38:
 487              	.L33:
 488              		.loc 1 343 0
 489 0018 014054E2 		subs	r4, r4, #1
 490              	.LVL39:
 491 001c 0C00000A 		beq	.L38
 492              	.LVL40:
 493              	.L36:
 494              		.loc 1 344 0
 495 0020 083095E5 		ldr	r3, [r5, #8]
 496 0024 013083E2 		add	r3, r3, #1
 497 0028 000053E3 		cmp	r3, #0
 498 002c 083085E5 		str	r3, [r5, #8]
 499 0030 F8FFFFCA 		bgt	.L33
 500              	.LVL41:
 501              	.LBB38:
 502              	.LBB39:
 503              		.loc 2 60 0
 504 0034 000095E5 		ldr	r0, [r5, #0]
 505              	.LVL42:
 506              		.loc 2 62 0
 507 0038 003090E5 		ldr	r3, [r0, #0]
 508 003c 003085E5 		str	r3, [r5, #0]
 509 0040 045083E5 		str	r5, [r3, #4]
 510              	.LBE39:
 511              	.LBE38:
 512              		.loc 1 345 0
 513 0044 FEFFFFEB 		bl	chSchReadyI
ARM GAS  C:\Users\NICOMA~1\AppData\Local\Temp\cc7z2zN2.s 			page 10


 514              	.LVL43:
 515              		.loc 1 343 0
 516 0048 014054E2 		subs	r4, r4, #1
 517              		.loc 1 345 0
 518 004c 246080E5 		str	r6, [r0, #36]
 519              		.loc 1 343 0
 520 0050 F2FFFF1A 		bne	.L36
 521              	.LVL44:
 522              	.L38:
 523 0054 7080BDE8 		ldmfd	sp!, {r4, r5, r6, pc}
 524              		.cfi_endproc
 525              	.LFE16:
 526              		.size	chSemAddCounterI, .-chSemAddCounterI
 527              		.section	.text.chSemSignalWait,"ax",%progbits
 528              		.align	2
 529              		.global	chSemSignalWait
 530              		.type	chSemSignalWait, %function
 531              	chSemSignalWait:
 532              	.LFB17:
 533              		.loc 1 366 0
 534              		.cfi_startproc
 535              		@ args = 0, pretend = 0, frame = 8
 536              		@ frame_needed = 0, uses_anonymous_args = 0
 537              	.LVL45:
 538 0000 10402DE9 		stmfd	sp!, {r4, lr}
 539              	.LCFI7:
 540              		.cfi_def_cfa_offset 8
 541              		.cfi_offset 4, -8
 542              		.cfi_offset 14, -4
 543 0004 0030A0E1 		mov	r3, r0
 544 0008 08D04DE2 		sub	sp, sp, #8
 545              	.LCFI8:
 546              		.cfi_def_cfa_offset 16
 547              		.loc 1 379 0
 548              	@ 379 "../../os/kernel/src/chsem.c" 1
 549 000c 9FF021E3 		msr     CPSR_c, #0x9F
 550              	@ 0 "" 2
 551              		.loc 1 380 0
 552 0010 082090E5 		ldr	r2, [r0, #8]
 553 0014 012082E2 		add	r2, r2, #1
 554 0018 000052E3 		cmp	r2, #0
 555 001c 082080E5 		str	r2, [r0, #8]
 556 0020 140000DA 		ble	.L43
 557              	.LVL46:
 558              	.L40:
 559              		.loc 1 382 0
 560 0024 083091E5 		ldr	r3, [r1, #8]
 561 0028 013043E2 		sub	r3, r3, #1
 562 002c 000053E3 		cmp	r3, #0
 563 0030 083081E5 		str	r3, [r1, #8]
 564 0034 040000BA 		blt	.L44
 565              		.loc 1 390 0
 566 0038 FEFFFFEB 		bl	chSchRescheduleS
 567              	.LVL47:
 568              		.loc 1 391 0
 569 003c 0000A0E3 		mov	r0, #0
 570              	.LVL48:
ARM GAS  C:\Users\NICOMA~1\AppData\Local\Temp\cc7z2zN2.s 			page 11


 571              	.L42:
 572              		.loc 1 393 0
 573              	@ 393 "../../os/kernel/src/chsem.c" 1
 574 0040 1FF021E3 		msr     CPSR_c, #0x1F
 575              	@ 0 "" 2
 576              		.loc 1 395 0
 577 0044 08D08DE2 		add	sp, sp, #8
 578 0048 1080BDE8 		ldmfd	sp!, {r4, pc}
 579              	.LVL49:
 580              	.L44:
 581              	.LBB40:
 582              		.loc 1 383 0
 583 004c 4C209FE5 		ldr	r2, .L45
 584              	.LBB41:
 585              	.LBB42:
 586              		.loc 2 55 0
 587 0050 043091E5 		ldr	r3, [r1, #4]
 588              	.LBE42:
 589              	.LBE41:
 590              		.loc 1 383 0
 591 0054 184092E5 		ldr	r4, [r2, #24]
 592              	.LVL50:
 593              		.loc 1 386 0
 594 0058 0300A0E3 		mov	r0, #3
 595              	.LBB44:
 596              	.LBB43:
 597              		.loc 2 55 0
 598 005c 0A0084E8 		stmia	r4, {r1, r3}
 599              		.loc 2 56 0
 600 0060 044081E5 		str	r4, [r1, #4]
 601 0064 004083E5 		str	r4, [r3, #0]
 602              	.LBE43:
 603              	.LBE44:
 604              		.loc 1 385 0
 605 0068 241084E5 		str	r1, [r4, #36]
 606              		.loc 1 386 0
 607 006c FEFFFFEB 		bl	chSchGoSleepS
 608              	.LVL51:
 609              		.loc 1 387 0
 610 0070 240094E5 		ldr	r0, [r4, #36]
 611              	.LVL52:
 612 0074 F1FFFFEA 		b	.L42
 613              	.LVL53:
 614              	.L43:
 615              	.LBE40:
 616              	.LBB45:
 617              	.LBB46:
 618              		.loc 2 60 0
 619 0078 000090E5 		ldr	r0, [r0, #0]
 620              	.LVL54:
 621              		.loc 2 62 0
 622 007c 002090E5 		ldr	r2, [r0, #0]
 623 0080 002083E5 		str	r2, [r3, #0]
 624 0084 043082E5 		str	r3, [r2, #4]
 625              	.LBE46:
 626              	.LBE45:
 627              		.loc 1 381 0
ARM GAS  C:\Users\NICOMA~1\AppData\Local\Temp\cc7z2zN2.s 			page 12


 628 0088 04108DE5 		str	r1, [sp, #4]
 629 008c FEFFFFEB 		bl	chSchReadyI
 630              	.LVL55:
 631 0090 0030A0E3 		mov	r3, #0
 632 0094 243080E5 		str	r3, [r0, #36]
 633 0098 04109DE5 		ldr	r1, [sp, #4]
 634 009c E0FFFFEA 		b	.L40
 635              	.L46:
 636              		.align	2
 637              	.L45:
 638 00a0 00000000 		.word	rlist
 639              		.cfi_endproc
 640              	.LFE17:
 641              		.size	chSemSignalWait, .-chSemSignalWait
 642              		.text
 643              	.Letext0:
 644              		.file 3 "c:/yagarto-20121222/lib/gcc/../../arm-none-eabi/sys-include/stdint.h"
 645              		.file 4 "../../os/ports/GCC/ARM/chtypes.h"
 646              		.file 5 "../../os/kernel/include/chlists.h"
 647              		.file 6 "../../os/kernel/include/chthreads.h"
 648              		.file 7 "../../os/ports/GCC/ARM/chcore.h"
 649              		.file 8 "../../os/kernel/include/chschd.h"
 650              		.file 9 "../../os/kernel/include/chsem.h"
 651              		.file 10 "../../os/kernel/include/chmtx.h"