ARM GAS  C:\Users\NICOMA~1\AppData\Local\Temp\ccuaTF5u.s 			page 1


   1              		.cpu arm1176jz-s
   2              		.fpu softvfp
   3              		.eabi_attribute 20, 1
   4              		.eabi_attribute 21, 1
   5              		.eabi_attribute 23, 3
   6              		.eabi_attribute 24, 1
   7              		.eabi_attribute 25, 1
   8              		.eabi_attribute 26, 1
   9              		.eabi_attribute 30, 2
  10              		.eabi_attribute 34, 1
  11              		.eabi_attribute 18, 4
  12              		.file	"chsys.c"
  13              		.text
  14              	.Ltext0:
  15              		.cfi_sections	.debug_frame
  16              		.section	.text._idle_thread,"ax",%progbits
  17              		.align	2
  18              		.global	_idle_thread
  19              		.type	_idle_thread, %function
  20              	_idle_thread:
  21              	.LFB7:
  22              		.file 1 "../../os/kernel/src/chsys.c"
  23              		.loc 1 61 0
  24              		.cfi_startproc
  25              		@ args = 0, pretend = 0, frame = 0
  26              		@ frame_needed = 0, uses_anonymous_args = 0
  27              		@ link register save eliminated.
  28              	.LVL0:
  29              		.loc 1 64 0
  30 0000 10309FE5 		ldr	r3, .L4
  31 0004 10209FE5 		ldr	r2, .L4+4
  32 0008 183093E5 		ldr	r3, [r3, #24]
  33 000c 182083E5 		str	r2, [r3, #24]
  34              	.L2:
  35              		.loc 1 66 0 discriminator 1
  36              	@ 66 "../../os/kernel/src/chsys.c" 1
  37 0010 900F07EE 		MCR p15,0,r0,c7,c0,4
  38              	@ 0 "" 2
  39 0014 FDFFFFEA 		b	.L2
  40              	.L5:
  41              		.align	2
  42              	.L4:
  43 0018 00000000 		.word	rlist
  44 001c 00000000 		.word	.LC0
  45              		.cfi_endproc
  46              	.LFE7:
  47              		.size	_idle_thread, .-_idle_thread
  48              		.section	.text.chSysInit,"ax",%progbits
  49              		.align	2
  50              		.global	chSysInit
  51              		.type	chSysInit, %function
  52              	chSysInit:
  53              	.LFB8:
  54              		.loc 1 84 0
  55              		.cfi_startproc
  56              		@ args = 0, pretend = 0, frame = 0
  57              		@ frame_needed = 0, uses_anonymous_args = 0
ARM GAS  C:\Users\NICOMA~1\AppData\Local\Temp\ccuaTF5u.s 			page 2


  58 0000 04E02DE5 		str	lr, [sp, #-4]!
  59              	.LCFI0:
  60              		.cfi_def_cfa_offset 4
  61              		.cfi_offset 14, -4
  62 0004 0CD04DE2 		sub	sp, sp, #12
  63              	.LCFI1:
  64              		.cfi_def_cfa_offset 16
  65              		.loc 1 91 0
  66 0008 FEFFFFEB 		bl	_scheduler_init
  67              	.LVL1:
  68              		.loc 1 92 0
  69 000c FEFFFFEB 		bl	_vt_init
  70              	.LVL2:
  71              		.loc 1 94 0
  72 0010 FEFFFFEB 		bl	_core_init
  73              	.LVL3:
  74              		.loc 1 97 0
  75 0014 FEFFFFEB 		bl	_heap_init
  76              	.LVL4:
  77              		.loc 1 104 0
  78 0018 4010A0E3 		mov	r1, #64
  79 001c 40009FE5 		ldr	r0, .L7
  80 0020 FEFFFFEB 		bl	_thread_init
  81              	.LVL5:
  82 0024 3C309FE5 		ldr	r3, .L7+4
  83              		.loc 1 105 0
  84 0028 0120A0E3 		mov	r2, #1
  85              		.loc 1 104 0
  86 002c 180083E5 		str	r0, [r3, #24]
  87              		.loc 1 105 0
  88 0030 1C20C0E5 		strb	r2, [r0, #28]
  89              		.loc 1 111 0
  90              	@ 111 "../../os/kernel/src/chsys.c" 1
  91 0034 1FF021E3 		msr     CPSR_c, #0x1F
  92              	@ 0 "" 2
  93              		.loc 1 115 0
  94 0038 2C109FE5 		ldr	r1, .L7+8
  95 003c 183093E5 		ldr	r3, [r3, #24]
  96              		.loc 1 121 0
  97 0040 28009FE5 		ldr	r0, .L7+12
  98              		.loc 1 115 0
  99 0044 181083E5 		str	r1, [r3, #24]
 100              		.loc 1 121 0
 101 0048 0030A0E3 		mov	r3, #0
 102 004c 00308DE5 		str	r3, [sp, #0]
 103 0050 9C10A0E3 		mov	r1, #156
 104 0054 18309FE5 		ldr	r3, .L7+16
 105 0058 FEFFFFEB 		bl	chThdCreateStatic
 106              	.LVL6:
 107              		.loc 1 124 0
 108 005c 0CD08DE2 		add	sp, sp, #12
 109 0060 0080BDE8 		ldmfd	sp!, {pc}
 110              	.L8:
 111              		.align	2
 112              	.L7:
 113 0064 00000000 		.word	.LANCHOR0
 114 0068 00000000 		.word	rlist
ARM GAS  C:\Users\NICOMA~1\AppData\Local\Temp\ccuaTF5u.s 			page 3


 115 006c 00000000 		.word	ch_debug
 116 0070 00000000 		.word	_idle_thread_wa
 117 0074 00000000 		.word	_idle_thread
 118              		.cfi_endproc
 119              	.LFE8:
 120              		.size	chSysInit, .-chSysInit
 121              		.section	.text.chSysTimerHandlerI,"ax",%progbits
 122              		.align	2
 123              		.global	chSysTimerHandlerI
 124              		.type	chSysTimerHandlerI, %function
 125              	chSysTimerHandlerI:
 126              	.LFB9:
 127              		.loc 1 137 0
 128              		.cfi_startproc
 129              		@ args = 0, pretend = 0, frame = 0
 130              		@ frame_needed = 0, uses_anonymous_args = 0
 131 0000 38402DE9 		stmfd	sp!, {r3, r4, r5, lr}
 132              	.LCFI2:
 133              		.cfi_def_cfa_offset 16
 134              		.cfi_offset 3, -16
 135              		.cfi_offset 4, -12
 136              		.cfi_offset 5, -8
 137              		.cfi_offset 14, -4
 138              		.loc 1 143 0
 139 0004 7C309FE5 		ldr	r3, .L22
 140              		.loc 1 150 0
 141 0008 7C409FE5 		ldr	r4, .L22+4
 142              		.loc 1 143 0
 143 000c 183093E5 		ldr	r3, [r3, #24]
 144 0010 1F20D3E5 		ldrb	r2, [r3, #31]	@ zero_extendqisi2
 145 0014 000052E3 		cmp	r2, #0
 146              		.loc 1 145 0
 147 0018 01204212 		subne	r2, r2, #1
 148 001c 1F20C315 		strneb	r2, [r3, #31]
 149              		.loc 1 148 0
 150 0020 202093E5 		ldr	r2, [r3, #32]
 151 0024 012082E2 		add	r2, r2, #1
 152 0028 202083E5 		str	r2, [r3, #32]
 153              		.loc 1 150 0
 154 002c 0C2094E5 		ldr	r2, [r4, #12]
 155 0030 003094E5 		ldr	r3, [r4, #0]
 156 0034 012082E2 		add	r2, r2, #1
 157 0038 040053E1 		cmp	r3, r4
 158 003c 0C2084E5 		str	r2, [r4, #12]
 159 0040 3880BD08 		ldmeqfd	sp!, {r3, r4, r5, pc}
 160              	.LBB2:
 161              		.loc 1 150 0 is_stmt 0 discriminator 1
 162 0044 085093E5 		ldr	r5, [r3, #8]
 163 0048 015045E2 		sub	r5, r5, #1
 164 004c 000055E3 		cmp	r5, #0
 165 0050 085083E5 		str	r5, [r3, #8]
 166              	.LVL7:
 167 0054 3880BD18 		ldmnefd	sp!, {r3, r4, r5, pc}
 168              	.L18:
 169              	.LBB3:
 170              		.loc 1 150 0 discriminator 3
 171 0058 002093E5 		ldr	r2, [r3, #0]
ARM GAS  C:\Users\NICOMA~1\AppData\Local\Temp\ccuaTF5u.s 			page 4


 172 005c 0C1093E5 		ldr	r1, [r3, #12]
 173              	.LVL8:
 174 0060 100093E5 		ldr	r0, [r3, #16]
 175 0064 0C5083E5 		str	r5, [r3, #12]
 176 0068 044082E5 		str	r4, [r2, #4]
 177 006c 002084E5 		str	r2, [r4, #0]
 178 0070 31FF2FE1 		blx	r1
 179              	.LVL9:
 180              	.LBE3:
 181 0074 003094E5 		ldr	r3, [r4, #0]
 182              	.LVL10:
 183 0078 082093E5 		ldr	r2, [r3, #8]
 184 007c 000052E3 		cmp	r2, #0
 185 0080 F4FFFF0A 		beq	.L18
 186 0084 3880BDE8 		ldmfd	sp!, {r3, r4, r5, pc}
 187              	.L23:
 188              		.align	2
 189              	.L22:
 190 0088 00000000 		.word	rlist
 191 008c 00000000 		.word	vtlist
 192              	.LBE2:
 193              		.cfi_endproc
 194              	.LFE9:
 195              		.size	chSysTimerHandlerI, .-chSysTimerHandlerI
 196              		.comm	_idle_thread_wa,156,4
 197              		.section	.bss.mainthread.4654,"aw",%nobits
 198              		.align	2
 199              		.set	.LANCHOR0,. + 0
 200              		.type	mainthread.4654, %object
 201              		.size	mainthread.4654, 68
 202              	mainthread.4654:
 203 0000 00000000 		.space	68
 203      00000000 
 203      00000000 
 203      00000000 
 203      00000000 
 204              		.section	.rodata.str1.4,"aMS",%progbits,1
 205              		.align	2
 206              	.LC0:
 207 0000 69646C65 		.ascii	"idle\000"
 207      00
 208 0005 000000   		.text
 209              	.Letext0:
 210              		.file 2 "c:\\yagarto-20121222\\bin\\../lib/gcc/arm-none-eabi/4.7.2/include/stddef.h"
 211              		.file 3 "c:/yagarto-20121222/lib/gcc/../../arm-none-eabi/sys-include/stdint.h"
 212              		.file 4 "../../os/ports/GCC/ARM/chtypes.h"
 213              		.file 5 "../../os/kernel/include/chlists.h"
 214              		.file 6 "../../os/kernel/include/chthreads.h"
 215              		.file 7 "../../os/ports/GCC/ARM/chcore.h"
 216              		.file 8 "../../os/kernel/include/chvt.h"
 217              		.file 9 "../../os/kernel/include/chschd.h"
 218              		.file 10 "../../os/kernel/include/chmtx.h"
 219              		.file 11 "../../os/kernel/include/chregistry.h"
 220              		.file 12 "../../os/kernel/include/chmemcore.h"
 221              		.file 13 "../../os/kernel/include/chheap.h"