ARM GAS  C:\Users\NICOMA~1\AppData\Local\Temp\ccXQNKSj.s 			page 1


   1              		.cpu arm1176jz-s
   2              		.fpu softvfp
   3              		.eabi_attribute 20, 1
   4              		.eabi_attribute 21, 1
   5              		.eabi_attribute 23, 3
   6              		.eabi_attribute 24, 1
   7              		.eabi_attribute 25, 1
   8              		.eabi_attribute 26, 1
   9              		.eabi_attribute 30, 2
  10              		.eabi_attribute 34, 1
  11              		.eabi_attribute 18, 4
  12              		.file	"chthreads.c"
  13              		.text
  14              	.Ltext0:
  15              		.cfi_sections	.debug_frame
  16              		.section	.text._thread_init,"ax",%progbits
  17              		.align	2
  18              		.global	_thread_init
  19              		.type	_thread_init, %function
  20              	_thread_init:
  21              	.LFB7:
  22              		.file 1 "../../os/kernel/src/chthreads.c"
  23              		.loc 1 76 0
  24              		.cfi_startproc
  25              		@ args = 0, pretend = 0, frame = 0
  26              		@ frame_needed = 0, uses_anonymous_args = 0
  27              		@ link register save eliminated.
  28              	.LVL0:
  29              		.loc 1 99 0
  30 0000 68C09FE5 		ldr	ip, .L2
  31              		.loc 1 76 0
  32 0004 F0002DE9 		stmfd	sp!, {r4, r5, r6, r7}
  33              	.LCFI0:
  34              		.cfi_def_cfa_offset 16
  35              		.cfi_offset 4, -16
  36              		.cfi_offset 5, -12
  37              		.cfi_offset 6, -8
  38              		.cfi_offset 7, -4
  39              		.loc 1 99 0
  40 0008 14409CE5 		ldr	r4, [ip, #20]
  41              		.loc 1 80 0
  42 000c 0020A0E3 		mov	r2, #0
  43              		.loc 1 99 0
  44 0010 10C080E5 		str	ip, [r0, #16]
  45              		.loc 1 105 0
  46 0014 2C5080E2 		add	r5, r0, #44
  47              		.loc 1 78 0
  48 0018 081080E5 		str	r1, [r0, #8]
  49              		.loc 1 102 0
  50 001c 286080E2 		add	r6, r0, #40
  51              		.loc 1 99 0
  52 0020 144080E5 		str	r4, [r0, #20]
  53              		.loc 1 79 0
  54 0024 0270A0E3 		mov	r7, #2
  55              		.loc 1 99 0
  56 0028 14008CE5 		str	r0, [ip, #20]
  57              		.loc 1 85 0
ARM GAS  C:\Users\NICOMA~1\AppData\Local\Temp\ccXQNKSj.s 			page 2


  58 002c 401080E5 		str	r1, [r0, #64]
  59              		.loc 1 82 0
  60 0030 14C0A0E3 		mov	ip, #20
  61              		.loc 1 95 0
  62 0034 0110A0E3 		mov	r1, #1
  63              	.LVL1:
  64              		.loc 1 79 0
  65 0038 1C70C0E5 		strb	r7, [r0, #28]
  66              		.loc 1 80 0
  67 003c 1D20C0E5 		strb	r2, [r0, #29]
  68              		.loc 1 82 0
  69 0040 1FC0C0E5 		strb	ip, [r0, #31]
  70              		.loc 1 86 0
  71 0044 3C2080E5 		str	r2, [r0, #60]
  72              		.loc 1 89 0
  73 0048 382080E5 		str	r2, [r0, #56]
  74              		.loc 1 92 0
  75 004c 202080E5 		str	r2, [r0, #32]
  76              		.loc 1 95 0
  77 0050 1E10C0E5 		strb	r1, [r0, #30]
  78              		.loc 1 98 0
  79 0054 182080E5 		str	r2, [r0, #24]
  80              		.loc 1 99 0
  81 0058 100084E5 		str	r0, [r4, #16]
  82              		.loc 1 102 0
  83 005c 286080E5 		str	r6, [r0, #40]
  84              		.loc 1 105 0
  85 0060 305080E5 		str	r5, [r0, #48]
  86 0064 2C5080E5 		str	r5, [r0, #44]
  87              		.loc 1 114 0
  88 0068 F000BDE8 		ldmfd	sp!, {r4, r5, r6, r7}
  89 006c 1EFF2FE1 		bx	lr
  90              	.L3:
  91              		.align	2
  92              	.L2:
  93 0070 00000000 		.word	rlist
  94              		.cfi_endproc
  95              	.LFE7:
  96              		.size	_thread_init, .-_thread_init
  97              		.section	.text.chThdCreateI,"ax",%progbits
  98              		.align	2
  99              		.global	chThdCreateI
 100              		.type	chThdCreateI, %function
 101              	chThdCreateI:
 102              	.LFB8:
 103              		.loc 1 158 0
 104              		.cfi_startproc
 105              		@ args = 4, pretend = 0, frame = 0
 106              		@ frame_needed = 0, uses_anonymous_args = 0
 107              		@ link register save eliminated.
 108              	.LVL2:
 109 0000 F0052DE9 		stmfd	sp!, {r4, r5, r6, r7, r8, sl}
 110              	.LCFI1:
 111              		.cfi_def_cfa_offset 24
 112              		.cfi_offset 4, -24
 113              		.cfi_offset 5, -20
 114              		.cfi_offset 6, -16
ARM GAS  C:\Users\NICOMA~1\AppData\Local\Temp\ccXQNKSj.s 			page 3


 115              		.cfi_offset 7, -12
 116              		.cfi_offset 8, -8
 117              		.cfi_offset 10, -4
 118              		.loc 1 167 0
 119 0004 241041E2 		sub	r1, r1, #36
 120              	.LVL3:
 121              	.LBB8:
 122              	.LBB9:
 123              		.loc 1 99 0
 124 0008 80509FE5 		ldr	r5, .L5
 125              	.LVL4:
 126              	.LBE9:
 127              	.LBE8:
 128              		.loc 1 167 0
 129 000c 016080E0 		add	r6, r0, r1
 130              	.LBB14:
 131              	.LBB10:
 132              		.loc 1 99 0
 133 0010 147095E5 		ldr	r7, [r5, #20]
 134              	.LBE10:
 135              	.LBE14:
 136              		.loc 1 167 0
 137 0014 0C6080E5 		str	r6, [r0, #12]
 138 0018 013080E7 		str	r3, [r0, r1]
 139 001c 18309DE5 		ldr	r3, [sp, #24]
 140              	.LVL5:
 141              	.LBB15:
 142              	.LBB11:
 143              		.loc 1 80 0
 144 0020 0040A0E3 		mov	r4, #0
 145              	.LBE11:
 146              	.LBE15:
 147              		.loc 1 167 0
 148 0024 043086E5 		str	r3, [r6, #4]
 149 0028 64309FE5 		ldr	r3, .L5+4
 150              	.LBB16:
 151              	.LBB12:
 152              		.loc 1 105 0
 153 002c 2C8080E2 		add	r8, r0, #44
 154              	.LBE12:
 155              	.LBE16:
 156              		.loc 1 167 0
 157 0030 203086E5 		str	r3, [r6, #32]
 158              	.LVL6:
 159              	.LBB17:
 160              	.LBB13:
 161              		.loc 1 79 0
 162 0034 0230A0E3 		mov	r3, #2
 163 0038 1C30C0E5 		strb	r3, [r0, #28]
 164              		.loc 1 82 0
 165 003c 1430A0E3 		mov	r3, #20
 166              		.loc 1 102 0
 167 0040 28A080E2 		add	sl, r0, #40
 168              		.loc 1 82 0
 169 0044 1F30C0E5 		strb	r3, [r0, #31]
 170              		.loc 1 95 0
 171 0048 0130A0E3 		mov	r3, #1
ARM GAS  C:\Users\NICOMA~1\AppData\Local\Temp\ccXQNKSj.s 			page 4


 172              		.loc 1 99 0
 173 004c 105080E5 		str	r5, [r0, #16]
 174              		.loc 1 78 0
 175 0050 082080E5 		str	r2, [r0, #8]
 176              		.loc 1 99 0
 177 0054 147080E5 		str	r7, [r0, #20]
 178              		.loc 1 80 0
 179 0058 1D40C0E5 		strb	r4, [r0, #29]
 180              		.loc 1 99 0
 181 005c 140085E5 		str	r0, [r5, #20]
 182              		.loc 1 85 0
 183 0060 402080E5 		str	r2, [r0, #64]
 184              		.loc 1 86 0
 185 0064 3C4080E5 		str	r4, [r0, #60]
 186              		.loc 1 89 0
 187 0068 384080E5 		str	r4, [r0, #56]
 188              		.loc 1 92 0
 189 006c 204080E5 		str	r4, [r0, #32]
 190              		.loc 1 95 0
 191 0070 1E30C0E5 		strb	r3, [r0, #30]
 192              		.loc 1 98 0
 193 0074 184080E5 		str	r4, [r0, #24]
 194              		.loc 1 99 0
 195 0078 100087E5 		str	r0, [r7, #16]
 196              		.loc 1 102 0
 197 007c 28A080E5 		str	sl, [r0, #40]
 198              		.loc 1 105 0
 199 0080 308080E5 		str	r8, [r0, #48]
 200 0084 2C8080E5 		str	r8, [r0, #44]
 201              	.LBE13:
 202              	.LBE17:
 203              		.loc 1 169 0
 204 0088 F005BDE8 		ldmfd	sp!, {r4, r5, r6, r7, r8, sl}
 205 008c 1EFF2FE1 		bx	lr
 206              	.L6:
 207              		.align	2
 208              	.L5:
 209 0090 00000000 		.word	rlist
 210 0094 00000000 		.word	_port_thread_start
 211              		.cfi_endproc
 212              	.LFE8:
 213              		.size	chThdCreateI, .-chThdCreateI
 214              		.section	.text.chThdCreateStatic,"ax",%progbits
 215              		.align	2
 216              		.global	chThdCreateStatic
 217              		.type	chThdCreateStatic, %function
 218              	chThdCreateStatic:
 219              	.LFB9:
 220              		.loc 1 188 0
 221              		.cfi_startproc
 222              		@ args = 4, pretend = 0, frame = 0
 223              		@ frame_needed = 0, uses_anonymous_args = 0
 224              	.LVL7:
 225 0000 10402DE9 		stmfd	sp!, {r4, lr}
 226              	.LCFI2:
 227              		.cfi_def_cfa_offset 8
 228              		.cfi_offset 4, -8
ARM GAS  C:\Users\NICOMA~1\AppData\Local\Temp\ccXQNKSj.s 			page 5


 229              		.cfi_offset 14, -4
 230 0004 08D04DE2 		sub	sp, sp, #8
 231              	.LCFI3:
 232              		.cfi_def_cfa_offset 16
 233              		.loc 1 199 0
 234              	@ 199 "../../os/kernel/src/chthreads.c" 1
 235 0008 9FF021E3 		msr     CPSR_c, #0x9F
 236              	@ 0 "" 2
 237              		.loc 1 200 0
 238 000c 10C09DE5 		ldr	ip, [sp, #16]
 239 0010 00C08DE5 		str	ip, [sp, #0]
 240 0014 FEFFFFEB 		bl	chThdCreateI
 241              	.LVL8:
 242 0018 0010A0E3 		mov	r1, #0
 243 001c 0040A0E1 		mov	r4, r0
 244              	.LVL9:
 245 0020 FEFFFFEB 		bl	chSchWakeupS
 246              	.LVL10:
 247              		.loc 1 201 0
 248              	@ 201 "../../os/kernel/src/chthreads.c" 1
 249 0024 1FF021E3 		msr     CPSR_c, #0x1F
 250              	@ 0 "" 2
 251              		.loc 1 203 0
 252 0028 0400A0E1 		mov	r0, r4
 253 002c 08D08DE2 		add	sp, sp, #8
 254 0030 1080BDE8 		ldmfd	sp!, {r4, pc}
 255              		.cfi_endproc
 256              	.LFE9:
 257              		.size	chThdCreateStatic, .-chThdCreateStatic
 258              		.section	.text.chThdSetPriority,"ax",%progbits
 259              		.align	2
 260              		.global	chThdSetPriority
 261              		.type	chThdSetPriority, %function
 262              	chThdSetPriority:
 263              	.LFB10:
 264              		.loc 1 217 0
 265              		.cfi_startproc
 266              		@ args = 0, pretend = 0, frame = 0
 267              		@ frame_needed = 0, uses_anonymous_args = 0
 268              	.LVL11:
 269 0000 10402DE9 		stmfd	sp!, {r4, lr}
 270              	.LCFI4:
 271              		.cfi_def_cfa_offset 8
 272              		.cfi_offset 4, -8
 273              		.cfi_offset 14, -4
 274              		.loc 1 222 0
 275              	@ 222 "../../os/kernel/src/chthreads.c" 1
 276 0004 9FF021E3 		msr     CPSR_c, #0x9F
 277              	@ 0 "" 2
 278              		.loc 1 224 0
 279 0008 30309FE5 		ldr	r3, .L12
 280 000c 183093E5 		ldr	r3, [r3, #24]
 281 0010 404093E5 		ldr	r4, [r3, #64]
 282              	.LVL12:
 283              		.loc 1 225 0
 284 0014 081093E5 		ldr	r1, [r3, #8]
 285 0018 010054E1 		cmp	r4, r1
ARM GAS  C:\Users\NICOMA~1\AppData\Local\Temp\ccXQNKSj.s 			page 6


 286 001c 0100000A 		beq	.L9
 287              		.loc 1 225 0 is_stmt 0 discriminator 1
 288 0020 000051E1 		cmp	r1, r0
 289 0024 0000002A 		bcs	.L10
 290              	.L9:
 291              		.loc 1 226 0 is_stmt 1
 292 0028 080083E5 		str	r0, [r3, #8]
 293              	.L10:
 294              		.loc 1 227 0
 295 002c 400083E5 		str	r0, [r3, #64]
 296              		.loc 1 232 0
 297 0030 FEFFFFEB 		bl	chSchRescheduleS
 298              	.LVL13:
 299              		.loc 1 233 0
 300              	@ 233 "../../os/kernel/src/chthreads.c" 1
 301 0034 1FF021E3 		msr     CPSR_c, #0x1F
 302              	@ 0 "" 2
 303              		.loc 1 235 0
 304 0038 0400A0E1 		mov	r0, r4
 305 003c 1080BDE8 		ldmfd	sp!, {r4, pc}
 306              	.L13:
 307              		.align	2
 308              	.L12:
 309 0040 00000000 		.word	rlist
 310              		.cfi_endproc
 311              	.LFE10:
 312              		.size	chThdSetPriority, .-chThdSetPriority
 313              		.section	.text.chThdResume,"ax",%progbits
 314              		.align	2
 315              		.global	chThdResume
 316              		.type	chThdResume, %function
 317              	chThdResume:
 318              	.LFB11:
 319              		.loc 1 250 0
 320              		.cfi_startproc
 321              		@ args = 0, pretend = 0, frame = 0
 322              		@ frame_needed = 0, uses_anonymous_args = 0
 323              	.LVL14:
 324 0000 10402DE9 		stmfd	sp!, {r4, lr}
 325              	.LCFI5:
 326              		.cfi_def_cfa_offset 8
 327              		.cfi_offset 4, -8
 328              		.cfi_offset 14, -4
 329              		.loc 1 250 0
 330 0004 0040A0E1 		mov	r4, r0
 331              		.loc 1 252 0
 332              	@ 252 "../../os/kernel/src/chthreads.c" 1
 333 0008 9FF021E3 		msr     CPSR_c, #0x9F
 334              	@ 0 "" 2
 335              		.loc 1 256 0
 336 000c 0010A0E3 		mov	r1, #0
 337 0010 FEFFFFEB 		bl	chSchWakeupS
 338              	.LVL15:
 339              		.loc 1 257 0
 340              	@ 257 "../../os/kernel/src/chthreads.c" 1
 341 0014 1FF021E3 		msr     CPSR_c, #0x1F
 342              	@ 0 "" 2
ARM GAS  C:\Users\NICOMA~1\AppData\Local\Temp\ccXQNKSj.s 			page 7


 343              		.loc 1 259 0
 344 0018 0400A0E1 		mov	r0, r4
 345 001c 1080BDE8 		ldmfd	sp!, {r4, pc}
 346              		.cfi_endproc
 347              	.LFE11:
 348              		.size	chThdResume, .-chThdResume
 349              		.section	.text.chThdTerminate,"ax",%progbits
 350              		.align	2
 351              		.global	chThdTerminate
 352              		.type	chThdTerminate, %function
 353              	chThdTerminate:
 354              	.LFB12:
 355              		.loc 1 273 0
 356              		.cfi_startproc
 357              		@ args = 0, pretend = 0, frame = 0
 358              		@ frame_needed = 0, uses_anonymous_args = 0
 359              		@ link register save eliminated.
 360              	.LVL16:
 361              		.loc 1 275 0
 362              	@ 275 "../../os/kernel/src/chthreads.c" 1
 363 0000 9FF021E3 		msr     CPSR_c, #0x9F
 364              	@ 0 "" 2
 365              		.loc 1 276 0
 366 0004 1D30D0E5 		ldrb	r3, [r0, #29]	@ zero_extendqisi2
 367 0008 043083E3 		orr	r3, r3, #4
 368 000c 1D30C0E5 		strb	r3, [r0, #29]
 369              		.loc 1 277 0
 370              	@ 277 "../../os/kernel/src/chthreads.c" 1
 371 0010 1FF021E3 		msr     CPSR_c, #0x1F
 372              	@ 0 "" 2
 373 0014 1EFF2FE1 		bx	lr
 374              		.cfi_endproc
 375              	.LFE12:
 376              		.size	chThdTerminate, .-chThdTerminate
 377              		.section	.text.chThdSleep,"ax",%progbits
 378              		.align	2
 379              		.global	chThdSleep
 380              		.type	chThdSleep, %function
 381              	chThdSleep:
 382              	.LFB13:
 383              		.loc 1 292 0
 384              		.cfi_startproc
 385              		@ args = 0, pretend = 0, frame = 0
 386              		@ frame_needed = 0, uses_anonymous_args = 0
 387              	.LVL17:
 388 0000 08402DE9 		stmfd	sp!, {r3, lr}
 389              	.LCFI6:
 390              		.cfi_def_cfa_offset 8
 391              		.cfi_offset 3, -8
 392              		.cfi_offset 14, -4
 393              		.loc 1 292 0
 394 0004 0010A0E1 		mov	r1, r0
 395              		.loc 1 296 0
 396              	@ 296 "../../os/kernel/src/chthreads.c" 1
 397 0008 9FF021E3 		msr     CPSR_c, #0x9F
 398              	@ 0 "" 2
 399              		.loc 1 297 0
ARM GAS  C:\Users\NICOMA~1\AppData\Local\Temp\ccXQNKSj.s 			page 8


 400 000c 0600A0E3 		mov	r0, #6
 401              	.LVL18:
 402 0010 FEFFFFEB 		bl	chSchGoSleepTimeoutS
 403              	.LVL19:
 404              		.loc 1 298 0
 405              	@ 298 "../../os/kernel/src/chthreads.c" 1
 406 0014 1FF021E3 		msr     CPSR_c, #0x1F
 407              	@ 0 "" 2
 408 0018 0880BDE8 		ldmfd	sp!, {r3, pc}
 409              		.cfi_endproc
 410              	.LFE13:
 411              		.size	chThdSleep, .-chThdSleep
 412              		.section	.text.chThdSleepUntil,"ax",%progbits
 413              		.align	2
 414              		.global	chThdSleepUntil
 415              		.type	chThdSleepUntil, %function
 416              	chThdSleepUntil:
 417              	.LFB14:
 418              		.loc 1 309 0
 419              		.cfi_startproc
 420              		@ args = 0, pretend = 0, frame = 0
 421              		@ frame_needed = 0, uses_anonymous_args = 0
 422              	.LVL20:
 423 0000 08402DE9 		stmfd	sp!, {r3, lr}
 424              	.LCFI7:
 425              		.cfi_def_cfa_offset 8
 426              		.cfi_offset 3, -8
 427              		.cfi_offset 14, -4
 428              		.loc 1 311 0
 429              	@ 311 "../../os/kernel/src/chthreads.c" 1
 430 0004 9FF021E3 		msr     CPSR_c, #0x9F
 431              	@ 0 "" 2
 432              		.loc 1 312 0
 433 0008 18309FE5 		ldr	r3, .L22
 434 000c 0C3093E5 		ldr	r3, [r3, #12]
 435              	.LVL21:
 436 0010 031050E0 		subs	r1, r0, r3
 437              	.LVL22:
 438 0014 0100000A 		beq	.L18
 439              		.loc 1 313 0
 440 0018 0600A0E3 		mov	r0, #6
 441 001c FEFFFFEB 		bl	chSchGoSleepTimeoutS
 442              	.LVL23:
 443              	.L18:
 444              		.loc 1 314 0
 445              	@ 314 "../../os/kernel/src/chthreads.c" 1
 446 0020 1FF021E3 		msr     CPSR_c, #0x1F
 447              	@ 0 "" 2
 448 0024 0880BDE8 		ldmfd	sp!, {r3, pc}
 449              	.L23:
 450              		.align	2
 451              	.L22:
 452 0028 00000000 		.word	vtlist
 453              		.cfi_endproc
 454              	.LFE14:
 455              		.size	chThdSleepUntil, .-chThdSleepUntil
 456              		.section	.text.chThdYield,"ax",%progbits
ARM GAS  C:\Users\NICOMA~1\AppData\Local\Temp\ccXQNKSj.s 			page 9


 457              		.align	2
 458              		.global	chThdYield
 459              		.type	chThdYield, %function
 460              	chThdYield:
 461              	.LFB15:
 462              		.loc 1 324 0
 463              		.cfi_startproc
 464              		@ args = 0, pretend = 0, frame = 0
 465              		@ frame_needed = 0, uses_anonymous_args = 0
 466 0000 08402DE9 		stmfd	sp!, {r3, lr}
 467              	.LCFI8:
 468              		.cfi_def_cfa_offset 8
 469              		.cfi_offset 3, -8
 470              		.cfi_offset 14, -4
 471              		.loc 1 326 0
 472              	@ 326 "../../os/kernel/src/chthreads.c" 1
 473 0004 9FF021E3 		msr     CPSR_c, #0x9F
 474              	@ 0 "" 2
 475              		.loc 1 327 0
 476 0008 20309FE5 		ldr	r3, .L26
 477 000c 002093E5 		ldr	r2, [r3, #0]
 478 0010 183093E5 		ldr	r3, [r3, #24]
 479 0014 082092E5 		ldr	r2, [r2, #8]
 480 0018 083093E5 		ldr	r3, [r3, #8]
 481 001c 030052E1 		cmp	r2, r3
 482 0020 0000003A 		bcc	.L25
 483              		.loc 1 327 0 is_stmt 0 discriminator 1
 484 0024 FEFFFFEB 		bl	chSchDoRescheduleBehind
 485              	.LVL24:
 486              	.L25:
 487              		.loc 1 328 0 is_stmt 1
 488              	@ 328 "../../os/kernel/src/chthreads.c" 1
 489 0028 1FF021E3 		msr     CPSR_c, #0x1F
 490              	@ 0 "" 2
 491 002c 0880BDE8 		ldmfd	sp!, {r3, pc}
 492              	.L27:
 493              		.align	2
 494              	.L26:
 495 0030 00000000 		.word	rlist
 496              		.cfi_endproc
 497              	.LFE15:
 498              		.size	chThdYield, .-chThdYield
 499              		.section	.text.chThdExitS,"ax",%progbits
 500              		.align	2
 501              		.global	chThdExitS
 502              		.type	chThdExitS, %function
 503              	chThdExitS:
 504              	.LFB17:
 505              		.loc 1 366 0
 506              		.cfi_startproc
 507              		@ args = 0, pretend = 0, frame = 0
 508              		@ frame_needed = 0, uses_anonymous_args = 0
 509              	.LVL25:
 510 0000 38402DE9 		stmfd	sp!, {r3, r4, r5, lr}
 511              	.LCFI9:
 512              		.cfi_def_cfa_offset 16
 513              		.cfi_offset 3, -16
ARM GAS  C:\Users\NICOMA~1\AppData\Local\Temp\ccXQNKSj.s 			page 10


 514              		.cfi_offset 4, -12
 515              		.cfi_offset 5, -8
 516              		.cfi_offset 14, -4
 517              		.loc 1 367 0
 518 0004 5C309FE5 		ldr	r3, .L36
 519 0008 184093E5 		ldr	r4, [r3, #24]
 520              	.LVL26:
 521              		.loc 1 374 0
 522 000c 0450A0E1 		mov	r5, r4
 523 0010 2830B5E5 		ldr	r3, [r5, #40]!
 524              		.loc 1 369 0
 525 0014 240084E5 		str	r0, [r4, #36]
 526              		.loc 1 374 0
 527 0018 050053E1 		cmp	r3, r5
 528 001c 0600000A 		beq	.L33
 529              	.LVL27:
 530              	.L34:
 531              	.LBB18:
 532              	.LBB19:
 533              		.file 2 "../../os/kernel/include/chinline.h"
 534              		.loc 2 89 0
 535 0020 002093E5 		ldr	r2, [r3, #0]
 536              	.LBE19:
 537              	.LBE18:
 538              		.loc 1 375 0
 539 0024 0300A0E1 		mov	r0, r3
 540              	.LBB21:
 541              	.LBB20:
 542              		.loc 2 89 0
 543 0028 282084E5 		str	r2, [r4, #40]
 544              	.LBE20:
 545              	.LBE21:
 546              		.loc 1 375 0
 547 002c FEFFFFEB 		bl	chSchReadyI
 548              	.LVL28:
 549              		.loc 1 374 0
 550 0030 283094E5 		ldr	r3, [r4, #40]
 551 0034 050053E1 		cmp	r3, r5
 552 0038 F8FFFF1A 		bne	.L34
 553              	.LVL29:
 554              	.L33:
 555              		.loc 1 380 0
 556 003c 1D30D4E5 		ldrb	r3, [r4, #29]	@ zero_extendqisi2
 557 0040 030013E3 		tst	r3, #3
 558 0044 0400001A 		bne	.L31
 559              		.loc 1 381 0
 560 0048 143094E5 		ldr	r3, [r4, #20]
 561 004c 102094E5 		ldr	r2, [r4, #16]
 562 0050 102083E5 		str	r2, [r3, #16]
 563 0054 102094E5 		ldr	r2, [r4, #16]
 564 0058 143082E5 		str	r3, [r2, #20]
 565              	.L31:
 566              		.loc 1 383 0
 567 005c 0E00A0E3 		mov	r0, #14
 568              		.loc 1 386 0
 569 0060 3840BDE8 		ldmfd	sp!, {r3, r4, r5, lr}
 570              		.loc 1 383 0
ARM GAS  C:\Users\NICOMA~1\AppData\Local\Temp\ccXQNKSj.s 			page 11


 571 0064 FEFFFFEA 		b	chSchGoSleepS
 572              	.LVL30:
 573              	.L37:
 574              		.align	2
 575              	.L36:
 576 0068 00000000 		.word	rlist
 577              		.cfi_endproc
 578              	.LFE17:
 579              		.size	chThdExitS, .-chThdExitS
 580              		.section	.text.chThdExit,"ax",%progbits
 581              		.align	2
 582              		.global	chThdExit
 583              		.type	chThdExit, %function
 584              	chThdExit:
 585              	.LFB16:
 586              		.loc 1 345 0
 587              		.cfi_startproc
 588              		@ args = 0, pretend = 0, frame = 0
 589              		@ frame_needed = 0, uses_anonymous_args = 0
 590              		@ link register save eliminated.
 591              	.LVL31:
 592              		.loc 1 347 0
 593              	@ 347 "../../os/kernel/src/chthreads.c" 1
 594 0000 9FF021E3 		msr     CPSR_c, #0x9F
 595              	@ 0 "" 2
 596              		.loc 1 350 0
 597              		.loc 1 348 0
 598 0004 FEFFFFEA 		b	chThdExitS
 599              	.LVL32:
 600              		.cfi_endproc
 601              	.LFE16:
 602              		.size	chThdExit, .-chThdExit
 603              		.section	.text.chThdWait,"ax",%progbits
 604              		.align	2
 605              		.global	chThdWait
 606              		.type	chThdWait, %function
 607              	chThdWait:
 608              	.LFB18:
 609              		.loc 1 420 0
 610              		.cfi_startproc
 611              		@ args = 0, pretend = 0, frame = 0
 612              		@ frame_needed = 0, uses_anonymous_args = 0
 613              	.LVL33:
 614 0000 38402DE9 		stmfd	sp!, {r3, r4, r5, lr}
 615              	.LCFI10:
 616              		.cfi_def_cfa_offset 16
 617              		.cfi_offset 3, -16
 618              		.cfi_offset 4, -12
 619              		.cfi_offset 5, -8
 620              		.cfi_offset 14, -4
 621              		.loc 1 420 0
 622 0004 0040A0E1 		mov	r4, r0
 623              		.loc 1 425 0
 624              	@ 425 "../../os/kernel/src/chthreads.c" 1
 625 0008 9FF021E3 		msr     CPSR_c, #0x9F
 626              	@ 0 "" 2
 627              		.loc 1 430 0
ARM GAS  C:\Users\NICOMA~1\AppData\Local\Temp\ccXQNKSj.s 			page 12


 628 000c 1C30D0E5 		ldrb	r3, [r0, #28]	@ zero_extendqisi2
 629 0010 0E0053E3 		cmp	r3, #14
 630 0014 0600000A 		beq	.L40
 631              		.loc 1 431 0
 632 0018 2C309FE5 		ldr	r3, .L44
 633              	.LBB22:
 634              	.LBB23:
 635              		.loc 2 82 0
 636 001c 282090E5 		ldr	r2, [r0, #40]
 637              	.LBE23:
 638              	.LBE22:
 639              		.loc 1 431 0
 640 0020 183093E5 		ldr	r3, [r3, #24]
 641              	.LVL34:
 642              		.loc 1 432 0
 643 0024 0700A0E3 		mov	r0, #7
 644              	.LVL35:
 645              	.LBB25:
 646              	.LBB24:
 647              		.loc 2 82 0
 648 0028 002083E5 		str	r2, [r3, #0]
 649              		.loc 2 83 0
 650 002c 283084E5 		str	r3, [r4, #40]
 651              	.LBE24:
 652              	.LBE25:
 653              		.loc 1 432 0
 654 0030 FEFFFFEB 		bl	chSchGoSleepS
 655              	.LVL36:
 656              	.L40:
 657              		.loc 1 434 0
 658 0034 245094E5 		ldr	r5, [r4, #36]
 659              	.LVL37:
 660              		.loc 1 435 0
 661              	@ 435 "../../os/kernel/src/chthreads.c" 1
 662 0038 1FF021E3 		msr     CPSR_c, #0x1F
 663              	@ 0 "" 2
 664              		.loc 1 437 0
 665 003c 0400A0E1 		mov	r0, r4
 666 0040 FEFFFFEB 		bl	chThdRelease
 667              	.LVL38:
 668              		.loc 1 440 0
 669 0044 0500A0E1 		mov	r0, r5
 670 0048 3880BDE8 		ldmfd	sp!, {r3, r4, r5, pc}
 671              	.L45:
 672              		.align	2
 673              	.L44:
 674 004c 00000000 		.word	rlist
 675              		.cfi_endproc
 676              	.LFE18:
 677              		.size	chThdWait, .-chThdWait
 678              		.text
 679              	.Letext0:
 680              		.file 3 "c:\\yagarto-20121222\\bin\\../lib/gcc/arm-none-eabi/4.7.2/include/stddef.h"
 681              		.file 4 "c:/yagarto-20121222/lib/gcc/../../arm-none-eabi/sys-include/stdint.h"
 682              		.file 5 "../../os/ports/GCC/ARM/chtypes.h"
 683              		.file 6 "../../os/kernel/include/chlists.h"
 684              		.file 7 "../../os/kernel/include/chthreads.h"
ARM GAS  C:\Users\NICOMA~1\AppData\Local\Temp\ccXQNKSj.s 			page 13


 685              		.file 8 "../../os/ports/GCC/ARM/chcore.h"
 686              		.file 9 "../../os/kernel/include/chvt.h"
 687              		.file 10 "../../os/kernel/include/chschd.h"
 688              		.file 11 "../../os/kernel/include/chmtx.h"
 689              		.file 12 "../../os/kernel/include/chdynamic.h"