ARM GAS  C:\Users\NICOMA~1\AppData\Local\Temp\cciQShQY.s 			page 1


   1              		.cpu arm1176jz-s
   2              		.fpu softvfp
   3              		.eabi_attribute 20, 1
   4              		.eabi_attribute 21, 1
   5              		.eabi_attribute 23, 3
   6              		.eabi_attribute 24, 1
   7              		.eabi_attribute 25, 1
   8              		.eabi_attribute 26, 1
   9              		.eabi_attribute 30, 2
  10              		.eabi_attribute 34, 1
  11              		.eabi_attribute 18, 4
  12              		.file	"chvt.c"
  13              		.text
  14              	.Ltext0:
  15              		.cfi_sections	.debug_frame
  16              		.section	.text._vt_init,"ax",%progbits
  17              		.align	2
  18              		.global	_vt_init
  19              		.type	_vt_init, %function
  20              	_vt_init:
  21              	.LFB7:
  22              		.file 1 "../../os/kernel/src/chvt.c"
  23              		.loc 1 50 0
  24              		.cfi_startproc
  25              		@ args = 0, pretend = 0, frame = 0
  26              		@ frame_needed = 0, uses_anonymous_args = 0
  27              		@ link register save eliminated.
  28              		.loc 1 52 0
  29 0000 18309FE5 		ldr	r3, .L2
  30              		.loc 1 53 0
  31 0004 0020E0E3 		mvn	r2, #0
  32 0008 082083E5 		str	r2, [r3, #8]
  33              		.loc 1 54 0
  34 000c 0020A0E3 		mov	r2, #0
  35              		.loc 1 52 0
  36 0010 043083E5 		str	r3, [r3, #4]
  37 0014 003083E5 		str	r3, [r3, #0]
  38              		.loc 1 54 0
  39 0018 0C2083E5 		str	r2, [r3, #12]
  40 001c 1EFF2FE1 		bx	lr
  41              	.L3:
  42              		.align	2
  43              	.L2:
  44 0020 00000000 		.word	vtlist
  45              		.cfi_endproc
  46              	.LFE7:
  47              		.size	_vt_init, .-_vt_init
  48              		.section	.text.chVTSetI,"ax",%progbits
  49              		.align	2
  50              		.global	chVTSetI
  51              		.type	chVTSetI, %function
  52              	chVTSetI:
  53              	.LFB8:
  54              		.loc 1 76 0
  55              		.cfi_startproc
  56              		@ args = 0, pretend = 0, frame = 0
  57              		@ frame_needed = 0, uses_anonymous_args = 0
ARM GAS  C:\Users\NICOMA~1\AppData\Local\Temp\cciQShQY.s 			page 2


  58              		@ link register save eliminated.
  59              	.LVL0:
  60 0000 30002DE9 		stmfd	sp!, {r4, r5}
  61              	.LCFI0:
  62              		.cfi_def_cfa_offset 8
  63              		.cfi_offset 4, -8
  64              		.cfi_offset 5, -4
  65              		.loc 1 85 0
  66 0004 58509FE5 		ldr	r5, .L11
  67              		.loc 1 83 0
  68 0008 103080E5 		str	r3, [r0, #16]
  69              		.loc 1 85 0
  70 000c 00C095E5 		ldr	ip, [r5, #0]
  71              	.LVL1:
  72              		.loc 1 84 0
  73 0010 0C2080E5 		str	r2, [r0, #12]
  74              		.loc 1 86 0
  75 0014 08409CE5 		ldr	r4, [ip, #8]
  76 0018 040051E1 		cmp	r1, r4
  77 001c 0400009A 		bls	.L5
  78              	.L8:
  79              		.loc 1 88 0
  80 0020 00C09CE5 		ldr	ip, [ip, #0]
  81              	.LVL2:
  82              		.loc 1 87 0
  83 0024 011064E0 		rsb	r1, r4, r1
  84              	.LVL3:
  85              		.loc 1 86 0
  86 0028 08409CE5 		ldr	r4, [ip, #8]
  87 002c 010054E1 		cmp	r4, r1
  88 0030 FAFFFF3A 		bcc	.L8
  89              	.L5:
  90              		.loc 1 91 0
  91 0034 04309CE5 		ldr	r3, [ip, #4]
  92              	.LVL4:
  93              		.loc 1 94 0
  94 0038 05005CE1 		cmp	ip, r5
  95              		.loc 1 93 0
  96 003c 081080E5 		str	r1, [r0, #8]
  97              		.loc 1 91 0
  98 0040 043080E5 		str	r3, [r0, #4]
  99 0044 00C080E5 		str	ip, [r0, #0]
 100              		.loc 1 92 0
 101 0048 000083E5 		str	r0, [r3, #0]
 102              		.loc 1 95 0
 103 004c 08309C15 		ldrne	r3, [ip, #8]
 104              		.loc 1 92 0
 105 0050 04008CE5 		str	r0, [ip, #4]
 106              		.loc 1 95 0
 107 0054 03106110 		rsbne	r1, r1, r3
 108              	.LVL5:
 109 0058 08108C15 		strne	r1, [ip, #8]
 110              		.loc 1 96 0
 111 005c 3000BDE8 		ldmfd	sp!, {r4, r5}
 112 0060 1EFF2FE1 		bx	lr
 113              	.L12:
 114              		.align	2
ARM GAS  C:\Users\NICOMA~1\AppData\Local\Temp\cciQShQY.s 			page 3


 115              	.L11:
 116 0064 00000000 		.word	vtlist
 117              		.cfi_endproc
 118              	.LFE8:
 119              		.size	chVTSetI, .-chVTSetI
 120              		.section	.text.chVTResetI,"ax",%progbits
 121              		.align	2
 122              		.global	chVTResetI
 123              		.type	chVTResetI, %function
 124              	chVTResetI:
 125              	.LFB9:
 126              		.loc 1 106 0
 127              		.cfi_startproc
 128              		@ args = 0, pretend = 0, frame = 0
 129              		@ frame_needed = 0, uses_anonymous_args = 0
 130              		@ link register save eliminated.
 131              	.LVL6:
 132              		.loc 1 114 0
 133 0000 003090E5 		ldr	r3, [r0, #0]
 134 0004 2C209FE5 		ldr	r2, .L15
 135 0008 020053E1 		cmp	r3, r2
 136              		.loc 1 115 0
 137 000c 08109315 		ldrne	r1, [r3, #8]
 138 0010 08209015 		ldrne	r2, [r0, #8]
 139 0014 02208110 		addne	r2, r1, r2
 140 0018 08208315 		strne	r2, [r3, #8]
 141              		.loc 1 116 0
 142 001c 042090E5 		ldr	r2, [r0, #4]
 143              		.loc 1 118 0
 144 0020 0010A0E3 		mov	r1, #0
 145              		.loc 1 116 0
 146 0024 003082E5 		str	r3, [r2, #0]
 147              		.loc 1 117 0
 148 0028 003090E5 		ldr	r3, [r0, #0]
 149              		.loc 1 118 0
 150 002c 0C1080E5 		str	r1, [r0, #12]
 151              		.loc 1 117 0
 152 0030 042083E5 		str	r2, [r3, #4]
 153 0034 1EFF2FE1 		bx	lr
 154              	.L16:
 155              		.align	2
 156              	.L15:
 157 0038 00000000 		.word	vtlist
 158              		.cfi_endproc
 159              	.LFE9:
 160              		.size	chVTResetI, .-chVTResetI
 161              		.comm	vtlist,16,4
 162              		.text
 163              	.Letext0:
 164              		.file 2 "c:/yagarto-20121222/lib/gcc/../../arm-none-eabi/sys-include/stdint.h"
 165              		.file 3 "../../os/ports/GCC/ARM/chtypes.h"
 166              		.file 4 "../../os/kernel/include/chvt.h"