ARM GAS  C:\Users\NICOMA~1\AppData\Local\Temp\ccMNhbEU.s 			page 1


   1              		.cpu arm1176jz-s
   2              		.fpu softvfp
   3              		.eabi_attribute 20, 1
   4              		.eabi_attribute 21, 1
   5              		.eabi_attribute 23, 3
   6              		.eabi_attribute 24, 1
   7              		.eabi_attribute 25, 1
   8              		.eabi_attribute 26, 1
   9              		.eabi_attribute 30, 2
  10              		.eabi_attribute 34, 1
  11              		.eabi_attribute 18, 4
  12              		.file	"hal.c"
  13              		.text
  14              	.Ltext0:
  15              		.cfi_sections	.debug_frame
  16              		.section	.text.halInit,"ax",%progbits
  17              		.align	2
  18              		.global	halInit
  19              		.type	halInit, %function
  20              	halInit:
  21              	.LFB7:
  22              		.file 1 "../../os/hal/src/hal.c"
  23              		.loc 1 68 0
  24              		.cfi_startproc
  25              		@ args = 0, pretend = 0, frame = 0
  26              		@ frame_needed = 0, uses_anonymous_args = 0
  27 0000 08402DE9 		stmfd	sp!, {r3, lr}
  28              	.LCFI0:
  29              		.cfi_def_cfa_offset 8
  30              		.cfi_offset 3, -8
  31              		.cfi_offset 14, -4
  32              		.loc 1 70 0
  33 0004 FEFFFFEB 		bl	hal_lld_init
  34              	.LVL0:
  35              		.loc 1 73 0
  36 0008 FEFFFFEB 		bl	tmInit
  37              	.LVL1:
  38              		.loc 1 76 0
  39 000c 14009FE5 		ldr	r0, .L2
  40 0010 FEFFFFEB 		bl	_pal_lld_init
  41              	.LVL2:
  42              		.loc 1 91 0
  43 0014 FEFFFFEB 		bl	i2cInit
  44              	.LVL3:
  45              		.loc 1 103 0
  46 0018 FEFFFFEB 		bl	sdInit
  47              	.LVL4:
  48              		.loc 1 109 0
  49 001c FEFFFFEB 		bl	spiInit
  50              	.LVL5:
  51              		.loc 1 128 0
  52 0020 0840BDE8 		ldmfd	sp!, {r3, lr}
  53              		.loc 1 127 0
  54 0024 FEFFFFEA 		b	boardInit
  55              	.LVL6:
  56              	.L3:
  57              		.align	2
ARM GAS  C:\Users\NICOMA~1\AppData\Local\Temp\ccMNhbEU.s 			page 2


  58              	.L2:
  59 0028 00000000 		.word	pal_default_config
  60              		.cfi_endproc
  61              	.LFE7:
  62              		.size	halInit, .-halInit
  63              		.section	.text.halIsCounterWithin,"ax",%progbits
  64              		.align	2
  65              		.global	halIsCounterWithin
  66              		.type	halIsCounterWithin, %function
  67              	halIsCounterWithin:
  68              	.LFB8:
  69              		.loc 1 174 0
  70              		.cfi_startproc
  71              		@ args = 0, pretend = 0, frame = 0
  72              		@ frame_needed = 0, uses_anonymous_args = 0
  73              		@ link register save eliminated.
  74              	.LVL7:
  75              		.loc 1 175 0
  76 0000 40209FE5 		ldr	r2, .L9
  77              		.loc 1 177 0
  78 0004 000051E1 		cmp	r1, r0
  79              		.loc 1 174 0
  80 0008 0030A0E1 		mov	r3, r0
  81              		.loc 1 175 0
  82 000c 042092E5 		ldr	r2, [r2, #4]
  83              	.LVL8:
  84              		.loc 1 177 0
  85 0010 0600008A 		bhi	.L8
  86              		.loc 1 178 0 discriminator 2
  87 0014 000052E1 		cmp	r2, r0
  88 0018 0030A033 		movcc	r3, #0
  89 001c 0130A023 		movcs	r3, #1
  90 0020 010052E1 		cmp	r2, r1
  91 0024 0300A021 		movcs	r0, r3
  92 0028 01008333 		orrcc	r0, r3, #1
  93              	.LVL9:
  94              		.loc 1 179 0 discriminator 2
  95 002c 1EFF2FE1 		bx	lr
  96              	.LVL10:
  97              	.L8:
  98              		.loc 1 177 0 discriminator 1
  99 0030 010052E1 		cmp	r2, r1
 100 0034 0000A023 		movcs	r0, #0
 101              	.LVL11:
 102 0038 0100A033 		movcc	r0, #1
 103 003c 030052E1 		cmp	r2, r3
 104 0040 0000A033 		movcc	r0, #0
 105 0044 1EFF2FE1 		bx	lr
 106              	.L10:
 107              		.align	2
 108              	.L9:
 109 0048 00300020 		.word	536883200
 110              		.cfi_endproc
 111              	.LFE8:
 112              		.size	halIsCounterWithin, .-halIsCounterWithin
 113              		.section	.text.halPolledDelay,"ax",%progbits
 114              		.align	2
ARM GAS  C:\Users\NICOMA~1\AppData\Local\Temp\ccMNhbEU.s 			page 3


 115              		.global	halPolledDelay
 116              		.type	halPolledDelay, %function
 117              	halPolledDelay:
 118              	.LFB9:
 119              		.loc 1 193 0
 120              		.cfi_startproc
 121              		@ args = 0, pretend = 0, frame = 0
 122              		@ frame_needed = 0, uses_anonymous_args = 0
 123              		@ link register save eliminated.
 124              	.LVL12:
 125              		.loc 1 194 0
 126 0000 50C09FE5 		ldr	ip, .L18
 127 0004 04209CE5 		ldr	r2, [ip, #4]
 128              	.LVL13:
 129              		.loc 1 195 0
 130 0008 020080E0 		add	r0, r0, r2
 131              	.LVL14:
 132              		.loc 1 196 0
 133 000c 060000EA 		b	.L14
 134              	.LVL15:
 135              	.L17:
 136              	.LBB4:
 137              	.LBB5:
 138              		.loc 1 177 0
 139 0010 030050E1 		cmp	r0, r3
 140 0014 0010A093 		movls	r1, #0
 141 0018 0110A083 		movhi	r1, #1
 142 001c 030052E1 		cmp	r2, r3
 143 0020 0010A083 		movhi	r1, #0
 144              	.LBE5:
 145              	.LBE4:
 146              		.loc 1 196 0
 147 0024 000051E3 		cmp	r1, #0
 148 0028 0900000A 		beq	.L16
 149              	.LVL16:
 150              	.L14:
 151              	.LBB7:
 152              	.LBB6:
 153              		.loc 1 177 0 discriminator 1
 154 002c 000052E1 		cmp	r2, r0
 155              		.loc 1 175 0 discriminator 1
 156 0030 04309CE5 		ldr	r3, [ip, #4]
 157              	.LVL17:
 158              		.loc 1 177 0 discriminator 1
 159 0034 F5FFFF3A 		bcc	.L17
 160              		.loc 1 178 0
 161 0038 030052E1 		cmp	r2, r3
 162 003c 0010A083 		movhi	r1, #0
 163 0040 0110A093 		movls	r1, #1
 164 0044 030050E1 		cmp	r0, r3
 165 0048 01108183 		orrhi	r1, r1, #1
 166              	.LBE6:
 167              	.LBE7:
 168              		.loc 1 196 0
 169 004c 000051E3 		cmp	r1, #0
 170 0050 F5FFFF1A 		bne	.L14
 171              	.L16:
ARM GAS  C:\Users\NICOMA~1\AppData\Local\Temp\ccMNhbEU.s 			page 4


 172              		.loc 1 198 0
 173 0054 1EFF2FE1 		bx	lr
 174              	.L19:
 175              		.align	2
 176              	.L18:
 177 0058 00300020 		.word	536883200
 178              		.cfi_endproc
 179              	.LFE9:
 180              		.size	halPolledDelay, .-halPolledDelay
 181              		.text
 182              	.Letext0:
 183              		.file 2 "c:/yagarto-20121222/lib/gcc/../../arm-none-eabi/sys-include/stdint.h"
 184              		.file 3 "../../os/ports/GCC/ARM/chtypes.h"
 185              		.file 4 "../../os/hal/platforms/BCM2835/hal_lld.h"
 186              		.file 5 "../../os/hal/platforms/BCM2835/pal_lld.h"
 187              		.file 6 "../../os/hal/include/tm.h"
 188              		.file 7 "../../os/hal/include/i2c.h"
 189              		.file 8 "../../os/hal/include/serial.h"
 190              		.file 9 "../../os/hal/include/spi.h"
 191              		.file 10 "../../boards/RASPBERRYPI_MODB/board.h"