ARM GAS  C:\Users\NICOMA~1\AppData\Local\Temp\ccnJmhOW.s 			page 1


   1              		.cpu arm1176jz-s
   2              		.fpu softvfp
   3              		.eabi_attribute 20, 1
   4              		.eabi_attribute 21, 1
   5              		.eabi_attribute 23, 3
   6              		.eabi_attribute 24, 1
   7              		.eabi_attribute 25, 1
   8              		.eabi_attribute 26, 1
   9              		.eabi_attribute 30, 2
  10              		.eabi_attribute 34, 1
  11              		.eabi_attribute 18, 4
  12              		.file	"hal_lld.c"
  13              		.text
  14              	.Ltext0:
  15              		.cfi_sections	.debug_frame
  16              		.section	.text.IrqHandler,"ax",%progbits
  17              		.align	2
  18              		.global	IrqHandler
  19              		.type	IrqHandler, %function
  20              	IrqHandler:
  21              	.LFB9:
  22              		.file 1 "../../os/hal/platforms/BCM2835/hal_lld.c"
  23              		.loc 1 91 0
  24              		.cfi_startproc
  25              		@ Naked Function: prologue and epilogue provided by programmer.
  26              		@ args = 0, pretend = 0, frame = 0
  27              		@ frame_needed = 0, uses_anonymous_args = 0
  28              		.loc 1 92 0
  29              	@ 92 "../../os/hal/platforms/BCM2835/hal_lld.c" 1
  30 0000 0F502DE9 		stmfd    sp!, {r0-r3, r12, lr}
  31              	@ 0 "" 2
  32              	.LBB6:
  33              	.LBB7:
  34              		.loc 1 75 0
  35 0004 FEFFFFEB 		bl	chSysTimerHandlerI
  36              	.LVL0:
  37              		.loc 1 79 0
  38 0008 28309FE5 		ldr	r3, .L2
  39 000c 0020A0E3 		mov	r2, #0
  40 0010 0C2483E5 		str	r2, [r3, #1036]
  41              	.LBE7:
  42              	.LBE6:
  43              		.loc 1 97 0
  44 0014 20009FE5 		ldr	r0, .L2+4
  45 0018 FEFFFFEB 		bl	sd_lld_serve_interrupt
  46              	.LVL1:
  47              		.loc 1 101 0
  48 001c 1C009FE5 		ldr	r0, .L2+8
  49 0020 FEFFFFEB 		bl	i2c_lld_serve_interrupt
  50              	.LVL2:
  51              		.loc 1 102 0
  52 0024 18009FE5 		ldr	r0, .L2+12
  53 0028 FEFFFFEB 		bl	i2c_lld_serve_interrupt
  54              	.LVL3:
  55              		.loc 1 106 0
  56 002c 14009FE5 		ldr	r0, .L2+16
  57 0030 FEFFFFEB 		bl	spi_lld_serve_interrupt
ARM GAS  C:\Users\NICOMA~1\AppData\Local\Temp\ccnJmhOW.s 			page 2


  58              	.LVL4:
  59              		.loc 1 113 0
  60              	@ 113 "../../os/hal/platforms/BCM2835/hal_lld.c" 1
  61 0034 FEFFFFEA 		b       _port_irq_common
  62              	@ 0 "" 2
  63              		.loc 1 114 0
  64              	.L3:
  65              		.align	2
  66              	.L2:
  67 0038 00B00020 		.word	536915968
  68 003c 00000000 		.word	SD1
  69 0040 00000000 		.word	I2C0
  70 0044 00000000 		.word	I2C1
  71 0048 00000000 		.word	SPI0
  72              		.cfi_endproc
  73              	.LFE9:
  74              		.size	IrqHandler, .-IrqHandler
  75              		.section	.text.delayMicroseconds,"ax",%progbits
  76              		.align	2
  77              		.global	delayMicroseconds
  78              		.type	delayMicroseconds, %function
  79              	delayMicroseconds:
  80              	.LFB10:
  81              		.loc 1 125 0
  82              		.cfi_startproc
  83              		@ args = 0, pretend = 0, frame = 0
  84              		@ frame_needed = 0, uses_anonymous_args = 0
  85              		@ link register save eliminated.
  86              	.LVL5:
  87              		.loc 1 126 0
  88 0000 14209FE5 		ldr	r2, .L8
  89 0004 043092E5 		ldr	r3, [r2, #4]
  90 0008 030080E0 		add	r0, r0, r3
  91              	.LVL6:
  92              	.L5:
  93              		.loc 1 127 0 discriminator 1
  94 000c 043092E5 		ldr	r3, [r2, #4]
  95 0010 030050E1 		cmp	r0, r3
  96 0014 FCFFFF8A 		bhi	.L5
  97              		.loc 1 128 0
  98 0018 1EFF2FE1 		bx	lr
  99              	.L9:
 100              		.align	2
 101              	.L8:
 102 001c 00300020 		.word	536883200
 103              		.cfi_endproc
 104              	.LFE10:
 105              		.size	delayMicroseconds, .-delayMicroseconds
 106              		.section	.text.hal_lld_init,"ax",%progbits
 107              		.align	2
 108              		.global	hal_lld_init
 109              		.type	hal_lld_init, %function
 110              	hal_lld_init:
 111              	.LFB11:
 112              		.loc 1 135 0
 113              		.cfi_startproc
 114              		@ args = 0, pretend = 0, frame = 0
ARM GAS  C:\Users\NICOMA~1\AppData\Local\Temp\ccnJmhOW.s 			page 3


 115              		@ frame_needed = 0, uses_anonymous_args = 0
 116              		@ link register save eliminated.
 117              	.LBB8:
 118              	.LBB9:
 119              		.loc 1 56 0
 120 0000 38309FE5 		ldr	r3, .L11
 121              		.loc 1 57 0
 122 0004 38209FE5 		ldr	r2, .L11+4
 123              		.loc 1 56 0
 124 0008 3E18A0E3 		mov	r1, #4063232
 125 000c 081483E5 		str	r1, [r3, #1032]
 126              		.loc 1 57 0
 127 0010 002483E5 		str	r2, [r3, #1024]
 128              		.loc 1 58 0
 129 0014 182483E5 		str	r2, [r3, #1048]
 130              		.loc 1 59 0
 131 0018 F920A0E3 		mov	r2, #249
 132 001c 1C2483E5 		str	r2, [r3, #1052]
 133              		.loc 1 60 0
 134 0020 0020A0E3 		mov	r2, #0
 135 0024 0C2483E5 		str	r2, [r3, #1036]
 136              		.loc 1 61 0
 137 0028 18209FE5 		ldr	r2, .L11+8
 138 002c 082483E5 		str	r2, [r3, #1032]
 139              		.loc 1 63 0
 140 0030 182293E5 		ldr	r2, [r3, #536]
 141 0034 012082E3 		orr	r2, r2, #1
 142 0038 182283E5 		str	r2, [r3, #536]
 143 003c 1EFF2FE1 		bx	lr
 144              	.L12:
 145              		.align	2
 146              	.L11:
 147 0040 00B00020 		.word	536915968
 148 0044 E7030000 		.word	999
 149 0048 A2003E00 		.word	4063394
 150              	.LBE9:
 151              	.LBE8:
 152              		.cfi_endproc
 153              	.LFE11:
 154              		.size	hal_lld_init, .-hal_lld_init
 155              		.section	.text.watchdog_start,"ax",%progbits
 156              		.align	2
 157              		.global	watchdog_start
 158              		.type	watchdog_start, %function
 159              	watchdog_start:
 160              	.LFB12:
 161              		.loc 1 143 0
 162              		.cfi_startproc
 163              		@ args = 0, pretend = 0, frame = 0
 164              		@ frame_needed = 0, uses_anonymous_args = 0
 165              		@ link register save eliminated.
 166              	.LVL7:
 167              		.loc 1 145 0
 168 0000 28309FE5 		ldr	r3, .L14
 169              		.loc 1 148 0
 170 0004 FF04C0E3 		bic	r0, r0, #-16777216
 171              	.LVL8:
ARM GAS  C:\Users\NICOMA~1\AppData\Local\Temp\ccnJmhOW.s 			page 4


 172              		.loc 1 145 0
 173 0008 1C2093E5 		ldr	r2, [r3, #28]
 174              	.LVL9:
 175              		.loc 1 148 0
 176 000c 0F16C0E3 		bic	r1, r0, #15728640
 177              		.loc 1 149 0
 178 0010 5A24C2E3 		bic	r2, r2, #1509949440
 179              	.LVL10:
 180 0014 3020C2E3 		bic	r2, r2, #48
 181 0018 5A2482E3 		orr	r2, r2, #1509949440
 182              		.loc 1 148 0
 183 001c 5A1481E3 		orr	r1, r1, #1509949440
 184              	.LVL11:
 185              		.loc 1 149 0
 186 0020 202082E3 		orr	r2, r2, #32
 187              	.LVL12:
 188              		.loc 1 150 0
 189 0024 241083E5 		str	r1, [r3, #36]
 190              		.loc 1 151 0
 191 0028 1C2083E5 		str	r2, [r3, #28]
 192 002c 1EFF2FE1 		bx	lr
 193              	.L15:
 194              		.align	2
 195              	.L14:
 196 0030 00001020 		.word	537919488
 197              		.cfi_endproc
 198              	.LFE12:
 199              		.size	watchdog_start, .-watchdog_start
 200              		.section	.text.watchdog_stop,"ax",%progbits
 201              		.align	2
 202              		.global	watchdog_stop
 203              		.type	watchdog_stop, %function
 204              	watchdog_stop:
 205              	.LFB13:
 206              		.loc 1 158 0
 207              		.cfi_startproc
 208              		@ args = 0, pretend = 0, frame = 0
 209              		@ frame_needed = 0, uses_anonymous_args = 0
 210              		@ link register save eliminated.
 211              		.loc 1 159 0
 212 0000 08209FE5 		ldr	r2, .L17
 213 0004 08309FE5 		ldr	r3, .L17+4
 214 0008 1C2083E5 		str	r2, [r3, #28]
 215 000c 1EFF2FE1 		bx	lr
 216              	.L18:
 217              		.align	2
 218              	.L17:
 219 0010 0201005A 		.word	1509949698
 220 0014 00001020 		.word	537919488
 221              		.cfi_endproc
 222              	.LFE13:
 223              		.size	watchdog_stop, .-watchdog_stop
 224              		.section	.text.watchdog_get_remaining,"ax",%progbits
 225              		.align	2
 226              		.global	watchdog_get_remaining
 227              		.type	watchdog_get_remaining, %function
 228              	watchdog_get_remaining:
ARM GAS  C:\Users\NICOMA~1\AppData\Local\Temp\ccnJmhOW.s 			page 5


 229              	.LFB14:
 230              		.loc 1 166 0
 231              		.cfi_startproc
 232              		@ args = 0, pretend = 0, frame = 0
 233              		@ frame_needed = 0, uses_anonymous_args = 0
 234              		@ link register save eliminated.
 235              		.loc 1 167 0
 236 0000 0C309FE5 		ldr	r3, .L20
 237 0004 240093E5 		ldr	r0, [r3, #36]
 238              		.loc 1 168 0
 239 0008 FF04C0E3 		bic	r0, r0, #-16777216
 240 000c 0F06C0E3 		bic	r0, r0, #15728640
 241 0010 1EFF2FE1 		bx	lr
 242              	.L21:
 243              		.align	2
 244              	.L20:
 245 0014 00001020 		.word	537919488
 246              		.cfi_endproc
 247              	.LFE14:
 248              		.size	watchdog_get_remaining, .-watchdog_get_remaining
 249              		.text
 250              	.Letext0:
 251              		.file 2 "c:\\yagarto-20121222\\bin\\../lib/gcc/arm-none-eabi/4.7.2/include/stddef.h"
 252              		.file 3 "c:/yagarto-20121222/lib/gcc/../../arm-none-eabi/sys-include/stdint.h"
 253              		.file 4 "../../os/ports/GCC/ARM/chtypes.h"
 254              		.file 5 "../../os/kernel/include/chlists.h"
 255              		.file 6 "../../os/kernel/include/chthreads.h"
 256              		.file 7 "../../os/ports/GCC/ARM/chcore.h"
 257              		.file 8 "../../os/kernel/include/chmtx.h"
 258              		.file 9 "../../os/kernel/include/chevents.h"
 259              		.file 10 "../../os/kernel/include/chqueues.h"
 260              		.file 11 "../../os/hal/platforms/BCM2835/bcm2835.h"
 261              		.file 12 "../../os/hal/include/i2c.h"
 262              		.file 13 "../../os/hal/platforms/BCM2835/i2c_lld.h"
 263              		.file 14 "../../os/hal/include/serial.h"
 264              		.file 15 "../../os/hal/include/spi.h"
 265              		.file 16 "../../os/hal/platforms/BCM2835/spi_lld.h"
 266              		.file 17 "../../os/hal/platforms/BCM2835/serial_lld.h"
 267              		.file 18 "../../os/kernel/include/chsys.h"