ARM GAS  C:\Users\NICOMA~1\AppData\Local\Temp\ccf2F17s.s 			page 1


   1              		.cpu arm1176jz-s
   2              		.fpu softvfp
   3              		.eabi_attribute 20, 1
   4              		.eabi_attribute 21, 1
   5              		.eabi_attribute 23, 3
   6              		.eabi_attribute 24, 1
   7              		.eabi_attribute 25, 1
   8              		.eabi_attribute 26, 1
   9              		.eabi_attribute 30, 2
  10              		.eabi_attribute 34, 1
  11              		.eabi_attribute 18, 4
  12              		.file	"i2c.c"
  13              		.text
  14              	.Ltext0:
  15              		.cfi_sections	.debug_frame
  16              		.section	.text.i2cInit,"ax",%progbits
  17              		.align	2
  18              		.global	i2cInit
  19              		.type	i2cInit, %function
  20              	i2cInit:
  21              	.LFB7:
  22              		.file 1 "../../os/hal/src/i2c.c"
  23              		.loc 1 71 0
  24              		.cfi_startproc
  25              		@ args = 0, pretend = 0, frame = 0
  26              		@ frame_needed = 0, uses_anonymous_args = 0
  27              		@ link register save eliminated.
  28              		.loc 1 73 0
  29              		.loc 1 72 0
  30 0000 FEFFFFEA 		b	i2c_lld_init
  31              	.LVL0:
  32              		.cfi_endproc
  33              	.LFE7:
  34              		.size	i2cInit, .-i2cInit
  35              		.section	.text.i2cObjectInit,"ax",%progbits
  36              		.align	2
  37              		.global	i2cObjectInit
  38              		.type	i2cObjectInit, %function
  39              	i2cObjectInit:
  40              	.LFB8:
  41              		.loc 1 82 0
  42              		.cfi_startproc
  43              		@ args = 0, pretend = 0, frame = 0
  44              		@ frame_needed = 0, uses_anonymous_args = 0
  45              		@ link register save eliminated.
  46              	.LVL1:
  47              		.loc 1 84 0
  48 0000 0130A0E3 		mov	r3, #1
  49 0004 0030C0E5 		strb	r3, [r0, #0]
  50              		.loc 1 85 0
  51 0008 0030A0E3 		mov	r3, #0
  52 000c 043080E5 		str	r3, [r0, #4]
  53              		.loc 1 89 0
  54 0010 100080E2 		add	r0, r0, #16
  55              	.LVL2:
  56              		.loc 1 98 0
  57              		.loc 1 89 0
ARM GAS  C:\Users\NICOMA~1\AppData\Local\Temp\ccf2F17s.s 			page 2


  58 0014 FEFFFFEA 		b	chMtxInit
  59              	.LVL3:
  60              		.cfi_endproc
  61              	.LFE8:
  62              		.size	i2cObjectInit, .-i2cObjectInit
  63              		.section	.text.i2cStart,"ax",%progbits
  64              		.align	2
  65              		.global	i2cStart
  66              		.type	i2cStart, %function
  67              	i2cStart:
  68              	.LFB9:
  69              		.loc 1 108 0
  70              		.cfi_startproc
  71              		@ args = 0, pretend = 0, frame = 0
  72              		@ frame_needed = 0, uses_anonymous_args = 0
  73              	.LVL4:
  74 0000 10402DE9 		stmfd	sp!, {r4, lr}
  75              	.LCFI0:
  76              		.cfi_def_cfa_offset 8
  77              		.cfi_offset 4, -8
  78              		.cfi_offset 14, -4
  79              		.loc 1 108 0
  80 0004 0040A0E1 		mov	r4, r0
  81              		.loc 1 116 0
  82              	@ 116 "../../os/hal/src/i2c.c" 1
  83 0008 9FF021E3 		msr     CPSR_c, #0x9F
  84              	@ 0 "" 2
  85              		.loc 1 117 0
  86 000c 041080E5 		str	r1, [r0, #4]
  87              		.loc 1 118 0
  88 0010 FEFFFFEB 		bl	i2c_lld_start
  89              	.LVL5:
  90              		.loc 1 119 0
  91 0014 0230A0E3 		mov	r3, #2
  92 0018 0030C4E5 		strb	r3, [r4, #0]
  93              		.loc 1 120 0
  94              	@ 120 "../../os/hal/src/i2c.c" 1
  95 001c 1FF021E3 		msr     CPSR_c, #0x1F
  96              	@ 0 "" 2
  97 0020 1080BDE8 		ldmfd	sp!, {r4, pc}
  98              		.cfi_endproc
  99              	.LFE9:
 100              		.size	i2cStart, .-i2cStart
 101              		.section	.text.i2cStop,"ax",%progbits
 102              		.align	2
 103              		.global	i2cStop
 104              		.type	i2cStop, %function
 105              	i2cStop:
 106              	.LFB10:
 107              		.loc 1 130 0
 108              		.cfi_startproc
 109              		@ args = 0, pretend = 0, frame = 0
 110              		@ frame_needed = 0, uses_anonymous_args = 0
 111              	.LVL6:
 112 0000 10402DE9 		stmfd	sp!, {r4, lr}
 113              	.LCFI1:
 114              		.cfi_def_cfa_offset 8
ARM GAS  C:\Users\NICOMA~1\AppData\Local\Temp\ccf2F17s.s 			page 3


 115              		.cfi_offset 4, -8
 116              		.cfi_offset 14, -4
 117              		.loc 1 130 0
 118 0004 0040A0E1 		mov	r4, r0
 119              		.loc 1 138 0
 120              	@ 138 "../../os/hal/src/i2c.c" 1
 121 0008 9FF021E3 		msr     CPSR_c, #0x9F
 122              	@ 0 "" 2
 123              		.loc 1 139 0
 124 000c FEFFFFEB 		bl	i2c_lld_stop
 125              	.LVL7:
 126              		.loc 1 140 0
 127 0010 0130A0E3 		mov	r3, #1
 128 0014 0030C4E5 		strb	r3, [r4, #0]
 129              		.loc 1 141 0
 130              	@ 141 "../../os/hal/src/i2c.c" 1
 131 0018 1FF021E3 		msr     CPSR_c, #0x1F
 132              	@ 0 "" 2
 133 001c 1080BDE8 		ldmfd	sp!, {r4, pc}
 134              		.cfi_endproc
 135              	.LFE10:
 136              		.size	i2cStop, .-i2cStop
 137              		.section	.text.i2cGetErrors,"ax",%progbits
 138              		.align	2
 139              		.global	i2cGetErrors
 140              		.type	i2cGetErrors, %function
 141              	i2cGetErrors:
 142              	.LFB11:
 143              		.loc 1 152 0
 144              		.cfi_startproc
 145              		@ args = 0, pretend = 0, frame = 0
 146              		@ frame_needed = 0, uses_anonymous_args = 0
 147              		@ link register save eliminated.
 148              	.LVL8:
 149              		.loc 1 157 0
 150 0000 080090E5 		ldr	r0, [r0, #8]
 151              	.LVL9:
 152 0004 1EFF2FE1 		bx	lr
 153              		.cfi_endproc
 154              	.LFE11:
 155              		.size	i2cGetErrors, .-i2cGetErrors
 156              		.section	.text.i2cMasterTransmitTimeout,"ax",%progbits
 157              		.align	2
 158              		.global	i2cMasterTransmitTimeout
 159              		.type	i2cMasterTransmitTimeout, %function
 160              	i2cMasterTransmitTimeout:
 161              	.LFB12:
 162              		.loc 1 191 0
 163              		.cfi_startproc
 164              		@ args = 12, pretend = 0, frame = 0
 165              		@ frame_needed = 0, uses_anonymous_args = 0
 166              	.LVL10:
 167 0000 10402DE9 		stmfd	sp!, {r4, lr}
 168              	.LCFI2:
 169              		.cfi_def_cfa_offset 8
 170              		.cfi_offset 4, -8
 171              		.cfi_offset 14, -4
ARM GAS  C:\Users\NICOMA~1\AppData\Local\Temp\ccf2F17s.s 			page 4


 172 0004 0040A0E1 		mov	r4, r0
 173 0008 10D04DE2 		sub	sp, sp, #16
 174              	.LCFI3:
 175              		.cfi_def_cfa_offset 24
 176              		.loc 1 203 0
 177              	@ 203 "../../os/hal/src/i2c.c" 1
 178 000c 9FF021E3 		msr     CPSR_c, #0x9F
 179              	@ 0 "" 2
 180              		.loc 1 204 0
 181 0010 00E0A0E3 		mov	lr, #0
 182              		.loc 1 206 0
 183 0014 1CC0DDE5 		ldrb	ip, [sp, #28]	@ zero_extendqisi2
 184              		.loc 1 204 0
 185 0018 08E080E5 		str	lr, [r0, #8]
 186              		.loc 1 205 0
 187 001c 03E0A0E3 		mov	lr, #3
 188 0020 00E0C0E5 		strb	lr, [r0, #0]
 189              		.loc 1 206 0
 190 0024 18E09DE5 		ldr	lr, [sp, #24]
 191 0028 04C08DE5 		str	ip, [sp, #4]
 192 002c 20C09DE5 		ldr	ip, [sp, #32]
 193 0030 00E08DE5 		str	lr, [sp, #0]
 194 0034 08C08DE5 		str	ip, [sp, #8]
 195 0038 FEFFFFEB 		bl	i2c_lld_master_transmit_timeout
 196              	.LVL11:
 197              		.loc 1 208 0
 198 003c 010070E3 		cmn	r0, #1
 199              		.loc 1 209 0
 200 0040 0530A003 		moveq	r3, #5
 201              		.loc 1 211 0
 202 0044 0230A013 		movne	r3, #2
 203 0048 0030C4E5 		strb	r3, [r4, #0]
 204              		.loc 1 212 0
 205              	@ 212 "../../os/hal/src/i2c.c" 1
 206 004c 1FF021E3 		msr     CPSR_c, #0x1F
 207              	@ 0 "" 2
 208              		.loc 1 214 0
 209 0050 10D08DE2 		add	sp, sp, #16
 210 0054 1080BDE8 		ldmfd	sp!, {r4, pc}
 211              		.cfi_endproc
 212              	.LFE12:
 213              		.size	i2cMasterTransmitTimeout, .-i2cMasterTransmitTimeout
 214              		.section	.text.i2cMasterReceiveTimeout,"ax",%progbits
 215              		.align	2
 216              		.global	i2cMasterReceiveTimeout
 217              		.type	i2cMasterReceiveTimeout, %function
 218              	i2cMasterReceiveTimeout:
 219              	.LFB13:
 220              		.loc 1 240 0
 221              		.cfi_startproc
 222              		@ args = 4, pretend = 0, frame = 0
 223              		@ frame_needed = 0, uses_anonymous_args = 0
 224              	.LVL12:
 225 0000 10402DE9 		stmfd	sp!, {r4, lr}
 226              	.LCFI4:
 227              		.cfi_def_cfa_offset 8
 228              		.cfi_offset 4, -8
ARM GAS  C:\Users\NICOMA~1\AppData\Local\Temp\ccf2F17s.s 			page 5


 229              		.cfi_offset 14, -4
 230 0004 0040A0E1 		mov	r4, r0
 231 0008 08D04DE2 		sub	sp, sp, #8
 232              	.LCFI5:
 233              		.cfi_def_cfa_offset 16
 234              		.loc 1 252 0
 235              	@ 252 "../../os/hal/src/i2c.c" 1
 236 000c 9FF021E3 		msr     CPSR_c, #0x9F
 237              	@ 0 "" 2
 238              		.loc 1 253 0
 239 0010 00C0A0E3 		mov	ip, #0
 240 0014 08C080E5 		str	ip, [r0, #8]
 241              		.loc 1 254 0
 242 0018 04C0A0E3 		mov	ip, #4
 243 001c 00C0C0E5 		strb	ip, [r0, #0]
 244              		.loc 1 255 0
 245 0020 10C09DE5 		ldr	ip, [sp, #16]
 246 0024 00C08DE5 		str	ip, [sp, #0]
 247 0028 FEFFFFEB 		bl	i2c_lld_master_receive_timeout
 248              	.LVL13:
 249              		.loc 1 256 0
 250 002c 010070E3 		cmn	r0, #1
 251              		.loc 1 257 0
 252 0030 0530A003 		moveq	r3, #5
 253              		.loc 1 259 0
 254 0034 0230A013 		movne	r3, #2
 255 0038 0030C4E5 		strb	r3, [r4, #0]
 256              		.loc 1 260 0
 257              	@ 260 "../../os/hal/src/i2c.c" 1
 258 003c 1FF021E3 		msr     CPSR_c, #0x1F
 259              	@ 0 "" 2
 260              		.loc 1 262 0
 261 0040 08D08DE2 		add	sp, sp, #8
 262 0044 1080BDE8 		ldmfd	sp!, {r4, pc}
 263              		.cfi_endproc
 264              	.LFE13:
 265              		.size	i2cMasterReceiveTimeout, .-i2cMasterReceiveTimeout
 266              		.section	.text.i2cAcquireBus,"ax",%progbits
 267              		.align	2
 268              		.global	i2cAcquireBus
 269              		.type	i2cAcquireBus, %function
 270              	i2cAcquireBus:
 271              	.LFB14:
 272              		.loc 1 276 0
 273              		.cfi_startproc
 274              		@ args = 0, pretend = 0, frame = 0
 275              		@ frame_needed = 0, uses_anonymous_args = 0
 276              		@ link register save eliminated.
 277              	.LVL14:
 278              		.loc 1 281 0
 279 0000 100080E2 		add	r0, r0, #16
 280              	.LVL15:
 281              		.loc 1 285 0
 282              		.loc 1 281 0
 283 0004 FEFFFFEA 		b	chMtxLock
 284              	.LVL16:
 285              		.cfi_endproc
ARM GAS  C:\Users\NICOMA~1\AppData\Local\Temp\ccf2F17s.s 			page 6


 286              	.LFE14:
 287              		.size	i2cAcquireBus, .-i2cAcquireBus
 288              		.section	.text.i2cReleaseBus,"ax",%progbits
 289              		.align	2
 290              		.global	i2cReleaseBus
 291              		.type	i2cReleaseBus, %function
 292              	i2cReleaseBus:
 293              	.LFB15:
 294              		.loc 1 296 0
 295              		.cfi_startproc
 296              		@ args = 0, pretend = 0, frame = 0
 297              		@ frame_needed = 0, uses_anonymous_args = 0
 298              		@ link register save eliminated.
 299              	.LVL17:
 300              		.loc 1 305 0
 301              		.loc 1 301 0
 302 0000 FEFFFFEA 		b	chMtxUnlock
 303              	.LVL18:
 304              		.cfi_endproc
 305              	.LFE15:
 306              		.size	i2cReleaseBus, .-i2cReleaseBus
 307              		.text
 308              	.Letext0:
 309              		.file 2 "c:\\yagarto-20121222\\bin\\../lib/gcc/arm-none-eabi/4.7.2/include/stddef.h"
 310              		.file 3 "c:/yagarto-20121222/lib/gcc/../../arm-none-eabi/sys-include/stdint.h"
 311              		.file 4 "../../os/ports/GCC/ARM/chtypes.h"
 312              		.file 5 "../../os/kernel/include/chlists.h"
 313              		.file 6 "../../os/kernel/include/chthreads.h"
 314              		.file 7 "../../os/ports/GCC/ARM/chcore.h"
 315              		.file 8 "../../os/kernel/include/chmtx.h"
 316              		.file 9 "../../os/hal/platforms/BCM2835/bcm2835.h"
 317              		.file 10 "../../os/hal/include/i2c.h"
 318              		.file 11 "../../os/hal/platforms/BCM2835/i2c_lld.h"