ARM GAS  C:\Users\NICOMA~1\AppData\Local\Temp\ccmCtzAE.s 			page 1


   1              		.cpu arm1176jz-s
   2              		.fpu softvfp
   3              		.eabi_attribute 20, 1
   4              		.eabi_attribute 21, 1
   5              		.eabi_attribute 23, 3
   6              		.eabi_attribute 24, 1
   7              		.eabi_attribute 25, 1
   8              		.eabi_attribute 26, 1
   9              		.eabi_attribute 30, 2
  10              		.eabi_attribute 34, 1
  11              		.eabi_attribute 18, 4
  12              		.file	"i2c_lld.c"
  13              		.text
  14              	.Ltext0:
  15              		.cfi_sections	.debug_frame
  16              		.section	.text.i2c_lld_safety_timeout,"ax",%progbits
  17              		.align	2
  18              		.type	i2c_lld_safety_timeout, %function
  19              	i2c_lld_safety_timeout:
  20              	.LFB7:
  21              		.file 1 "../../os/hal/platforms/BCM2835/i2c_lld.c"
  22              		.loc 1 79 0
  23              		.cfi_startproc
  24              		@ args = 0, pretend = 0, frame = 0
  25              		@ frame_needed = 0, uses_anonymous_args = 0
  26              		@ link register save eliminated.
  27              	.LVL0:
  28              		.loc 1 82 0
  29 0000 201090E5 		ldr	r1, [r0, #32]
  30              		.loc 1 79 0
  31 0004 04402DE5 		str	r4, [sp, #-4]!
  32              	.LCFI0:
  33              		.cfi_def_cfa_offset 4
  34              		.cfi_offset 4, -4
  35              		.loc 1 82 0
  36 0008 000051E3 		cmp	r1, #0
  37              		.loc 1 79 0
  38 000c 0030A0E1 		mov	r3, r0
  39              	.LVL1:
  40              		.loc 1 82 0
  41 0010 1600000A 		beq	.L1
  42              	.LBB2:
  43              		.loc 1 83 0
  44 0014 0C2090E5 		ldr	r2, [r0, #12]
  45              	.LVL2:
  46              		.loc 1 85 0
  47 0018 080090E5 		ldr	r0, [r0, #8]
  48              	.LVL3:
  49              		.loc 1 86 0
  50 001c 044092E5 		ldr	r4, [r2, #4]
  51              		.loc 1 85 0
  52 0020 20C080E3 		orr	ip, r0, #32
  53              		.loc 1 86 0
  54 0024 020C14E3 		tst	r4, #512
  55              		.loc 1 87 0
  56 0028 21008013 		orrne	r0, r0, #33
  57              		.loc 1 85 0
ARM GAS  C:\Users\NICOMA~1\AppData\Local\Temp\ccmCtzAE.s 			page 2


  58 002c 08C083E5 		str	ip, [r3, #8]
  59              		.loc 1 87 0
  60 0030 08008315 		strne	r0, [r3, #8]
  61              		.loc 1 88 0
  62 0034 040092E5 		ldr	r0, [r2, #4]
  63              		.loc 1 92 0
  64 0038 38409FE5 		ldr	r4, .L12
  65              		.loc 1 88 0
  66 003c 010C10E3 		tst	r0, #256
  67              		.loc 1 89 0
  68 0040 08009315 		ldrne	r0, [r3, #8]
  69              		.loc 1 91 0
  70 0044 00C0A0E3 		mov	ip, #0
  71              		.loc 1 89 0
  72 0048 04008013 		orrne	r0, r0, #4
  73 004c 08008315 		strne	r0, [r3, #8]
  74              		.loc 1 91 0
  75 0050 00C082E5 		str	ip, [r2, #0]
  76              		.loc 1 97 0
  77 0054 0100A0E1 		mov	r0, r1
  78              		.loc 1 92 0
  79 0058 044082E5 		str	r4, [r2, #4]
  80              	.LVL4:
  81              		.loc 1 95 0
  82 005c 20C083E5 		str	ip, [r3, #32]
  83              		.loc 1 96 0
  84 0060 0030E0E3 		mvn	r3, #0
  85              	.LVL5:
  86 0064 243081E5 		str	r3, [r1, #36]
  87              	.LBE2:
  88              		.loc 1 100 0
  89 0068 1000BDE8 		ldmfd	sp!, {r4}
  90              	.LBB3:
  91              		.loc 1 97 0
  92 006c FEFFFFEA 		b	chSchReadyI
  93              	.LVL6:
  94              	.L1:
  95              	.LBE3:
  96              		.loc 1 100 0
  97 0070 1000BDE8 		ldmfd	sp!, {r4}
  98 0074 1EFF2FE1 		bx	lr
  99              	.L13:
 100              		.align	2
 101              	.L12:
 102 0078 02030000 		.word	770
 103              		.cfi_endproc
 104              	.LFE7:
 105              		.size	i2c_lld_safety_timeout, .-i2c_lld_safety_timeout
 106              		.section	.text.i2c_lld_serve_interrupt,"ax",%progbits
 107              		.align	2
 108              		.global	i2c_lld_serve_interrupt
 109              		.type	i2c_lld_serve_interrupt, %function
 110              	i2c_lld_serve_interrupt:
 111              	.LFB8:
 112              		.loc 1 106 0
 113              		.cfi_startproc
 114              		@ args = 0, pretend = 0, frame = 0
ARM GAS  C:\Users\NICOMA~1\AppData\Local\Temp\ccmCtzAE.s 			page 3


 115              		@ frame_needed = 0, uses_anonymous_args = 0
 116              		@ link register save eliminated.
 117              	.LVL7:
 118              		.loc 1 108 0
 119 0000 0C1090E5 		ldr	r1, [r0, #12]
 120              	.LVL8:
 121              		.loc 1 106 0
 122 0004 04402DE5 		str	r4, [sp, #-4]!
 123              	.LCFI1:
 124              		.cfi_def_cfa_offset 4
 125              		.cfi_offset 4, -4
 126              		.loc 1 109 0
 127 0008 042091E5 		ldr	r2, [r1, #4]
 128              	.LVL9:
 129              		.loc 1 111 0
 130 000c 030C12E3 		tst	r2, #768
 131 0010 0900000A 		beq	.L15
 132              		.loc 1 113 0
 133 0014 203090E5 		ldr	r3, [r0, #32]
 134 0018 000053E3 		cmp	r3, #0
 135 001c 3800000A 		beq	.L14
 136              	.LVL10:
 137              	.LBB4:
 138              		.loc 1 113 0 is_stmt 0 discriminator 1
 139 0020 0020A0E3 		mov	r2, #0
 140              	.LVL11:
 141 0024 202080E5 		str	r2, [r0, #32]
 142 0028 0120E0E3 		mvn	r2, #1
 143 002c 0300A0E1 		mov	r0, r3
 144              	.LVL12:
 145 0030 242083E5 		str	r2, [r3, #36]
 146              	.LBE4:
 147              		.loc 1 130 0 is_stmt 1 discriminator 1
 148 0034 1000BDE8 		ldmfd	sp!, {r4}
 149              	.LBB5:
 150              		.loc 1 113 0 discriminator 1
 151 0038 FEFFFFEA 		b	chSchReadyI
 152              	.LVL13:
 153              	.L15:
 154              	.LBE5:
 155              		.loc 1 115 0
 156 003c 020012E3 		tst	r2, #2
 157 0040 2000000A 		beq	.L17
 158              		.loc 1 116 0 discriminator 1
 159 0044 200012E3 		tst	r2, #32
 160 0048 1200000A 		beq	.L18
 161              		.loc 1 116 0 is_stmt 0
 162 004c 3C2090E5 		ldr	r2, [r0, #60]
 163              	.LVL14:
 164 0050 383090E5 		ldr	r3, [r0, #56]
 165 0054 030052E1 		cmp	r2, r3
 166 0058 0E00002A 		bcs	.L18
 167              		.loc 1 117 0 is_stmt 1
 168 005c 104091E5 		ldr	r4, [r1, #16]
 169 0060 34C090E5 		ldr	ip, [r0, #52]
 170 0064 013082E2 		add	r3, r2, #1
 171 0068 0240CCE7 		strb	r4, [ip, r2]
ARM GAS  C:\Users\NICOMA~1\AppData\Local\Temp\ccmCtzAE.s 			page 4


 172 006c 3C3080E5 		str	r3, [r0, #60]
 173 0070 040000EA 		b	.L24
 174              	.L20:
 175 0074 104091E5 		ldr	r4, [r1, #16]
 176 0078 34C090E5 		ldr	ip, [r0, #52]
 177 007c 0340CCE7 		strb	r4, [ip, r3]
 178 0080 3C2080E5 		str	r2, [r0, #60]
 179 0084 0230A0E1 		mov	r3, r2
 180              	.L24:
 181              		.loc 1 116 0 discriminator 2
 182 0088 38C090E5 		ldr	ip, [r0, #56]
 183 008c 012083E2 		add	r2, r3, #1
 184 0090 03005CE1 		cmp	ip, r3
 185 0094 F6FFFF8A 		bhi	.L20
 186              	.L18:
 187              		.loc 1 120 0
 188 0098 203090E5 		ldr	r3, [r0, #32]
 189              		.loc 1 118 0
 190 009c 0020A0E3 		mov	r2, #0
 191              		.loc 1 119 0
 192 00a0 A8C09FE5 		ldr	ip, .L46
 193              		.loc 1 120 0
 194 00a4 020053E1 		cmp	r3, r2
 195              		.loc 1 118 0
 196 00a8 002081E5 		str	r2, [r1, #0]
 197              		.loc 1 119 0
 198 00ac 04C081E5 		str	ip, [r1, #4]
 199              		.loc 1 120 0
 200 00b0 1300000A 		beq	.L14
 201              	.LVL15:
 202              	.LBB6:
 203              		.loc 1 120 0 is_stmt 0 discriminator 1
 204 00b4 202080E5 		str	r2, [r0, #32]
 205 00b8 0300A0E1 		mov	r0, r3
 206              	.LVL16:
 207 00bc 242083E5 		str	r2, [r3, #36]
 208              	.LBE6:
 209              		.loc 1 130 0 is_stmt 1 discriminator 1
 210 00c0 1000BDE8 		ldmfd	sp!, {r4}
 211              	.LBB7:
 212              		.loc 1 120 0 discriminator 1
 213 00c4 FEFFFFEA 		b	chSchReadyI
 214              	.LVL17:
 215              	.L17:
 216              	.LBE7:
 217              		.loc 1 122 0
 218 00c8 040012E3 		tst	r2, #4
 219 00cc 0E00000A 		beq	.L21
 220              		.loc 1 123 0 discriminator 1
 221 00d0 303090E5 		ldr	r3, [r0, #48]
 222 00d4 2CC090E5 		ldr	ip, [r0, #44]
 223 00d8 03005CE1 		cmp	ip, r3
 224 00dc 0800009A 		bls	.L14
 225              		.loc 1 123 0 is_stmt 0
 226 00e0 100012E3 		tst	r2, #16
 227 00e4 0600000A 		beq	.L14
 228 00e8 284090E5 		ldr	r4, [r0, #40]
ARM GAS  C:\Users\NICOMA~1\AppData\Local\Temp\ccmCtzAE.s 			page 5


 229              	.LVL18:
 230              	.L22:
 231              		.loc 1 124 0 is_stmt 1
 232 00ec 0320D4E7 		ldrb	r2, [r4, r3]	@ zero_extendqisi2
 233 00f0 013083E2 		add	r3, r3, #1
 234              		.loc 1 123 0
 235 00f4 0C0053E1 		cmp	r3, ip
 236              		.loc 1 124 0
 237 00f8 102081E5 		str	r2, [r1, #16]
 238 00fc 303080E5 		str	r3, [r0, #48]
 239              		.loc 1 123 0
 240 0100 F9FFFF1A 		bne	.L22
 241              	.L14:
 242              		.loc 1 130 0
 243 0104 1000BDE8 		ldmfd	sp!, {r4}
 244 0108 1EFF2FE1 		bx	lr
 245              	.LVL19:
 246              	.L21:
 247              		.loc 1 126 0
 248 010c 080012E3 		tst	r2, #8
 249 0110 FBFFFF0A 		beq	.L14
 250              		.loc 1 127 0 discriminator 1
 251 0114 3C3090E5 		ldr	r3, [r0, #60]
 252 0118 38C090E5 		ldr	ip, [r0, #56]
 253 011c 03005CE1 		cmp	ip, r3
 254 0120 F7FFFF9A 		bls	.L14
 255              		.loc 1 127 0 is_stmt 0
 256 0124 200012E3 		tst	r2, #32
 257 0128 F5FFFF0A 		beq	.L14
 258              	.LVL20:
 259              	.L37:
 260              		.loc 1 128 0 is_stmt 1
 261 012c 10C091E5 		ldr	ip, [r1, #16]
 262 0130 342090E5 		ldr	r2, [r0, #52]
 263 0134 03C0C2E7 		strb	ip, [r2, r3]
 264              		.loc 1 127 0
 265 0138 382090E5 		ldr	r2, [r0, #56]
 266              		.loc 1 128 0
 267 013c 013083E2 		add	r3, r3, #1
 268              		.loc 1 127 0
 269 0140 030052E1 		cmp	r2, r3
 270              		.loc 1 128 0
 271 0144 3C3080E5 		str	r3, [r0, #60]
 272              		.loc 1 127 0
 273 0148 F7FFFF8A 		bhi	.L37
 274 014c ECFFFFEA 		b	.L14
 275              	.L47:
 276              		.align	2
 277              	.L46:
 278 0150 02030000 		.word	770
 279              		.cfi_endproc
 280              	.LFE8:
 281              		.size	i2c_lld_serve_interrupt, .-i2c_lld_serve_interrupt
 282              		.section	.text.i2c_lld_init,"ax",%progbits
 283              		.align	2
 284              		.global	i2c_lld_init
 285              		.type	i2c_lld_init, %function
ARM GAS  C:\Users\NICOMA~1\AppData\Local\Temp\ccmCtzAE.s 			page 6


 286              	i2c_lld_init:
 287              	.LFB9:
 288              		.loc 1 141 0
 289              		.cfi_startproc
 290              		@ args = 0, pretend = 0, frame = 0
 291              		@ frame_needed = 0, uses_anonymous_args = 0
 292 0000 08402DE9 		stmfd	sp!, {r3, lr}
 293              	.LCFI2:
 294              		.cfi_def_cfa_offset 8
 295              		.cfi_offset 3, -8
 296              		.cfi_offset 14, -4
 297              		.loc 1 142 0
 298 0004 24309FE5 		ldr	r3, .L49
 299 0008 24209FE5 		ldr	r2, .L49+4
 300              		.loc 1 143 0
 301 000c 0300A0E1 		mov	r0, r3
 302              		.loc 1 142 0
 303 0010 0C2083E5 		str	r2, [r3, #12]
 304              		.loc 1 143 0
 305 0014 FEFFFFEB 		bl	i2cObjectInit
 306              	.LVL21:
 307              		.loc 1 145 0
 308 0018 18309FE5 		ldr	r3, .L49+8
 309 001c 18209FE5 		ldr	r2, .L49+12
 310              		.loc 1 146 0
 311 0020 0300A0E1 		mov	r0, r3
 312              		.loc 1 145 0
 313 0024 0C2083E5 		str	r2, [r3, #12]
 314              		.loc 1 147 0
 315 0028 0840BDE8 		ldmfd	sp!, {r3, lr}
 316              		.loc 1 146 0
 317 002c FEFFFFEA 		b	i2cObjectInit
 318              	.LVL22:
 319              	.L50:
 320              		.align	2
 321              	.L49:
 322 0030 00000000 		.word	I2C0
 323 0034 00502020 		.word	538988544
 324 0038 00000000 		.word	I2C1
 325 003c 00408020 		.word	545275904
 326              		.cfi_endproc
 327              	.LFE9:
 328              		.size	i2c_lld_init, .-i2c_lld_init
 329              		.global	__aeabi_uidiv
 330              		.section	.text.i2c_lld_start,"ax",%progbits
 331              		.align	2
 332              		.global	i2c_lld_start
 333              		.type	i2c_lld_start, %function
 334              	i2c_lld_start:
 335              	.LFB10:
 336              		.loc 1 156 0
 337              		.cfi_startproc
 338              		@ args = 0, pretend = 0, frame = 0
 339              		@ frame_needed = 0, uses_anonymous_args = 0
 340              	.LVL23:
 341 0000 10402DE9 		stmfd	sp!, {r4, lr}
 342              	.LCFI3:
ARM GAS  C:\Users\NICOMA~1\AppData\Local\Temp\ccmCtzAE.s 			page 7


 343              		.cfi_def_cfa_offset 8
 344              		.cfi_offset 4, -8
 345              		.cfi_offset 14, -4
 346              		.loc 1 158 0
 347 0004 0410A0E3 		mov	r1, #4
 348              		.loc 1 156 0
 349 0008 0040A0E1 		mov	r4, r0
 350              		.loc 1 158 0
 351 000c 0000A0E3 		mov	r0, #0
 352              	.LVL24:
 353 0010 FEFFFFEB 		bl	bcm2835_gpio_fnsel
 354              	.LVL25:
 355              		.loc 1 159 0
 356 0014 0100A0E3 		mov	r0, #1
 357 0018 0410A0E3 		mov	r1, #4
 358 001c FEFFFFEB 		bl	bcm2835_gpio_fnsel
 359              	.LVL26:
 360              		.loc 1 162 0
 361 0020 0200A0E3 		mov	r0, #2
 362 0024 0410A0E3 		mov	r1, #4
 363 0028 FEFFFFEB 		bl	bcm2835_gpio_fnsel
 364              	.LVL27:
 365              		.loc 1 163 0
 366 002c 0410A0E3 		mov	r1, #4
 367 0030 0300A0E3 		mov	r0, #3
 368 0034 FEFFFFEB 		bl	bcm2835_gpio_fnsel
 369              	.LVL28:
 370              		.loc 1 165 0
 371 0038 043094E5 		ldr	r3, [r4, #4]
 372              		.loc 1 167 0
 373 003c 0C4094E5 		ldr	r4, [r4, #12]
 374              	.LVL29:
 375              		.loc 1 165 0
 376 0040 001093E5 		ldr	r1, [r3, #0]
 377              	.LVL30:
 378              		.loc 1 166 0
 379 0044 24309FE5 		ldr	r3, .L54
 380 0048 030051E1 		cmp	r1, r3
 381 004c 00005113 		cmpne	r1, #0
 382 0050 0200000A 		beq	.L53
 383              		.loc 1 167 0
 384 0054 18009FE5 		ldr	r0, .L54+4
 385 0058 FEFFFFEB 		bl	__aeabi_uidiv
 386              	.LVL31:
 387 005c 140084E5 		str	r0, [r4, #20]
 388              	.L53:
 389              		.loc 1 169 0
 390 0060 003094E5 		ldr	r3, [r4, #0]
 391 0064 023983E3 		orr	r3, r3, #32768
 392 0068 003084E5 		str	r3, [r4, #0]
 393 006c 1080BDE8 		ldmfd	sp!, {r4, pc}
 394              	.L55:
 395              		.align	2
 396              	.L54:
 397 0070 A0860100 		.word	100000
 398 0074 80D1F008 		.word	150000000
 399              		.cfi_endproc
ARM GAS  C:\Users\NICOMA~1\AppData\Local\Temp\ccmCtzAE.s 			page 8


 400              	.LFE10:
 401              		.size	i2c_lld_start, .-i2c_lld_start
 402              		.section	.text.i2c_lld_stop,"ax",%progbits
 403              		.align	2
 404              		.global	i2c_lld_stop
 405              		.type	i2c_lld_stop, %function
 406              	i2c_lld_stop:
 407              	.LFB11:
 408              		.loc 1 179 0
 409              		.cfi_startproc
 410              		@ args = 0, pretend = 0, frame = 0
 411              		@ frame_needed = 0, uses_anonymous_args = 0
 412              	.LVL32:
 413 0000 10402DE9 		stmfd	sp!, {r4, lr}
 414              	.LCFI4:
 415              		.cfi_def_cfa_offset 8
 416              		.cfi_offset 4, -8
 417              		.cfi_offset 14, -4
 418              		.loc 1 179 0
 419 0004 0040A0E1 		mov	r4, r0
 420              		.loc 1 181 0
 421 0008 0000A0E3 		mov	r0, #0
 422              	.LVL33:
 423 000c 0010A0E1 		mov	r1, r0
 424 0010 FEFFFFEB 		bl	bcm2835_gpio_fnsel
 425              	.LVL34:
 426              		.loc 1 182 0
 427 0014 0100A0E3 		mov	r0, #1
 428 0018 0010A0E3 		mov	r1, #0
 429 001c FEFFFFEB 		bl	bcm2835_gpio_fnsel
 430              	.LVL35:
 431              		.loc 1 184 0
 432 0020 0C3094E5 		ldr	r3, [r4, #12]
 433 0024 002093E5 		ldr	r2, [r3, #0]
 434 0028 0229C2E3 		bic	r2, r2, #32768
 435 002c 002083E5 		str	r2, [r3, #0]
 436 0030 1080BDE8 		ldmfd	sp!, {r4, pc}
 437              		.cfi_endproc
 438              	.LFE11:
 439              		.size	i2c_lld_stop, .-i2c_lld_stop
 440              		.section	.text.i2c_lld_master_receive_timeout,"ax",%progbits
 441              		.align	2
 442              		.global	i2c_lld_master_receive_timeout
 443              		.type	i2c_lld_master_receive_timeout, %function
 444              	i2c_lld_master_receive_timeout:
 445              	.LFB13:
 446              		.loc 1 269 0
 447              		.cfi_startproc
 448              		@ args = 4, pretend = 0, frame = 24
 449              		@ frame_needed = 0, uses_anonymous_args = 0
 450              	.LVL36:
 451 0000 F0412DE9 		stmfd	sp!, {r4, r5, r6, r7, r8, lr}
 452              	.LCFI5:
 453              		.cfi_def_cfa_offset 24
 454              		.cfi_offset 4, -24
 455              		.cfi_offset 5, -20
 456              		.cfi_offset 6, -16
ARM GAS  C:\Users\NICOMA~1\AppData\Local\Temp\ccmCtzAE.s 			page 9


 457              		.cfi_offset 7, -12
 458              		.cfi_offset 8, -8
 459              		.cfi_offset 14, -4
 460 0004 18D04DE2 		sub	sp, sp, #24
 461              	.LCFI6:
 462              		.cfi_def_cfa_offset 48
 463              		.loc 1 269 0
 464 0008 30509DE5 		ldr	r5, [sp, #48]
 465 000c 0040A0E1 		mov	r4, r0
 466              		.loc 1 273 0
 467 0010 010075E3 		cmn	r5, #1
 468              		.loc 1 269 0
 469 0014 0170A0E1 		mov	r7, r1
 470 0018 0280A0E1 		mov	r8, r2
 471 001c 0360A0E1 		mov	r6, r3
 472              		.loc 1 273 0
 473 0020 0400000A 		beq	.L58
 474              		.loc 1 274 0
 475 0024 04008DE2 		add	r0, sp, #4
 476              	.LVL37:
 477 0028 0510A0E1 		mov	r1, r5
 478              	.LVL38:
 479 002c 88209FE5 		ldr	r2, .L69
 480              	.LVL39:
 481 0030 0430A0E1 		mov	r3, r4
 482              	.LVL40:
 483 0034 FEFFFFEB 		bl	chVTSetI
 484              	.LVL41:
 485              	.L58:
 486              		.loc 1 285 0
 487 0038 0C0094E5 		ldr	r0, [r4, #12]
 488              	.LVL42:
 489              		.loc 1 288 0
 490 003c 7C309FE5 		ldr	r3, .L69+4
 491              		.loc 1 277 0
 492 0040 00C0A0E3 		mov	ip, #0
 493              		.loc 1 276 0
 494 0044 B472C4E1 		strh	r7, [r4, #36]	@ movhi
 495              		.loc 1 277 0
 496 0048 28C084E5 		str	ip, [r4, #40]
 497              		.loc 1 278 0
 498 004c 2CC084E5 		str	ip, [r4, #44]
 499              		.loc 1 279 0
 500 0050 30C084E5 		str	ip, [r4, #48]
 501              		.loc 1 280 0
 502 0054 348084E5 		str	r8, [r4, #52]
 503              		.loc 1 281 0
 504 0058 386084E5 		str	r6, [r4, #56]
 505              		.loc 1 282 0
 506 005c 3CC084E5 		str	ip, [r4, #60]
 507              		.loc 1 286 0
 508 0060 0C7080E5 		str	r7, [r0, #12]
 509              		.loc 1 287 0
 510 0064 086080E5 		str	r6, [r0, #8]
 511              		.loc 1 288 0
 512 0068 043080E5 		str	r3, [r0, #4]
 513              		.loc 1 291 0
ARM GAS  C:\Users\NICOMA~1\AppData\Local\Temp\ccmCtzAE.s 			page 10


 514 006c 50309FE5 		ldr	r3, .L69+8
 515 0070 003080E5 		str	r3, [r0, #0]
 516              		.loc 1 294 0
 517              	@ 294 "../../os/hal/platforms/BCM2835/i2c_lld.c" 1
 518 0074 9FF021E3 		msr     CPSR_c, #0x9F
 519              	@ 0 "" 2
 520              		.loc 1 295 0
 521 0078 48609FE5 		ldr	r6, .L69+12
 522              	.LVL43:
 523              		.loc 1 296 0
 524 007c 0200A0E3 		mov	r0, #2
 525              	.LVL44:
 526              		.loc 1 295 0
 527 0080 183096E5 		ldr	r3, [r6, #24]
 528 0084 203084E5 		str	r3, [r4, #32]
 529              		.loc 1 296 0
 530 0088 FEFFFFEB 		bl	chSchGoSleepS
 531              	.LVL45:
 532              		.loc 1 297 0
 533 008c 010075E3 		cmn	r5, #1
 534 0090 0400000A 		beq	.L59
 535              		.loc 1 297 0 is_stmt 0 discriminator 1
 536 0094 10309DE5 		ldr	r3, [sp, #16]
 537 0098 000053E3 		cmp	r3, #0
 538 009c 0100000A 		beq	.L59
 539              		.loc 1 298 0 is_stmt 1
 540 00a0 04008DE2 		add	r0, sp, #4
 541 00a4 FEFFFFEB 		bl	chVTResetI
 542              	.LVL46:
 543              	.L59:
 544              		.loc 1 299 0
 545              	@ 299 "../../os/hal/platforms/BCM2835/i2c_lld.c" 1
 546 00a8 1FF021E3 		msr     CPSR_c, #0x1F
 547              	@ 0 "" 2
 548              		.loc 1 301 0
 549 00ac 183096E5 		ldr	r3, [r6, #24]
 550              		.loc 1 302 0
 551 00b0 240093E5 		ldr	r0, [r3, #36]
 552 00b4 18D08DE2 		add	sp, sp, #24
 553 00b8 F081BDE8 		ldmfd	sp!, {r4, r5, r6, r7, r8, pc}
 554              	.L70:
 555              		.align	2
 556              	.L69:
 557 00bc 00000000 		.word	i2c_lld_safety_timeout
 558 00c0 02030000 		.word	770
 559 00c4 91850000 		.word	34193
 560 00c8 00000000 		.word	rlist
 561              		.cfi_endproc
 562              	.LFE13:
 563              		.size	i2c_lld_master_receive_timeout, .-i2c_lld_master_receive_timeout
 564              		.section	.text.i2c_lld_master_transmit_timeout,"ax",%progbits
 565              		.align	2
 566              		.global	i2c_lld_master_transmit_timeout
 567              		.type	i2c_lld_master_transmit_timeout, %function
 568              	i2c_lld_master_transmit_timeout:
 569              	.LFB12:
 570              		.loc 1 206 0
ARM GAS  C:\Users\NICOMA~1\AppData\Local\Temp\ccmCtzAE.s 			page 11


 571              		.cfi_startproc
 572              		@ args = 12, pretend = 0, frame = 24
 573              		@ frame_needed = 0, uses_anonymous_args = 0
 574              	.LVL47:
 575 0000 F0472DE9 		stmfd	sp!, {r4, r5, r6, r7, r8, r9, sl, lr}
 576              	.LCFI7:
 577              		.cfi_def_cfa_offset 32
 578              		.cfi_offset 4, -32
 579              		.cfi_offset 5, -28
 580              		.cfi_offset 6, -24
 581              		.cfi_offset 7, -20
 582              		.cfi_offset 8, -16
 583              		.cfi_offset 9, -12
 584              		.cfi_offset 10, -8
 585              		.cfi_offset 14, -4
 586 0004 20D04DE2 		sub	sp, sp, #32
 587              	.LCFI8:
 588              		.cfi_def_cfa_offset 64
 589              		.loc 1 206 0
 590 0008 48509DE5 		ldr	r5, [sp, #72]
 591 000c 0040A0E1 		mov	r4, r0
 592              		.loc 1 210 0
 593 0010 010075E3 		cmn	r5, #1
 594              		.loc 1 206 0
 595 0014 0170A0E1 		mov	r7, r1
 596 0018 0290A0E1 		mov	r9, r2
 597 001c 0380A0E1 		mov	r8, r3
 598 0020 40A09DE5 		ldr	sl, [sp, #64]
 599 0024 4460DDE5 		ldrb	r6, [sp, #68]	@ zero_extendqisi2
 600              		.loc 1 210 0
 601 0028 0400000A 		beq	.L72
 602              		.loc 1 211 0
 603 002c 0C008DE2 		add	r0, sp, #12
 604              	.LVL48:
 605 0030 0510A0E1 		mov	r1, r5
 606              	.LVL49:
 607 0034 EC209FE5 		ldr	r2, .L94
 608              	.LVL50:
 609 0038 0430A0E1 		mov	r3, r4
 610              	.LVL51:
 611 003c FEFFFFEB 		bl	chVTSetI
 612              	.LVL52:
 613              	.L72:
 614              		.loc 1 216 0
 615 0040 0030A0E3 		mov	r3, #0
 616              		.loc 1 221 0
 617 0044 0C0094E5 		ldr	r0, [r4, #12]
 618              	.LVL53:
 619              		.loc 1 216 0
 620 0048 303084E5 		str	r3, [r4, #48]
 621              		.loc 1 219 0
 622 004c 3C3084E5 		str	r3, [r4, #60]
 623              		.loc 1 224 0
 624 0050 D4309FE5 		ldr	r3, .L94+4
 625              		.loc 1 213 0
 626 0054 B472C4E1 		strh	r7, [r4, #36]	@ movhi
 627              		.loc 1 214 0
ARM GAS  C:\Users\NICOMA~1\AppData\Local\Temp\ccmCtzAE.s 			page 12


 628 0058 289084E5 		str	r9, [r4, #40]
 629              		.loc 1 215 0
 630 005c 2C8084E5 		str	r8, [r4, #44]
 631              		.loc 1 217 0
 632 0060 34A084E5 		str	sl, [r4, #52]
 633              		.loc 1 218 0
 634 0064 386084E5 		str	r6, [r4, #56]
 635              		.loc 1 222 0
 636 0068 0C7080E5 		str	r7, [r0, #12]
 637              		.loc 1 223 0
 638 006c 088080E5 		str	r8, [r0, #8]
 639              		.loc 1 224 0
 640 0070 043080E5 		str	r3, [r0, #4]
 641              		.loc 1 227 0
 642 0074 003090E5 		ldr	r3, [r0, #0]
 643 0078 833C83E3 		orr	r3, r3, #33536
 644 007c 803083E3 		orr	r3, r3, #128
 645 0080 003080E5 		str	r3, [r0, #0]
 646              		.loc 1 230 0
 647              	@ 230 "../../os/hal/platforms/BCM2835/i2c_lld.c" 1
 648 0084 9FF021E3 		msr     CPSR_c, #0x9F
 649              	@ 0 "" 2
 650              		.loc 1 232 0
 651 0088 A0809FE5 		ldr	r8, .L94+8
 652              	.LVL54:
 653              		.loc 1 233 0
 654 008c 0200A0E3 		mov	r0, #2
 655              	.LVL55:
 656              		.loc 1 232 0
 657 0090 183098E5 		ldr	r3, [r8, #24]
 658 0094 203084E5 		str	r3, [r4, #32]
 659              		.loc 1 233 0
 660 0098 FEFFFFEB 		bl	chSchGoSleepS
 661              	.LVL56:
 662              		.loc 1 234 0
 663 009c 010075E3 		cmn	r5, #1
 664 00a0 0400000A 		beq	.L73
 665              		.loc 1 234 0 is_stmt 0 discriminator 1
 666 00a4 18309DE5 		ldr	r3, [sp, #24]
 667 00a8 000053E3 		cmp	r3, #0
 668 00ac 0100000A 		beq	.L73
 669              		.loc 1 235 0 is_stmt 1
 670 00b0 0C008DE2 		add	r0, sp, #12
 671 00b4 FEFFFFEB 		bl	chVTResetI
 672              	.LVL57:
 673              	.L73:
 674              		.loc 1 237 0
 675              	@ 237 "../../os/hal/platforms/BCM2835/i2c_lld.c" 1
 676 00b8 1FF021E3 		msr     CPSR_c, #0x1F
 677              	@ 0 "" 2
 678              		.loc 1 239 0
 679 00bc 183098E5 		ldr	r3, [r8, #24]
 680 00c0 248093E5 		ldr	r8, [r3, #36]
 681              	.LVL58:
 682              		.loc 1 241 0
 683 00c4 003096E2 		adds	r3, r6, #0
 684 00c8 0130A013 		movne	r3, #1
ARM GAS  C:\Users\NICOMA~1\AppData\Local\Temp\ccmCtzAE.s 			page 13


 685 00cc 000058E3 		cmp	r8, #0
 686 00d0 0030A013 		movne	r3, #0
 687 00d4 000053E3 		cmp	r3, #0
 688 00d8 0200001A 		bne	.L93
 689              	.L74:
 690              		.loc 1 250 0
 691 00dc 0800A0E1 		mov	r0, r8
 692 00e0 20D08DE2 		add	sp, sp, #32
 693 00e4 F087BDE8 		ldmfd	sp!, {r4, r5, r6, r7, r8, r9, sl, pc}
 694              	.L93:
 695              		.loc 1 243 0
 696 00e8 0030E0E3 		mvn	r3, #0
 697 00ec 00308DE5 		str	r3, [sp, #0]
 698 00f0 0400A0E1 		mov	r0, r4
 699 00f4 0710A0E1 		mov	r1, r7
 700 00f8 0A20A0E1 		mov	r2, sl
 701 00fc 0630A0E1 		mov	r3, r6
 702 0100 FEFFFFEB 		bl	i2c_lld_master_receive_timeout
 703              	.LVL59:
 704              		.loc 1 245 0
 705 0104 010075E3 		cmn	r5, #1
 706              		.loc 1 243 0
 707 0108 0080A0E1 		mov	r8, r0
 708              	.LVL60:
 709              		.loc 1 245 0
 710 010c F2FFFF0A 		beq	.L74
 711              		.loc 1 245 0 is_stmt 0 discriminator 1
 712 0110 18309DE5 		ldr	r3, [sp, #24]
 713 0114 000053E3 		cmp	r3, #0
 714 0118 EFFFFF0A 		beq	.L74
 715              		.loc 1 246 0 is_stmt 1
 716 011c 0C008DE2 		add	r0, sp, #12
 717              	.LVL61:
 718 0120 FEFFFFEB 		bl	chVTResetI
 719              	.LVL62:
 720 0124 ECFFFFEA 		b	.L74
 721              	.L95:
 722              		.align	2
 723              	.L94:
 724 0128 00000000 		.word	i2c_lld_safety_timeout
 725 012c 02030000 		.word	770
 726 0130 00000000 		.word	rlist
 727              		.cfi_endproc
 728              	.LFE12:
 729              		.size	i2c_lld_master_transmit_timeout, .-i2c_lld_master_transmit_timeout
 730              		.comm	I2C1,64,4
 731              		.comm	I2C0,64,4
 732              		.text
 733              	.Letext0:
 734              		.file 2 "c:\\yagarto-20121222\\bin\\../lib/gcc/arm-none-eabi/4.7.2/include/stddef.h"
 735              		.file 3 "c:/yagarto-20121222/lib/gcc/../../arm-none-eabi/sys-include/stdint.h"
 736              		.file 4 "../../os/ports/GCC/ARM/chtypes.h"
 737              		.file 5 "../../os/kernel/include/chlists.h"
 738              		.file 6 "../../os/kernel/include/chthreads.h"
 739              		.file 7 "../../os/ports/GCC/ARM/chcore.h"
 740              		.file 8 "../../os/kernel/include/chvt.h"
 741              		.file 9 "../../os/kernel/include/chschd.h"
ARM GAS  C:\Users\NICOMA~1\AppData\Local\Temp\ccmCtzAE.s 			page 14


 742              		.file 10 "../../os/kernel/include/chmtx.h"
 743              		.file 11 "../../os/hal/platforms/BCM2835/bcm2835.h"
 744              		.file 12 "../../os/hal/include/i2c.h"
 745              		.file 13 "../../os/hal/platforms/BCM2835/i2c_lld.h"