ARM GAS  C:\Users\NICOMA~1\AppData\Local\Temp\cccqe8Wx.s 			page 1


   1              		.cpu arm1176jz-s
   2              		.fpu softvfp
   3              		.eabi_attribute 20, 1
   4              		.eabi_attribute 21, 1
   5              		.eabi_attribute 23, 3
   6              		.eabi_attribute 24, 1
   7              		.eabi_attribute 25, 1
   8              		.eabi_attribute 26, 1
   9              		.eabi_attribute 30, 2
  10              		.eabi_attribute 34, 1
  11              		.eabi_attribute 18, 4
  12              		.file	"main.c"
  13              		.text
  14              	.Ltext0:
  15              		.cfi_sections	.debug_frame
  16              		.section	.text.chprintf,"ax",%progbits
  17              		.align	2
  18              		.type	chprintf, %function
  19              	chprintf:
  20              	.LFB7:
  21              		.file 1 "../../os/various/chprintf.h"
  22              		.loc 1 69 0
  23              		.cfi_startproc
  24              		@ args = 4, pretend = 12, frame = 8
  25              		@ frame_needed = 0, uses_anonymous_args = 1
  26              	.LVL0:
  27 0000 0E002DE9 		stmfd	sp!, {r1, r2, r3}
  28              	.LCFI0:
  29              		.cfi_def_cfa_offset 12
  30              		.cfi_offset 1, -12
  31              		.cfi_offset 2, -8
  32              		.cfi_offset 3, -4
  33 0004 04E02DE5 		str	lr, [sp, #-4]!
  34              	.LCFI1:
  35              		.cfi_def_cfa_offset 16
  36              		.cfi_offset 14, -16
  37 0008 08D04DE2 		sub	sp, sp, #8
  38              	.LCFI2:
  39              		.cfi_def_cfa_offset 24
  40              		.loc 1 72 0
  41 000c 10308DE2 		add	r3, sp, #16
  42              		.loc 1 73 0
  43 0010 0C109DE5 		ldr	r1, [sp, #12]
  44 0014 0320A0E1 		mov	r2, r3
  45              		.loc 1 72 0
  46 0018 04308DE5 		str	r3, [sp, #4]
  47              		.loc 1 73 0
  48 001c FEFFFFEB 		bl	chvprintf
  49              	.LVL1:
  50              		.loc 1 75 0
  51 0020 08D08DE2 		add	sp, sp, #8
  52 0024 04E09DE4 		ldr	lr, [sp], #4
  53 0028 0CD08DE2 		add	sp, sp, #12
  54 002c 1EFF2FE1 		bx	lr
  55              		.cfi_endproc
  56              	.LFE7:
  57              		.size	chprintf, .-chprintf
ARM GAS  C:\Users\NICOMA~1\AppData\Local\Temp\cccqe8Wx.s 			page 2


  58              		.section	.text.cmd_reboot,"ax",%progbits
  59              		.align	2
  60              		.type	cmd_reboot, %function
  61              	cmd_reboot:
  62              	.LFB8:
  63              		.file 2 "main.c"
  64              		.loc 2 86 0
  65              		.cfi_startproc
  66              		@ args = 0, pretend = 0, frame = 0
  67              		@ frame_needed = 0, uses_anonymous_args = 0
  68              		@ link register save eliminated.
  69              	.LVL2:
  70              		.loc 2 88 0
  71 0000 000051E3 		cmp	r1, #0
  72 0004 010000DA 		ble	.L3
  73              		.loc 2 89 0
  74 0008 08109FE5 		ldr	r1, .L5
  75              	.LVL3:
  76              		.loc 2 95 0
  77              		.loc 2 89 0
  78 000c FEFFFFEA 		b	chprintf
  79              	.LVL4:
  80              	.L3:
  81              		.loc 2 94 0
  82 0010 0100A0E3 		mov	r0, #1
  83              	.LVL5:
  84              		.loc 2 95 0
  85              		.loc 2 94 0
  86 0014 FEFFFFEA 		b	watchdog_start
  87              	.LVL6:
  88              	.L6:
  89              		.align	2
  90              	.L5:
  91 0018 00000000 		.word	.LC0
  92              		.cfi_endproc
  93              	.LFE8:
  94              		.size	cmd_reboot, .-cmd_reboot
  95              		.section	.text.Thread1,"ax",%progbits
  96              		.align	2
  97              		.type	Thread1, %function
  98              	Thread1:
  99              	.LFB9:
 100              		.loc 2 113 0
 101              		.cfi_startproc
 102              		@ args = 0, pretend = 0, frame = 0
 103              		@ frame_needed = 0, uses_anonymous_args = 0
 104              	.LVL7:
 105              		.loc 2 115 0
 106 0000 44309FE5 		ldr	r3, .L9
 107 0004 44209FE5 		ldr	r2, .L9+4
 108 0008 183093E5 		ldr	r3, [r3, #24]
 109              		.loc 2 113 0
 110 000c 10402DE9 		stmfd	sp!, {r4, lr}
 111              	.LCFI3:
 112              		.cfi_def_cfa_offset 8
 113              		.cfi_offset 4, -8
 114              		.cfi_offset 14, -4
ARM GAS  C:\Users\NICOMA~1\AppData\Local\Temp\cccqe8Wx.s 			page 3


 115 0010 3C409FE5 		ldr	r4, .L9+8
 116              		.loc 2 115 0
 117 0014 182083E5 		str	r2, [r3, #24]
 118              	.LVL8:
 119              	.L8:
 120              		.loc 2 117 0 discriminator 1
 121 0018 001094E5 		ldr	r1, [r4, #0]
 122 001c 30009FE5 		ldr	r0, .L9+8
 123 0020 0118C1E3 		bic	r1, r1, #65536
 124 0024 FEFFFFEB 		bl	_pal_lld_writeport
 125              	.LVL9:
 126              		.loc 2 118 0 discriminator 1
 127 0028 6400A0E3 		mov	r0, #100
 128 002c FEFFFFEB 		bl	chThdSleep
 129              	.LVL10:
 130              		.loc 2 119 0 discriminator 1
 131 0030 001094E5 		ldr	r1, [r4, #0]
 132 0034 18009FE5 		ldr	r0, .L9+8
 133 0038 011881E3 		orr	r1, r1, #65536
 134 003c FEFFFFEB 		bl	_pal_lld_writeport
 135              	.LVL11:
 136              		.loc 2 120 0 discriminator 1
 137 0040 E10FA0E3 		mov	r0, #900
 138 0044 FEFFFFEB 		bl	chThdSleep
 139              	.LVL12:
 140 0048 F2FFFFEA 		b	.L8
 141              	.L10:
 142              		.align	2
 143              	.L9:
 144 004c 00000000 		.word	rlist
 145 0050 10000000 		.word	.LC1
 146 0054 00000000 		.word	IOPORT0
 147              		.cfi_endproc
 148              	.LFE9:
 149              		.size	Thread1, .-Thread1
 150              		.section	.text.startup.main,"ax",%progbits
 151              		.align	2
 152              		.global	main
 153              		.type	main, %function
 154              	main:
 155              	.LFB10:
 156              		.loc 2 128 0
 157              		.cfi_startproc
 158              		@ args = 0, pretend = 0, frame = 0
 159              		@ frame_needed = 0, uses_anonymous_args = 0
 160 0000 10402DE9 		stmfd	sp!, {r4, lr}
 161              	.LCFI4:
 162              		.cfi_def_cfa_offset 8
 163              		.cfi_offset 4, -8
 164              		.cfi_offset 14, -4
 165              		.loc 2 135 0
 166 0004 78409FE5 		ldr	r4, .L12
 167              		.loc 2 128 0
 168 0008 08D04DE2 		sub	sp, sp, #8
 169              	.LCFI5:
 170              		.cfi_def_cfa_offset 16
 171              		.loc 2 129 0
ARM GAS  C:\Users\NICOMA~1\AppData\Local\Temp\cccqe8Wx.s 			page 4


 172 000c FEFFFFEB 		bl	halInit
 173              	.LVL13:
 174              		.loc 2 130 0
 175 0010 FEFFFFEB 		bl	chSysInit
 176              	.LVL14:
 177              		.loc 2 135 0
 178 0014 0400A0E1 		mov	r0, r4
 179 0018 0010A0E3 		mov	r1, #0
 180 001c FEFFFFEB 		bl	sdStart
 181              	.LVL15:
 182              		.loc 2 136 0
 183 0020 0400A0E1 		mov	r0, r4
 184 0024 5C109FE5 		ldr	r1, .L12+4
 185 0028 FEFFFFEB 		bl	chprintf
 186              	.LVL16:
 187              		.loc 2 141 0
 188 002c FEFFFFEB 		bl	shellInit
 189              	.LVL17:
 190              		.loc 2 142 0
 191 0030 54109FE5 		ldr	r1, .L12+8
 192 0034 4120A0E3 		mov	r2, #65
 193 0038 50009FE5 		ldr	r0, .L12+12
 194 003c FEFFFFEB 		bl	shellCreate
 195              	.LVL18:
 196              		.loc 2 152 0
 197 0040 0040A0E3 		mov	r4, #0
 198              		.loc 2 147 0
 199 0044 48009FE5 		ldr	r0, .L12+16
 200 0048 0118A0E3 		mov	r1, #65536
 201 004c FF20A0E3 		mov	r2, #255
 202 0050 FEFFFFEB 		bl	_pal_lld_setgroupmode
 203              	.LVL19:
 204              		.loc 2 152 0
 205 0054 461FA0E3 		mov	r1, #280
 206 0058 4020A0E3 		mov	r2, #64
 207 005c 34309FE5 		ldr	r3, .L12+20
 208 0060 00408DE5 		str	r4, [sp, #0]
 209 0064 30009FE5 		ldr	r0, .L12+24
 210 0068 FEFFFFEB 		bl	chThdCreateStatic
 211              	.LVL20:
 212              		.loc 2 157 0
 213 006c 2C309FE5 		ldr	r3, .L12+28
 214 0070 180093E5 		ldr	r0, [r3, #24]
 215 0074 FEFFFFEB 		bl	chThdWait
 216              	.LVL21:
 217              		.loc 2 160 0
 218 0078 0400A0E1 		mov	r0, r4
 219 007c 08D08DE2 		add	sp, sp, #8
 220 0080 1080BDE8 		ldmfd	sp!, {r4, pc}
 221              	.L13:
 222              		.align	2
 223              	.L12:
 224 0084 00000000 		.word	SD1
 225 0088 18000000 		.word	.LC2
 226 008c 98100000 		.word	4248
 227 0090 00000000 		.word	.LANCHOR0
 228 0094 00000000 		.word	IOPORT0
ARM GAS  C:\Users\NICOMA~1\AppData\Local\Temp\cccqe8Wx.s 			page 5


 229 0098 00000000 		.word	Thread1
 230 009c 00000000 		.word	.LANCHOR1
 231 00a0 00000000 		.word	rlist
 232              		.cfi_endproc
 233              	.LFE10:
 234              		.size	main, .-main
 235              		.section	.rodata.commands,"a",%progbits
 236              		.align	2
 237              		.type	commands, %object
 238              		.size	commands, 16
 239              	commands:
 240 0000 30000000 		.word	.LC3
 241 0004 00000000 		.word	cmd_reboot
 242 0008 00000000 		.word	0
 243 000c 00000000 		.word	0
 244              		.section	.bss.waThread1,"aw",%nobits
 245              		.align	2
 246              		.set	.LANCHOR1,. + 0
 247              		.type	waThread1, %object
 248              		.size	waThread1, 280
 249              	waThread1:
 250 0000 00000000 		.space	280
 250      00000000 
 250      00000000 
 250      00000000 
 250      00000000 
 251              		.section	.rodata.str1.4,"aMS",%progbits,1
 252              		.align	2
 253              	.LC0:
 254 0000 55736167 		.ascii	"Usage: reboot\015\012\000"
 254      653A2072 
 254      65626F6F 
 254      740D0A00 
 255              	.LC1:
 256 0010 626C696E 		.ascii	"blinker\000"
 256      6B657200 
 257              	.LC2:
 258 0018 4D61696E 		.ascii	"Main (SD1 started)\015\012\000"
 258      20285344 
 258      31207374 
 258      61727465 
 258      64290D0A 
 259 002d 000000   		.space	3
 260              	.LC3:
 261 0030 7265626F 		.ascii	"reboot\000"
 261      6F7400
 262 0037 00       		.section	.rodata.shell_config,"a",%progbits
 263              		.align	2
 264              		.set	.LANCHOR0,. + 0
 265              		.type	shell_config, %object
 266              		.size	shell_config, 8
 267              	shell_config:
 268 0000 00000000 		.word	SD1
 269 0004 00000000 		.word	commands
 270              		.text
 271              	.Letext0:
 272              		.file 3 "c:\\yagarto-20121222\\bin\\../lib/gcc/arm-none-eabi/4.7.2/include/stddef.h"
ARM GAS  C:\Users\NICOMA~1\AppData\Local\Temp\cccqe8Wx.s 			page 6


 273              		.file 4 "c:/yagarto-20121222/lib/gcc/../../arm-none-eabi/sys-include/stdint.h"
 274              		.file 5 "../../os/ports/GCC/ARM/chtypes.h"
 275              		.file 6 "../../os/kernel/include/chlists.h"
 276              		.file 7 "../../os/kernel/include/chthreads.h"
 277              		.file 8 "../../os/ports/GCC/ARM/chcore.h"
 278              		.file 9 "../../os/kernel/include/chschd.h"
 279              		.file 10 "../../os/kernel/include/chmtx.h"
 280              		.file 11 "../../os/kernel/include/chevents.h"
 281              		.file 12 "../../os/kernel/include/chqueues.h"
 282              		.file 13 "../../os/kernel/include/chstreams.h"
 283              		.file 14 "../../os/hal/platforms/BCM2835/pal_lld.h"
 284              		.file 15 "../../os/hal/include/serial.h"
 285              		.file 16 "../../os/hal/platforms/BCM2835/serial_lld.h"
 286              		.file 17 "../../os/various/shell.h"
 287              		.file 18 "c:\\yagarto-20121222\\bin\\../lib/gcc/arm-none-eabi/4.7.2/include/stdarg.h"
 288              		.file 19 "<built-in>"
 289              		.file 20 "../../os/hal/platforms/BCM2835/hal_lld.h"
 290              		.file 21 "../../os/hal/include/hal.h"
 291              		.file 22 "../../os/kernel/include/chsys.h"