ARM GAS  C:\Users\NICOMA~1\AppData\Local\Temp\ccAa0G2a.s 			page 1


   1              		.cpu arm1176jz-s
   2              		.fpu softvfp
   3              		.eabi_attribute 20, 1
   4              		.eabi_attribute 21, 1
   5              		.eabi_attribute 23, 3
   6              		.eabi_attribute 24, 1
   7              		.eabi_attribute 25, 1
   8              		.eabi_attribute 26, 1
   9              		.eabi_attribute 30, 2
  10              		.eabi_attribute 34, 1
  11              		.eabi_attribute 18, 4
  12              		.file	"pal.c"
  13              		.text
  14              	.Ltext0:
  15              		.cfi_sections	.debug_frame
  16              		.section	.text.palReadBus,"ax",%progbits
  17              		.align	2
  18              		.global	palReadBus
  19              		.type	palReadBus, %function
  20              	palReadBus:
  21              	.LFB7:
  22              		.file 1 "../../os/hal/src/pal.c"
  23              		.loc 1 77 0
  24              		.cfi_startproc
  25              		@ args = 0, pretend = 0, frame = 0
  26              		@ frame_needed = 0, uses_anonymous_args = 0
  27              		@ link register save eliminated.
  28              	.LVL0:
  29              		.loc 1 82 0
  30 0000 003090E5 		ldr	r3, [r0, #0]
  31 0004 082090E5 		ldr	r2, [r0, #8]
  32 0008 0C1093E5 		ldr	r1, [r3, #12]
  33 000c 043090E5 		ldr	r3, [r0, #4]
  34 0010 000091E5 		ldr	r0, [r1, #0]
  35              	.LVL1:
  36              		.loc 1 83 0
  37 0014 300203E0 		and	r0, r3, r0, lsr r2
  38 0018 1EFF2FE1 		bx	lr
  39              		.cfi_endproc
  40              	.LFE7:
  41              		.size	palReadBus, .-palReadBus
  42              		.section	.text.palWriteBus,"ax",%progbits
  43              		.align	2
  44              		.global	palWriteBus
  45              		.type	palWriteBus, %function
  46              	palWriteBus:
  47              	.LFB8:
  48              		.loc 1 103 0
  49              		.cfi_startproc
  50              		@ args = 0, pretend = 0, frame = 0
  51              		@ frame_needed = 0, uses_anonymous_args = 0
  52              		@ link register save eliminated.
  53              	.LVL2:
  54              		.loc 1 108 0
  55 0000 0D0090E8 		ldmia	r0, {r0, r2, r3}
  56              	.LVL3:
  57 0004 00C090E5 		ldr	ip, [r0, #0]
ARM GAS  C:\Users\NICOMA~1\AppData\Local\Temp\ccAa0G2a.s 			page 2


  58 0008 021001E0 		and	r1, r1, r2
  59              	.LVL4:
  60 000c 1223CCE1 		bic	r2, ip, r2, asl r3
  61 0010 111382E1 		orr	r1, r2, r1, asl r3
  62              		.loc 1 109 0
  63              		.loc 1 108 0
  64 0014 FEFFFFEA 		b	_pal_lld_writeport
  65              	.LVL5:
  66              		.cfi_endproc
  67              	.LFE8:
  68              		.size	palWriteBus, .-palWriteBus
  69              		.section	.text.palSetBusMode,"ax",%progbits
  70              		.align	2
  71              		.global	palSetBusMode
  72              		.type	palSetBusMode, %function
  73              	palSetBusMode:
  74              	.LFB9:
  75              		.loc 1 127 0
  76              		.cfi_startproc
  77              		@ args = 0, pretend = 0, frame = 0
  78              		@ frame_needed = 0, uses_anonymous_args = 0
  79              		@ link register save eliminated.
  80              	.LVL6:
  81              		.loc 1 132 0
  82 0000 04C090E5 		ldr	ip, [r0, #4]
  83 0004 083090E5 		ldr	r3, [r0, #8]
  84              		.loc 1 127 0
  85 0008 0120A0E1 		mov	r2, r1
  86              		.loc 1 132 0
  87 000c 1C13A0E1 		mov	r1, ip, asl r3
  88              	.LVL7:
  89 0010 000090E5 		ldr	r0, [r0, #0]
  90              	.LVL8:
  91              		.loc 1 133 0
  92              		.loc 1 132 0
  93 0014 FEFFFFEA 		b	_pal_lld_setgroupmode
  94              	.LVL9:
  95              		.cfi_endproc
  96              	.LFE9:
  97              		.size	palSetBusMode, .-palSetBusMode
  98              		.text
  99              	.Letext0:
 100              		.file 2 "c:/yagarto-20121222/lib/gcc/../../arm-none-eabi/sys-include/stdint.h"
 101              		.file 3 "../../os/hal/platforms/BCM2835/pal_lld.h"
 102              		.file 4 "../../os/hal/include/pal.h"