ARM GAS  C:\Users\NICOMA~1\AppData\Local\Temp\cc5JDUMb.s 			page 1


   1              		.cpu arm1176jz-s
   2              		.fpu softvfp
   3              		.eabi_attribute 20, 1
   4              		.eabi_attribute 21, 1
   5              		.eabi_attribute 23, 3
   6              		.eabi_attribute 24, 1
   7              		.eabi_attribute 25, 1
   8              		.eabi_attribute 26, 1
   9              		.eabi_attribute 30, 2
  10              		.eabi_attribute 34, 1
  11              		.eabi_attribute 18, 4
  12              		.file	"pal_lld.c"
  13              		.text
  14              	.Ltext0:
  15              		.cfi_sections	.debug_frame
  16              		.section	.text.set_gpio_in,"ax",%progbits
  17              		.align	2
  18              		.type	set_gpio_in, %function
  19              	set_gpio_in:
  20              	.LFB9:
  21              		.file 1 "../../os/hal/platforms/BCM2835/pal_lld.c"
  22              		.loc 1 64 0
  23              		.cfi_startproc
  24              		@ args = 0, pretend = 0, frame = 0
  25              		@ frame_needed = 0, uses_anonymous_args = 0
  26              	.LVL0:
  27 0000 70402DE9 		stmfd	sp!, {r4, r5, r6, lr}
  28              	.LCFI0:
  29              		.cfi_def_cfa_offset 16
  30              		.cfi_offset 4, -16
  31              		.cfi_offset 5, -12
  32              		.cfi_offset 6, -8
  33              		.cfi_offset 14, -4
  34              		.loc 1 64 0
  35 0004 0060A0E1 		mov	r6, r0
  36 0008 0150A0E1 		mov	r5, r1
  37              		.loc 1 66 0
  38 000c 0040A0E3 		mov	r4, #0
  39 0010 030000EA 		b	.L3
  40              	.LVL1:
  41              	.L2:
  42 0014 014084E2 		add	r4, r4, #1
  43 0018 200054E3 		cmp	r4, #32
  44              	.LBB2:
  45              		.loc 1 70 0
  46 001c A550A0E1 		mov	r5, r5, lsr #1
  47              	.LVL2:
  48              	.LBE2:
  49              		.loc 1 66 0
  50 0020 0900000A 		beq	.L9
  51              	.LVL3:
  52              	.L3:
  53              	.LBB3:
  54              		.loc 1 68 0
  55 0024 010015E3 		tst	r5, #1
  56 0028 F9FFFF0A 		beq	.L2
  57              		.loc 1 69 0
ARM GAS  C:\Users\NICOMA~1\AppData\Local\Temp\cc5JDUMb.s 			page 2


  58 002c 140096E5 		ldr	r0, [r6, #20]
  59 0030 0010A0E3 		mov	r1, #0
  60 0034 000084E0 		add	r0, r4, r0
  61              	.LBE3:
  62              		.loc 1 66 0
  63 0038 014084E2 		add	r4, r4, #1
  64              	.LBB4:
  65              		.loc 1 69 0
  66 003c FEFFFFEB 		bl	bcm2835_gpio_fnsel
  67              	.LVL4:
  68              	.LBE4:
  69              		.loc 1 66 0
  70 0040 200054E3 		cmp	r4, #32
  71              	.LBB5:
  72              		.loc 1 70 0
  73 0044 A550A0E1 		mov	r5, r5, lsr #1
  74              	.LVL5:
  75              	.LBE5:
  76              		.loc 1 66 0
  77 0048 F5FFFF1A 		bne	.L3
  78              	.L9:
  79              		.loc 1 72 0
  80 004c 7080BDE8 		ldmfd	sp!, {r4, r5, r6, pc}
  81              		.cfi_endproc
  82              	.LFE9:
  83              		.size	set_gpio_in, .-set_gpio_in
  84              		.section	.text.set_gpio_pud,"ax",%progbits
  85              		.align	2
  86              		.type	set_gpio_pud, %function
  87              	set_gpio_pud:
  88              	.LFB8:
  89              		.loc 1 54 0
  90              		.cfi_startproc
  91              		@ args = 0, pretend = 0, frame = 0
  92              		@ frame_needed = 0, uses_anonymous_args = 0
  93              	.LVL6:
  94 0000 70402DE9 		stmfd	sp!, {r4, r5, r6, lr}
  95              	.LCFI1:
  96              		.cfi_def_cfa_offset 16
  97              		.cfi_offset 4, -16
  98              		.cfi_offset 5, -12
  99              		.cfi_offset 6, -8
 100              		.cfi_offset 14, -4
 101              		.loc 1 56 0
 102 0004 34409FE5 		ldr	r4, .L11
 103              		.loc 1 54 0
 104 0008 0050A0E1 		mov	r5, r0
 105              		.loc 1 56 0
 106 000c 942084E5 		str	r2, [r4, #148]
 107              		.loc 1 57 0
 108 0010 9600A0E3 		mov	r0, #150
 109              	.LVL7:
 110              		.loc 1 54 0
 111 0014 0160A0E1 		mov	r6, r1
 112              		.loc 1 57 0
 113 0018 FEFFFFEB 		bl	bcm2835_delay
 114              	.LVL8:
ARM GAS  C:\Users\NICOMA~1\AppData\Local\Temp\cc5JDUMb.s 			page 3


 115              		.loc 1 58 0
 116 001c 103095E5 		ldr	r3, [r5, #16]
 117              		.loc 1 59 0
 118 0020 9600A0E3 		mov	r0, #150
 119              		.loc 1 58 0
 120 0024 006083E5 		str	r6, [r3, #0]
 121              		.loc 1 59 0
 122 0028 FEFFFFEB 		bl	bcm2835_delay
 123              	.LVL9:
 124              		.loc 1 61 0
 125 002c 102095E5 		ldr	r2, [r5, #16]
 126              		.loc 1 60 0
 127 0030 0030A0E3 		mov	r3, #0
 128 0034 943084E5 		str	r3, [r4, #148]
 129              		.loc 1 61 0
 130 0038 003082E5 		str	r3, [r2, #0]
 131 003c 7080BDE8 		ldmfd	sp!, {r4, r5, r6, pc}
 132              	.L12:
 133              		.align	2
 134              	.L11:
 135 0040 00002020 		.word	538968064
 136              		.cfi_endproc
 137              	.LFE8:
 138              		.size	set_gpio_pud, .-set_gpio_pud
 139              		.section	.text._pal_lld_init,"ax",%progbits
 140              		.align	2
 141              		.global	_pal_lld_init
 142              		.type	_pal_lld_init, %function
 143              	_pal_lld_init:
 144              	.LFB10:
 145              		.loc 1 82 0
 146              		.cfi_startproc
 147              		@ args = 0, pretend = 0, frame = 0
 148              		@ frame_needed = 0, uses_anonymous_args = 0
 149              	.LVL10:
 150 0000 08402DE9 		stmfd	sp!, {r3, lr}
 151              	.LCFI2:
 152              		.cfi_def_cfa_offset 8
 153              		.cfi_offset 3, -8
 154              		.cfi_offset 14, -4
 155              		.loc 1 86 0
 156 0004 64209FE5 		ldr	r2, .L14
 157 0008 64309FE5 		ldr	r3, .L14+4
 158              		.loc 1 90 0
 159 000c 0010E0E3 		mvn	r1, #0
 160              		.loc 1 86 0
 161 0010 042083E5 		str	r2, [r3, #4]
 162              		.loc 1 87 0
 163 0014 0C2082E2 		add	r2, r2, #12
 164 0018 082083E5 		str	r2, [r3, #8]
 165              		.loc 1 88 0
 166 001c 0C2082E2 		add	r2, r2, #12
 167              		.loc 1 90 0
 168 0020 0300A0E1 		mov	r0, r3
 169              	.LVL11:
 170              		.loc 1 88 0
 171 0024 0C2083E5 		str	r2, [r3, #12]
ARM GAS  C:\Users\NICOMA~1\AppData\Local\Temp\cc5JDUMb.s 			page 4


 172              		.loc 1 89 0
 173 0028 642082E2 		add	r2, r2, #100
 174 002c 102083E5 		str	r2, [r3, #16]
 175              		.loc 1 90 0
 176 0030 FEFFFFEB 		bl	set_gpio_in
 177              	.LVL12:
 178              		.loc 1 92 0
 179 0034 3C309FE5 		ldr	r3, .L14+8
 180 0038 3C209FE5 		ldr	r2, .L14+12
 181              		.loc 1 97 0
 182 003c 0300A0E1 		mov	r0, r3
 183              		.loc 1 92 0
 184 0040 042083E5 		str	r2, [r3, #4]
 185              		.loc 1 93 0
 186 0044 0C2082E2 		add	r2, r2, #12
 187 0048 082083E5 		str	r2, [r3, #8]
 188              		.loc 1 94 0
 189 004c 0C2082E2 		add	r2, r2, #12
 190 0050 0C2083E5 		str	r2, [r3, #12]
 191              		.loc 1 95 0
 192 0054 642082E2 		add	r2, r2, #100
 193 0058 102083E5 		str	r2, [r3, #16]
 194              		.loc 1 97 0
 195 005c 0010E0E3 		mvn	r1, #0
 196              		.loc 1 96 0
 197 0060 2020A0E3 		mov	r2, #32
 198 0064 142083E5 		str	r2, [r3, #20]
 199              		.loc 1 98 0
 200 0068 0840BDE8 		ldmfd	sp!, {r3, lr}
 201              		.loc 1 97 0
 202 006c FEFFFFEA 		b	set_gpio_in
 203              	.LVL13:
 204              	.L15:
 205              		.align	2
 206              	.L14:
 207 0070 1C002020 		.word	538968092
 208 0074 00000000 		.word	IOPORT0
 209 0078 00000000 		.word	IOPORT1
 210 007c 20002020 		.word	538968096
 211              		.cfi_endproc
 212              	.LFE10:
 213              		.size	_pal_lld_init, .-_pal_lld_init
 214              		.section	.text._pal_lld_setgroupmode,"ax",%progbits
 215              		.align	2
 216              		.global	_pal_lld_setgroupmode
 217              		.type	_pal_lld_setgroupmode, %function
 218              	_pal_lld_setgroupmode:
 219              	.LFB11:
 220              		.loc 1 100 0
 221              		.cfi_startproc
 222              		@ args = 0, pretend = 0, frame = 0
 223              		@ frame_needed = 0, uses_anonymous_args = 0
 224              	.LVL14:
 225              		.loc 1 102 0
 226 0000 040052E3 		cmp	r2, #4
 227              		.loc 1 100 0
 228 0004 70402DE9 		stmfd	sp!, {r4, r5, r6, lr}
ARM GAS  C:\Users\NICOMA~1\AppData\Local\Temp\cc5JDUMb.s 			page 5


 229              	.LCFI3:
 230              		.cfi_def_cfa_offset 16
 231              		.cfi_offset 4, -16
 232              		.cfi_offset 5, -12
 233              		.cfi_offset 6, -8
 234              		.cfi_offset 14, -4
 235              		.loc 1 100 0
 236 0008 0060A0E1 		mov	r6, r0
 237 000c 0150A0E1 		mov	r5, r1
 238              		.loc 1 102 0
 239 0010 2100000A 		beq	.L20
 240 0014 0900008A 		bhi	.L22
 241 0018 020052E3 		cmp	r2, #2
 242 001c 2400000A 		beq	.L18
 243 0020 030052E3 		cmp	r2, #3
 244 0024 7080BD18 		ldmnefd	sp!, {r4, r5, r6, pc}
 245              		.loc 1 108 0
 246 0028 FEFFFFEB 		bl	set_gpio_in
 247              	.LVL15:
 248              		.loc 1 109 0
 249 002c 0600A0E1 		mov	r0, r6
 250 0030 0510A0E1 		mov	r1, r5
 251 0034 0220A0E3 		mov	r2, #2
 252              		.loc 1 126 0
 253 0038 7040BDE8 		ldmfd	sp!, {r4, r5, r6, lr}
 254              		.loc 1 109 0
 255 003c FEFFFFEA 		b	set_gpio_pud
 256              	.LVL16:
 257              	.L22:
 258              		.loc 1 102 0
 259 0040 060052E3 		cmp	r2, #6
 260 0044 7080BD38 		ldmccfd	sp!, {r4, r5, r6, pc}
 261 0048 070052E3 		cmp	r2, #7
 262 004c 0100009A 		bls	.L24
 263 0050 FF0052E3 		cmp	r2, #255
 264 0054 7080BD18 		ldmnefd	sp!, {r4, r5, r6, pc}
 265              	.L24:
 266 0058 0040A0E3 		mov	r4, #0
 267 005c 030000EA 		b	.L21
 268              	.LVL17:
 269              	.L23:
 270              		.loc 1 118 0
 271 0060 014084E2 		add	r4, r4, #1
 272 0064 200054E3 		cmp	r4, #32
 273              	.LBB6:
 274              		.loc 1 122 0
 275 0068 A550A0E1 		mov	r5, r5, lsr #1
 276              	.LVL18:
 277              	.LBE6:
 278              		.loc 1 118 0
 279 006c 0900000A 		beq	.L32
 280              	.LVL19:
 281              	.L21:
 282              	.LBB7:
 283              		.loc 1 120 0
 284 0070 010015E3 		tst	r5, #1
 285 0074 F9FFFF0A 		beq	.L23
ARM GAS  C:\Users\NICOMA~1\AppData\Local\Temp\cc5JDUMb.s 			page 6


 286              		.loc 1 121 0
 287 0078 140096E5 		ldr	r0, [r6, #20]
 288 007c 0110A0E3 		mov	r1, #1
 289 0080 000084E0 		add	r0, r4, r0
 290              	.LBE7:
 291              		.loc 1 118 0
 292 0084 014084E2 		add	r4, r4, #1
 293              	.LBB8:
 294              		.loc 1 121 0
 295 0088 FEFFFFEB 		bl	bcm2835_gpio_fnsel
 296              	.LVL20:
 297              	.LBE8:
 298              		.loc 1 118 0
 299 008c 200054E3 		cmp	r4, #32
 300              	.LBB9:
 301              		.loc 1 122 0
 302 0090 A550A0E1 		mov	r5, r5, lsr #1
 303              	.LVL21:
 304              	.LBE9:
 305              		.loc 1 118 0
 306 0094 F5FFFF1A 		bne	.L21
 307              	.L32:
 308 0098 7080BDE8 		ldmfd	sp!, {r4, r5, r6, pc}
 309              	.LVL22:
 310              	.L20:
 311              		.loc 1 112 0
 312 009c FEFFFFEB 		bl	set_gpio_in
 313              	.LVL23:
 314              		.loc 1 113 0
 315 00a0 0600A0E1 		mov	r0, r6
 316 00a4 0510A0E1 		mov	r1, r5
 317 00a8 0120A0E3 		mov	r2, #1
 318              		.loc 1 126 0
 319 00ac 7040BDE8 		ldmfd	sp!, {r4, r5, r6, lr}
 320              		.loc 1 113 0
 321 00b0 FEFFFFEA 		b	set_gpio_pud
 322              	.LVL24:
 323              	.L18:
 324              		.loc 1 104 0
 325 00b4 FEFFFFEB 		bl	set_gpio_in
 326              	.LVL25:
 327              		.loc 1 105 0
 328 00b8 0600A0E1 		mov	r0, r6
 329 00bc 0510A0E1 		mov	r1, r5
 330 00c0 0020A0E3 		mov	r2, #0
 331              		.loc 1 126 0
 332 00c4 7040BDE8 		ldmfd	sp!, {r4, r5, r6, lr}
 333              		.loc 1 105 0
 334 00c8 FEFFFFEA 		b	set_gpio_pud
 335              	.LVL26:
 336              		.cfi_endproc
 337              	.LFE11:
 338              		.size	_pal_lld_setgroupmode, .-_pal_lld_setgroupmode
 339              		.section	.text._pal_lld_writeport,"ax",%progbits
 340              		.align	2
 341              		.global	_pal_lld_writeport
 342              		.type	_pal_lld_writeport, %function
ARM GAS  C:\Users\NICOMA~1\AppData\Local\Temp\cc5JDUMb.s 			page 7


 343              	_pal_lld_writeport:
 344              	.LFB12:
 345              		.loc 1 128 0
 346              		.cfi_startproc
 347              		@ args = 0, pretend = 0, frame = 0
 348              		@ frame_needed = 0, uses_anonymous_args = 0
 349              		@ link register save eliminated.
 350              	.LVL27:
 351              		.loc 1 129 0
 352 0000 04C090E5 		ldr	ip, [r0, #4]
 353              		.loc 1 130 0
 354 0004 083090E5 		ldr	r3, [r0, #8]
 355 0008 0120E0E1 		mvn	r2, r1
 356              		.loc 1 129 0
 357 000c 001080E5 		str	r1, [r0, #0]
 358 0010 00108CE5 		str	r1, [ip, #0]
 359              		.loc 1 130 0
 360 0014 002083E5 		str	r2, [r3, #0]
 361 0018 1EFF2FE1 		bx	lr
 362              		.cfi_endproc
 363              	.LFE12:
 364              		.size	_pal_lld_writeport, .-_pal_lld_writeport
 365              		.comm	IOPORT1,24,4
 366              		.comm	IOPORT0,24,4
 367              		.text
 368              	.Letext0:
 369              		.file 2 "../../os/hal/platforms/BCM2835/pal_lld.h"
 370              		.file 3 "c:/yagarto-20121222/lib/gcc/../../arm-none-eabi/sys-include/stdint.h"
 371              		.file 4 "../../os/hal/platforms/BCM2835/bcm2835.h"