ARM GAS  C:\Users\NICOMA~1\AppData\Local\Temp\ccG3HhJL.s 			page 1


   1              		.cpu arm1176jz-s
   2              		.fpu softvfp
   3              		.eabi_attribute 20, 1
   4              		.eabi_attribute 21, 1
   5              		.eabi_attribute 23, 3
   6              		.eabi_attribute 24, 1
   7              		.eabi_attribute 25, 1
   8              		.eabi_attribute 26, 1
   9              		.eabi_attribute 30, 2
  10              		.eabi_attribute 34, 1
  11              		.eabi_attribute 18, 4
  12              		.file	"serial.c"
  13              		.text
  14              	.Ltext0:
  15              		.cfi_sections	.debug_frame
  16              		.section	.text.readt,"ax",%progbits
  17              		.align	2
  18              		.type	readt, %function
  19              	readt:
  20              	.LFB14:
  21              		.file 1 "../../os/hal/src/serial.c"
  22              		.loc 1 99 0
  23              		.cfi_startproc
  24              		@ args = 0, pretend = 0, frame = 0
  25              		@ frame_needed = 0, uses_anonymous_args = 0
  26              		@ link register save eliminated.
  27              	.LVL0:
  28              		.loc 1 101 0
  29 0000 0C0080E2 		add	r0, r0, #12
  30              	.LVL1:
  31              		.loc 1 102 0
  32              		.loc 1 101 0
  33 0004 FEFFFFEA 		b	chIQReadTimeout
  34              	.LVL2:
  35              		.cfi_endproc
  36              	.LFE14:
  37              		.size	readt, .-readt
  38              		.section	.text.read,"ax",%progbits
  39              		.align	2
  40              		.type	read, %function
  41              	read:
  42              	.LFB8:
  43              		.loc 1 68 0
  44              		.cfi_startproc
  45              		@ args = 0, pretend = 0, frame = 0
  46              		@ frame_needed = 0, uses_anonymous_args = 0
  47              		@ link register save eliminated.
  48              	.LVL3:
  49              		.loc 1 70 0
  50 0000 0C0080E2 		add	r0, r0, #12
  51              	.LVL4:
  52 0004 0030E0E3 		mvn	r3, #0
  53              		.loc 1 72 0
  54              		.loc 1 70 0
  55 0008 FEFFFFEA 		b	chIQReadTimeout
  56              	.LVL5:
  57              		.cfi_endproc
ARM GAS  C:\Users\NICOMA~1\AppData\Local\Temp\ccG3HhJL.s 			page 2


  58              	.LFE8:
  59              		.size	read, .-read
  60              		.section	.text.writet,"ax",%progbits
  61              		.align	2
  62              		.type	writet, %function
  63              	writet:
  64              	.LFB13:
  65              		.loc 1 94 0
  66              		.cfi_startproc
  67              		@ args = 0, pretend = 0, frame = 0
  68              		@ frame_needed = 0, uses_anonymous_args = 0
  69              		@ link register save eliminated.
  70              	.LVL6:
  71              		.loc 1 96 0
  72 0000 300080E2 		add	r0, r0, #48
  73              	.LVL7:
  74              		.loc 1 97 0
  75              		.loc 1 96 0
  76 0004 FEFFFFEA 		b	chOQWriteTimeout
  77              	.LVL8:
  78              		.cfi_endproc
  79              	.LFE13:
  80              		.size	writet, .-writet
  81              		.section	.text.write,"ax",%progbits
  82              		.align	2
  83              		.type	write, %function
  84              	write:
  85              	.LFB7:
  86              		.loc 1 62 0
  87              		.cfi_startproc
  88              		@ args = 0, pretend = 0, frame = 0
  89              		@ frame_needed = 0, uses_anonymous_args = 0
  90              		@ link register save eliminated.
  91              	.LVL9:
  92              		.loc 1 64 0
  93 0000 300080E2 		add	r0, r0, #48
  94              	.LVL10:
  95 0004 0030E0E3 		mvn	r3, #0
  96              		.loc 1 66 0
  97              		.loc 1 64 0
  98 0008 FEFFFFEA 		b	chOQWriteTimeout
  99              	.LVL11:
 100              		.cfi_endproc
 101              	.LFE7:
 102              		.size	write, .-write
 103              		.section	.text.gett,"ax",%progbits
 104              		.align	2
 105              		.type	gett, %function
 106              	gett:
 107              	.LFB12:
 108              		.loc 1 89 0
 109              		.cfi_startproc
 110              		@ args = 0, pretend = 0, frame = 0
 111              		@ frame_needed = 0, uses_anonymous_args = 0
 112              		@ link register save eliminated.
 113              	.LVL12:
 114              		.loc 1 91 0
ARM GAS  C:\Users\NICOMA~1\AppData\Local\Temp\ccG3HhJL.s 			page 3


 115 0000 0C0080E2 		add	r0, r0, #12
 116              	.LVL13:
 117              		.loc 1 92 0
 118              		.loc 1 91 0
 119 0004 FEFFFFEA 		b	chIQGetTimeout
 120              	.LVL14:
 121              		.cfi_endproc
 122              	.LFE12:
 123              		.size	gett, .-gett
 124              		.section	.text.get,"ax",%progbits
 125              		.align	2
 126              		.type	get, %function
 127              	get:
 128              	.LFB10:
 129              		.loc 1 79 0
 130              		.cfi_startproc
 131              		@ args = 0, pretend = 0, frame = 0
 132              		@ frame_needed = 0, uses_anonymous_args = 0
 133              		@ link register save eliminated.
 134              	.LVL15:
 135              		.loc 1 81 0
 136 0000 0C0080E2 		add	r0, r0, #12
 137              	.LVL16:
 138 0004 0010E0E3 		mvn	r1, #0
 139              		.loc 1 82 0
 140              		.loc 1 81 0
 141 0008 FEFFFFEA 		b	chIQGetTimeout
 142              	.LVL17:
 143              		.cfi_endproc
 144              	.LFE10:
 145              		.size	get, .-get
 146              		.section	.text.putt,"ax",%progbits
 147              		.align	2
 148              		.type	putt, %function
 149              	putt:
 150              	.LFB11:
 151              		.loc 1 84 0
 152              		.cfi_startproc
 153              		@ args = 0, pretend = 0, frame = 0
 154              		@ frame_needed = 0, uses_anonymous_args = 0
 155              		@ link register save eliminated.
 156              	.LVL18:
 157              		.loc 1 86 0
 158 0000 300080E2 		add	r0, r0, #48
 159              	.LVL19:
 160              		.loc 1 87 0
 161              		.loc 1 86 0
 162 0004 FEFFFFEA 		b	chOQPutTimeout
 163              	.LVL20:
 164              		.cfi_endproc
 165              	.LFE11:
 166              		.size	putt, .-putt
 167              		.section	.text.put,"ax",%progbits
 168              		.align	2
 169              		.type	put, %function
 170              	put:
 171              	.LFB9:
ARM GAS  C:\Users\NICOMA~1\AppData\Local\Temp\ccG3HhJL.s 			page 4


 172              		.loc 1 74 0
 173              		.cfi_startproc
 174              		@ args = 0, pretend = 0, frame = 0
 175              		@ frame_needed = 0, uses_anonymous_args = 0
 176              		@ link register save eliminated.
 177              	.LVL21:
 178              		.loc 1 76 0
 179 0000 300080E2 		add	r0, r0, #48
 180              	.LVL22:
 181 0004 0020E0E3 		mvn	r2, #0
 182              		.loc 1 77 0
 183              		.loc 1 76 0
 184 0008 FEFFFFEA 		b	chOQPutTimeout
 185              	.LVL23:
 186              		.cfi_endproc
 187              	.LFE9:
 188              		.size	put, .-put
 189              		.section	.text.sdInit,"ax",%progbits
 190              		.align	2
 191              		.global	sdInit
 192              		.type	sdInit, %function
 193              	sdInit:
 194              	.LFB15:
 195              		.loc 1 120 0
 196              		.cfi_startproc
 197              		@ args = 0, pretend = 0, frame = 0
 198              		@ frame_needed = 0, uses_anonymous_args = 0
 199              		@ link register save eliminated.
 200              		.loc 1 123 0
 201              		.loc 1 122 0
 202 0000 FEFFFFEA 		b	sd_lld_init
 203              	.LVL24:
 204              		.cfi_endproc
 205              	.LFE15:
 206              		.size	sdInit, .-sdInit
 207              		.section	.text.sdObjectInit,"ax",%progbits
 208              		.align	2
 209              		.global	sdObjectInit
 210              		.type	sdObjectInit, %function
 211              	sdObjectInit:
 212              	.LFB16:
 213              		.loc 1 140 0
 214              		.cfi_startproc
 215              		@ args = 0, pretend = 0, frame = 0
 216              		@ frame_needed = 0, uses_anonymous_args = 0
 217              	.LVL25:
 218 0000 30402DE9 		stmfd	sp!, {r4, r5, lr}
 219              	.LCFI0:
 220              		.cfi_def_cfa_offset 12
 221              		.cfi_offset 4, -12
 222              		.cfi_offset 5, -8
 223              		.cfi_offset 14, -4
 224 0004 0130A0E1 		mov	r3, r1
 225              		.loc 1 142 0
 226 0008 50109FE5 		ldr	r1, .L11
 227              	.LVL26:
 228 000c 00C0A0E1 		mov	ip, r0
ARM GAS  C:\Users\NICOMA~1\AppData\Local\Temp\ccG3HhJL.s 			page 5


 229              		.loc 1 140 0
 230 0010 0040A0E1 		mov	r4, r0
 231              		.loc 1 142 0
 232 0014 04108CE4 		str	r1, [ip], #4
 233              		.loc 1 140 0
 234 0018 0CD04DE2 		sub	sp, sp, #12
 235              	.LCFI1:
 236              		.cfi_def_cfa_offset 24
 237              		.loc 1 143 0
 238 001c 04C084E5 		str	ip, [r4, #4]
 239              		.loc 1 144 0
 240 0020 01C0A0E3 		mov	ip, #1
 241              		.loc 1 140 0
 242 0024 0250A0E1 		mov	r5, r2
 243              		.loc 1 145 0
 244 0028 541084E2 		add	r1, r4, #84
 245              		.loc 1 144 0
 246 002c 08C0C4E5 		strb	ip, [r4, #8]
 247              		.loc 1 145 0
 248 0030 0C0080E2 		add	r0, r0, #12
 249              	.LVL27:
 250 0034 1020A0E3 		mov	r2, #16
 251              	.LVL28:
 252 0038 00408DE5 		str	r4, [sp, #0]
 253 003c FEFFFFEB 		bl	chIQInit
 254              	.LVL29:
 255              		.loc 1 146 0
 256 0040 00408DE5 		str	r4, [sp, #0]
 257 0044 300084E2 		add	r0, r4, #48
 258 0048 641084E2 		add	r1, r4, #100
 259 004c 1020A0E3 		mov	r2, #16
 260 0050 0530A0E1 		mov	r3, r5
 261 0054 FEFFFFEB 		bl	chOQInit
 262              	.LVL30:
 263              		.loc 1 147 0
 264 0058 0CD08DE2 		add	sp, sp, #12
 265 005c 3080BDE8 		ldmfd	sp!, {r4, r5, pc}
 266              	.L12:
 267              		.align	2
 268              	.L11:
 269 0060 00000000 		.word	.LANCHOR0
 270              		.cfi_endproc
 271              	.LFE16:
 272              		.size	sdObjectInit, .-sdObjectInit
 273              		.section	.text.sdStart,"ax",%progbits
 274              		.align	2
 275              		.global	sdStart
 276              		.type	sdStart, %function
 277              	sdStart:
 278              	.LFB17:
 279              		.loc 1 159 0
 280              		.cfi_startproc
 281              		@ args = 0, pretend = 0, frame = 0
 282              		@ frame_needed = 0, uses_anonymous_args = 0
 283              	.LVL31:
 284 0000 10402DE9 		stmfd	sp!, {r4, lr}
 285              	.LCFI2:
ARM GAS  C:\Users\NICOMA~1\AppData\Local\Temp\ccG3HhJL.s 			page 6


 286              		.cfi_def_cfa_offset 8
 287              		.cfi_offset 4, -8
 288              		.cfi_offset 14, -4
 289              		.loc 1 159 0
 290 0004 0040A0E1 		mov	r4, r0
 291              		.loc 1 163 0
 292              	@ 163 "../../os/hal/src/serial.c" 1
 293 0008 9FF021E3 		msr     CPSR_c, #0x9F
 294              	@ 0 "" 2
 295              		.loc 1 167 0
 296 000c FEFFFFEB 		bl	sd_lld_start
 297              	.LVL32:
 298              		.loc 1 168 0
 299 0010 0230A0E3 		mov	r3, #2
 300 0014 0830C4E5 		strb	r3, [r4, #8]
 301              		.loc 1 169 0
 302              	@ 169 "../../os/hal/src/serial.c" 1
 303 0018 1FF021E3 		msr     CPSR_c, #0x1F
 304              	@ 0 "" 2
 305 001c 1080BDE8 		ldmfd	sp!, {r4, pc}
 306              		.cfi_endproc
 307              	.LFE17:
 308              		.size	sdStart, .-sdStart
 309              		.section	.text.sdStop,"ax",%progbits
 310              		.align	2
 311              		.global	sdStop
 312              		.type	sdStop, %function
 313              	sdStop:
 314              	.LFB18:
 315              		.loc 1 181 0
 316              		.cfi_startproc
 317              		@ args = 0, pretend = 0, frame = 0
 318              		@ frame_needed = 0, uses_anonymous_args = 0
 319              	.LVL33:
 320 0000 10402DE9 		stmfd	sp!, {r4, lr}
 321              	.LCFI3:
 322              		.cfi_def_cfa_offset 8
 323              		.cfi_offset 4, -8
 324              		.cfi_offset 14, -4
 325              		.loc 1 181 0
 326 0004 0040A0E1 		mov	r4, r0
 327              		.loc 1 185 0
 328              	@ 185 "../../os/hal/src/serial.c" 1
 329 0008 9FF021E3 		msr     CPSR_c, #0x9F
 330              	@ 0 "" 2
 331              		.loc 1 189 0
 332 000c FEFFFFEB 		bl	sd_lld_stop
 333              	.LVL34:
 334              		.loc 1 190 0
 335 0010 0130A0E3 		mov	r3, #1
 336 0014 0830C4E5 		strb	r3, [r4, #8]
 337              		.loc 1 191 0
 338 0018 300084E2 		add	r0, r4, #48
 339 001c FEFFFFEB 		bl	chOQResetI
 340              	.LVL35:
 341              		.loc 1 192 0
 342 0020 0C0084E2 		add	r0, r4, #12
ARM GAS  C:\Users\NICOMA~1\AppData\Local\Temp\ccG3HhJL.s 			page 7


 343 0024 FEFFFFEB 		bl	chIQResetI
 344              	.LVL36:
 345              		.loc 1 193 0
 346 0028 FEFFFFEB 		bl	chSchRescheduleS
 347              	.LVL37:
 348              		.loc 1 194 0
 349              	@ 194 "../../os/hal/src/serial.c" 1
 350 002c 1FF021E3 		msr     CPSR_c, #0x1F
 351              	@ 0 "" 2
 352 0030 1080BDE8 		ldmfd	sp!, {r4, pc}
 353              		.cfi_endproc
 354              	.LFE18:
 355              		.size	sdStop, .-sdStop
 356              		.section	.text.sdIncomingDataI,"ax",%progbits
 357              		.align	2
 358              		.global	sdIncomingDataI
 359              		.type	sdIncomingDataI, %function
 360              	sdIncomingDataI:
 361              	.LFB19:
 362              		.loc 1 213 0
 363              		.cfi_startproc
 364              		@ args = 0, pretend = 0, frame = 0
 365              		@ frame_needed = 0, uses_anonymous_args = 0
 366              	.LVL38:
 367 0000 38402DE9 		stmfd	sp!, {r3, r4, r5, lr}
 368              	.LCFI4:
 369              		.cfi_def_cfa_offset 16
 370              		.cfi_offset 3, -16
 371              		.cfi_offset 4, -12
 372              		.cfi_offset 5, -8
 373              		.cfi_offset 14, -4
 374              		.loc 1 218 0
 375 0004 143090E5 		ldr	r3, [r0, #20]
 376              		.loc 1 213 0
 377 0008 0040A0E1 		mov	r4, r0
 378              		.loc 1 218 0
 379 000c 000053E3 		cmp	r3, #0
 380              		.loc 1 213 0
 381 0010 0150A0E1 		mov	r5, r1
 382              		.loc 1 218 0
 383 0014 0800000A 		beq	.L19
 384              	.LVL39:
 385              	.L16:
 386              		.loc 1 220 0
 387 0018 0C0084E2 		add	r0, r4, #12
 388 001c 0510A0E1 		mov	r1, r5
 389 0020 FEFFFFEB 		bl	chIQPutI
 390              	.LVL40:
 391 0024 000050E3 		cmp	r0, #0
 392 0028 3880BDA8 		ldmgefd	sp!, {r3, r4, r5, pc}
 393              		.loc 1 221 0
 394 002c 040084E2 		add	r0, r4, #4
 395 0030 8010A0E3 		mov	r1, #128
 396              		.loc 1 222 0
 397 0034 3840BDE8 		ldmfd	sp!, {r3, r4, r5, lr}
 398              		.loc 1 221 0
 399 0038 FEFFFFEA 		b	chEvtBroadcastFlagsI
ARM GAS  C:\Users\NICOMA~1\AppData\Local\Temp\ccG3HhJL.s 			page 8


 400              	.LVL41:
 401              	.L19:
 402              		.loc 1 219 0
 403 003c 040080E2 		add	r0, r0, #4
 404              	.LVL42:
 405 0040 0410A0E3 		mov	r1, #4
 406              	.LVL43:
 407 0044 FEFFFFEB 		bl	chEvtBroadcastFlagsI
 408              	.LVL44:
 409 0048 F2FFFFEA 		b	.L16
 410              		.cfi_endproc
 411              	.LFE19:
 412              		.size	sdIncomingDataI, .-sdIncomingDataI
 413              		.section	.text.sdRequestDataI,"ax",%progbits
 414              		.align	2
 415              		.global	sdRequestDataI
 416              		.type	sdRequestDataI, %function
 417              	sdRequestDataI:
 418              	.LFB20:
 419              		.loc 1 239 0
 420              		.cfi_startproc
 421              		@ args = 0, pretend = 0, frame = 0
 422              		@ frame_needed = 0, uses_anonymous_args = 0
 423              	.LVL45:
 424 0000 38402DE9 		stmfd	sp!, {r3, r4, r5, lr}
 425              	.LCFI5:
 426              		.cfi_def_cfa_offset 16
 427              		.cfi_offset 3, -16
 428              		.cfi_offset 4, -12
 429              		.cfi_offset 5, -8
 430              		.cfi_offset 14, -4
 431              		.loc 1 239 0
 432 0004 0040A0E1 		mov	r4, r0
 433              		.loc 1 245 0
 434 0008 300080E2 		add	r0, r0, #48
 435              	.LVL46:
 436 000c FEFFFFEB 		bl	chOQGetI
 437              	.LVL47:
 438              		.loc 1 246 0
 439 0010 005050E2 		subs	r5, r0, #0
 440 0014 010000BA 		blt	.L22
 441              		.loc 1 249 0
 442 0018 0500A0E1 		mov	r0, r5
 443 001c 3880BDE8 		ldmfd	sp!, {r3, r4, r5, pc}
 444              	.L22:
 445              		.loc 1 247 0
 446 0020 040084E2 		add	r0, r4, #4
 447 0024 0810A0E3 		mov	r1, #8
 448 0028 FEFFFFEB 		bl	chEvtBroadcastFlagsI
 449              	.LVL48:
 450              		.loc 1 249 0
 451 002c 0500A0E1 		mov	r0, r5
 452 0030 3880BDE8 		ldmfd	sp!, {r3, r4, r5, pc}
 453              		.cfi_endproc
 454              	.LFE20:
 455              		.size	sdRequestDataI, .-sdRequestDataI
 456              		.section	.rodata.vmt,"a",%progbits
ARM GAS  C:\Users\NICOMA~1\AppData\Local\Temp\ccG3HhJL.s 			page 9


 457              		.align	2
 458              		.set	.LANCHOR0,. + 0
 459              		.type	vmt, %object
 460              		.size	vmt, 32
 461              	vmt:
 462 0000 00000000 		.word	write
 463 0004 00000000 		.word	read
 464 0008 00000000 		.word	put
 465 000c 00000000 		.word	get
 466 0010 00000000 		.word	putt
 467 0014 00000000 		.word	gett
 468 0018 00000000 		.word	writet
 469 001c 00000000 		.word	readt
 470              		.text
 471              	.Letext0:
 472              		.file 2 "c:\\yagarto-20121222\\bin\\../lib/gcc/arm-none-eabi/4.7.2/include/stddef.h"
 473              		.file 3 "c:/yagarto-20121222/lib/gcc/../../arm-none-eabi/sys-include/stdint.h"
 474              		.file 4 "../../os/ports/GCC/ARM/chtypes.h"
 475              		.file 5 "../../os/kernel/include/chlists.h"
 476              		.file 6 "../../os/kernel/include/chthreads.h"
 477              		.file 7 "../../os/ports/GCC/ARM/chcore.h"
 478              		.file 8 "../../os/kernel/include/chmtx.h"
 479              		.file 9 "../../os/kernel/include/chevents.h"
 480              		.file 10 "../../os/kernel/include/chqueues.h"
 481              		.file 11 "../../os/hal/include/serial.h"
 482              		.file 12 "../../os/hal/platforms/BCM2835/serial_lld.h"
 483              		.file 13 "../../os/kernel/include/chschd.h"