ARM GAS  C:\Users\NICOMA~1\AppData\Local\Temp\ccU1akzh.s 			page 1


   1              		.cpu arm1176jz-s
   2              		.fpu softvfp
   3              		.eabi_attribute 20, 1
   4              		.eabi_attribute 21, 1
   5              		.eabi_attribute 23, 3
   6              		.eabi_attribute 24, 1
   7              		.eabi_attribute 25, 1
   8              		.eabi_attribute 26, 1
   9              		.eabi_attribute 30, 2
  10              		.eabi_attribute 34, 1
  11              		.eabi_attribute 18, 4
  12              		.file	"serial_lld.c"
  13              		.text
  14              	.Ltext0:
  15              		.cfi_sections	.debug_frame
  16              		.section	.text.output_notify,"ax",%progbits
  17              		.align	2
  18              		.type	output_notify, %function
  19              	output_notify:
  20              	.LFB7:
  21              		.file 1 "../../os/hal/platforms/BCM2835/serial_lld.c"
  22              		.loc 1 59 0
  23              		.cfi_startproc
  24              		@ args = 0, pretend = 0, frame = 0
  25              		@ frame_needed = 0, uses_anonymous_args = 0
  26              		@ link register save eliminated.
  27              	.LVL0:
  28              		.loc 1 62 0
  29 0000 0C309FE5 		ldr	r3, .L2
  30 0004 442093E5 		ldr	r2, [r3, #68]
  31 0008 022082E3 		orr	r2, r2, #2
  32 000c 442083E5 		str	r2, [r3, #68]
  33 0010 1EFF2FE1 		bx	lr
  34              	.L3:
  35              		.align	2
  36              	.L2:
  37 0014 00502120 		.word	539054080
  38              		.cfi_endproc
  39              	.LFE7:
  40              		.size	output_notify, .-output_notify
  41              		.section	.text.sd_lld_serve_interrupt,"ax",%progbits
  42              		.align	2
  43              		.global	sd_lld_serve_interrupt
  44              		.type	sd_lld_serve_interrupt, %function
  45              	sd_lld_serve_interrupt:
  46              	.LFB8:
  47              		.loc 1 69 0
  48              		.cfi_startproc
  49              		@ args = 0, pretend = 0, frame = 0
  50              		@ frame_needed = 0, uses_anonymous_args = 0
  51              	.LVL1:
  52 0000 38402DE9 		stmfd	sp!, {r3, r4, r5, lr}
  53              	.LCFI0:
  54              		.cfi_def_cfa_offset 16
  55              		.cfi_offset 3, -16
  56              		.cfi_offset 4, -12
  57              		.cfi_offset 5, -8
ARM GAS  C:\Users\NICOMA~1\AppData\Local\Temp\ccU1akzh.s 			page 2


  58              		.cfi_offset 14, -4
  59              		.loc 1 70 0
  60 0004 A0309FE5 		ldr	r3, .L35
  61              		.loc 1 69 0
  62 0008 0050A0E1 		mov	r5, r0
  63              		.loc 1 70 0
  64 000c 482093E5 		ldr	r2, [r3, #72]
  65 0010 072002E2 		and	r2, r2, #7
  66 0014 040052E3 		cmp	r2, #4
  67 0018 1200000A 		beq	.L5
  68              	.LVL2:
  69              	.L9:
  70              		.loc 1 79 0
  71 001c 88209FE5 		ldr	r2, .L35
  72 0020 483092E5 		ldr	r3, [r2, #72]
  73 0024 073003E2 		and	r3, r3, #7
  74 0028 020053E3 		cmp	r3, #2
  75 002c 3880BD18 		ldmnefd	sp!, {r3, r4, r5, pc}
  76              	.L23:
  77              	.LBB15:
  78              		.loc 1 81 0
  79 0030 543092E5 		ldr	r3, [r2, #84]
  80 0034 70409FE5 		ldr	r4, .L35
  81 0038 200013E3 		tst	r3, #32
  82 003c FBFFFF0A 		beq	.L23
  83              		.loc 1 82 0
  84 0040 0500A0E1 		mov	r0, r5
  85 0044 FEFFFFEB 		bl	sdRequestDataI
  86              	.LVL3:
  87              		.loc 1 83 0
  88 0048 000050E3 		cmp	r0, #0
  89 004c 120000BA 		blt	.L34
  90              	.L22:
  91              	.LBB16:
  92              	.LBB17:
  93              		.loc 1 174 0
  94 0050 543094E5 		ldr	r3, [r4, #84]
  95 0054 200013E3 		tst	r3, #32
  96 0058 FCFFFF0A 		beq	.L22
  97              		.loc 1 175 0
  98 005c 48309FE5 		ldr	r3, .L35
  99 0060 400083E5 		str	r0, [r3, #64]
 100 0064 3880BDE8 		ldmfd	sp!, {r3, r4, r5, pc}
 101              	.LVL4:
 102              	.L5:
 103              	.LBE17:
 104              	.LBE16:
 105              	.LBE15:
 106              		.loc 1 72 0
 107 0068 0320A0E1 		mov	r2, r3
 108              	.L25:
 109 006c 543092E5 		ldr	r3, [r2, #84]
 110 0070 010013E3 		tst	r3, #1
 111 0074 FCFFFF0A 		beq	.L25
 112              		.loc 1 74 0
 113 0078 2C409FE5 		ldr	r4, .L35
 114              	.LVL5:
ARM GAS  C:\Users\NICOMA~1\AppData\Local\Temp\ccU1akzh.s 			page 3


 115              	.L24:
 116 007c 401094E5 		ldr	r1, [r4, #64]
 117 0080 0500A0E1 		mov	r0, r5
 118 0084 7110EFE6 		uxtb	r1, r1
 119 0088 FEFFFFEB 		bl	sdIncomingDataI
 120              	.LVL6:
 121              		.loc 1 75 0
 122 008c 543094E5 		ldr	r3, [r4, #84]
 123 0090 010013E3 		tst	r3, #1
 124 0094 F8FFFF1A 		bne	.L24
 125 0098 DFFFFFEA 		b	.L9
 126              	.LVL7:
 127              	.L34:
 128              	.LBB18:
 129              		.loc 1 85 0
 130 009c 443094E5 		ldr	r3, [r4, #68]
 131 00a0 0230C3E3 		bic	r3, r3, #2
 132 00a4 443084E5 		str	r3, [r4, #68]
 133 00a8 3880BDE8 		ldmfd	sp!, {r3, r4, r5, pc}
 134              	.L36:
 135              		.align	2
 136              	.L35:
 137 00ac 00502120 		.word	539054080
 138              	.LBE18:
 139              		.cfi_endproc
 140              	.LFE8:
 141              		.size	sd_lld_serve_interrupt, .-sd_lld_serve_interrupt
 142              		.section	.text.sd_lld_init,"ax",%progbits
 143              		.align	2
 144              		.global	sd_lld_init
 145              		.type	sd_lld_init, %function
 146              	sd_lld_init:
 147              	.LFB9:
 148              		.loc 1 103 0
 149              		.cfi_startproc
 150              		@ args = 0, pretend = 0, frame = 0
 151              		@ frame_needed = 0, uses_anonymous_args = 0
 152              		@ link register save eliminated.
 153              		.loc 1 104 0
 154 0000 08009FE5 		ldr	r0, .L38
 155 0004 08209FE5 		ldr	r2, .L38+4
 156 0008 0010A0E3 		mov	r1, #0
 157              		.loc 1 105 0
 158              		.loc 1 104 0
 159 000c FEFFFFEA 		b	sdObjectInit
 160              	.LVL8:
 161              	.L39:
 162              		.align	2
 163              	.L38:
 164 0010 00000000 		.word	SD1
 165 0014 00000000 		.word	output_notify
 166              		.cfi_endproc
 167              	.LFE9:
 168              		.size	sd_lld_init, .-sd_lld_init
 169              		.global	__aeabi_uidiv
 170              		.section	.text.sd_lld_start,"ax",%progbits
 171              		.align	2
ARM GAS  C:\Users\NICOMA~1\AppData\Local\Temp\ccU1akzh.s 			page 4


 172              		.global	sd_lld_start
 173              		.type	sd_lld_start, %function
 174              	sd_lld_start:
 175              	.LFB10:
 176              		.loc 1 117 0
 177              		.cfi_startproc
 178              		@ args = 0, pretend = 0, frame = 0
 179              		@ frame_needed = 0, uses_anonymous_args = 0
 180              	.LVL9:
 181 0000 F0412DE9 		stmfd	sp!, {r4, r5, r6, r7, r8, lr}
 182              	.LCFI1:
 183              		.cfi_def_cfa_offset 24
 184              		.cfi_offset 4, -24
 185              		.cfi_offset 5, -20
 186              		.cfi_offset 6, -16
 187              		.cfi_offset 7, -12
 188              		.cfi_offset 8, -8
 189              		.cfi_offset 14, -4
 190              		.loc 1 125 0
 191 0004 BC409FE5 		ldr	r4, .L43
 192              		.loc 1 123 0
 193 0008 BC709FE5 		ldr	r7, .L43+4
 194              		.loc 1 127 0
 195 000c 0050A0E3 		mov	r5, #0
 196              		.loc 1 123 0
 197 0010 0282A0E3 		mov	r8, #536870912
 198              		.loc 1 125 0
 199 0014 0130A0E3 		mov	r3, #1
 200              		.loc 1 123 0
 201 0018 1C8287E5 		str	r8, [r7, #540]
 202              		.loc 1 125 0
 203 001c 043084E5 		str	r3, [r4, #4]
 204              		.loc 1 127 0
 205 0020 605084E5 		str	r5, [r4, #96]
 206              		.loc 1 128 0
 207 0024 443094E5 		ldr	r3, [r4, #68]
 208              		.loc 1 121 0
 209 0028 A0209FE5 		ldr	r2, .L43+8
 210              		.loc 1 128 0
 211 002c 0330C3E3 		bic	r3, r3, #3
 212 0030 443084E5 		str	r3, [r4, #68]
 213              		.loc 1 129 0
 214 0034 4C3094E5 		ldr	r3, [r4, #76]
 215              		.loc 1 121 0
 216 0038 050051E1 		cmp	r1, r5
 217              		.loc 1 129 0
 218 003c 033083E3 		orr	r3, r3, #3
 219              		.loc 1 121 0
 220 0040 0210A001 		moveq	r1, r2
 221              	.LVL10:
 222              		.loc 1 129 0
 223 0044 4C3084E5 		str	r3, [r4, #76]
 224              		.loc 1 130 0
 225 0048 505084E5 		str	r5, [r4, #80]
 226              		.loc 1 131 0
 227 004c 001091E5 		ldr	r1, [r1, #0]
 228              	.LVL11:
ARM GAS  C:\Users\NICOMA~1\AppData\Local\Temp\ccU1akzh.s 			page 5


 229 0050 7C009FE5 		ldr	r0, .L43+12
 230              	.LVL12:
 231 0054 8111A0E1 		mov	r1, r1, asl #3
 232 0058 FEFFFFEB 		bl	__aeabi_uidiv
 233              	.LVL13:
 234 005c 013040E2 		sub	r3, r0, #1
 235 0060 683084E5 		str	r3, [r4, #104]
 236              		.loc 1 136 0
 237 0064 6C609FE5 		ldr	r6, .L43+16
 238              		.loc 1 133 0
 239 0068 0210A0E3 		mov	r1, #2
 240 006c 0E00A0E3 		mov	r0, #14
 241 0070 FEFFFFEB 		bl	bcm2835_gpio_fnsel
 242              	.LVL14:
 243              		.loc 1 134 0
 244 0074 0210A0E3 		mov	r1, #2
 245 0078 0F00A0E3 		mov	r0, #15
 246 007c FEFFFFEB 		bl	bcm2835_gpio_fnsel
 247              	.LVL15:
 248              		.loc 1 137 0
 249 0080 9600A0E3 		mov	r0, #150
 250              		.loc 1 136 0
 251 0084 945086E5 		str	r5, [r6, #148]
 252              		.loc 1 137 0
 253 0088 FEFFFFEB 		bl	bcm2835_delay
 254              	.LVL16:
 255              		.loc 1 138 0
 256 008c 0339A0E3 		mov	r3, #49152
 257 0090 983086E5 		str	r3, [r6, #152]
 258              		.loc 1 139 0
 259 0094 9600A0E3 		mov	r0, #150
 260 0098 FEFFFFEB 		bl	bcm2835_delay
 261              	.LVL17:
 262              		.loc 1 140 0
 263 009c 985086E5 		str	r5, [r6, #152]
 264              		.loc 1 142 0
 265 00a0 443094E5 		ldr	r3, [r4, #68]
 266 00a4 033083E3 		orr	r3, r3, #3
 267 00a8 443084E5 		str	r3, [r4, #68]
 268              		.loc 1 143 0
 269 00ac 483094E5 		ldr	r3, [r4, #72]
 270 00b0 063083E3 		orr	r3, r3, #6
 271 00b4 483084E5 		str	r3, [r4, #72]
 272              		.loc 1 144 0
 273 00b8 0330A0E3 		mov	r3, #3
 274 00bc 603084E5 		str	r3, [r4, #96]
 275              		.loc 1 146 0
 276 00c0 108287E5 		str	r8, [r7, #528]
 277 00c4 F081BDE8 		ldmfd	sp!, {r4, r5, r6, r7, r8, pc}
 278              	.L44:
 279              		.align	2
 280              	.L43:
 281 00c8 00502120 		.word	539054080
 282 00cc 00B00020 		.word	536915968
 283 00d0 00000000 		.word	.LANCHOR0
 284 00d4 80B2E60E 		.word	250000000
 285 00d8 00002020 		.word	538968064
ARM GAS  C:\Users\NICOMA~1\AppData\Local\Temp\ccU1akzh.s 			page 6


 286              		.cfi_endproc
 287              	.LFE10:
 288              		.size	sd_lld_start, .-sd_lld_start
 289              		.section	.text.sd_lld_stop,"ax",%progbits
 290              		.align	2
 291              		.global	sd_lld_stop
 292              		.type	sd_lld_stop, %function
 293              	sd_lld_stop:
 294              	.LFB11:
 295              		.loc 1 158 0
 296              		.cfi_startproc
 297              		@ args = 0, pretend = 0, frame = 0
 298              		@ frame_needed = 0, uses_anonymous_args = 0
 299              	.LVL18:
 300 0000 08402DE9 		stmfd	sp!, {r3, lr}
 301              	.LCFI2:
 302              		.cfi_def_cfa_offset 8
 303              		.cfi_offset 3, -8
 304              		.cfi_offset 14, -4
 305              		.loc 1 161 0
 306 0004 24309FE5 		ldr	r3, .L46
 307              		.loc 1 162 0
 308 0008 0E00A0E3 		mov	r0, #14
 309              	.LVL19:
 310              		.loc 1 161 0
 311 000c 1C2293E5 		ldr	r2, [r3, #540]
 312              		.loc 1 162 0
 313 0010 0010A0E3 		mov	r1, #0
 314              		.loc 1 161 0
 315 0014 022282E3 		orr	r2, r2, #536870912
 316 0018 1C2283E5 		str	r2, [r3, #540]
 317              		.loc 1 162 0
 318 001c FEFFFFEB 		bl	bcm2835_gpio_fnsel
 319              	.LVL20:
 320              		.loc 1 163 0
 321 0020 0F00A0E3 		mov	r0, #15
 322 0024 0010A0E3 		mov	r1, #0
 323              		.loc 1 164 0
 324 0028 0840BDE8 		ldmfd	sp!, {r3, lr}
 325              		.loc 1 163 0
 326 002c FEFFFFEA 		b	bcm2835_gpio_fnsel
 327              	.LVL21:
 328              	.L47:
 329              		.align	2
 330              	.L46:
 331 0030 00B00020 		.word	536915968
 332              		.cfi_endproc
 333              	.LFE11:
 334              		.size	sd_lld_stop, .-sd_lld_stop
 335              		.section	.text.mini_uart_recv,"ax",%progbits
 336              		.align	2
 337              		.global	mini_uart_recv
 338              		.type	mini_uart_recv, %function
 339              	mini_uart_recv:
 340              	.LFB12:
 341              		.loc 1 167 0
 342              		.cfi_startproc
ARM GAS  C:\Users\NICOMA~1\AppData\Local\Temp\ccU1akzh.s 			page 7


 343              		@ args = 0, pretend = 0, frame = 0
 344              		@ frame_needed = 0, uses_anonymous_args = 0
 345              		@ link register save eliminated.
 346              		.loc 1 168 0
 347 0000 18209FE5 		ldr	r2, .L54
 348              	.L49:
 349              		.loc 1 168 0 is_stmt 0 discriminator 1
 350 0004 543092E5 		ldr	r3, [r2, #84]
 351 0008 010013E3 		tst	r3, #1
 352 000c FCFFFF0A 		beq	.L49
 353              		.loc 1 169 0 is_stmt 1
 354 0010 08309FE5 		ldr	r3, .L54
 355 0014 400093E5 		ldr	r0, [r3, #64]
 356              		.loc 1 170 0
 357 0018 7000EFE6 		uxtb	r0, r0
 358 001c 1EFF2FE1 		bx	lr
 359              	.L55:
 360              		.align	2
 361              	.L54:
 362 0020 00502120 		.word	539054080
 363              		.cfi_endproc
 364              	.LFE12:
 365              		.size	mini_uart_recv, .-mini_uart_recv
 366              		.section	.text.mini_uart_send,"ax",%progbits
 367              		.align	2
 368              		.global	mini_uart_send
 369              		.type	mini_uart_send, %function
 370              	mini_uart_send:
 371              	.LFB13:
 372              		.loc 1 173 0
 373              		.cfi_startproc
 374              		@ args = 0, pretend = 0, frame = 0
 375              		@ frame_needed = 0, uses_anonymous_args = 0
 376              		@ link register save eliminated.
 377              	.LVL22:
 378              		.loc 1 174 0
 379 0000 14209FE5 		ldr	r2, .L62
 380              	.L57:
 381              		.loc 1 174 0 is_stmt 0 discriminator 1
 382 0004 543092E5 		ldr	r3, [r2, #84]
 383 0008 200013E3 		tst	r3, #32
 384 000c FCFFFF0A 		beq	.L57
 385              		.loc 1 175 0 is_stmt 1
 386 0010 04309FE5 		ldr	r3, .L62
 387 0014 400083E5 		str	r0, [r3, #64]
 388 0018 1EFF2FE1 		bx	lr
 389              	.L63:
 390              		.align	2
 391              	.L62:
 392 001c 00502120 		.word	539054080
 393              		.cfi_endproc
 394              	.LFE13:
 395              		.size	mini_uart_send, .-mini_uart_send
 396              		.section	.text.mini_uart_sendstr,"ax",%progbits
 397              		.align	2
 398              		.global	mini_uart_sendstr
 399              		.type	mini_uart_sendstr, %function
ARM GAS  C:\Users\NICOMA~1\AppData\Local\Temp\ccU1akzh.s 			page 8


 400              	mini_uart_sendstr:
 401              	.LFB14:
 402              		.loc 1 179 0
 403              		.cfi_startproc
 404              		@ args = 0, pretend = 0, frame = 0
 405              		@ frame_needed = 0, uses_anonymous_args = 0
 406              		@ link register save eliminated.
 407              	.LVL23:
 408              		.loc 1 181 0
 409 0000 0010D0E5 		ldrb	r1, [r0, #0]	@ zero_extendqisi2
 410              	.LVL24:
 411 0004 000051E3 		cmp	r1, #0
 412 0008 1EFF2F01 		bxeq	lr
 413              	.LBB19:
 414              	.LBB20:
 415              		.loc 1 174 0
 416 000c 1C209FE5 		ldr	r2, .L74
 417              	.LVL25:
 418              	.L73:
 419 0010 543092E5 		ldr	r3, [r2, #84]
 420 0014 200013E3 		tst	r3, #32
 421 0018 FCFFFF0A 		beq	.L73
 422              		.loc 1 175 0
 423 001c 401082E5 		str	r1, [r2, #64]
 424              	.LBE20:
 425              	.LBE19:
 426              		.loc 1 181 0
 427 0020 0110F0E5 		ldrb	r1, [r0, #1]!	@ zero_extendqisi2
 428              	.LVL26:
 429 0024 000051E3 		cmp	r1, #0
 430 0028 F8FFFF1A 		bne	.L73
 431 002c 1EFF2FE1 		bx	lr
 432              	.L75:
 433              		.align	2
 434              	.L74:
 435 0030 00502120 		.word	539054080
 436              		.cfi_endproc
 437              	.LFE14:
 438              		.size	mini_uart_sendstr, .-mini_uart_sendstr
 439              		.section	.text.mini_uart_sendhex,"ax",%progbits
 440              		.align	2
 441              		.global	mini_uart_sendhex
 442              		.type	mini_uart_sendhex, %function
 443              	mini_uart_sendhex:
 444              	.LFB15:
 445              		.loc 1 185 0
 446              		.cfi_startproc
 447              		@ args = 0, pretend = 0, frame = 0
 448              		@ frame_needed = 0, uses_anonymous_args = 0
 449              		@ link register save eliminated.
 450              	.LVL27:
 451              	.LBB21:
 452              	.LBB22:
 453              		.loc 1 174 0
 454 0000 90C09FE5 		ldr	ip, .L108
 455              	.LBE22:
 456              	.LBE21:
ARM GAS  C:\Users\NICOMA~1\AppData\Local\Temp\ccU1akzh.s 			page 9


 457              		.loc 1 185 0
 458 0004 30002DE9 		stmfd	sp!, {r4, r5}
 459              	.LCFI3:
 460              		.cfi_def_cfa_offset 8
 461              		.cfi_offset 4, -8
 462              		.cfi_offset 5, -4
 463              		.loc 1 189 0
 464 0008 2040A0E3 		mov	r4, #32
 465              	.LVL28:
 466              	.L80:
 467              		.loc 1 192 0
 468 000c 044044E2 		sub	r4, r4, #4
 469              	.LVL29:
 470              		.loc 1 193 0
 471 0010 3034A0E1 		mov	r3, r0, lsr r4
 472 0014 0F3003E2 		and	r3, r3, #15
 473              	.LVL30:
 474              		.loc 1 194 0
 475 0018 090053E3 		cmp	r3, #9
 476              		.loc 1 195 0
 477 001c 37508382 		addhi	r5, r3, #55
 478              	.LVL31:
 479              		.loc 1 197 0
 480 0020 30508392 		addls	r5, r3, #48
 481              	.LVL32:
 482              	.L97:
 483              	.LBB25:
 484              	.LBB23:
 485              		.loc 1 174 0
 486 0024 54309CE5 		ldr	r3, [ip, #84]
 487 0028 68209FE5 		ldr	r2, .L108
 488 002c 200013E3 		tst	r3, #32
 489 0030 FBFFFF0A 		beq	.L97
 490              	.LBE23:
 491              	.LBE25:
 492              		.loc 1 199 0
 493 0034 000054E3 		cmp	r4, #0
 494              	.LBB26:
 495              	.LBB24:
 496              		.loc 1 175 0
 497 0038 405082E5 		str	r5, [r2, #64]
 498              	.LBE24:
 499              	.LBE26:
 500              		.loc 1 199 0
 501 003c F2FFFF1A 		bne	.L80
 502              	.LVL33:
 503              	.L96:
 504              	.LBB27:
 505              	.LBB28:
 506              		.loc 1 174 0
 507 0040 543092E5 		ldr	r3, [r2, #84]
 508 0044 4C009FE5 		ldr	r0, .L108
 509 0048 200013E3 		tst	r3, #32
 510 004c FBFFFF0A 		beq	.L96
 511              		.loc 1 175 0
 512 0050 2030A0E3 		mov	r3, #32
 513              	.LBE28:
ARM GAS  C:\Users\NICOMA~1\AppData\Local\Temp\ccU1akzh.s 			page 10


 514              	.LBE27:
 515              		.loc 1 204 0
 516 0054 000051E3 		cmp	r1, #0
 517              	.LBB30:
 518              	.LBB29:
 519              		.loc 1 175 0
 520 0058 403080E5 		str	r3, [r0, #64]
 521              	.LBE29:
 522              	.LBE30:
 523              		.loc 1 204 0
 524 005c 0B00000A 		beq	.L76
 525              	.L95:
 526              	.LBB31:
 527              	.LBB32:
 528              		.loc 1 174 0
 529 0060 543090E5 		ldr	r3, [r0, #84]
 530 0064 2C209FE5 		ldr	r2, .L108
 531 0068 200013E3 		tst	r3, #32
 532 006c FBFFFF0A 		beq	.L95
 533              		.loc 1 175 0
 534 0070 0D30A0E3 		mov	r3, #13
 535 0074 403082E5 		str	r3, [r2, #64]
 536              	.LVL34:
 537              	.L84:
 538              	.LBE32:
 539              	.LBE31:
 540              	.LBB33:
 541              	.LBB34:
 542              		.loc 1 174 0
 543 0078 543092E5 		ldr	r3, [r2, #84]
 544 007c 200013E3 		tst	r3, #32
 545 0080 FCFFFF0A 		beq	.L84
 546              		.loc 1 175 0
 547 0084 0C309FE5 		ldr	r3, .L108
 548 0088 0A20A0E3 		mov	r2, #10
 549 008c 402083E5 		str	r2, [r3, #64]
 550              	.LVL35:
 551              	.L76:
 552              	.LBE34:
 553              	.LBE33:
 554              		.loc 1 208 0
 555 0090 3000BDE8 		ldmfd	sp!, {r4, r5}
 556 0094 1EFF2FE1 		bx	lr
 557              	.L109:
 558              		.align	2
 559              	.L108:
 560 0098 00502120 		.word	539054080
 561              		.cfi_endproc
 562              	.LFE15:
 563              		.size	mini_uart_sendhex, .-mini_uart_sendhex
 564              		.comm	SD1,116,4
 565              		.section	.rodata.default_config,"a",%progbits
 566              		.align	2
 567              		.set	.LANCHOR0,. + 0
 568              		.type	default_config, %object
 569              		.size	default_config, 4
 570              	default_config:
ARM GAS  C:\Users\NICOMA~1\AppData\Local\Temp\ccU1akzh.s 			page 11


 571 0000 00C20100 		.word	115200
 572              		.text
 573              	.Letext0:
 574              		.file 2 "c:\\yagarto-20121222\\bin\\../lib/gcc/arm-none-eabi/4.7.2/include/stddef.h"
 575              		.file 3 "c:/yagarto-20121222/lib/gcc/../../arm-none-eabi/sys-include/stdint.h"
 576              		.file 4 "../../os/ports/GCC/ARM/chtypes.h"
 577              		.file 5 "../../os/kernel/include/chlists.h"
 578              		.file 6 "../../os/kernel/include/chthreads.h"
 579              		.file 7 "../../os/ports/GCC/ARM/chcore.h"
 580              		.file 8 "../../os/kernel/include/chmtx.h"
 581              		.file 9 "../../os/kernel/include/chevents.h"
 582              		.file 10 "../../os/kernel/include/chqueues.h"
 583              		.file 11 "../../os/hal/include/serial.h"
 584              		.file 12 "../../os/hal/platforms/BCM2835/serial_lld.h"
 585              		.file 13 "../../os/hal/platforms/BCM2835/bcm2835.h"