ARM GAS  C:\Users\NICOMA~1\AppData\Local\Temp\ccG3HhJL.s 			page 1


   1              		.cpu arm1176jz-s
   2              		.fpu softvfp
   3              		.eabi_attribute 20, 1
   4              		.eabi_attribute 21, 1
   5              		.eabi_attribute 23, 3
   6              		.eabi_attribute 24, 1
   7              		.eabi_attribute 25, 1
   8              		.eabi_attribute 26, 1
   9              		.eabi_attribute 30, 2
  10              		.eabi_attribute 34, 1
  11              		.eabi_attribute 18, 4
  12              		.file	"serial.c"
  13              		.text
  14              	.Ltext0:
  15              		.cfi_sections	.debug_frame
  16              		.section	.text.readt,"ax",%progbits
  17              		.align	2
  18              		.type	readt, %function
  19              	readt:
  20              	.LFB14:
  21              		.file 1 "../../os/hal/src/serial.c"
  22              		.loc 1 99 0
  23              		.cfi_startproc
  24              		@ args = 0, pretend = 0, frame = 0
  25              		@ frame_needed = 0, uses_anonymous_args = 0
  26              		@ link register save eliminated.
  27              	.LVL0:
  28              		.loc 1 101 0
  29 0000 0C0080E2 		add	r0, r0, #12
  30              	.LVL1:
  31              		.loc 1 102 0
  32              		.loc 1 101 0
  33 0004 FEFFFFEA 		b	chIQReadTimeout
  34              	.LVL2:
  35              		.cfi_endproc
  36              	.LFE14:
  37              		.size	readt, .-readt
  38              		.section	.text.read,"ax",%progbits
  39              		.align	2
  40              		.type	read, %function
  41              	read:
  42              	.LFB8:
  43              		.loc 1 68 0
  44              		.cfi_startproc
  45              		@ args = 0, pretend = 0, frame = 0
  46              		@ frame_needed = 0, uses_anonymous_args = 0
  47              		@ link register save eliminated.
  48              	.LVL3:
  49              		.loc 1 70 0
  50 0000 0C0080E2 		add	r0, r0, #12
  51              	.LVL4:
  52 0004 0030E0E3 		mvn	r3, #0
  53              		.loc 1 72 0
  54              		.loc 1 70 0
  55 0008 FEFFFFEA 		b	chIQReadTimeout
  56              	.LVL5:
  57              		.cfi_endproc
ARM GAS  C:\Users\NICOMA~1\AppData\Local\Temp\ccG3HhJL.s 			page 2


  58              	.LFE8:
  59              		.size	read, .-read
  60              		.section	.text.writet,"ax",%progbits
  61              		.align	2
  62              		.type	writet, %function
  63              	writet:
  64              	.LFB13:
  65              		.loc 1 94 0
  66              		.cfi_startproc
  67              		@ args = 0, pretend = 0, frame = 0
  68              		@ frame_needed = 0, uses_anonymous_args = 0
  69              		@ link register save eliminated.
  70              	.LVL6:
  71              		.loc 1 96 0
  72 0000 300080E2 		add	r0, r0, #48
  73              	.LVL7:
  74              		.loc 1 97 0
  75              		.loc 1 96 0
  76 0004 FEFFFFEA 		b	chOQWriteTimeout
  77              	.LVL8:
  78              		.cfi_endproc
  79              	.LFE13:
  80              		.size	writet, .-writet
  81              		.section	.text.write,"ax",%progbits
  82              		.align	2
  83              		.type	write, %function
  84              	write:
  85              	.LFB7:
  86              		.loc 1 62 0
  87              		.cfi_startproc
  88              		@ args = 0, pretend = 0, frame = 0
  89              		@ frame_needed = 0, uses_anonymous_args = 0
  90              		@ link register save eliminated.
  91              	.LVL9:
  92              		.loc 1 64 0
  93 0000 300080E2 		add	r0, r0, #48
  94              	.LVL10:
  95 0004 0030E0E3 		mvn	r3, #0
  96              		.loc 1 66 0
  97              		.loc 1 64 0
  98 0008 FEFFFFEA 		b	chOQWriteTimeout
  99              	.LVL11:
 100              		.cfi_endproc
 101              	.LFE7:
 102              		.size	write, .-write
 103              		.section	.text.gett,"ax",%progbits
 104              		.align	2
 105              		.type	gett, %function
 106              	gett:
 107              	.LFB12:
 108              		.loc 1 89 0
 109              		.cfi_startproc
 110              		@ args = 0, pretend = 0, frame = 0
 111              		@ frame_needed = 0, uses_anonymous_args = 0
 112              		@ link register save eliminated.
 113              	.LVL12:
 114              		.loc 1 91 0
ARM GAS  C:\Users\NICOMA~1\AppData\Local\Temp\ccG3HhJL.s 			page 3


 115 0000 0C0080E2 		add	r0, r0, #12
 116              	.LVL13:
 117              		.loc 1 92 0
 118              		.loc 1 91 0
 119 0004 FEFFFFEA 		b	chIQGetTimeout
 120              	.LVL14:
 121              		.cfi_endproc
 122              	.LFE12:
 123              		.size	gett, .-gett
 124              		.section	.text.get,"ax",%progbits
 125              		.align	2
 126              		.type	get, %function
 127              	get:
 128              	.LFB10:
 129              		.loc 1 79 0
 130              		.cfi_startproc
 131              		@ args = 0, pretend = 0, frame = 0
 132              		@ frame_needed = 0, uses_anonymous_args = 0
 133              		@ link register save eliminated.
 134              	.LVL15:
 135              		.loc 1 81 0
 136 0000 0C0080E2 		add	r0, r0, #12
 137              	.LVL16:
 138 0004 0010E0E3 		mvn	r1, #0
 139              		.loc 1 82 0
 140              		.loc 1 81 0
 141 0008 FEFFFFEA 		b	chIQGetTimeout
 142              	.LVL17:
 143              		.cfi_endproc
 144              	.LFE10:
 145              		.size	get, .-get
 146              		.section	.text.putt,"ax",%progbits
 147              		.align	2
 148              		.type	putt, %function
 149              	putt:
 150              	.LFB11:
 151              		.loc 1 84 0
 152              		.cfi_startproc
 153              		@ args = 0, pretend = 0, frame = 0
 154              		@ frame_needed = 0, uses_anonymous_args = 0
 155              		@ link register save eliminated.
 156              	.LVL18:
 157              		.loc 1 86 0
 158 0000 300080E2 		add	r0, r0, #48
 159              	.LVL19:
 160              		.loc 1 87 0
 161              		.loc 1 86 0
 162 0004 FEFFFFEA 		b	chOQPutTimeout
 163              	.LVL20:
 164              		.cfi_endproc
 165              	.LFE11:
 166              		.size	putt, .-putt
 167              		.section	.text.put,"ax",%progbits
 168              		.align	2
 169              		.type	put, %function
 170              	put:
 171              	.LFB9:
ARM GAS  C:\Users\NICOMA~1\AppData\Local\Temp\ccG3HhJL.s 			page 4


 172              		.loc 1 74 0
 173              		.cfi_startproc
 174              		@ args = 0, pretend = 0, frame = 0
 175              		@ frame_needed = 0, uses_anonymous_args = 0
 176              		@ link register save eliminated.
 177              	.LVL21:
 178              		.loc 1 76 0
 179 0000 300080E2 		add	r0, r0, #48
 180              	.LVL22:
 181 0004 0020E0E3 		mvn	r2, #0
 182              		.loc 1 77 0
 183              		.loc 1 76 0
 184 0008 FEFFFFEA 		b	chOQPutTimeout
 185              	.LVL23:
 186              		.cfi_endproc
 187              	.LFE9:
 188              		.size	put, .-put
 189              		.section	.text.sdInit,"ax",%progbits
 190              		.align	2
 191              		.global	sdInit
 192              		.type	sdInit, %function
 193              	sdInit:
 194              	.LFB15:
 195              		.loc 1 120 0
 196              		.cfi_startproc
 197              		@ args = 0, pretend = 0, frame = 0
 198              		@ frame_needed = 0, uses_anonymous_args = 0
 199              		@ link register save eliminated.
 200              		.loc 1 123 0
 201              		.loc 1 122 0
 202 0000 FEFFFFEA 		b	sd_lld_init
 203              	.LVL24:
 204              		.cfi_endproc
 205              	.LFE15:
 206              		.size	sdInit, .-sdInit
 207              		.section	.text.sdObjectInit,"ax",%progbits
 208              		.align	2
 209              		.global	sdObjectInit
 210              		.type	sdObjectInit, %function
 211              	sdObjectInit:
 212              	.LFB16:
 213              		.loc 1 140 0
 214              		.cfi_startproc
 215              		@ args = 0, pretend = 0, frame = 0
 216              		@ frame_needed = 0, uses_anonymous_args = 0
 217              	.LVL25:
 218 0000 30402DE9 		stmfd	sp!, {r4, r5, lr}
 219              	.LCFI0:
 220              		.cfi_def_cfa_offset 12
 221              		.cfi_offset 4, -12
 222              		.cfi_offset 5, -8
 223              		.cfi_offset 14, -4
 224 0004 0130A0E1 		mov	r3, r1
 225              		.loc 1 142 0
 226 0008 50109FE5 		ldr	r1, .L11
 227              	.LVL26:
 228 000c 00C0A0E1 		mov	ip, r0
ARM GAS  C:\Users\NICOMA~1\AppData\Local\Temp\ccG3HhJL.s 			page 5


 229              		.loc 1 140 0
 230 0010 0040A0E1 		mov	r4, r0
 231              		.loc 1 142 0
 232 0014 04108CE4 		str	r1, [ip], #4
 233              		.loc 1 140 0
 234 0018 0CD04DE2 		sub	sp, sp, #12
 235              	.LCFI1:
 236              		.cfi_def_cfa_offset 24
 237              		.loc 1 143 0
 238 001c 04C084E5 		str	ip, [r4, #4]
 239              		.loc 1 144 0
 240 0020 01C0A0E3 		mov	ip, #1
 241              		.loc 1 140 0
 242 0024 0250A0E1 		mov	r5, r2
 243              		.loc 1 145 0
 244 0028 541084E2 		add	r1, r4, #84
 245              		.loc 1 144 0
 246 002c 08C0C4E5 		strb	ip, [r4, #8]
 247              		.loc 1 145 0
 248 0030 0C0080E2 		add	r0, r0, #12
 249              	.LVL27:
 250 0034 1020A0E3 		mov	r2, #16
 251              	.LVL28:
 252 0038 00408DE5 		str	r4, [sp, #0]
 253 003c FEFFFFEB 		bl	chIQInit
 254              	.LVL29:
 255              		.loc 1 146 0
 256 0040 00408DE5 		str	r4, [sp, #0]
 257 0044 300084E2 		add	r0, r4, #48
 258 0048 641084E2 		add	r1, r4, #100
 259 004c 1020A0E3 		mov	r2, #16
 260 0050 0530A0E1 		mov	r3, r5
 261 0054 FEFFFFEB 		bl	chOQInit
 262              	.LVL30:
 263              		.loc 1 147 0
 264 0058 0CD08DE2 		add	sp, sp, #12
 265 005c 3080BDE8 		ldmfd	sp!, {r4, r5, pc}
 266              	.L12:
 267              		.align	2
 268              	.L11:
 269 0060 00000000 		.word	.LANCHOR0
 270              		.cfi_endproc
 271              	.LFE16:
 272              		.size	sdObjectInit, .-sdObjectInit
 273              		.section	.text.sdStart,"ax",%progbits
 274              		.align	2
 275              		.global	sdStart
 276              		.type	sdStart, %function
 277              	sdStart:
 278              	.LFB17:
 279              		.loc 1 159 0
 280              		.cfi_startproc
 281              		@ args = 0, pretend = 0, frame = 0
 282              		@ frame_needed = 0, uses_anonymous_args = 0
 283              	.LVL31:
 284 0000 10402DE9 		stmfd	sp!, {r4, lr}
 285              	.LCFI2:
ARM GAS  C:\Users\NICOMA~1\AppData\Local\Temp\ccG3HhJL.s 			page 6


 286              		.cfi_def_cfa_offset 8
 287              		.cfi_offset 4, -8
 288              		.cfi_offset 14, -4
 289              		.loc 1 159 0
 290 0004 0040A0E1 		mov	r4, r0
 291              		.loc 1 163 0
 292              	@ 163 "../../os/hal/src/serial.c" 1
 293 0008 9FF021E3 		msr     CPSR_c, #0x9F
 294              	@ 0 "" 2
 295              		.loc 1 167 0
 296 000c FEFFFFEB 		bl	sd_lld_start
 297              	.LVL32:
 298              		.loc 1 168 0
 299 0010 0230A0E3 		mov	r3, #2
 300 0014 0830C4E5 		strb	r3, [r4, #8]
 301              		.loc 1 169 0
 302              	@ 169 "../../os/hal/src/serial.c" 1
 303 0018 1FF021E3 		msr     CPSR_c, #0x1F
 304              	@ 0 "" 2
 305 001c 1080BDE8 		ldmfd	sp!, {r4, pc}
 306              		.cfi_endproc
 307              	.LFE17:
 308              		.size	sdStart, .-sdStart
 309              		.section	.text.sdStop,"ax",%progbits
 310              		.align	2
 311              		.global	sdStop
 312              		.type	sdStop, %function
 313              	sdStop:
 314              	.LFB18:
 315              		.loc 1 181 0
 316              		.cfi_startproc
 317              		@ args = 0, pretend = 0, frame = 0
 318              		@ frame_needed = 0, uses_anonymous_args = 0
 319              	.LVL33:
 320 0000 10402DE9 		stmfd	sp!, {r4, lr}
 321              	.LCFI3:
 322              		.cfi_def_cfa_offset 8
 323              		.cfi_offset 4, -8
 324              		.cfi_offset 14, -4
 325              		.loc 1 181 0
 326 0004 0040A0E1 		mov	r4, r0
 327              		.loc 1 185 0
 328              	@ 185 "../../os/hal/src/serial.c" 1
 329 0008 9FF021E3 		msr     CPSR_c, #0x9F
 330              	@ 0 "" 2
 331              		.loc 1 189 0
 332 000c FEFFFFEB 		bl	sd_lld_stop
 333              	.LVL34:
 334              		.loc 1 190 0
 335 0010 0130A0E3 		mov	r3, #1
 336 0014 0830C4E5 		strb	r3, [r4, #8]
 337              		.loc 1 191 0
 338 0018 300084E2 		add	r0, r4, #48
 339 001c FEFFFFEB 		bl	chOQResetI
 340              	.LVL35:
 341              		.loc 1 192 0
 342 0020 0C0084E2 		add	r0, r4, #12
ARM GAS  C:\Users\NICOMA~1\AppData\Local\Temp\ccG3HhJL.s 			page 7


 343 0024 FEFFFFEB 		bl	chIQResetI
 344              	.LVL36:
 345              		.loc 1 193 0
 346 0028 FEFFFFEB 		bl	chSchRescheduleS
 347              	.LVL37:
 348              		.loc 1 194 0
 349              	@ 194 "../../os/hal/src/serial.c" 1
 350 002c 1FF021E3 		msr     CPSR_c, #0x1F
 351              	@ 0 "" 2
 352 0030 1080BDE8 		ldmfd	sp!, {r4, pc}
 353              		.cfi_endproc
 354              	.LFE18:
 355              		.size	sdStop, .-sdStop
 356              		.section	.text.sdIncomingDataI,"ax",%progbits
 357              		.align	2
 358              		.global	sdIncomingDataI
 359              		.type	sdIncomingDataI, %function
 360              	sdIncomingDataI:
 361              	.LFB19:
 362              		.loc 1 213 0
 363              		.cfi_startproc
 364              		@ args = 0, pretend = 0, frame = 0
 365              		@ frame_needed = 0, uses_anonymous_args = 0
 366              	.LVL38:
 367 0000 38402DE9 		stmfd	sp!, {r3, r4, r5, lr}
 368              	.LCFI4:
 369              		.cfi_def_cfa_offset 16
 370              		.cfi_offset 3, -16
 371              		.cfi_offset 4, -12
 372              		.cfi_offset 5, -8
 373              		.cfi_offset 14, -4
 374              		.loc 1 218 0
 375 0004 143090E5 		ldr	r3, [r0, #20]
 376              		.loc 1 213 0
 377 0008 0040A0E1 		mov	r4, r0
 378              		.loc 1 218 0
 379 000c 000053E3 		cmp	r3, #0
 380              		.loc 1 213 0
 381 0010 0150A0E1 		mov	r5, r1
 382              		.loc 1 218 0
 383 0014 0800000A 		beq	.L19
 384              	.LVL39:
 385              	.L16:
 386              		.loc 1 220 0
 387 0018 0C0084E2 		add	r0, r4, #12
 388 001c 0510A0E1 		mov	r1, r5
 389 0020 FEFFFFEB 		bl	chIQPutI
 390              	.LVL40:
 391 0024 000050E3 		cmp	r0, #0
 392 0028 3880BDA8 		ldmgefd	sp!, {r3, r4, r5, pc}
 393              		.loc 1 221 0
 394 002c 040084E2 		add	r0, r4, #4
 395 0030 8010A0E3 		mov	r1, #128
 396              		.loc 1 222 0
 397 0034 3840BDE8 		ldmfd	sp!, {r3, r4, r5, lr}
 398              		.loc 1 221 0
 399 0038 FEFFFFEA 		b	chEvtBroadcastFlagsI
ARM GAS  C:\Users\NICOMA~1\AppData\Local\Temp\ccG3HhJL.s 			page 8


 400              	.LVL41:
 401              	.L19:
 402              		.loc 1 219 0
 403 003c 040080E2 		add	r0, r0, #4
 404              	.LVL42:
 405 0040 0410A0E3 		mov	r1, #4
 406              	.LVL43:
 407 0044 FEFFFFEB 		bl	chEvtBroadcastFlagsI
 408              	.LVL44:
 409 0048 F2FFFFEA 		b	.L16
 410              		.cfi_endproc
 411              	.LFE19:
 412              		.size	sdIncomingDataI, .-sdIncomingDataI
 413              		.section	.text.sdRequestDataI,"ax",%progbits
 414              		.align	2
 415              		.global	sdRequestDataI
 416              		.type	sdRequestDataI, %function
 417              	sdRequestDataI:
 418              	.LFB20:
 419              		.loc 1 239 0
 420              		.cfi_startproc
 421              		@ args = 0, pretend = 0, frame = 0
 422              		@ frame_needed = 0, uses_anonymous_args = 0
 423              	.LVL45:
 424 0000 38402DE9 		stmfd	sp!, {r3, r4, r5, lr}
 425              	.LCFI5:
 426              		.cfi_def_cfa_offset 16
 427              		.cfi_offset 3, -16
 428              		.cfi_offset 4, -12
 429              		.cfi_offset 5, -8
 430              		.cfi_offset 14, -4
 431              		.loc 1 239 0
 432 0004 0040A0E1 		mov	r4, r0
 433              		.loc 1 245 0
 434 0008 300080E2 		add	r0, r0, #48
 435              	.LVL46:
 436 000c FEFFFFEB 		bl	chOQGetI
 437              	.LVL47:
 438              		.loc 1 246 0
 439 0010 005050E2 		subs	r5, r0, #0
 440 0014 010000BA 		blt	.L22
 441              		.loc 1 249 0
 442 0018 0500A0E1 		mov	r0, r5
 443 001c 3880BDE8 		ldmfd	sp!, {r3, r4, r5, pc}
 444              	.L22:
 445              		.loc 1 247 0
 446 0020 040084E2 		add	r0, r4, #4
 447 0024 0810A0E3 		mov	r1, #8
 448 0028 FEFFFFEB 		bl	chEvtBroadcastFlagsI
 449              	.LVL48:
 450              		.loc 1 249 0
 451 002c 0500A0E1 		mov	r0, r5
 452 0030 3880BDE8 		ldmfd	sp!, {r3, r4, r5, pc}
 453              		.cfi_endproc
 454              	.LFE20:
 455              		.size	sdRequestDataI, .-sdRequestDataI
 456              		.section	.rodata.vmt,"a",%progbits
ARM GAS  C:\Users\NICOMA~1\AppData\Local\Temp\ccG3HhJL.s 			page 9


 457              		.align	2
 458              		.set	.LANCHOR0,. + 0
 459              		.type	vmt, %object
 460              		.size	vmt, 32
 461              	vmt:
 462 0000 00000000 		.word	write
 463 0004 00000000 		.word	read
 464 0008 00000000 		.word	put
 465 000c 00000000 		.word	get
 466 0010 00000000 		.word	putt
 467 0014 00000000 		.word	gett
 468 0018 00000000 		.word	writet
 469 001c 00000000 		.word	readt
 470              		.text
 471              	.Letext0:
 472              		.file 2 "c:\\yagarto-20121222\\bin\\../lib/gcc/arm-none-eabi/4.7.2/include/stddef.h"
 473              		.file 3 "c:/yagarto-20121222/lib/gcc/../../arm-none-eabi/sys-include/stdint.h"
 474              		.file 4 "../../os/ports/GCC/ARM/chtypes.h"
 475              		.file 5 "../../os/kernel/include/chlists.h"
 476              		.file 6 "../../os/kernel/include/chthreads.h"
 477              		.file 7 "../../os/ports/GCC/ARM/chcore.h"
 478              		.file 8 "../../os/kernel/include/chmtx.h"
 479              		.file 9 "../../os/kernel/include/chevents.h"
 480              		.file 10 "../../os/kernel/include/chqueues.h"
 481              		.file 11 "../../os/hal/include/serial.h"
 482              		.file 12 "../../os/hal/platforms/BCM2835/serial_lld.h"
 483              		.file 13 "../../os/kernel/include/chschd.h"
 484              		.section	.debug_info,"",%progbits
 485              	.Ldebug_info0:
 486 0000 CF0E0000 		.4byte	0xecf
 487 0004 0200     		.2byte	0x2
 488 0006 00000000 		.4byte	.Ldebug_abbrev0
 489 000a 04       		.byte	0x4
 490 000b 01       		.uleb128 0x1
 491 000c B3020000 		.4byte	.LASF120
 492 0010 01       		.byte	0x1
 493 0011 6B040000 		.4byte	.LASF121
 494 0015 28010000 		.4byte	.LASF122
 495 0019 00000000 		.4byte	.Ldebug_ranges0+0
 496 001d 00000000 		.4byte	0
 497 0021 00000000 		.4byte	0
 498 0025 00000000 		.4byte	.Ldebug_line0
 499 0029 02       		.uleb128 0x2
 500 002a 04       		.byte	0x4
 501 002b 05       		.byte	0x5
 502 002c 696E7400 		.ascii	"int\000"
 503 0030 03       		.uleb128 0x3
 504 0031 15000000 		.4byte	.LASF2
 505 0035 02       		.byte	0x2
 506 0036 D5       		.byte	0xd5
 507 0037 3B000000 		.4byte	0x3b
 508 003b 04       		.uleb128 0x4
 509 003c 04       		.byte	0x4
 510 003d 07       		.byte	0x7
 511 003e 92010000 		.4byte	.LASF0
 512 0042 04       		.uleb128 0x4
 513 0043 01       		.byte	0x1
ARM GAS  C:\Users\NICOMA~1\AppData\Local\Temp\ccG3HhJL.s 			page 10


 514 0044 06       		.byte	0x6
 515 0045 97000000 		.4byte	.LASF1
 516 0049 03       		.uleb128 0x3
 517 004a 63040000 		.4byte	.LASF3
 518 004e 03       		.byte	0x3
 519 004f 2A       		.byte	0x2a
 520 0050 54000000 		.4byte	0x54
 521 0054 04       		.uleb128 0x4
 522 0055 01       		.byte	0x1
 523 0056 08       		.byte	0x8
 524 0057 0B030000 		.4byte	.LASF4
 525 005b 04       		.uleb128 0x4
 526 005c 02       		.byte	0x2
 527 005d 05       		.byte	0x5
 528 005e 45030000 		.4byte	.LASF5
 529 0062 04       		.uleb128 0x4
 530 0063 02       		.byte	0x2
 531 0064 07       		.byte	0x7
 532 0065 F6010000 		.4byte	.LASF6
 533 0069 03       		.uleb128 0x3
 534 006a 03030000 		.4byte	.LASF7
 535 006e 03       		.byte	0x3
 536 006f 4F       		.byte	0x4f
 537 0070 74000000 		.4byte	0x74
 538 0074 04       		.uleb128 0x4
 539 0075 04       		.byte	0x4
 540 0076 05       		.byte	0x5
 541 0077 D3000000 		.4byte	.LASF8
 542 007b 03       		.uleb128 0x3
 543 007c A0030000 		.4byte	.LASF9
 544 0080 03       		.byte	0x3
 545 0081 50       		.byte	0x50
 546 0082 86000000 		.4byte	0x86
 547 0086 04       		.uleb128 0x4
 548 0087 04       		.byte	0x4
 549 0088 07       		.byte	0x7
 550 0089 C9010000 		.4byte	.LASF10
 551 008d 04       		.uleb128 0x4
 552 008e 08       		.byte	0x8
 553 008f 05       		.byte	0x5
 554 0090 89000000 		.4byte	.LASF11
 555 0094 04       		.uleb128 0x4
 556 0095 08       		.byte	0x8
 557 0096 07       		.byte	0x7
 558 0097 48000000 		.4byte	.LASF12
 559 009b 03       		.uleb128 0x3
 560 009c AB000000 		.4byte	.LASF13
 561 00a0 04       		.byte	0x4
 562 00a1 2B       		.byte	0x2b
 563 00a2 A6000000 		.4byte	0xa6
 564 00a6 04       		.uleb128 0x4
 565 00a7 01       		.byte	0x1
 566 00a8 02       		.byte	0x2
 567 00a9 FD020000 		.4byte	.LASF14
 568 00ad 03       		.uleb128 0x3
 569 00ae 25020000 		.4byte	.LASF15
 570 00b2 04       		.byte	0x4
ARM GAS  C:\Users\NICOMA~1\AppData\Local\Temp\ccG3HhJL.s 			page 11


 571 00b3 2C       		.byte	0x2c
 572 00b4 49000000 		.4byte	0x49
 573 00b8 03       		.uleb128 0x3
 574 00b9 DC000000 		.4byte	.LASF16
 575 00bd 04       		.byte	0x4
 576 00be 2D       		.byte	0x2d
 577 00bf 49000000 		.4byte	0x49
 578 00c3 03       		.uleb128 0x3
 579 00c4 D4020000 		.4byte	.LASF17
 580 00c8 04       		.byte	0x4
 581 00c9 2E       		.byte	0x2e
 582 00ca 49000000 		.4byte	0x49
 583 00ce 03       		.uleb128 0x3
 584 00cf BA000000 		.4byte	.LASF18
 585 00d3 04       		.byte	0x4
 586 00d4 2F       		.byte	0x2f
 587 00d5 49000000 		.4byte	0x49
 588 00d9 03       		.uleb128 0x3
 589 00da ED020000 		.4byte	.LASF19
 590 00de 04       		.byte	0x4
 591 00df 30       		.byte	0x30
 592 00e0 7B000000 		.4byte	0x7b
 593 00e4 03       		.uleb128 0x3
 594 00e5 09020000 		.4byte	.LASF20
 595 00e9 04       		.byte	0x4
 596 00ea 31       		.byte	0x31
 597 00eb 69000000 		.4byte	0x69
 598 00ef 03       		.uleb128 0x3
 599 00f0 39020000 		.4byte	.LASF21
 600 00f4 04       		.byte	0x4
 601 00f5 33       		.byte	0x33
 602 00f6 7B000000 		.4byte	0x7b
 603 00fa 03       		.uleb128 0x3
 604 00fb 32040000 		.4byte	.LASF22
 605 00ff 04       		.byte	0x4
 606 0100 34       		.byte	0x34
 607 0101 7B000000 		.4byte	0x7b
 608 0105 03       		.uleb128 0x3
 609 0106 F0030000 		.4byte	.LASF23
 610 010a 04       		.byte	0x4
 611 010b 35       		.byte	0x35
 612 010c 7B000000 		.4byte	0x7b
 613 0110 03       		.uleb128 0x3
 614 0111 84030000 		.4byte	.LASF24
 615 0115 05       		.byte	0x5
 616 0116 2A       		.byte	0x2a
 617 0117 1B010000 		.4byte	0x11b
 618 011b 05       		.uleb128 0x5
 619 011c 84030000 		.4byte	.LASF24
 620 0120 44       		.byte	0x44
 621 0121 06       		.byte	0x6
 622 0122 5E       		.byte	0x5e
 623 0123 32020000 		.4byte	0x232
 624 0127 06       		.uleb128 0x6
 625 0128 75030000 		.4byte	.LASF25
 626 012c 06       		.byte	0x6
 627 012d 5F       		.byte	0x5f
ARM GAS  C:\Users\NICOMA~1\AppData\Local\Temp\ccG3HhJL.s 			page 12


 628 012e 57020000 		.4byte	0x257
 629 0132 02       		.byte	0x2
 630 0133 23       		.byte	0x23
 631 0134 00       		.uleb128 0
 632 0135 06       		.uleb128 0x6
 633 0136 E6020000 		.4byte	.LASF26
 634 013a 06       		.byte	0x6
 635 013b 61       		.byte	0x61
 636 013c 57020000 		.4byte	0x257
 637 0140 02       		.byte	0x2
 638 0141 23       		.byte	0x23
 639 0142 04       		.uleb128 0x4
 640 0143 06       		.uleb128 0x6
 641 0144 72000000 		.4byte	.LASF27
 642 0148 06       		.byte	0x6
 643 0149 63       		.byte	0x63
 644 014a D9000000 		.4byte	0xd9
 645 014e 02       		.byte	0x2
 646 014f 23       		.byte	0x23
 647 0150 08       		.uleb128 0x8
 648 0151 06       		.uleb128 0x6
 649 0152 D3040000 		.4byte	.LASF28
 650 0156 06       		.byte	0x6
 651 0157 64       		.byte	0x64
 652 0158 1B030000 		.4byte	0x31b
 653 015c 02       		.byte	0x2
 654 015d 23       		.byte	0x23
 655 015e 0C       		.uleb128 0xc
 656 015f 06       		.uleb128 0x6
 657 0160 20010000 		.4byte	.LASF29
 658 0164 06       		.byte	0x6
 659 0165 66       		.byte	0x66
 660 0166 57020000 		.4byte	0x257
 661 016a 02       		.byte	0x2
 662 016b 23       		.byte	0x23
 663 016c 10       		.uleb128 0x10
 664 016d 06       		.uleb128 0x6
 665 016e 92020000 		.4byte	.LASF30
 666 0172 06       		.byte	0x6
 667 0173 67       		.byte	0x67
 668 0174 57020000 		.4byte	0x257
 669 0178 02       		.byte	0x2
 670 0179 23       		.byte	0x23
 671 017a 14       		.uleb128 0x14
 672 017b 06       		.uleb128 0x6
 673 017c A2040000 		.4byte	.LASF31
 674 0180 06       		.byte	0x6
 675 0181 6E       		.byte	0x6e
 676 0182 3A040000 		.4byte	0x43a
 677 0186 02       		.byte	0x2
 678 0187 23       		.byte	0x23
 679 0188 18       		.uleb128 0x18
 680 0189 06       		.uleb128 0x6
 681 018a 4F030000 		.4byte	.LASF32
 682 018e 06       		.byte	0x6
 683 018f 79       		.byte	0x79
 684 0190 B8000000 		.4byte	0xb8
ARM GAS  C:\Users\NICOMA~1\AppData\Local\Temp\ccG3HhJL.s 			page 13


 685 0194 02       		.byte	0x2
 686 0195 23       		.byte	0x23
 687 0196 1C       		.uleb128 0x1c
 688 0197 06       		.uleb128 0x6
 689 0198 7C030000 		.4byte	.LASF33
 690 019c 06       		.byte	0x6
 691 019d 7D       		.byte	0x7d
 692 019e AD000000 		.4byte	0xad
 693 01a2 02       		.byte	0x2
 694 01a3 23       		.byte	0x23
 695 01a4 1D       		.uleb128 0x1d
 696 01a5 06       		.uleb128 0x6
 697 01a6 44040000 		.4byte	.LASF34
 698 01aa 06       		.byte	0x6
 699 01ab 82       		.byte	0x82
 700 01ac C3000000 		.4byte	0xc3
 701 01b0 02       		.byte	0x2
 702 01b1 23       		.byte	0x23
 703 01b2 1E       		.uleb128 0x1e
 704 01b3 06       		.uleb128 0x6
 705 01b4 57030000 		.4byte	.LASF35
 706 01b8 06       		.byte	0x6
 707 01b9 88       		.byte	0x88
 708 01ba CE000000 		.4byte	0xce
 709 01be 02       		.byte	0x2
 710 01bf 23       		.byte	0x23
 711 01c0 1F       		.uleb128 0x1f
 712 01c1 06       		.uleb128 0x6
 713 01c2 10040000 		.4byte	.LASF36
 714 01c6 06       		.byte	0x6
 715 01c7 8F       		.byte	0x8f
 716 01c8 3C030000 		.4byte	0x33c
 717 01cc 02       		.byte	0x2
 718 01cd 23       		.byte	0x23
 719 01ce 20       		.uleb128 0x20
 720 01cf 07       		.uleb128 0x7
 721 01d0 705F7500 		.ascii	"p_u\000"
 722 01d4 06       		.byte	0x6
 723 01d5 B4       		.byte	0xb4
 724 01d6 05040000 		.4byte	0x405
 725 01da 02       		.byte	0x2
 726 01db 23       		.byte	0x23
 727 01dc 24       		.uleb128 0x24
 728 01dd 06       		.uleb128 0x6
 729 01de D9040000 		.4byte	.LASF37
 730 01e2 06       		.byte	0x6
 731 01e3 B9       		.byte	0xb9
 732 01e4 7F020000 		.4byte	0x27f
 733 01e8 02       		.byte	0x2
 734 01e9 23       		.byte	0x23
 735 01ea 28       		.uleb128 0x28
 736 01eb 06       		.uleb128 0x6
 737 01ec 1E040000 		.4byte	.LASF38
 738 01f0 06       		.byte	0x6
 739 01f1 BF       		.byte	0xbf
 740 01f2 5D020000 		.4byte	0x25d
 741 01f6 02       		.byte	0x2
ARM GAS  C:\Users\NICOMA~1\AppData\Local\Temp\ccG3HhJL.s 			page 14


 742 01f7 23       		.byte	0x23
 743 01f8 2C       		.uleb128 0x2c
 744 01f9 06       		.uleb128 0x6
 745 01fa 0F000000 		.4byte	.LASF39
 746 01fe 06       		.byte	0x6
 747 01ff C3       		.byte	0xc3
 748 0200 E4000000 		.4byte	0xe4
 749 0204 02       		.byte	0x2
 750 0205 23       		.byte	0x23
 751 0206 34       		.uleb128 0x34
 752 0207 06       		.uleb128 0x6
 753 0208 8B030000 		.4byte	.LASF40
 754 020c 06       		.byte	0x6
 755 020d C9       		.byte	0xc9
 756 020e EF000000 		.4byte	0xef
 757 0212 02       		.byte	0x2
 758 0213 23       		.byte	0x23
 759 0214 38       		.uleb128 0x38
 760 0215 06       		.uleb128 0x6
 761 0216 3B030000 		.4byte	.LASF41
 762 021a 06       		.byte	0x6
 763 021b D0       		.byte	0xd0
 764 021c 4C040000 		.4byte	0x44c
 765 0220 02       		.byte	0x2
 766 0221 23       		.byte	0x23
 767 0222 3C       		.uleb128 0x3c
 768 0223 06       		.uleb128 0x6
 769 0224 FA030000 		.4byte	.LASF42
 770 0228 06       		.byte	0x6
 771 0229 D4       		.byte	0xd4
 772 022a D9000000 		.4byte	0xd9
 773 022e 02       		.byte	0x2
 774 022f 23       		.byte	0x23
 775 0230 40       		.uleb128 0x40
 776 0231 00       		.byte	0
 777 0232 08       		.uleb128 0x8
 778 0233 08       		.byte	0x8
 779 0234 05       		.byte	0x5
 780 0235 61       		.byte	0x61
 781 0236 57020000 		.4byte	0x257
 782 023a 06       		.uleb128 0x6
 783 023b 75030000 		.4byte	.LASF25
 784 023f 05       		.byte	0x5
 785 0240 62       		.byte	0x62
 786 0241 57020000 		.4byte	0x257
 787 0245 02       		.byte	0x2
 788 0246 23       		.byte	0x23
 789 0247 00       		.uleb128 0
 790 0248 06       		.uleb128 0x6
 791 0249 E6020000 		.4byte	.LASF26
 792 024d 05       		.byte	0x5
 793 024e 64       		.byte	0x64
 794 024f 57020000 		.4byte	0x257
 795 0253 02       		.byte	0x2
 796 0254 23       		.byte	0x23
 797 0255 04       		.uleb128 0x4
 798 0256 00       		.byte	0
ARM GAS  C:\Users\NICOMA~1\AppData\Local\Temp\ccG3HhJL.s 			page 15


 799 0257 09       		.uleb128 0x9
 800 0258 04       		.byte	0x4
 801 0259 10010000 		.4byte	0x110
 802 025d 03       		.uleb128 0x3
 803 025e 9A020000 		.4byte	.LASF43
 804 0262 05       		.byte	0x5
 805 0263 66       		.byte	0x66
 806 0264 32020000 		.4byte	0x232
 807 0268 08       		.uleb128 0x8
 808 0269 04       		.byte	0x4
 809 026a 05       		.byte	0x5
 810 026b 6B       		.byte	0x6b
 811 026c 7F020000 		.4byte	0x27f
 812 0270 06       		.uleb128 0x6
 813 0271 75030000 		.4byte	.LASF25
 814 0275 05       		.byte	0x5
 815 0276 6D       		.byte	0x6d
 816 0277 57020000 		.4byte	0x257
 817 027b 02       		.byte	0x2
 818 027c 23       		.byte	0x23
 819 027d 00       		.uleb128 0
 820 027e 00       		.byte	0
 821 027f 03       		.uleb128 0x3
 822 0280 2D020000 		.4byte	.LASF44
 823 0284 05       		.byte	0x5
 824 0285 70       		.byte	0x70
 825 0286 68020000 		.4byte	0x268
 826 028a 03       		.uleb128 0x3
 827 028b 74010000 		.4byte	.LASF45
 828 028f 07       		.byte	0x7
 829 0290 A9       		.byte	0xa9
 830 0291 95020000 		.4byte	0x295
 831 0295 0A       		.uleb128 0xa
 832 0296 04       		.byte	0x4
 833 0297 05       		.uleb128 0x5
 834 0298 17040000 		.4byte	.LASF46
 835 029c 24       		.byte	0x24
 836 029d 07       		.byte	0x7
 837 029e C0       		.byte	0xc0
 838 029f 1B030000 		.4byte	0x31b
 839 02a3 07       		.uleb128 0x7
 840 02a4 723400   		.ascii	"r4\000"
 841 02a7 07       		.byte	0x7
 842 02a8 C1       		.byte	0xc1
 843 02a9 8A020000 		.4byte	0x28a
 844 02ad 02       		.byte	0x2
 845 02ae 23       		.byte	0x23
 846 02af 00       		.uleb128 0
 847 02b0 07       		.uleb128 0x7
 848 02b1 723500   		.ascii	"r5\000"
 849 02b4 07       		.byte	0x7
 850 02b5 C2       		.byte	0xc2
 851 02b6 8A020000 		.4byte	0x28a
 852 02ba 02       		.byte	0x2
 853 02bb 23       		.byte	0x23
 854 02bc 04       		.uleb128 0x4
 855 02bd 07       		.uleb128 0x7
ARM GAS  C:\Users\NICOMA~1\AppData\Local\Temp\ccG3HhJL.s 			page 16


 856 02be 723600   		.ascii	"r6\000"
 857 02c1 07       		.byte	0x7
 858 02c2 C3       		.byte	0xc3
 859 02c3 8A020000 		.4byte	0x28a
 860 02c7 02       		.byte	0x2
 861 02c8 23       		.byte	0x23
 862 02c9 08       		.uleb128 0x8
 863 02ca 07       		.uleb128 0x7
 864 02cb 723700   		.ascii	"r7\000"
 865 02ce 07       		.byte	0x7
 866 02cf C4       		.byte	0xc4
 867 02d0 8A020000 		.4byte	0x28a
 868 02d4 02       		.byte	0x2
 869 02d5 23       		.byte	0x23
 870 02d6 0C       		.uleb128 0xc
 871 02d7 07       		.uleb128 0x7
 872 02d8 723800   		.ascii	"r8\000"
 873 02db 07       		.byte	0x7
 874 02dc C5       		.byte	0xc5
 875 02dd 8A020000 		.4byte	0x28a
 876 02e1 02       		.byte	0x2
 877 02e2 23       		.byte	0x23
 878 02e3 10       		.uleb128 0x10
 879 02e4 07       		.uleb128 0x7
 880 02e5 723900   		.ascii	"r9\000"
 881 02e8 07       		.byte	0x7
 882 02e9 C6       		.byte	0xc6
 883 02ea 8A020000 		.4byte	0x28a
 884 02ee 02       		.byte	0x2
 885 02ef 23       		.byte	0x23
 886 02f0 14       		.uleb128 0x14
 887 02f1 07       		.uleb128 0x7
 888 02f2 72313000 		.ascii	"r10\000"
 889 02f6 07       		.byte	0x7
 890 02f7 C7       		.byte	0xc7
 891 02f8 8A020000 		.4byte	0x28a
 892 02fc 02       		.byte	0x2
 893 02fd 23       		.byte	0x23
 894 02fe 18       		.uleb128 0x18
 895 02ff 07       		.uleb128 0x7
 896 0300 72313100 		.ascii	"r11\000"
 897 0304 07       		.byte	0x7
 898 0305 C8       		.byte	0xc8
 899 0306 8A020000 		.4byte	0x28a
 900 030a 02       		.byte	0x2
 901 030b 23       		.byte	0x23
 902 030c 1C       		.uleb128 0x1c
 903 030d 07       		.uleb128 0x7
 904 030e 6C7200   		.ascii	"lr\000"
 905 0311 07       		.byte	0x7
 906 0312 C9       		.byte	0xc9
 907 0313 8A020000 		.4byte	0x28a
 908 0317 02       		.byte	0x2
 909 0318 23       		.byte	0x23
 910 0319 20       		.uleb128 0x20
 911 031a 00       		.byte	0
 912 031b 05       		.uleb128 0x5
ARM GAS  C:\Users\NICOMA~1\AppData\Local\Temp\ccG3HhJL.s 			page 17


 913 031c EE010000 		.4byte	.LASF47
 914 0320 04       		.byte	0x4
 915 0321 07       		.byte	0x7
 916 0322 D1       		.byte	0xd1
 917 0323 36030000 		.4byte	0x336
 918 0327 07       		.uleb128 0x7
 919 0328 72313300 		.ascii	"r13\000"
 920 032c 07       		.byte	0x7
 921 032d D2       		.byte	0xd2
 922 032e 36030000 		.4byte	0x336
 923 0332 02       		.byte	0x2
 924 0333 23       		.byte	0x23
 925 0334 00       		.uleb128 0
 926 0335 00       		.byte	0
 927 0336 09       		.uleb128 0x9
 928 0337 04       		.byte	0x4
 929 0338 97020000 		.4byte	0x297
 930 033c 0B       		.uleb128 0xb
 931 033d 05010000 		.4byte	0x105
 932 0341 05       		.uleb128 0x5
 933 0342 50020000 		.4byte	.LASF48
 934 0346 10       		.byte	0x10
 935 0347 08       		.byte	0x8
 936 0348 2C       		.byte	0x2c
 937 0349 78030000 		.4byte	0x378
 938 034d 06       		.uleb128 0x6
 939 034e B2000000 		.4byte	.LASF49
 940 0352 08       		.byte	0x8
 941 0353 2D       		.byte	0x2d
 942 0354 5D020000 		.4byte	0x25d
 943 0358 02       		.byte	0x2
 944 0359 23       		.byte	0x23
 945 035a 00       		.uleb128 0
 946 035b 06       		.uleb128 0x6
 947 035c CB040000 		.4byte	.LASF50
 948 0360 08       		.byte	0x8
 949 0361 2F       		.byte	0x2f
 950 0362 57020000 		.4byte	0x257
 951 0366 02       		.byte	0x2
 952 0367 23       		.byte	0x23
 953 0368 08       		.uleb128 0x8
 954 0369 06       		.uleb128 0x6
 955 036a E9030000 		.4byte	.LASF51
 956 036e 08       		.byte	0x8
 957 036f 31       		.byte	0x31
 958 0370 78030000 		.4byte	0x378
 959 0374 02       		.byte	0x2
 960 0375 23       		.byte	0x23
 961 0376 0C       		.uleb128 0xc
 962 0377 00       		.byte	0
 963 0378 09       		.uleb128 0x9
 964 0379 04       		.byte	0x4
 965 037a 41030000 		.4byte	0x341
 966 037e 03       		.uleb128 0x3
 967 037f 50020000 		.4byte	.LASF48
 968 0383 08       		.byte	0x8
 969 0384 33       		.byte	0x33
ARM GAS  C:\Users\NICOMA~1\AppData\Local\Temp\ccG3HhJL.s 			page 18


 970 0385 41030000 		.4byte	0x341
 971 0389 03       		.uleb128 0x3
 972 038a 8D040000 		.4byte	.LASF52
 973 038e 09       		.byte	0x9
 974 038f 2C       		.byte	0x2c
 975 0390 94030000 		.4byte	0x394
 976 0394 05       		.uleb128 0x5
 977 0395 8D040000 		.4byte	.LASF52
 978 0399 10       		.byte	0x10
 979 039a 09       		.byte	0x9
 980 039b 31       		.byte	0x31
 981 039c D9030000 		.4byte	0x3d9
 982 03a0 06       		.uleb128 0x6
 983 03a1 16020000 		.4byte	.LASF53
 984 03a5 09       		.byte	0x9
 985 03a6 32       		.byte	0x32
 986 03a7 D9030000 		.4byte	0x3d9
 987 03ab 02       		.byte	0x2
 988 03ac 23       		.byte	0x23
 989 03ad 00       		.uleb128 0
 990 03ae 06       		.uleb128 0x6
 991 03af 26030000 		.4byte	.LASF54
 992 03b3 09       		.byte	0x9
 993 03b4 35       		.byte	0x35
 994 03b5 57020000 		.4byte	0x257
 995 03b9 02       		.byte	0x2
 996 03ba 23       		.byte	0x23
 997 03bb 04       		.uleb128 0x4
 998 03bc 06       		.uleb128 0x6
 999 03bd BF020000 		.4byte	.LASF55
 1000 03c1 09       		.byte	0x9
 1001 03c2 37       		.byte	0x37
 1002 03c3 EF000000 		.4byte	0xef
 1003 03c7 02       		.byte	0x2
 1004 03c8 23       		.byte	0x23
 1005 03c9 08       		.uleb128 0x8
 1006 03ca 06       		.uleb128 0x6
 1007 03cb 32030000 		.4byte	.LASF56
 1008 03cf 09       		.byte	0x9
 1009 03d0 3A       		.byte	0x3a
 1010 03d1 FA000000 		.4byte	0xfa
 1011 03d5 02       		.byte	0x2
 1012 03d6 23       		.byte	0x23
 1013 03d7 0C       		.uleb128 0xc
 1014 03d8 00       		.byte	0
 1015 03d9 09       		.uleb128 0x9
 1016 03da 04       		.byte	0x4
 1017 03db 89030000 		.4byte	0x389
 1018 03df 05       		.uleb128 0x5
 1019 03e0 86010000 		.4byte	.LASF57
 1020 03e4 04       		.byte	0x4
 1021 03e5 09       		.byte	0x9
 1022 03e6 41       		.byte	0x41
 1023 03e7 FA030000 		.4byte	0x3fa
 1024 03eb 06       		.uleb128 0x6
 1025 03ec A9040000 		.4byte	.LASF58
 1026 03f0 09       		.byte	0x9
ARM GAS  C:\Users\NICOMA~1\AppData\Local\Temp\ccG3HhJL.s 			page 19


 1027 03f1 42       		.byte	0x42
 1028 03f2 D9030000 		.4byte	0x3d9
 1029 03f6 02       		.byte	0x2
 1030 03f7 23       		.byte	0x23
 1031 03f8 00       		.uleb128 0
 1032 03f9 00       		.byte	0
 1033 03fa 03       		.uleb128 0x3
 1034 03fb 86010000 		.4byte	.LASF57
 1035 03ff 09       		.byte	0x9
 1036 0400 45       		.byte	0x45
 1037 0401 DF030000 		.4byte	0x3df
 1038 0405 0C       		.uleb128 0xc
 1039 0406 04       		.byte	0x4
 1040 0407 06       		.byte	0x6
 1041 0408 96       		.byte	0x96
 1042 0409 3A040000 		.4byte	0x43a
 1043 040d 0D       		.uleb128 0xd
 1044 040e 1C000000 		.4byte	.LASF59
 1045 0412 06       		.byte	0x6
 1046 0413 9D       		.byte	0x9d
 1047 0414 E4000000 		.4byte	0xe4
 1048 0418 0D       		.uleb128 0xd
 1049 0419 69000000 		.4byte	.LASF60
 1050 041d 06       		.byte	0x6
 1051 041e A4       		.byte	0xa4
 1052 041f E4000000 		.4byte	0xe4
 1053 0423 0D       		.uleb128 0xd
 1054 0424 9B040000 		.4byte	.LASF61
 1055 0428 06       		.byte	0x6
 1056 0429 AB       		.byte	0xab
 1057 042a 95020000 		.4byte	0x295
 1058 042e 0D       		.uleb128 0xd
 1059 042f 6E030000 		.4byte	.LASF62
 1060 0433 06       		.byte	0x6
 1061 0434 B2       		.byte	0xb2
 1062 0435 EF000000 		.4byte	0xef
 1063 0439 00       		.byte	0
 1064 043a 09       		.uleb128 0x9
 1065 043b 04       		.byte	0x4
 1066 043c 40040000 		.4byte	0x440
 1067 0440 0E       		.uleb128 0xe
 1068 0441 45040000 		.4byte	0x445
 1069 0445 04       		.uleb128 0x4
 1070 0446 01       		.byte	0x1
 1071 0447 08       		.byte	0x8
 1072 0448 C5030000 		.4byte	.LASF63
 1073 044c 09       		.uleb128 0x9
 1074 044d 04       		.byte	0x4
 1075 044e 7E030000 		.4byte	0x37e
 1076 0452 09       		.uleb128 0x9
 1077 0453 04       		.byte	0x4
 1078 0454 58040000 		.4byte	0x458
 1079 0458 0F       		.uleb128 0xf
 1080 0459 01       		.byte	0x1
 1081 045a E4000000 		.4byte	0xe4
 1082 045e 68040000 		.4byte	0x468
 1083 0462 10       		.uleb128 0x10
ARM GAS  C:\Users\NICOMA~1\AppData\Local\Temp\ccG3HhJL.s 			page 20


 1084 0463 95020000 		.4byte	0x295
 1085 0467 00       		.byte	0
 1086 0468 04       		.uleb128 0x4
 1087 0469 04       		.byte	0x4
 1088 046a 07       		.byte	0x7
 1089 046b 7F020000 		.4byte	.LASF64
 1090 046f 03       		.uleb128 0x3
 1091 0470 56020000 		.4byte	.LASF65
 1092 0474 0A       		.byte	0xa
 1093 0475 37       		.byte	0x37
 1094 0476 7A040000 		.4byte	0x47a
 1095 047a 05       		.uleb128 0x5
 1096 047b 56020000 		.4byte	.LASF65
 1097 047f 24       		.byte	0x24
 1098 0480 0A       		.byte	0xa
 1099 0481 45       		.byte	0x45
 1100 0482 F7040000 		.4byte	0x4f7
 1101 0486 06       		.uleb128 0x6
 1102 0487 7F000000 		.4byte	.LASF66
 1103 048b 0A       		.byte	0xa
 1104 048c 46       		.byte	0x46
 1105 048d 5D020000 		.4byte	0x25d
 1106 0491 02       		.byte	0x2
 1107 0492 23       		.byte	0x23
 1108 0493 00       		.uleb128 0
 1109 0494 06       		.uleb128 0x6
 1110 0495 88020000 		.4byte	.LASF67
 1111 0499 0A       		.byte	0xa
 1112 049a 47       		.byte	0x47
 1113 049b 30000000 		.4byte	0x30
 1114 049f 02       		.byte	0x2
 1115 04a0 23       		.byte	0x23
 1116 04a1 08       		.uleb128 0x8
 1117 04a2 06       		.uleb128 0x6
 1118 04a3 FA000000 		.4byte	.LASF68
 1119 04a7 0A       		.byte	0xa
 1120 04a8 48       		.byte	0x48
 1121 04a9 1A050000 		.4byte	0x51a
 1122 04ad 02       		.byte	0x2
 1123 04ae 23       		.byte	0x23
 1124 04af 0C       		.uleb128 0xc
 1125 04b0 06       		.uleb128 0x6
 1126 04b1 3E040000 		.4byte	.LASF69
 1127 04b5 0A       		.byte	0xa
 1128 04b6 49       		.byte	0x49
 1129 04b7 1A050000 		.4byte	0x51a
 1130 04bb 02       		.byte	0x2
 1131 04bc 23       		.byte	0x23
 1132 04bd 10       		.uleb128 0x10
 1133 04be 06       		.uleb128 0x6
 1134 04bf 03010000 		.4byte	.LASF70
 1135 04c3 0A       		.byte	0xa
 1136 04c4 4B       		.byte	0x4b
 1137 04c5 1A050000 		.4byte	0x51a
 1138 04c9 02       		.byte	0x2
 1139 04ca 23       		.byte	0x23
 1140 04cb 14       		.uleb128 0x14
ARM GAS  C:\Users\NICOMA~1\AppData\Local\Temp\ccG3HhJL.s 			page 21


 1141 04cc 06       		.uleb128 0x6
 1142 04cd F5020000 		.4byte	.LASF71
 1143 04d1 0A       		.byte	0xa
 1144 04d2 4C       		.byte	0x4c
 1145 04d3 1A050000 		.4byte	0x51a
 1146 04d7 02       		.byte	0x2
 1147 04d8 23       		.byte	0x23
 1148 04d9 18       		.uleb128 0x18
 1149 04da 06       		.uleb128 0x6
 1150 04db 4B040000 		.4byte	.LASF72
 1151 04df 0A       		.byte	0xa
 1152 04e0 4D       		.byte	0x4d
 1153 04e1 F7040000 		.4byte	0x4f7
 1154 04e5 02       		.byte	0x2
 1155 04e6 23       		.byte	0x23
 1156 04e7 1C       		.uleb128 0x1c
 1157 04e8 06       		.uleb128 0x6
 1158 04e9 C4040000 		.4byte	.LASF73
 1159 04ed 0A       		.byte	0xa
 1160 04ee 4E       		.byte	0x4e
 1161 04ef 95020000 		.4byte	0x295
 1162 04f3 02       		.byte	0x2
 1163 04f4 23       		.byte	0x23
 1164 04f5 20       		.uleb128 0x20
 1165 04f6 00       		.byte	0
 1166 04f7 03       		.uleb128 0x3
 1167 04f8 DC020000 		.4byte	.LASF74
 1168 04fc 0A       		.byte	0xa
 1169 04fd 3A       		.byte	0x3a
 1170 04fe 02050000 		.4byte	0x502
 1171 0502 09       		.uleb128 0x9
 1172 0503 04       		.byte	0x4
 1173 0504 08050000 		.4byte	0x508
 1174 0508 11       		.uleb128 0x11
 1175 0509 01       		.byte	0x1
 1176 050a 14050000 		.4byte	0x514
 1177 050e 10       		.uleb128 0x10
 1178 050f 14050000 		.4byte	0x514
 1179 0513 00       		.byte	0
 1180 0514 09       		.uleb128 0x9
 1181 0515 04       		.byte	0x4
 1182 0516 6F040000 		.4byte	0x46f
 1183 051a 09       		.uleb128 0x9
 1184 051b 04       		.byte	0x4
 1185 051c 49000000 		.4byte	0x49
 1186 0520 03       		.uleb128 0x3
 1187 0521 45020000 		.4byte	.LASF75
 1188 0525 0A       		.byte	0xa
 1189 0526 82       		.byte	0x82
 1190 0527 6F040000 		.4byte	0x46f
 1191 052b 03       		.uleb128 0x3
 1192 052c 2C000000 		.4byte	.LASF76
 1193 0530 0A       		.byte	0xa
 1194 0531 F5       		.byte	0xf5
 1195 0532 6F040000 		.4byte	0x46f
 1196 0536 0F       		.uleb128 0xf
 1197 0537 01       		.byte	0x1
ARM GAS  C:\Users\NICOMA~1\AppData\Local\Temp\ccG3HhJL.s 			page 22


 1198 0538 30000000 		.4byte	0x30
 1199 053c 50050000 		.4byte	0x550
 1200 0540 10       		.uleb128 0x10
 1201 0541 95020000 		.4byte	0x295
 1202 0545 10       		.uleb128 0x10
 1203 0546 50050000 		.4byte	0x550
 1204 054a 10       		.uleb128 0x10
 1205 054b 30000000 		.4byte	0x30
 1206 054f 00       		.byte	0
 1207 0550 09       		.uleb128 0x9
 1208 0551 04       		.byte	0x4
 1209 0552 56050000 		.4byte	0x556
 1210 0556 0E       		.uleb128 0xe
 1211 0557 49000000 		.4byte	0x49
 1212 055b 09       		.uleb128 0x9
 1213 055c 04       		.byte	0x4
 1214 055d 36050000 		.4byte	0x536
 1215 0561 0F       		.uleb128 0xf
 1216 0562 01       		.byte	0x1
 1217 0563 30000000 		.4byte	0x30
 1218 0567 7B050000 		.4byte	0x57b
 1219 056b 10       		.uleb128 0x10
 1220 056c 95020000 		.4byte	0x295
 1221 0570 10       		.uleb128 0x10
 1222 0571 1A050000 		.4byte	0x51a
 1223 0575 10       		.uleb128 0x10
 1224 0576 30000000 		.4byte	0x30
 1225 057a 00       		.byte	0
 1226 057b 09       		.uleb128 0x9
 1227 057c 04       		.byte	0x4
 1228 057d 61050000 		.4byte	0x561
 1229 0581 0F       		.uleb128 0xf
 1230 0582 01       		.byte	0x1
 1231 0583 E4000000 		.4byte	0xe4
 1232 0587 96050000 		.4byte	0x596
 1233 058b 10       		.uleb128 0x10
 1234 058c 95020000 		.4byte	0x295
 1235 0590 10       		.uleb128 0x10
 1236 0591 49000000 		.4byte	0x49
 1237 0595 00       		.byte	0
 1238 0596 09       		.uleb128 0x9
 1239 0597 04       		.byte	0x4
 1240 0598 81050000 		.4byte	0x581
 1241 059c 0F       		.uleb128 0xf
 1242 059d 01       		.byte	0x1
 1243 059e E4000000 		.4byte	0xe4
 1244 05a2 B6050000 		.4byte	0x5b6
 1245 05a6 10       		.uleb128 0x10
 1246 05a7 95020000 		.4byte	0x295
 1247 05ab 10       		.uleb128 0x10
 1248 05ac 49000000 		.4byte	0x49
 1249 05b0 10       		.uleb128 0x10
 1250 05b1 05010000 		.4byte	0x105
 1251 05b5 00       		.byte	0
 1252 05b6 09       		.uleb128 0x9
 1253 05b7 04       		.byte	0x4
 1254 05b8 9C050000 		.4byte	0x59c
ARM GAS  C:\Users\NICOMA~1\AppData\Local\Temp\ccG3HhJL.s 			page 23


 1255 05bc 0F       		.uleb128 0xf
 1256 05bd 01       		.byte	0x1
 1257 05be E4000000 		.4byte	0xe4
 1258 05c2 D1050000 		.4byte	0x5d1
 1259 05c6 10       		.uleb128 0x10
 1260 05c7 95020000 		.4byte	0x295
 1261 05cb 10       		.uleb128 0x10
 1262 05cc 05010000 		.4byte	0x105
 1263 05d0 00       		.byte	0
 1264 05d1 09       		.uleb128 0x9
 1265 05d2 04       		.byte	0x4
 1266 05d3 BC050000 		.4byte	0x5bc
 1267 05d7 0F       		.uleb128 0xf
 1268 05d8 01       		.byte	0x1
 1269 05d9 30000000 		.4byte	0x30
 1270 05dd F6050000 		.4byte	0x5f6
 1271 05e1 10       		.uleb128 0x10
 1272 05e2 95020000 		.4byte	0x295
 1273 05e6 10       		.uleb128 0x10
 1274 05e7 50050000 		.4byte	0x550
 1275 05eb 10       		.uleb128 0x10
 1276 05ec 30000000 		.4byte	0x30
 1277 05f0 10       		.uleb128 0x10
 1278 05f1 05010000 		.4byte	0x105
 1279 05f5 00       		.byte	0
 1280 05f6 09       		.uleb128 0x9
 1281 05f7 04       		.byte	0x4
 1282 05f8 D7050000 		.4byte	0x5d7
 1283 05fc 0F       		.uleb128 0xf
 1284 05fd 01       		.byte	0x1
 1285 05fe 30000000 		.4byte	0x30
 1286 0602 1B060000 		.4byte	0x61b
 1287 0606 10       		.uleb128 0x10
 1288 0607 95020000 		.4byte	0x295
 1289 060b 10       		.uleb128 0x10
 1290 060c 1A050000 		.4byte	0x51a
 1291 0610 10       		.uleb128 0x10
 1292 0611 30000000 		.4byte	0x30
 1293 0615 10       		.uleb128 0x10
 1294 0616 05010000 		.4byte	0x105
 1295 061a 00       		.byte	0
 1296 061b 09       		.uleb128 0x9
 1297 061c 04       		.byte	0x4
 1298 061d FC050000 		.4byte	0x5fc
 1299 0621 12       		.uleb128 0x12
 1300 0622 01       		.byte	0x1
 1301 0623 0B       		.byte	0xb
 1302 0624 64       		.byte	0x64
 1303 0625 3C060000 		.4byte	0x63c
 1304 0629 13       		.uleb128 0x13
 1305 062a 96030000 		.4byte	.LASF77
 1306 062e 00       		.sleb128 0
 1307 062f 13       		.uleb128 0x13
 1308 0630 A3000000 		.4byte	.LASF78
 1309 0634 01       		.sleb128 1
 1310 0635 13       		.uleb128 0x13
 1311 0636 29040000 		.4byte	.LASF79
ARM GAS  C:\Users\NICOMA~1\AppData\Local\Temp\ccG3HhJL.s 			page 24


 1312 063a 02       		.sleb128 2
 1313 063b 00       		.byte	0
 1314 063c 03       		.uleb128 0x3
 1315 063d A9030000 		.4byte	.LASF80
 1316 0641 0B       		.byte	0xb
 1317 0642 68       		.byte	0x68
 1318 0643 21060000 		.4byte	0x621
 1319 0647 03       		.uleb128 0x3
 1320 0648 B3030000 		.4byte	.LASF81
 1321 064c 0B       		.byte	0xb
 1322 064d 6D       		.byte	0x6d
 1323 064e 52060000 		.4byte	0x652
 1324 0652 05       		.uleb128 0x5
 1325 0653 B3030000 		.4byte	.LASF81
 1326 0657 74       		.byte	0x74
 1327 0658 0B       		.byte	0xb
 1328 0659 87       		.byte	0x87
 1329 065a BF060000 		.4byte	0x6bf
 1330 065e 07       		.uleb128 0x7
 1331 065f 766D7400 		.ascii	"vmt\000"
 1332 0663 0B       		.byte	0xb
 1333 0664 89       		.byte	0x89
 1334 0665 5E070000 		.4byte	0x75e
 1335 0669 02       		.byte	0x2
 1336 066a 23       		.byte	0x23
 1337 066b 00       		.uleb128 0
 1338 066c 06       		.uleb128 0x6
 1339 066d E8010000 		.4byte	.LASF82
 1340 0671 0B       		.byte	0xb
 1341 0672 8A       		.byte	0x8a
 1342 0673 FA030000 		.4byte	0x3fa
 1343 0677 02       		.byte	0x2
 1344 0678 23       		.byte	0x23
 1345 0679 04       		.uleb128 0x4
 1346 067a 06       		.uleb128 0x6
 1347 067b C4000000 		.4byte	.LASF83
 1348 067f 0B       		.byte	0xb
 1349 0680 8A       		.byte	0x8a
 1350 0681 3C060000 		.4byte	0x63c
 1351 0685 02       		.byte	0x2
 1352 0686 23       		.byte	0x23
 1353 0687 08       		.uleb128 0x8
 1354 0688 06       		.uleb128 0x6
 1355 0689 C2010000 		.4byte	.LASF84
 1356 068d 0B       		.byte	0xb
 1357 068e 8A       		.byte	0x8a
 1358 068f 20050000 		.4byte	0x520
 1359 0693 02       		.byte	0x2
 1360 0694 23       		.byte	0x23
 1361 0695 0C       		.uleb128 0xc
 1362 0696 06       		.uleb128 0x6
 1363 0697 0F020000 		.4byte	.LASF85
 1364 069b 0B       		.byte	0xb
 1365 069c 8A       		.byte	0x8a
 1366 069d 2B050000 		.4byte	0x52b
 1367 06a1 02       		.byte	0x2
 1368 06a2 23       		.byte	0x23
ARM GAS  C:\Users\NICOMA~1\AppData\Local\Temp\ccG3HhJL.s 			page 25


 1369 06a3 30       		.uleb128 0x30
 1370 06a4 07       		.uleb128 0x7
 1371 06a5 696200   		.ascii	"ib\000"
 1372 06a8 0B       		.byte	0xb
 1373 06a9 8A       		.byte	0x8a
 1374 06aa 69070000 		.4byte	0x769
 1375 06ae 02       		.byte	0x2
 1376 06af 23       		.byte	0x23
 1377 06b0 54       		.uleb128 0x54
 1378 06b1 07       		.uleb128 0x7
 1379 06b2 6F6200   		.ascii	"ob\000"
 1380 06b5 0B       		.byte	0xb
 1381 06b6 8A       		.byte	0x8a
 1382 06b7 69070000 		.4byte	0x769
 1383 06bb 02       		.byte	0x2
 1384 06bc 23       		.byte	0x23
 1385 06bd 64       		.uleb128 0x64
 1386 06be 00       		.byte	0
 1387 06bf 08       		.uleb128 0x8
 1388 06c0 04       		.byte	0x4
 1389 06c1 0C       		.byte	0xc
 1390 06c2 42       		.byte	0x42
 1391 06c3 D6060000 		.4byte	0x6d6
 1392 06c7 06       		.uleb128 0x6
 1393 06c8 5F000000 		.4byte	.LASF86
 1394 06cc 0C       		.byte	0xc
 1395 06cd 44       		.byte	0x44
 1396 06ce 7B000000 		.4byte	0x7b
 1397 06d2 02       		.byte	0x2
 1398 06d3 23       		.byte	0x23
 1399 06d4 00       		.uleb128 0
 1400 06d5 00       		.byte	0
 1401 06d6 03       		.uleb128 0x3
 1402 06d7 C7020000 		.4byte	.LASF87
 1403 06db 0C       		.byte	0xc
 1404 06dc 45       		.byte	0x45
 1405 06dd BF060000 		.4byte	0x6bf
 1406 06e1 05       		.uleb128 0x5
 1407 06e2 9F010000 		.4byte	.LASF88
 1408 06e6 20       		.byte	0x20
 1409 06e7 0B       		.byte	0xb
 1410 06e8 7C       		.byte	0x7c
 1411 06e9 5E070000 		.4byte	0x75e
 1412 06ed 06       		.uleb128 0x6
 1413 06ee 74020000 		.4byte	.LASF89
 1414 06f2 0B       		.byte	0xb
 1415 06f3 7D       		.byte	0x7d
 1416 06f4 5B050000 		.4byte	0x55b
 1417 06f8 02       		.byte	0x2
 1418 06f9 23       		.byte	0x23
 1419 06fa 00       		.uleb128 0
 1420 06fb 06       		.uleb128 0x6
 1421 06fc C0030000 		.4byte	.LASF90
 1422 0700 0B       		.byte	0xb
 1423 0701 7D       		.byte	0x7d
 1424 0702 7B050000 		.4byte	0x57b
 1425 0706 02       		.byte	0x2
ARM GAS  C:\Users\NICOMA~1\AppData\Local\Temp\ccG3HhJL.s 			page 26


 1426 0707 23       		.byte	0x23
 1427 0708 04       		.uleb128 0x4
 1428 0709 07       		.uleb128 0x7
 1429 070a 70757400 		.ascii	"put\000"
 1430 070e 0B       		.byte	0xb
 1431 070f 7D       		.byte	0x7d
 1432 0710 96050000 		.4byte	0x596
 1433 0714 02       		.byte	0x2
 1434 0715 23       		.byte	0x23
 1435 0716 08       		.uleb128 0x8
 1436 0717 07       		.uleb128 0x7
 1437 0718 67657400 		.ascii	"get\000"
 1438 071c 0B       		.byte	0xb
 1439 071d 7D       		.byte	0x7d
 1440 071e 52040000 		.4byte	0x452
 1441 0722 02       		.byte	0x2
 1442 0723 23       		.byte	0x23
 1443 0724 0C       		.uleb128 0xc
 1444 0725 06       		.uleb128 0x6
 1445 0726 7A020000 		.4byte	.LASF91
 1446 072a 0B       		.byte	0xb
 1447 072b 7D       		.byte	0x7d
 1448 072c B6050000 		.4byte	0x5b6
 1449 0730 02       		.byte	0x2
 1450 0731 23       		.byte	0x23
 1451 0732 10       		.uleb128 0x10
 1452 0733 06       		.uleb128 0x6
 1453 0734 E3010000 		.4byte	.LASF92
 1454 0738 0B       		.byte	0xb
 1455 0739 7D       		.byte	0x7d
 1456 073a D1050000 		.4byte	0x5d1
 1457 073e 02       		.byte	0x2
 1458 073f 23       		.byte	0x23
 1459 0740 14       		.uleb128 0x14
 1460 0741 06       		.uleb128 0x6
 1461 0742 1E020000 		.4byte	.LASF93
 1462 0746 0B       		.byte	0xb
 1463 0747 7D       		.byte	0x7d
 1464 0748 F6050000 		.4byte	0x5f6
 1465 074c 02       		.byte	0x2
 1466 074d 23       		.byte	0x23
 1467 074e 18       		.uleb128 0x18
 1468 074f 06       		.uleb128 0x6
 1469 0750 79000000 		.4byte	.LASF94
 1470 0754 0B       		.byte	0xb
 1471 0755 7D       		.byte	0x7d
 1472 0756 1B060000 		.4byte	0x61b
 1473 075a 02       		.byte	0x2
 1474 075b 23       		.byte	0x23
 1475 075c 1C       		.uleb128 0x1c
 1476 075d 00       		.byte	0
 1477 075e 09       		.uleb128 0x9
 1478 075f 04       		.byte	0x4
 1479 0760 64070000 		.4byte	0x764
 1480 0764 0E       		.uleb128 0xe
 1481 0765 E1060000 		.4byte	0x6e1
 1482 0769 14       		.uleb128 0x14
ARM GAS  C:\Users\NICOMA~1\AppData\Local\Temp\ccG3HhJL.s 			page 27


 1483 076a 49000000 		.4byte	0x49
 1484 076e 79070000 		.4byte	0x779
 1485 0772 15       		.uleb128 0x15
 1486 0773 68040000 		.4byte	0x468
 1487 0777 0F       		.byte	0xf
 1488 0778 00       		.byte	0
 1489 0779 16       		.uleb128 0x16
 1490 077a 79000000 		.4byte	.LASF94
 1491 077e 01       		.byte	0x1
 1492 077f 63       		.byte	0x63
 1493 0780 01       		.byte	0x1
 1494 0781 30000000 		.4byte	0x30
 1495 0785 00000000 		.4byte	.LFB14
 1496 0789 08000000 		.4byte	.LFE14
 1497 078d 02       		.byte	0x2
 1498 078e 7D       		.byte	0x7d
 1499 078f 00       		.sleb128 0
 1500 0790 01       		.byte	0x1
 1501 0791 F7070000 		.4byte	0x7f7
 1502 0795 17       		.uleb128 0x17
 1503 0796 697000   		.ascii	"ip\000"
 1504 0799 01       		.byte	0x1
 1505 079a 63       		.byte	0x63
 1506 079b 95020000 		.4byte	0x295
 1507 079f 00000000 		.4byte	.LLST0
 1508 07a3 17       		.uleb128 0x17
 1509 07a4 627000   		.ascii	"bp\000"
 1510 07a7 01       		.byte	0x1
 1511 07a8 63       		.byte	0x63
 1512 07a9 1A050000 		.4byte	0x51a
 1513 07ad 2E000000 		.4byte	.LLST1
 1514 07b1 17       		.uleb128 0x17
 1515 07b2 6E00     		.ascii	"n\000"
 1516 07b4 01       		.byte	0x1
 1517 07b5 63       		.byte	0x63
 1518 07b6 30000000 		.4byte	0x30
 1519 07ba 4F000000 		.4byte	.LLST2
 1520 07be 18       		.uleb128 0x18
 1521 07bf AE020000 		.4byte	.LASF95
 1522 07c3 01       		.byte	0x1
 1523 07c4 63       		.byte	0x63
 1524 07c5 05010000 		.4byte	0x105
 1525 07c9 70000000 		.4byte	.LLST3
 1526 07cd 19       		.uleb128 0x19
 1527 07ce 08000000 		.4byte	.LVL2
 1528 07d2 01       		.byte	0x1
 1529 07d3 260D0000 		.4byte	0xd26
 1530 07d7 1A       		.uleb128 0x1a
 1531 07d8 01       		.byte	0x1
 1532 07d9 53       		.byte	0x53
 1533 07da 03       		.byte	0x3
 1534 07db F3       		.byte	0xf3
 1535 07dc 01       		.uleb128 0x1
 1536 07dd 53       		.byte	0x53
 1537 07de 1A       		.uleb128 0x1a
 1538 07df 01       		.byte	0x1
 1539 07e0 52       		.byte	0x52
ARM GAS  C:\Users\NICOMA~1\AppData\Local\Temp\ccG3HhJL.s 			page 28


 1540 07e1 03       		.byte	0x3
 1541 07e2 F3       		.byte	0xf3
 1542 07e3 01       		.uleb128 0x1
 1543 07e4 52       		.byte	0x52
 1544 07e5 1A       		.uleb128 0x1a
 1545 07e6 01       		.byte	0x1
 1546 07e7 51       		.byte	0x51
 1547 07e8 03       		.byte	0x3
 1548 07e9 F3       		.byte	0xf3
 1549 07ea 01       		.uleb128 0x1
 1550 07eb 51       		.byte	0x51
 1551 07ec 1A       		.uleb128 0x1a
 1552 07ed 01       		.byte	0x1
 1553 07ee 50       		.byte	0x50
 1554 07ef 05       		.byte	0x5
 1555 07f0 F3       		.byte	0xf3
 1556 07f1 01       		.uleb128 0x1
 1557 07f2 50       		.byte	0x50
 1558 07f3 23       		.byte	0x23
 1559 07f4 0C       		.uleb128 0xc
 1560 07f5 00       		.byte	0
 1561 07f6 00       		.byte	0
 1562 07f7 16       		.uleb128 0x16
 1563 07f8 C0030000 		.4byte	.LASF90
 1564 07fc 01       		.byte	0x1
 1565 07fd 44       		.byte	0x44
 1566 07fe 01       		.byte	0x1
 1567 07ff 30000000 		.4byte	0x30
 1568 0803 00000000 		.4byte	.LFB8
 1569 0807 0C000000 		.4byte	.LFE8
 1570 080b 02       		.byte	0x2
 1571 080c 7D       		.byte	0x7d
 1572 080d 00       		.sleb128 0
 1573 080e 01       		.byte	0x1
 1574 080f 65080000 		.4byte	0x865
 1575 0813 17       		.uleb128 0x17
 1576 0814 697000   		.ascii	"ip\000"
 1577 0817 01       		.byte	0x1
 1578 0818 44       		.byte	0x44
 1579 0819 95020000 		.4byte	0x295
 1580 081d 91000000 		.4byte	.LLST4
 1581 0821 17       		.uleb128 0x17
 1582 0822 627000   		.ascii	"bp\000"
 1583 0825 01       		.byte	0x1
 1584 0826 44       		.byte	0x44
 1585 0827 1A050000 		.4byte	0x51a
 1586 082b BF000000 		.4byte	.LLST5
 1587 082f 17       		.uleb128 0x17
 1588 0830 6E00     		.ascii	"n\000"
 1589 0832 01       		.byte	0x1
 1590 0833 44       		.byte	0x44
 1591 0834 30000000 		.4byte	0x30
 1592 0838 E0000000 		.4byte	.LLST6
 1593 083c 19       		.uleb128 0x19
 1594 083d 0C000000 		.4byte	.LVL5
 1595 0841 01       		.byte	0x1
 1596 0842 260D0000 		.4byte	0xd26
ARM GAS  C:\Users\NICOMA~1\AppData\Local\Temp\ccG3HhJL.s 			page 29


 1597 0846 1A       		.uleb128 0x1a
 1598 0847 01       		.byte	0x1
 1599 0848 53       		.byte	0x53
 1600 0849 02       		.byte	0x2
 1601 084a 09       		.byte	0x9
 1602 084b FF       		.byte	0xff
 1603 084c 1A       		.uleb128 0x1a
 1604 084d 01       		.byte	0x1
 1605 084e 52       		.byte	0x52
 1606 084f 03       		.byte	0x3
 1607 0850 F3       		.byte	0xf3
 1608 0851 01       		.uleb128 0x1
 1609 0852 52       		.byte	0x52
 1610 0853 1A       		.uleb128 0x1a
 1611 0854 01       		.byte	0x1
 1612 0855 51       		.byte	0x51
 1613 0856 03       		.byte	0x3
 1614 0857 F3       		.byte	0xf3
 1615 0858 01       		.uleb128 0x1
 1616 0859 51       		.byte	0x51
 1617 085a 1A       		.uleb128 0x1a
 1618 085b 01       		.byte	0x1
 1619 085c 50       		.byte	0x50
 1620 085d 05       		.byte	0x5
 1621 085e F3       		.byte	0xf3
 1622 085f 01       		.uleb128 0x1
 1623 0860 50       		.byte	0x50
 1624 0861 23       		.byte	0x23
 1625 0862 0C       		.uleb128 0xc
 1626 0863 00       		.byte	0
 1627 0864 00       		.byte	0
 1628 0865 16       		.uleb128 0x16
 1629 0866 1E020000 		.4byte	.LASF93
 1630 086a 01       		.byte	0x1
 1631 086b 5E       		.byte	0x5e
 1632 086c 01       		.byte	0x1
 1633 086d 30000000 		.4byte	0x30
 1634 0871 00000000 		.4byte	.LFB13
 1635 0875 08000000 		.4byte	.LFE13
 1636 0879 02       		.byte	0x2
 1637 087a 7D       		.byte	0x7d
 1638 087b 00       		.sleb128 0
 1639 087c 01       		.byte	0x1
 1640 087d E3080000 		.4byte	0x8e3
 1641 0881 17       		.uleb128 0x17
 1642 0882 697000   		.ascii	"ip\000"
 1643 0885 01       		.byte	0x1
 1644 0886 5E       		.byte	0x5e
 1645 0887 95020000 		.4byte	0x295
 1646 088b 01010000 		.4byte	.LLST7
 1647 088f 17       		.uleb128 0x17
 1648 0890 627000   		.ascii	"bp\000"
 1649 0893 01       		.byte	0x1
 1650 0894 5E       		.byte	0x5e
 1651 0895 50050000 		.4byte	0x550
 1652 0899 2F010000 		.4byte	.LLST8
 1653 089d 17       		.uleb128 0x17
ARM GAS  C:\Users\NICOMA~1\AppData\Local\Temp\ccG3HhJL.s 			page 30


 1654 089e 6E00     		.ascii	"n\000"
 1655 08a0 01       		.byte	0x1
 1656 08a1 5E       		.byte	0x5e
 1657 08a2 30000000 		.4byte	0x30
 1658 08a6 50010000 		.4byte	.LLST9
 1659 08aa 18       		.uleb128 0x18
 1660 08ab AE020000 		.4byte	.LASF95
 1661 08af 01       		.byte	0x1
 1662 08b0 5E       		.byte	0x5e
 1663 08b1 05010000 		.4byte	0x105
 1664 08b5 71010000 		.4byte	.LLST10
 1665 08b9 19       		.uleb128 0x19
 1666 08ba 08000000 		.4byte	.LVL8
 1667 08be 01       		.byte	0x1
 1668 08bf 540D0000 		.4byte	0xd54
 1669 08c3 1A       		.uleb128 0x1a
 1670 08c4 01       		.byte	0x1
 1671 08c5 53       		.byte	0x53
 1672 08c6 03       		.byte	0x3
 1673 08c7 F3       		.byte	0xf3
 1674 08c8 01       		.uleb128 0x1
 1675 08c9 53       		.byte	0x53
 1676 08ca 1A       		.uleb128 0x1a
 1677 08cb 01       		.byte	0x1
 1678 08cc 52       		.byte	0x52
 1679 08cd 03       		.byte	0x3
 1680 08ce F3       		.byte	0xf3
 1681 08cf 01       		.uleb128 0x1
 1682 08d0 52       		.byte	0x52
 1683 08d1 1A       		.uleb128 0x1a
 1684 08d2 01       		.byte	0x1
 1685 08d3 51       		.byte	0x51
 1686 08d4 03       		.byte	0x3
 1687 08d5 F3       		.byte	0xf3
 1688 08d6 01       		.uleb128 0x1
 1689 08d7 51       		.byte	0x51
 1690 08d8 1A       		.uleb128 0x1a
 1691 08d9 01       		.byte	0x1
 1692 08da 50       		.byte	0x50
 1693 08db 05       		.byte	0x5
 1694 08dc F3       		.byte	0xf3
 1695 08dd 01       		.uleb128 0x1
 1696 08de 50       		.byte	0x50
 1697 08df 23       		.byte	0x23
 1698 08e0 30       		.uleb128 0x30
 1699 08e1 00       		.byte	0
 1700 08e2 00       		.byte	0
 1701 08e3 16       		.uleb128 0x16
 1702 08e4 74020000 		.4byte	.LASF89
 1703 08e8 01       		.byte	0x1
 1704 08e9 3E       		.byte	0x3e
 1705 08ea 01       		.byte	0x1
 1706 08eb 30000000 		.4byte	0x30
 1707 08ef 00000000 		.4byte	.LFB7
 1708 08f3 0C000000 		.4byte	.LFE7
 1709 08f7 02       		.byte	0x2
 1710 08f8 7D       		.byte	0x7d
ARM GAS  C:\Users\NICOMA~1\AppData\Local\Temp\ccG3HhJL.s 			page 31


 1711 08f9 00       		.sleb128 0
 1712 08fa 01       		.byte	0x1
 1713 08fb 51090000 		.4byte	0x951
 1714 08ff 17       		.uleb128 0x17
 1715 0900 697000   		.ascii	"ip\000"
 1716 0903 01       		.byte	0x1
 1717 0904 3E       		.byte	0x3e
 1718 0905 95020000 		.4byte	0x295
 1719 0909 92010000 		.4byte	.LLST11
 1720 090d 17       		.uleb128 0x17
 1721 090e 627000   		.ascii	"bp\000"
 1722 0911 01       		.byte	0x1
 1723 0912 3E       		.byte	0x3e
 1724 0913 50050000 		.4byte	0x550
 1725 0917 C0010000 		.4byte	.LLST12
 1726 091b 17       		.uleb128 0x17
 1727 091c 6E00     		.ascii	"n\000"
 1728 091e 01       		.byte	0x1
 1729 091f 3E       		.byte	0x3e
 1730 0920 30000000 		.4byte	0x30
 1731 0924 E1010000 		.4byte	.LLST13
 1732 0928 19       		.uleb128 0x19
 1733 0929 0C000000 		.4byte	.LVL11
 1734 092d 01       		.byte	0x1
 1735 092e 540D0000 		.4byte	0xd54
 1736 0932 1A       		.uleb128 0x1a
 1737 0933 01       		.byte	0x1
 1738 0934 53       		.byte	0x53
 1739 0935 02       		.byte	0x2
 1740 0936 09       		.byte	0x9
 1741 0937 FF       		.byte	0xff
 1742 0938 1A       		.uleb128 0x1a
 1743 0939 01       		.byte	0x1
 1744 093a 52       		.byte	0x52
 1745 093b 03       		.byte	0x3
 1746 093c F3       		.byte	0xf3
 1747 093d 01       		.uleb128 0x1
 1748 093e 52       		.byte	0x52
 1749 093f 1A       		.uleb128 0x1a
 1750 0940 01       		.byte	0x1
 1751 0941 51       		.byte	0x51
 1752 0942 03       		.byte	0x3
 1753 0943 F3       		.byte	0xf3
 1754 0944 01       		.uleb128 0x1
 1755 0945 51       		.byte	0x51
 1756 0946 1A       		.uleb128 0x1a
 1757 0947 01       		.byte	0x1
 1758 0948 50       		.byte	0x50
 1759 0949 05       		.byte	0x5
 1760 094a F3       		.byte	0xf3
 1761 094b 01       		.uleb128 0x1
 1762 094c 50       		.byte	0x50
 1763 094d 23       		.byte	0x23
 1764 094e 30       		.uleb128 0x30
 1765 094f 00       		.byte	0
 1766 0950 00       		.byte	0
 1767 0951 16       		.uleb128 0x16
ARM GAS  C:\Users\NICOMA~1\AppData\Local\Temp\ccG3HhJL.s 			page 32


 1768 0952 E3010000 		.4byte	.LASF92
 1769 0956 01       		.byte	0x1
 1770 0957 59       		.byte	0x59
 1771 0958 01       		.byte	0x1
 1772 0959 E4000000 		.4byte	0xe4
 1773 095d 00000000 		.4byte	.LFB12
 1774 0961 08000000 		.4byte	.LFE12
 1775 0965 02       		.byte	0x2
 1776 0966 7D       		.byte	0x7d
 1777 0967 00       		.sleb128 0
 1778 0968 01       		.byte	0x1
 1779 0969 A6090000 		.4byte	0x9a6
 1780 096d 17       		.uleb128 0x17
 1781 096e 697000   		.ascii	"ip\000"
 1782 0971 01       		.byte	0x1
 1783 0972 59       		.byte	0x59
 1784 0973 95020000 		.4byte	0x295
 1785 0977 02020000 		.4byte	.LLST14
 1786 097b 18       		.uleb128 0x18
 1787 097c DB010000 		.4byte	.LASF96
 1788 0980 01       		.byte	0x1
 1789 0981 59       		.byte	0x59
 1790 0982 05010000 		.4byte	0x105
 1791 0986 30020000 		.4byte	.LLST15
 1792 098a 19       		.uleb128 0x19
 1793 098b 08000000 		.4byte	.LVL14
 1794 098f 01       		.byte	0x1
 1795 0990 820D0000 		.4byte	0xd82
 1796 0994 1A       		.uleb128 0x1a
 1797 0995 01       		.byte	0x1
 1798 0996 51       		.byte	0x51
 1799 0997 03       		.byte	0x3
 1800 0998 F3       		.byte	0xf3
 1801 0999 01       		.uleb128 0x1
 1802 099a 51       		.byte	0x51
 1803 099b 1A       		.uleb128 0x1a
 1804 099c 01       		.byte	0x1
 1805 099d 50       		.byte	0x50
 1806 099e 05       		.byte	0x5
 1807 099f F3       		.byte	0xf3
 1808 09a0 01       		.uleb128 0x1
 1809 09a1 50       		.byte	0x50
 1810 09a2 23       		.byte	0x23
 1811 09a3 0C       		.uleb128 0xc
 1812 09a4 00       		.byte	0
 1813 09a5 00       		.byte	0
 1814 09a6 1B       		.uleb128 0x1b
 1815 09a7 67657400 		.ascii	"get\000"
 1816 09ab 01       		.byte	0x1
 1817 09ac 4F       		.byte	0x4f
 1818 09ad 01       		.byte	0x1
 1819 09ae E4000000 		.4byte	0xe4
 1820 09b2 00000000 		.4byte	.LFB10
 1821 09b6 0C000000 		.4byte	.LFE10
 1822 09ba 02       		.byte	0x2
 1823 09bb 7D       		.byte	0x7d
 1824 09bc 00       		.sleb128 0
ARM GAS  C:\Users\NICOMA~1\AppData\Local\Temp\ccG3HhJL.s 			page 33


 1825 09bd 01       		.byte	0x1
 1826 09be EB090000 		.4byte	0x9eb
 1827 09c2 17       		.uleb128 0x17
 1828 09c3 697000   		.ascii	"ip\000"
 1829 09c6 01       		.byte	0x1
 1830 09c7 4F       		.byte	0x4f
 1831 09c8 95020000 		.4byte	0x295
 1832 09cc 51020000 		.4byte	.LLST16
 1833 09d0 19       		.uleb128 0x19
 1834 09d1 0C000000 		.4byte	.LVL17
 1835 09d5 01       		.byte	0x1
 1836 09d6 820D0000 		.4byte	0xd82
 1837 09da 1A       		.uleb128 0x1a
 1838 09db 01       		.byte	0x1
 1839 09dc 51       		.byte	0x51
 1840 09dd 02       		.byte	0x2
 1841 09de 09       		.byte	0x9
 1842 09df FF       		.byte	0xff
 1843 09e0 1A       		.uleb128 0x1a
 1844 09e1 01       		.byte	0x1
 1845 09e2 50       		.byte	0x50
 1846 09e3 05       		.byte	0x5
 1847 09e4 F3       		.byte	0xf3
 1848 09e5 01       		.uleb128 0x1
 1849 09e6 50       		.byte	0x50
 1850 09e7 23       		.byte	0x23
 1851 09e8 0C       		.uleb128 0xc
 1852 09e9 00       		.byte	0
 1853 09ea 00       		.byte	0
 1854 09eb 16       		.uleb128 0x16
 1855 09ec 7A020000 		.4byte	.LASF91
 1856 09f0 01       		.byte	0x1
 1857 09f1 54       		.byte	0x54
 1858 09f2 01       		.byte	0x1
 1859 09f3 E4000000 		.4byte	0xe4
 1860 09f7 00000000 		.4byte	.LFB11
 1861 09fb 08000000 		.4byte	.LFE11
 1862 09ff 02       		.byte	0x2
 1863 0a00 7D       		.byte	0x7d
 1864 0a01 00       		.sleb128 0
 1865 0a02 01       		.byte	0x1
 1866 0a03 4D0A0000 		.4byte	0xa4d
 1867 0a07 17       		.uleb128 0x17
 1868 0a08 697000   		.ascii	"ip\000"
 1869 0a0b 01       		.byte	0x1
 1870 0a0c 54       		.byte	0x54
 1871 0a0d 95020000 		.4byte	0x295
 1872 0a11 7F020000 		.4byte	.LLST17
 1873 0a15 17       		.uleb128 0x17
 1874 0a16 6200     		.ascii	"b\000"
 1875 0a18 01       		.byte	0x1
 1876 0a19 54       		.byte	0x54
 1877 0a1a 49000000 		.4byte	0x49
 1878 0a1e AD020000 		.4byte	.LLST18
 1879 0a22 18       		.uleb128 0x18
 1880 0a23 DB010000 		.4byte	.LASF96
 1881 0a27 01       		.byte	0x1
ARM GAS  C:\Users\NICOMA~1\AppData\Local\Temp\ccG3HhJL.s 			page 34


 1882 0a28 54       		.byte	0x54
 1883 0a29 05010000 		.4byte	0x105
 1884 0a2d CE020000 		.4byte	.LLST19
 1885 0a31 19       		.uleb128 0x19
 1886 0a32 08000000 		.4byte	.LVL20
 1887 0a36 01       		.byte	0x1
 1888 0a37 A00D0000 		.4byte	0xda0
 1889 0a3b 1A       		.uleb128 0x1a
 1890 0a3c 01       		.byte	0x1
 1891 0a3d 52       		.byte	0x52
 1892 0a3e 03       		.byte	0x3
 1893 0a3f F3       		.byte	0xf3
 1894 0a40 01       		.uleb128 0x1
 1895 0a41 52       		.byte	0x52
 1896 0a42 1A       		.uleb128 0x1a
 1897 0a43 01       		.byte	0x1
 1898 0a44 50       		.byte	0x50
 1899 0a45 05       		.byte	0x5
 1900 0a46 F3       		.byte	0xf3
 1901 0a47 01       		.uleb128 0x1
 1902 0a48 50       		.byte	0x50
 1903 0a49 23       		.byte	0x23
 1904 0a4a 30       		.uleb128 0x30
 1905 0a4b 00       		.byte	0
 1906 0a4c 00       		.byte	0
 1907 0a4d 1B       		.uleb128 0x1b
 1908 0a4e 70757400 		.ascii	"put\000"
 1909 0a52 01       		.byte	0x1
 1910 0a53 4A       		.byte	0x4a
 1911 0a54 01       		.byte	0x1
 1912 0a55 E4000000 		.4byte	0xe4
 1913 0a59 00000000 		.4byte	.LFB9
 1914 0a5d 0C000000 		.4byte	.LFE9
 1915 0a61 02       		.byte	0x2
 1916 0a62 7D       		.byte	0x7d
 1917 0a63 00       		.sleb128 0
 1918 0a64 01       		.byte	0x1
 1919 0a65 9F0A0000 		.4byte	0xa9f
 1920 0a69 17       		.uleb128 0x17
 1921 0a6a 697000   		.ascii	"ip\000"
 1922 0a6d 01       		.byte	0x1
 1923 0a6e 4A       		.byte	0x4a
 1924 0a6f 95020000 		.4byte	0x295
 1925 0a73 EF020000 		.4byte	.LLST20
 1926 0a77 17       		.uleb128 0x17
 1927 0a78 6200     		.ascii	"b\000"
 1928 0a7a 01       		.byte	0x1
 1929 0a7b 4A       		.byte	0x4a
 1930 0a7c 49000000 		.4byte	0x49
 1931 0a80 1D030000 		.4byte	.LLST21
 1932 0a84 19       		.uleb128 0x19
 1933 0a85 0C000000 		.4byte	.LVL23
 1934 0a89 01       		.byte	0x1
 1935 0a8a A00D0000 		.4byte	0xda0
 1936 0a8e 1A       		.uleb128 0x1a
 1937 0a8f 01       		.byte	0x1
 1938 0a90 52       		.byte	0x52
ARM GAS  C:\Users\NICOMA~1\AppData\Local\Temp\ccG3HhJL.s 			page 35


 1939 0a91 02       		.byte	0x2
 1940 0a92 09       		.byte	0x9
 1941 0a93 FF       		.byte	0xff
 1942 0a94 1A       		.uleb128 0x1a
 1943 0a95 01       		.byte	0x1
 1944 0a96 50       		.byte	0x50
 1945 0a97 05       		.byte	0x5
 1946 0a98 F3       		.byte	0xf3
 1947 0a99 01       		.uleb128 0x1
 1948 0a9a 50       		.byte	0x50
 1949 0a9b 23       		.byte	0x23
 1950 0a9c 30       		.uleb128 0x30
 1951 0a9d 00       		.byte	0
 1952 0a9e 00       		.byte	0
 1953 0a9f 1C       		.uleb128 0x1c
 1954 0aa0 01       		.byte	0x1
 1955 0aa1 BD040000 		.4byte	.LASF97
 1956 0aa5 01       		.byte	0x1
 1957 0aa6 78       		.byte	0x78
 1958 0aa7 01       		.byte	0x1
 1959 0aa8 00000000 		.4byte	.LFB15
 1960 0aac 04000000 		.4byte	.LFE15
 1961 0ab0 02       		.byte	0x2
 1962 0ab1 7D       		.byte	0x7d
 1963 0ab2 00       		.sleb128 0
 1964 0ab3 01       		.byte	0x1
 1965 0ab4 C30A0000 		.4byte	0xac3
 1966 0ab8 1D       		.uleb128 0x1d
 1967 0ab9 04000000 		.4byte	.LVL24
 1968 0abd 01       		.byte	0x1
 1969 0abe C30D0000 		.4byte	0xdc3
 1970 0ac2 00       		.byte	0
 1971 0ac3 1E       		.uleb128 0x1e
 1972 0ac4 01       		.byte	0x1
 1973 0ac5 61030000 		.4byte	.LASF98
 1974 0ac9 01       		.byte	0x1
 1975 0aca 8C       		.byte	0x8c
 1976 0acb 01       		.byte	0x1
 1977 0acc 00000000 		.4byte	.LFB16
 1978 0ad0 64000000 		.4byte	.LFE16
 1979 0ad4 3E030000 		.4byte	.LLST22
 1980 0ad8 01       		.byte	0x1
 1981 0ad9 620B0000 		.4byte	0xb62
 1982 0add 17       		.uleb128 0x17
 1983 0ade 73647000 		.ascii	"sdp\000"
 1984 0ae2 01       		.byte	0x1
 1985 0ae3 8C       		.byte	0x8c
 1986 0ae4 620B0000 		.4byte	0xb62
 1987 0ae8 6A030000 		.4byte	.LLST23
 1988 0aec 18       		.uleb128 0x18
 1989 0aed BA010000 		.4byte	.LASF99
 1990 0af1 01       		.byte	0x1
 1991 0af2 8C       		.byte	0x8c
 1992 0af3 F7040000 		.4byte	0x4f7
 1993 0af7 88030000 		.4byte	.LLST24
 1994 0afb 18       		.uleb128 0x18
 1995 0afc 85040000 		.4byte	.LASF100
ARM GAS  C:\Users\NICOMA~1\AppData\Local\Temp\ccG3HhJL.s 			page 36


 1996 0b00 01       		.byte	0x1
 1997 0b01 8C       		.byte	0x8c
 1998 0b02 F7040000 		.4byte	0x4f7
 1999 0b06 B4030000 		.4byte	.LLST25
 2000 0b0a 1F       		.uleb128 0x1f
 2001 0b0b 40000000 		.4byte	.LVL29
 2002 0b0f CD0D0000 		.4byte	0xdcd
 2003 0b13 380B0000 		.4byte	0xb38
 2004 0b17 1A       		.uleb128 0x1a
 2005 0b18 01       		.byte	0x1
 2006 0b19 53       		.byte	0x53
 2007 0b1a 03       		.byte	0x3
 2008 0b1b F3       		.byte	0xf3
 2009 0b1c 01       		.uleb128 0x1
 2010 0b1d 51       		.byte	0x51
 2011 0b1e 1A       		.uleb128 0x1a
 2012 0b1f 01       		.byte	0x1
 2013 0b20 52       		.byte	0x52
 2014 0b21 01       		.byte	0x1
 2015 0b22 40       		.byte	0x40
 2016 0b23 1A       		.uleb128 0x1a
 2017 0b24 01       		.byte	0x1
 2018 0b25 51       		.byte	0x51
 2019 0b26 03       		.byte	0x3
 2020 0b27 74       		.byte	0x74
 2021 0b28 D400     		.sleb128 84
 2022 0b2a 1A       		.uleb128 0x1a
 2023 0b2b 01       		.byte	0x1
 2024 0b2c 50       		.byte	0x50
 2025 0b2d 02       		.byte	0x2
 2026 0b2e 74       		.byte	0x74
 2027 0b2f 0C       		.sleb128 12
 2028 0b30 1A       		.uleb128 0x1a
 2029 0b31 02       		.byte	0x2
 2030 0b32 7D       		.byte	0x7d
 2031 0b33 00       		.sleb128 0
 2032 0b34 02       		.byte	0x2
 2033 0b35 74       		.byte	0x74
 2034 0b36 00       		.sleb128 0
 2035 0b37 00       		.byte	0
 2036 0b38 20       		.uleb128 0x20
 2037 0b39 58000000 		.4byte	.LVL30
 2038 0b3d F60D0000 		.4byte	0xdf6
 2039 0b41 1A       		.uleb128 0x1a
 2040 0b42 01       		.byte	0x1
 2041 0b43 53       		.byte	0x53
 2042 0b44 02       		.byte	0x2
 2043 0b45 75       		.byte	0x75
 2044 0b46 00       		.sleb128 0
 2045 0b47 1A       		.uleb128 0x1a
 2046 0b48 01       		.byte	0x1
 2047 0b49 52       		.byte	0x52
 2048 0b4a 01       		.byte	0x1
 2049 0b4b 40       		.byte	0x40
 2050 0b4c 1A       		.uleb128 0x1a
 2051 0b4d 01       		.byte	0x1
 2052 0b4e 51       		.byte	0x51
ARM GAS  C:\Users\NICOMA~1\AppData\Local\Temp\ccG3HhJL.s 			page 37


 2053 0b4f 03       		.byte	0x3
 2054 0b50 74       		.byte	0x74
 2055 0b51 E400     		.sleb128 100
 2056 0b53 1A       		.uleb128 0x1a
 2057 0b54 01       		.byte	0x1
 2058 0b55 50       		.byte	0x50
 2059 0b56 02       		.byte	0x2
 2060 0b57 74       		.byte	0x74
 2061 0b58 30       		.sleb128 48
 2062 0b59 1A       		.uleb128 0x1a
 2063 0b5a 02       		.byte	0x2
 2064 0b5b 7D       		.byte	0x7d
 2065 0b5c 00       		.sleb128 0
 2066 0b5d 02       		.byte	0x2
 2067 0b5e 74       		.byte	0x74
 2068 0b5f 00       		.sleb128 0
 2069 0b60 00       		.byte	0
 2070 0b61 00       		.byte	0
 2071 0b62 09       		.uleb128 0x9
 2072 0b63 04       		.byte	0x4
 2073 0b64 47060000 		.4byte	0x647
 2074 0b68 1E       		.uleb128 0x1e
 2075 0b69 01       		.byte	0x1
 2076 0b6a E1030000 		.4byte	.LASF101
 2077 0b6e 01       		.byte	0x1
 2078 0b6f 9F       		.byte	0x9f
 2079 0b70 01       		.byte	0x1
 2080 0b71 00000000 		.4byte	.LFB17
 2081 0b75 20000000 		.4byte	.LFE17
 2082 0b79 D2030000 		.4byte	.LLST26
 2083 0b7d 01       		.byte	0x1
 2084 0b7e B80B0000 		.4byte	0xbb8
 2085 0b82 17       		.uleb128 0x17
 2086 0b83 73647000 		.ascii	"sdp\000"
 2087 0b87 01       		.byte	0x1
 2088 0b88 9F       		.byte	0x9f
 2089 0b89 620B0000 		.4byte	0xb62
 2090 0b8d F2030000 		.4byte	.LLST27
 2091 0b91 18       		.uleb128 0x18
 2092 0b92 DA030000 		.4byte	.LASF102
 2093 0b96 01       		.byte	0x1
 2094 0b97 9F       		.byte	0x9f
 2095 0b98 B80B0000 		.4byte	0xbb8
 2096 0b9c 10040000 		.4byte	.LLST28
 2097 0ba0 20       		.uleb128 0x20
 2098 0ba1 10000000 		.4byte	.LVL32
 2099 0ba5 1F0E0000 		.4byte	0xe1f
 2100 0ba9 1A       		.uleb128 0x1a
 2101 0baa 01       		.byte	0x1
 2102 0bab 51       		.byte	0x51
 2103 0bac 03       		.byte	0x3
 2104 0bad F3       		.byte	0xf3
 2105 0bae 01       		.uleb128 0x1
 2106 0baf 51       		.byte	0x51
 2107 0bb0 1A       		.uleb128 0x1a
 2108 0bb1 01       		.byte	0x1
 2109 0bb2 50       		.byte	0x50
ARM GAS  C:\Users\NICOMA~1\AppData\Local\Temp\ccG3HhJL.s 			page 38


 2110 0bb3 02       		.byte	0x2
 2111 0bb4 74       		.byte	0x74
 2112 0bb5 00       		.sleb128 0
 2113 0bb6 00       		.byte	0
 2114 0bb7 00       		.byte	0
 2115 0bb8 09       		.uleb128 0x9
 2116 0bb9 04       		.byte	0x4
 2117 0bba BE0B0000 		.4byte	0xbbe
 2118 0bbe 0E       		.uleb128 0xe
 2119 0bbf D6060000 		.4byte	0x6d6
 2120 0bc3 1E       		.uleb128 0x1e
 2121 0bc4 01       		.byte	0x1
 2122 0bc5 A7020000 		.4byte	.LASF103
 2123 0bc9 01       		.byte	0x1
 2124 0bca B5       		.byte	0xb5
 2125 0bcb 01       		.byte	0x1
 2126 0bcc 00000000 		.4byte	.LFB18
 2127 0bd0 34000000 		.4byte	.LFE18
 2128 0bd4 31040000 		.4byte	.LLST29
 2129 0bd8 01       		.byte	0x1
 2130 0bd9 320C0000 		.4byte	0xc32
 2131 0bdd 17       		.uleb128 0x17
 2132 0bde 73647000 		.ascii	"sdp\000"
 2133 0be2 01       		.byte	0x1
 2134 0be3 B5       		.byte	0xb5
 2135 0be4 620B0000 		.4byte	0xb62
 2136 0be8 51040000 		.4byte	.LLST30
 2137 0bec 1F       		.uleb128 0x1f
 2138 0bed 10000000 		.4byte	.LVL34
 2139 0bf1 380E0000 		.4byte	0xe38
 2140 0bf5 000C0000 		.4byte	0xc00
 2141 0bf9 1A       		.uleb128 0x1a
 2142 0bfa 01       		.byte	0x1
 2143 0bfb 50       		.byte	0x50
 2144 0bfc 02       		.byte	0x2
 2145 0bfd 74       		.byte	0x74
 2146 0bfe 00       		.sleb128 0
 2147 0bff 00       		.byte	0
 2148 0c00 1F       		.uleb128 0x1f
 2149 0c01 20000000 		.4byte	.LVL35
 2150 0c05 4C0E0000 		.4byte	0xe4c
 2151 0c09 140C0000 		.4byte	0xc14
 2152 0c0d 1A       		.uleb128 0x1a
 2153 0c0e 01       		.byte	0x1
 2154 0c0f 50       		.byte	0x50
 2155 0c10 02       		.byte	0x2
 2156 0c11 74       		.byte	0x74
 2157 0c12 30       		.sleb128 48
 2158 0c13 00       		.byte	0
 2159 0c14 1F       		.uleb128 0x1f
 2160 0c15 28000000 		.4byte	.LVL36
 2161 0c19 610E0000 		.4byte	0xe61
 2162 0c1d 280C0000 		.4byte	0xc28
 2163 0c21 1A       		.uleb128 0x1a
 2164 0c22 01       		.byte	0x1
 2165 0c23 50       		.byte	0x50
 2166 0c24 02       		.byte	0x2
ARM GAS  C:\Users\NICOMA~1\AppData\Local\Temp\ccG3HhJL.s 			page 39


 2167 0c25 74       		.byte	0x74
 2168 0c26 0C       		.sleb128 12
 2169 0c27 00       		.byte	0
 2170 0c28 21       		.uleb128 0x21
 2171 0c29 2C000000 		.4byte	.LVL37
 2172 0c2d 760E0000 		.4byte	0xe76
 2173 0c31 00       		.byte	0
 2174 0c32 1E       		.uleb128 0x1e
 2175 0c33 01       		.byte	0x1
 2176 0c34 CA030000 		.4byte	.LASF104
 2177 0c38 01       		.byte	0x1
 2178 0c39 D5       		.byte	0xd5
 2179 0c3a 01       		.byte	0x1
 2180 0c3b 00000000 		.4byte	.LFB19
 2181 0c3f 4C000000 		.4byte	.LFE19
 2182 0c43 6F040000 		.4byte	.LLST31
 2183 0c47 01       		.byte	0x1
 2184 0c48 B30C0000 		.4byte	0xcb3
 2185 0c4c 17       		.uleb128 0x17
 2186 0c4d 73647000 		.ascii	"sdp\000"
 2187 0c51 01       		.byte	0x1
 2188 0c52 D5       		.byte	0xd5
 2189 0c53 620B0000 		.4byte	0xb62
 2190 0c57 8F040000 		.4byte	.LLST32
 2191 0c5b 17       		.uleb128 0x17
 2192 0c5c 6200     		.ascii	"b\000"
 2193 0c5e 01       		.byte	0x1
 2194 0c5f D5       		.byte	0xd5
 2195 0c60 49000000 		.4byte	0x49
 2196 0c64 C3040000 		.4byte	.LLST33
 2197 0c68 1F       		.uleb128 0x1f
 2198 0c69 24000000 		.4byte	.LVL40
 2199 0c6d 800E0000 		.4byte	0xe80
 2200 0c71 820C0000 		.4byte	0xc82
 2201 0c75 1A       		.uleb128 0x1a
 2202 0c76 01       		.byte	0x1
 2203 0c77 51       		.byte	0x51
 2204 0c78 02       		.byte	0x2
 2205 0c79 75       		.byte	0x75
 2206 0c7a 00       		.sleb128 0
 2207 0c7b 1A       		.uleb128 0x1a
 2208 0c7c 01       		.byte	0x1
 2209 0c7d 50       		.byte	0x50
 2210 0c7e 02       		.byte	0x2
 2211 0c7f 74       		.byte	0x74
 2212 0c80 0C       		.sleb128 12
 2213 0c81 00       		.byte	0
 2214 0c82 22       		.uleb128 0x22
 2215 0c83 3C000000 		.4byte	.LVL41
 2216 0c87 01       		.byte	0x1
 2217 0c88 9E0E0000 		.4byte	0xe9e
 2218 0c8c 9D0C0000 		.4byte	0xc9d
 2219 0c90 1A       		.uleb128 0x1a
 2220 0c91 01       		.byte	0x1
 2221 0c92 51       		.byte	0x51
 2222 0c93 02       		.byte	0x2
 2223 0c94 08       		.byte	0x8
ARM GAS  C:\Users\NICOMA~1\AppData\Local\Temp\ccG3HhJL.s 			page 40


 2224 0c95 80       		.byte	0x80
 2225 0c96 1A       		.uleb128 0x1a
 2226 0c97 01       		.byte	0x1
 2227 0c98 50       		.byte	0x50
 2228 0c99 02       		.byte	0x2
 2229 0c9a 74       		.byte	0x74
 2230 0c9b 04       		.sleb128 4
 2231 0c9c 00       		.byte	0
 2232 0c9d 20       		.uleb128 0x20
 2233 0c9e 48000000 		.4byte	.LVL44
 2234 0ca2 9E0E0000 		.4byte	0xe9e
 2235 0ca6 1A       		.uleb128 0x1a
 2236 0ca7 01       		.byte	0x1
 2237 0ca8 51       		.byte	0x51
 2238 0ca9 01       		.byte	0x1
 2239 0caa 34       		.byte	0x34
 2240 0cab 1A       		.uleb128 0x1a
 2241 0cac 01       		.byte	0x1
 2242 0cad 50       		.byte	0x50
 2243 0cae 02       		.byte	0x2
 2244 0caf 74       		.byte	0x74
 2245 0cb0 04       		.sleb128 4
 2246 0cb1 00       		.byte	0
 2247 0cb2 00       		.byte	0
 2248 0cb3 23       		.uleb128 0x23
 2249 0cb4 01       		.byte	0x1
 2250 0cb5 54040000 		.4byte	.LASF123
 2251 0cb9 01       		.byte	0x1
 2252 0cba EF       		.byte	0xef
 2253 0cbb 01       		.byte	0x1
 2254 0cbc E4000000 		.4byte	0xe4
 2255 0cc0 00000000 		.4byte	.LFB20
 2256 0cc4 34000000 		.4byte	.LFE20
 2257 0cc8 FD040000 		.4byte	.LLST34
 2258 0ccc 01       		.byte	0x1
 2259 0ccd 150D0000 		.4byte	0xd15
 2260 0cd1 17       		.uleb128 0x17
 2261 0cd2 73647000 		.ascii	"sdp\000"
 2262 0cd6 01       		.byte	0x1
 2263 0cd7 EF       		.byte	0xef
 2264 0cd8 620B0000 		.4byte	0xb62
 2265 0cdc 1D050000 		.4byte	.LLST35
 2266 0ce0 24       		.uleb128 0x24
 2267 0ce1 6200     		.ascii	"b\000"
 2268 0ce3 01       		.byte	0x1
 2269 0ce4 F0       		.byte	0xf0
 2270 0ce5 E4000000 		.4byte	0xe4
 2271 0ce9 01       		.byte	0x1
 2272 0cea 50       		.byte	0x50
 2273 0ceb 1F       		.uleb128 0x1f
 2274 0cec 10000000 		.4byte	.LVL47
 2275 0cf0 BD0E0000 		.4byte	0xebd
 2276 0cf4 FF0C0000 		.4byte	0xcff
 2277 0cf8 1A       		.uleb128 0x1a
 2278 0cf9 01       		.byte	0x1
 2279 0cfa 50       		.byte	0x50
 2280 0cfb 02       		.byte	0x2
ARM GAS  C:\Users\NICOMA~1\AppData\Local\Temp\ccG3HhJL.s 			page 41


 2281 0cfc 74       		.byte	0x74
 2282 0cfd 30       		.sleb128 48
 2283 0cfe 00       		.byte	0
 2284 0cff 20       		.uleb128 0x20
 2285 0d00 2C000000 		.4byte	.LVL48
 2286 0d04 9E0E0000 		.4byte	0xe9e
 2287 0d08 1A       		.uleb128 0x1a
 2288 0d09 01       		.byte	0x1
 2289 0d0a 51       		.byte	0x51
 2290 0d0b 01       		.byte	0x1
 2291 0d0c 38       		.byte	0x38
 2292 0d0d 1A       		.uleb128 0x1a
 2293 0d0e 01       		.byte	0x1
 2294 0d0f 50       		.byte	0x50
 2295 0d10 02       		.byte	0x2
 2296 0d11 74       		.byte	0x74
 2297 0d12 04       		.sleb128 4
 2298 0d13 00       		.byte	0
 2299 0d14 00       		.byte	0
 2300 0d15 24       		.uleb128 0x24
 2301 0d16 766D7400 		.ascii	"vmt\000"
 2302 0d1a 01       		.byte	0x1
 2303 0d1b 68       		.byte	0x68
 2304 0d1c 64070000 		.4byte	0x764
 2305 0d20 05       		.byte	0x5
 2306 0d21 03       		.byte	0x3
 2307 0d22 00000000 		.4byte	vmt
 2308 0d26 25       		.uleb128 0x25
 2309 0d27 01       		.byte	0x1
 2310 0d28 38000000 		.4byte	.LASF105
 2311 0d2c 0A       		.byte	0xa
 2312 0d2d 6701     		.2byte	0x167
 2313 0d2f 01       		.byte	0x1
 2314 0d30 30000000 		.4byte	0x30
 2315 0d34 01       		.byte	0x1
 2316 0d35 4E0D0000 		.4byte	0xd4e
 2317 0d39 10       		.uleb128 0x10
 2318 0d3a 4E0D0000 		.4byte	0xd4e
 2319 0d3e 10       		.uleb128 0x10
 2320 0d3f 1A050000 		.4byte	0x51a
 2321 0d43 10       		.uleb128 0x10
 2322 0d44 30000000 		.4byte	0x30
 2323 0d48 10       		.uleb128 0x10
 2324 0d49 05010000 		.4byte	0x105
 2325 0d4d 00       		.byte	0
 2326 0d4e 09       		.uleb128 0x9
 2327 0d4f 04       		.byte	0x4
 2328 0d50 20050000 		.4byte	0x520
 2329 0d54 25       		.uleb128 0x25
 2330 0d55 01       		.byte	0x1
 2331 0d56 63020000 		.4byte	.LASF106
 2332 0d5a 0A       		.byte	0xa
 2333 0d5b 6F01     		.2byte	0x16f
 2334 0d5d 01       		.byte	0x1
 2335 0d5e 30000000 		.4byte	0x30
 2336 0d62 01       		.byte	0x1
 2337 0d63 7C0D0000 		.4byte	0xd7c
ARM GAS  C:\Users\NICOMA~1\AppData\Local\Temp\ccG3HhJL.s 			page 42


 2338 0d67 10       		.uleb128 0x10
 2339 0d68 7C0D0000 		.4byte	0xd7c
 2340 0d6c 10       		.uleb128 0x10
 2341 0d6d 50050000 		.4byte	0x550
 2342 0d71 10       		.uleb128 0x10
 2343 0d72 30000000 		.4byte	0x30
 2344 0d76 10       		.uleb128 0x10
 2345 0d77 05010000 		.4byte	0x105
 2346 0d7b 00       		.byte	0
 2347 0d7c 09       		.uleb128 0x9
 2348 0d7d 04       		.byte	0x4
 2349 0d7e 2B050000 		.4byte	0x52b
 2350 0d82 25       		.uleb128 0x25
 2351 0d83 01       		.byte	0x1
 2352 0d84 E3040000 		.4byte	.LASF107
 2353 0d88 0A       		.byte	0xa
 2354 0d89 6601     		.2byte	0x166
 2355 0d8b 01       		.byte	0x1
 2356 0d8c E4000000 		.4byte	0xe4
 2357 0d90 01       		.byte	0x1
 2358 0d91 A00D0000 		.4byte	0xda0
 2359 0d95 10       		.uleb128 0x10
 2360 0d96 4E0D0000 		.4byte	0xd4e
 2361 0d9a 10       		.uleb128 0x10
 2362 0d9b 05010000 		.4byte	0x105
 2363 0d9f 00       		.byte	0
 2364 0da0 25       		.uleb128 0x25
 2365 0da1 01       		.byte	0x1
 2366 0da2 00000000 		.4byte	.LASF108
 2367 0da6 0A       		.byte	0xa
 2368 0da7 6D01     		.2byte	0x16d
 2369 0da9 01       		.byte	0x1
 2370 0daa E4000000 		.4byte	0xe4
 2371 0dae 01       		.byte	0x1
 2372 0daf C30D0000 		.4byte	0xdc3
 2373 0db3 10       		.uleb128 0x10
 2374 0db4 7C0D0000 		.4byte	0xd7c
 2375 0db8 10       		.uleb128 0x10
 2376 0db9 49000000 		.4byte	0x49
 2377 0dbd 10       		.uleb128 0x10
 2378 0dbe 05010000 		.4byte	0x105
 2379 0dc2 00       		.byte	0
 2380 0dc3 26       		.uleb128 0x26
 2381 0dc4 01       		.byte	0x1
 2382 0dc5 EE000000 		.4byte	.LASF115
 2383 0dc9 0C       		.byte	0xc
 2384 0dca 67       		.byte	0x67
 2385 0dcb 01       		.byte	0x1
 2386 0dcc 01       		.byte	0x1
 2387 0dcd 27       		.uleb128 0x27
 2388 0dce 01       		.byte	0x1
 2389 0dcf 23000000 		.4byte	.LASF109
 2390 0dd3 0A       		.byte	0xa
 2391 0dd4 6201     		.2byte	0x162
 2392 0dd6 01       		.byte	0x1
 2393 0dd7 01       		.byte	0x1
 2394 0dd8 F60D0000 		.4byte	0xdf6
ARM GAS  C:\Users\NICOMA~1\AppData\Local\Temp\ccG3HhJL.s 			page 43


 2395 0ddc 10       		.uleb128 0x10
 2396 0ddd 4E0D0000 		.4byte	0xd4e
 2397 0de1 10       		.uleb128 0x10
 2398 0de2 1A050000 		.4byte	0x51a
 2399 0de6 10       		.uleb128 0x10
 2400 0de7 30000000 		.4byte	0x30
 2401 0deb 10       		.uleb128 0x10
 2402 0dec F7040000 		.4byte	0x4f7
 2403 0df0 10       		.uleb128 0x10
 2404 0df1 95020000 		.4byte	0x295
 2405 0df5 00       		.byte	0
 2406 0df6 27       		.uleb128 0x27
 2407 0df7 01       		.byte	0x1
 2408 0df8 CA000000 		.4byte	.LASF110
 2409 0dfc 0A       		.byte	0xa
 2410 0dfd 6A01     		.2byte	0x16a
 2411 0dff 01       		.byte	0x1
 2412 0e00 01       		.byte	0x1
 2413 0e01 1F0E0000 		.4byte	0xe1f
 2414 0e05 10       		.uleb128 0x10
 2415 0e06 7C0D0000 		.4byte	0xd7c
 2416 0e0a 10       		.uleb128 0x10
 2417 0e0b 1A050000 		.4byte	0x51a
 2418 0e0f 10       		.uleb128 0x10
 2419 0e10 30000000 		.4byte	0x30
 2420 0e14 10       		.uleb128 0x10
 2421 0e15 F7040000 		.4byte	0x4f7
 2422 0e19 10       		.uleb128 0x10
 2423 0e1a 95020000 		.4byte	0x295
 2424 0e1e 00       		.byte	0
 2425 0e1f 28       		.uleb128 0x28
 2426 0e20 01       		.byte	0x1
 2427 0e21 19030000 		.4byte	.LASF111
 2428 0e25 0C       		.byte	0xc
 2429 0e26 68       		.byte	0x68
 2430 0e27 01       		.byte	0x1
 2431 0e28 01       		.byte	0x1
 2432 0e29 380E0000 		.4byte	0xe38
 2433 0e2d 10       		.uleb128 0x10
 2434 0e2e 620B0000 		.4byte	0xb62
 2435 0e32 10       		.uleb128 0x10
 2436 0e33 B80B0000 		.4byte	0xbb8
 2437 0e37 00       		.byte	0
 2438 0e38 28       		.uleb128 0x28
 2439 0e39 01       		.byte	0x1
 2440 0e3a B1040000 		.4byte	.LASF112
 2441 0e3e 0C       		.byte	0xc
 2442 0e3f 69       		.byte	0x69
 2443 0e40 01       		.byte	0x1
 2444 0e41 01       		.byte	0x1
 2445 0e42 4C0E0000 		.4byte	0xe4c
 2446 0e46 10       		.uleb128 0x10
 2447 0e47 620B0000 		.4byte	0xb62
 2448 0e4b 00       		.byte	0
 2449 0e4c 27       		.uleb128 0x27
 2450 0e4d 01       		.byte	0x1
 2451 0e4e 05040000 		.4byte	.LASF113
ARM GAS  C:\Users\NICOMA~1\AppData\Local\Temp\ccG3HhJL.s 			page 44


 2452 0e52 0A       		.byte	0xa
 2453 0e53 6C01     		.2byte	0x16c
 2454 0e55 01       		.byte	0x1
 2455 0e56 01       		.byte	0x1
 2456 0e57 610E0000 		.4byte	0xe61
 2457 0e5b 10       		.uleb128 0x10
 2458 0e5c 7C0D0000 		.4byte	0xd7c
 2459 0e60 00       		.byte	0
 2460 0e61 27       		.uleb128 0x27
 2461 0e62 01       		.byte	0x1
 2462 0e63 AF010000 		.4byte	.LASF114
 2463 0e67 0A       		.byte	0xa
 2464 0e68 6401     		.2byte	0x164
 2465 0e6a 01       		.byte	0x1
 2466 0e6b 01       		.byte	0x1
 2467 0e6c 760E0000 		.4byte	0xe76
 2468 0e70 10       		.uleb128 0x10
 2469 0e71 4E0D0000 		.4byte	0xd4e
 2470 0e75 00       		.byte	0
 2471 0e76 26       		.uleb128 0x26
 2472 0e77 01       		.byte	0x1
 2473 0e78 63010000 		.4byte	.LASF116
 2474 0e7c 0D       		.byte	0xd
 2475 0e7d 9C       		.byte	0x9c
 2476 0e7e 01       		.byte	0x1
 2477 0e7f 01       		.byte	0x1
 2478 0e80 25       		.uleb128 0x25
 2479 0e81 01       		.byte	0x1
 2480 0e82 7D010000 		.4byte	.LASF117
 2481 0e86 0A       		.byte	0xa
 2482 0e87 6501     		.2byte	0x165
 2483 0e89 01       		.byte	0x1
 2484 0e8a E4000000 		.4byte	0xe4
 2485 0e8e 01       		.byte	0x1
 2486 0e8f 9E0E0000 		.4byte	0xe9e
 2487 0e93 10       		.uleb128 0x10
 2488 0e94 4E0D0000 		.4byte	0xd4e
 2489 0e98 10       		.uleb128 0x10
 2490 0e99 49000000 		.4byte	0x49
 2491 0e9d 00       		.byte	0
 2492 0e9e 28       		.uleb128 0x28
 2493 0e9f 01       		.byte	0x1
 2494 0ea0 0B010000 		.4byte	.LASF118
 2495 0ea4 09       		.byte	0x9
 2496 0ea5 BA       		.byte	0xba
 2497 0ea6 01       		.byte	0x1
 2498 0ea7 01       		.byte	0x1
 2499 0ea8 B70E0000 		.4byte	0xeb7
 2500 0eac 10       		.uleb128 0x10
 2501 0ead B70E0000 		.4byte	0xeb7
 2502 0eb1 10       		.uleb128 0x10
 2503 0eb2 FA000000 		.4byte	0xfa
 2504 0eb6 00       		.byte	0
 2505 0eb7 09       		.uleb128 0x9
 2506 0eb8 04       		.byte	0x4
 2507 0eb9 FA030000 		.4byte	0x3fa
 2508 0ebd 29       		.uleb128 0x29
ARM GAS  C:\Users\NICOMA~1\AppData\Local\Temp\ccG3HhJL.s 			page 45


 2509 0ebe 01       		.byte	0x1
 2510 0ebf E5000000 		.4byte	.LASF119
 2511 0ec3 0A       		.byte	0xa
 2512 0ec4 6E01     		.2byte	0x16e
 2513 0ec6 01       		.byte	0x1
 2514 0ec7 E4000000 		.4byte	0xe4
 2515 0ecb 01       		.byte	0x1
 2516 0ecc 10       		.uleb128 0x10
 2517 0ecd 7C0D0000 		.4byte	0xd7c
 2518 0ed1 00       		.byte	0
 2519 0ed2 00       		.byte	0
 2520              		.section	.debug_abbrev,"",%progbits
 2521              	.Ldebug_abbrev0:
 2522 0000 01       		.uleb128 0x1
 2523 0001 11       		.uleb128 0x11
 2524 0002 01       		.byte	0x1
 2525 0003 25       		.uleb128 0x25
 2526 0004 0E       		.uleb128 0xe
 2527 0005 13       		.uleb128 0x13
 2528 0006 0B       		.uleb128 0xb
 2529 0007 03       		.uleb128 0x3
 2530 0008 0E       		.uleb128 0xe
 2531 0009 1B       		.uleb128 0x1b
 2532 000a 0E       		.uleb128 0xe
 2533 000b 55       		.uleb128 0x55
 2534 000c 06       		.uleb128 0x6
 2535 000d 11       		.uleb128 0x11
 2536 000e 01       		.uleb128 0x1
 2537 000f 52       		.uleb128 0x52
 2538 0010 01       		.uleb128 0x1
 2539 0011 10       		.uleb128 0x10
 2540 0012 06       		.uleb128 0x6
 2541 0013 00       		.byte	0
 2542 0014 00       		.byte	0
 2543 0015 02       		.uleb128 0x2
 2544 0016 24       		.uleb128 0x24
 2545 0017 00       		.byte	0
 2546 0018 0B       		.uleb128 0xb
 2547 0019 0B       		.uleb128 0xb
 2548 001a 3E       		.uleb128 0x3e
 2549 001b 0B       		.uleb128 0xb
 2550 001c 03       		.uleb128 0x3
 2551 001d 08       		.uleb128 0x8
 2552 001e 00       		.byte	0
 2553 001f 00       		.byte	0
 2554 0020 03       		.uleb128 0x3
 2555 0021 16       		.uleb128 0x16
 2556 0022 00       		.byte	0
 2557 0023 03       		.uleb128 0x3
 2558 0024 0E       		.uleb128 0xe
 2559 0025 3A       		.uleb128 0x3a
 2560 0026 0B       		.uleb128 0xb
 2561 0027 3B       		.uleb128 0x3b
 2562 0028 0B       		.uleb128 0xb
 2563 0029 49       		.uleb128 0x49
 2564 002a 13       		.uleb128 0x13
 2565 002b 00       		.byte	0
ARM GAS  C:\Users\NICOMA~1\AppData\Local\Temp\ccG3HhJL.s 			page 46


 2566 002c 00       		.byte	0
 2567 002d 04       		.uleb128 0x4
 2568 002e 24       		.uleb128 0x24
 2569 002f 00       		.byte	0
 2570 0030 0B       		.uleb128 0xb
 2571 0031 0B       		.uleb128 0xb
 2572 0032 3E       		.uleb128 0x3e
 2573 0033 0B       		.uleb128 0xb
 2574 0034 03       		.uleb128 0x3
 2575 0035 0E       		.uleb128 0xe
 2576 0036 00       		.byte	0
 2577 0037 00       		.byte	0
 2578 0038 05       		.uleb128 0x5
 2579 0039 13       		.uleb128 0x13
 2580 003a 01       		.byte	0x1
 2581 003b 03       		.uleb128 0x3
 2582 003c 0E       		.uleb128 0xe
 2583 003d 0B       		.uleb128 0xb
 2584 003e 0B       		.uleb128 0xb
 2585 003f 3A       		.uleb128 0x3a
 2586 0040 0B       		.uleb128 0xb
 2587 0041 3B       		.uleb128 0x3b
 2588 0042 0B       		.uleb128 0xb
 2589 0043 01       		.uleb128 0x1
 2590 0044 13       		.uleb128 0x13
 2591 0045 00       		.byte	0
 2592 0046 00       		.byte	0
 2593 0047 06       		.uleb128 0x6
 2594 0048 0D       		.uleb128 0xd
 2595 0049 00       		.byte	0
 2596 004a 03       		.uleb128 0x3
 2597 004b 0E       		.uleb128 0xe
 2598 004c 3A       		.uleb128 0x3a
 2599 004d 0B       		.uleb128 0xb
 2600 004e 3B       		.uleb128 0x3b
 2601 004f 0B       		.uleb128 0xb
 2602 0050 49       		.uleb128 0x49
 2603 0051 13       		.uleb128 0x13
 2604 0052 38       		.uleb128 0x38
 2605 0053 0A       		.uleb128 0xa
 2606 0054 00       		.byte	0
 2607 0055 00       		.byte	0
 2608 0056 07       		.uleb128 0x7
 2609 0057 0D       		.uleb128 0xd
 2610 0058 00       		.byte	0
 2611 0059 03       		.uleb128 0x3
 2612 005a 08       		.uleb128 0x8
 2613 005b 3A       		.uleb128 0x3a
 2614 005c 0B       		.uleb128 0xb
 2615 005d 3B       		.uleb128 0x3b
 2616 005e 0B       		.uleb128 0xb
 2617 005f 49       		.uleb128 0x49
 2618 0060 13       		.uleb128 0x13
 2619 0061 38       		.uleb128 0x38
 2620 0062 0A       		.uleb128 0xa
 2621 0063 00       		.byte	0
 2622 0064 00       		.byte	0
ARM GAS  C:\Users\NICOMA~1\AppData\Local\Temp\ccG3HhJL.s 			page 47


 2623 0065 08       		.uleb128 0x8
 2624 0066 13       		.uleb128 0x13
 2625 0067 01       		.byte	0x1
 2626 0068 0B       		.uleb128 0xb
 2627 0069 0B       		.uleb128 0xb
 2628 006a 3A       		.uleb128 0x3a
 2629 006b 0B       		.uleb128 0xb
 2630 006c 3B       		.uleb128 0x3b
 2631 006d 0B       		.uleb128 0xb
 2632 006e 01       		.uleb128 0x1
 2633 006f 13       		.uleb128 0x13
 2634 0070 00       		.byte	0
 2635 0071 00       		.byte	0
 2636 0072 09       		.uleb128 0x9
 2637 0073 0F       		.uleb128 0xf
 2638 0074 00       		.byte	0
 2639 0075 0B       		.uleb128 0xb
 2640 0076 0B       		.uleb128 0xb
 2641 0077 49       		.uleb128 0x49
 2642 0078 13       		.uleb128 0x13
 2643 0079 00       		.byte	0
 2644 007a 00       		.byte	0
 2645 007b 0A       		.uleb128 0xa
 2646 007c 0F       		.uleb128 0xf
 2647 007d 00       		.byte	0
 2648 007e 0B       		.uleb128 0xb
 2649 007f 0B       		.uleb128 0xb
 2650 0080 00       		.byte	0
 2651 0081 00       		.byte	0
 2652 0082 0B       		.uleb128 0xb
 2653 0083 35       		.uleb128 0x35
 2654 0084 00       		.byte	0
 2655 0085 49       		.uleb128 0x49
 2656 0086 13       		.uleb128 0x13
 2657 0087 00       		.byte	0
 2658 0088 00       		.byte	0
 2659 0089 0C       		.uleb128 0xc
 2660 008a 17       		.uleb128 0x17
 2661 008b 01       		.byte	0x1
 2662 008c 0B       		.uleb128 0xb
 2663 008d 0B       		.uleb128 0xb
 2664 008e 3A       		.uleb128 0x3a
 2665 008f 0B       		.uleb128 0xb
 2666 0090 3B       		.uleb128 0x3b
 2667 0091 0B       		.uleb128 0xb
 2668 0092 01       		.uleb128 0x1
 2669 0093 13       		.uleb128 0x13
 2670 0094 00       		.byte	0
 2671 0095 00       		.byte	0
 2672 0096 0D       		.uleb128 0xd
 2673 0097 0D       		.uleb128 0xd
 2674 0098 00       		.byte	0
 2675 0099 03       		.uleb128 0x3
 2676 009a 0E       		.uleb128 0xe
 2677 009b 3A       		.uleb128 0x3a
 2678 009c 0B       		.uleb128 0xb
 2679 009d 3B       		.uleb128 0x3b
ARM GAS  C:\Users\NICOMA~1\AppData\Local\Temp\ccG3HhJL.s 			page 48


 2680 009e 0B       		.uleb128 0xb
 2681 009f 49       		.uleb128 0x49
 2682 00a0 13       		.uleb128 0x13
 2683 00a1 00       		.byte	0
 2684 00a2 00       		.byte	0
 2685 00a3 0E       		.uleb128 0xe
 2686 00a4 26       		.uleb128 0x26
 2687 00a5 00       		.byte	0
 2688 00a6 49       		.uleb128 0x49
 2689 00a7 13       		.uleb128 0x13
 2690 00a8 00       		.byte	0
 2691 00a9 00       		.byte	0
 2692 00aa 0F       		.uleb128 0xf
 2693 00ab 15       		.uleb128 0x15
 2694 00ac 01       		.byte	0x1
 2695 00ad 27       		.uleb128 0x27
 2696 00ae 0C       		.uleb128 0xc
 2697 00af 49       		.uleb128 0x49
 2698 00b0 13       		.uleb128 0x13
 2699 00b1 01       		.uleb128 0x1
 2700 00b2 13       		.uleb128 0x13
 2701 00b3 00       		.byte	0
 2702 00b4 00       		.byte	0
 2703 00b5 10       		.uleb128 0x10
 2704 00b6 05       		.uleb128 0x5
 2705 00b7 00       		.byte	0
 2706 00b8 49       		.uleb128 0x49
 2707 00b9 13       		.uleb128 0x13
 2708 00ba 00       		.byte	0
 2709 00bb 00       		.byte	0
 2710 00bc 11       		.uleb128 0x11
 2711 00bd 15       		.uleb128 0x15
 2712 00be 01       		.byte	0x1
 2713 00bf 27       		.uleb128 0x27
 2714 00c0 0C       		.uleb128 0xc
 2715 00c1 01       		.uleb128 0x1
 2716 00c2 13       		.uleb128 0x13
 2717 00c3 00       		.byte	0
 2718 00c4 00       		.byte	0
 2719 00c5 12       		.uleb128 0x12
 2720 00c6 04       		.uleb128 0x4
 2721 00c7 01       		.byte	0x1
 2722 00c8 0B       		.uleb128 0xb
 2723 00c9 0B       		.uleb128 0xb
 2724 00ca 3A       		.uleb128 0x3a
 2725 00cb 0B       		.uleb128 0xb
 2726 00cc 3B       		.uleb128 0x3b
 2727 00cd 0B       		.uleb128 0xb
 2728 00ce 01       		.uleb128 0x1
 2729 00cf 13       		.uleb128 0x13
 2730 00d0 00       		.byte	0
 2731 00d1 00       		.byte	0
 2732 00d2 13       		.uleb128 0x13
 2733 00d3 28       		.uleb128 0x28
 2734 00d4 00       		.byte	0
 2735 00d5 03       		.uleb128 0x3
 2736 00d6 0E       		.uleb128 0xe
ARM GAS  C:\Users\NICOMA~1\AppData\Local\Temp\ccG3HhJL.s 			page 49


 2737 00d7 1C       		.uleb128 0x1c
 2738 00d8 0D       		.uleb128 0xd
 2739 00d9 00       		.byte	0
 2740 00da 00       		.byte	0
 2741 00db 14       		.uleb128 0x14
 2742 00dc 01       		.uleb128 0x1
 2743 00dd 01       		.byte	0x1
 2744 00de 49       		.uleb128 0x49
 2745 00df 13       		.uleb128 0x13
 2746 00e0 01       		.uleb128 0x1
 2747 00e1 13       		.uleb128 0x13
 2748 00e2 00       		.byte	0
 2749 00e3 00       		.byte	0
 2750 00e4 15       		.uleb128 0x15
 2751 00e5 21       		.uleb128 0x21
 2752 00e6 00       		.byte	0
 2753 00e7 49       		.uleb128 0x49
 2754 00e8 13       		.uleb128 0x13
 2755 00e9 2F       		.uleb128 0x2f
 2756 00ea 0B       		.uleb128 0xb
 2757 00eb 00       		.byte	0
 2758 00ec 00       		.byte	0
 2759 00ed 16       		.uleb128 0x16
 2760 00ee 2E       		.uleb128 0x2e
 2761 00ef 01       		.byte	0x1
 2762 00f0 03       		.uleb128 0x3
 2763 00f1 0E       		.uleb128 0xe
 2764 00f2 3A       		.uleb128 0x3a
 2765 00f3 0B       		.uleb128 0xb
 2766 00f4 3B       		.uleb128 0x3b
 2767 00f5 0B       		.uleb128 0xb
 2768 00f6 27       		.uleb128 0x27
 2769 00f7 0C       		.uleb128 0xc
 2770 00f8 49       		.uleb128 0x49
 2771 00f9 13       		.uleb128 0x13
 2772 00fa 11       		.uleb128 0x11
 2773 00fb 01       		.uleb128 0x1
 2774 00fc 12       		.uleb128 0x12
 2775 00fd 01       		.uleb128 0x1
 2776 00fe 40       		.uleb128 0x40
 2777 00ff 0A       		.uleb128 0xa
 2778 0100 9742     		.uleb128 0x2117
 2779 0102 0C       		.uleb128 0xc
 2780 0103 01       		.uleb128 0x1
 2781 0104 13       		.uleb128 0x13
 2782 0105 00       		.byte	0
 2783 0106 00       		.byte	0
 2784 0107 17       		.uleb128 0x17
 2785 0108 05       		.uleb128 0x5
 2786 0109 00       		.byte	0
 2787 010a 03       		.uleb128 0x3
 2788 010b 08       		.uleb128 0x8
 2789 010c 3A       		.uleb128 0x3a
 2790 010d 0B       		.uleb128 0xb
 2791 010e 3B       		.uleb128 0x3b
 2792 010f 0B       		.uleb128 0xb
 2793 0110 49       		.uleb128 0x49
ARM GAS  C:\Users\NICOMA~1\AppData\Local\Temp\ccG3HhJL.s 			page 50


 2794 0111 13       		.uleb128 0x13
 2795 0112 02       		.uleb128 0x2
 2796 0113 06       		.uleb128 0x6
 2797 0114 00       		.byte	0
 2798 0115 00       		.byte	0
 2799 0116 18       		.uleb128 0x18
 2800 0117 05       		.uleb128 0x5
 2801 0118 00       		.byte	0
 2802 0119 03       		.uleb128 0x3
 2803 011a 0E       		.uleb128 0xe
 2804 011b 3A       		.uleb128 0x3a
 2805 011c 0B       		.uleb128 0xb
 2806 011d 3B       		.uleb128 0x3b
 2807 011e 0B       		.uleb128 0xb
 2808 011f 49       		.uleb128 0x49
 2809 0120 13       		.uleb128 0x13
 2810 0121 02       		.uleb128 0x2
 2811 0122 06       		.uleb128 0x6
 2812 0123 00       		.byte	0
 2813 0124 00       		.byte	0
 2814 0125 19       		.uleb128 0x19
 2815 0126 898201   		.uleb128 0x4109
 2816 0129 01       		.byte	0x1
 2817 012a 11       		.uleb128 0x11
 2818 012b 01       		.uleb128 0x1
 2819 012c 9542     		.uleb128 0x2115
 2820 012e 0C       		.uleb128 0xc
 2821 012f 31       		.uleb128 0x31
 2822 0130 13       		.uleb128 0x13
 2823 0131 00       		.byte	0
 2824 0132 00       		.byte	0
 2825 0133 1A       		.uleb128 0x1a
 2826 0134 8A8201   		.uleb128 0x410a
 2827 0137 00       		.byte	0
 2828 0138 02       		.uleb128 0x2
 2829 0139 0A       		.uleb128 0xa
 2830 013a 9142     		.uleb128 0x2111
 2831 013c 0A       		.uleb128 0xa
 2832 013d 00       		.byte	0
 2833 013e 00       		.byte	0
 2834 013f 1B       		.uleb128 0x1b
 2835 0140 2E       		.uleb128 0x2e
 2836 0141 01       		.byte	0x1
 2837 0142 03       		.uleb128 0x3
 2838 0143 08       		.uleb128 0x8
 2839 0144 3A       		.uleb128 0x3a
 2840 0145 0B       		.uleb128 0xb
 2841 0146 3B       		.uleb128 0x3b
 2842 0147 0B       		.uleb128 0xb
 2843 0148 27       		.uleb128 0x27
 2844 0149 0C       		.uleb128 0xc
 2845 014a 49       		.uleb128 0x49
 2846 014b 13       		.uleb128 0x13
 2847 014c 11       		.uleb128 0x11
 2848 014d 01       		.uleb128 0x1
 2849 014e 12       		.uleb128 0x12
 2850 014f 01       		.uleb128 0x1
ARM GAS  C:\Users\NICOMA~1\AppData\Local\Temp\ccG3HhJL.s 			page 51


 2851 0150 40       		.uleb128 0x40
 2852 0151 0A       		.uleb128 0xa
 2853 0152 9742     		.uleb128 0x2117
 2854 0154 0C       		.uleb128 0xc
 2855 0155 01       		.uleb128 0x1
 2856 0156 13       		.uleb128 0x13
 2857 0157 00       		.byte	0
 2858 0158 00       		.byte	0
 2859 0159 1C       		.uleb128 0x1c
 2860 015a 2E       		.uleb128 0x2e
 2861 015b 01       		.byte	0x1
 2862 015c 3F       		.uleb128 0x3f
 2863 015d 0C       		.uleb128 0xc
 2864 015e 03       		.uleb128 0x3
 2865 015f 0E       		.uleb128 0xe
 2866 0160 3A       		.uleb128 0x3a
 2867 0161 0B       		.uleb128 0xb
 2868 0162 3B       		.uleb128 0x3b
 2869 0163 0B       		.uleb128 0xb
 2870 0164 27       		.uleb128 0x27
 2871 0165 0C       		.uleb128 0xc
 2872 0166 11       		.uleb128 0x11
 2873 0167 01       		.uleb128 0x1
 2874 0168 12       		.uleb128 0x12
 2875 0169 01       		.uleb128 0x1
 2876 016a 40       		.uleb128 0x40
 2877 016b 0A       		.uleb128 0xa
 2878 016c 9742     		.uleb128 0x2117
 2879 016e 0C       		.uleb128 0xc
 2880 016f 01       		.uleb128 0x1
 2881 0170 13       		.uleb128 0x13
 2882 0171 00       		.byte	0
 2883 0172 00       		.byte	0
 2884 0173 1D       		.uleb128 0x1d
 2885 0174 898201   		.uleb128 0x4109
 2886 0177 00       		.byte	0
 2887 0178 11       		.uleb128 0x11
 2888 0179 01       		.uleb128 0x1
 2889 017a 9542     		.uleb128 0x2115
 2890 017c 0C       		.uleb128 0xc
 2891 017d 31       		.uleb128 0x31
 2892 017e 13       		.uleb128 0x13
 2893 017f 00       		.byte	0
 2894 0180 00       		.byte	0
 2895 0181 1E       		.uleb128 0x1e
 2896 0182 2E       		.uleb128 0x2e
 2897 0183 01       		.byte	0x1
 2898 0184 3F       		.uleb128 0x3f
 2899 0185 0C       		.uleb128 0xc
 2900 0186 03       		.uleb128 0x3
 2901 0187 0E       		.uleb128 0xe
 2902 0188 3A       		.uleb128 0x3a
 2903 0189 0B       		.uleb128 0xb
 2904 018a 3B       		.uleb128 0x3b
 2905 018b 0B       		.uleb128 0xb
 2906 018c 27       		.uleb128 0x27
 2907 018d 0C       		.uleb128 0xc
ARM GAS  C:\Users\NICOMA~1\AppData\Local\Temp\ccG3HhJL.s 			page 52


 2908 018e 11       		.uleb128 0x11
 2909 018f 01       		.uleb128 0x1
 2910 0190 12       		.uleb128 0x12
 2911 0191 01       		.uleb128 0x1
 2912 0192 40       		.uleb128 0x40
 2913 0193 06       		.uleb128 0x6
 2914 0194 9742     		.uleb128 0x2117
 2915 0196 0C       		.uleb128 0xc
 2916 0197 01       		.uleb128 0x1
 2917 0198 13       		.uleb128 0x13
 2918 0199 00       		.byte	0
 2919 019a 00       		.byte	0
 2920 019b 1F       		.uleb128 0x1f
 2921 019c 898201   		.uleb128 0x4109
 2922 019f 01       		.byte	0x1
 2923 01a0 11       		.uleb128 0x11
 2924 01a1 01       		.uleb128 0x1
 2925 01a2 31       		.uleb128 0x31
 2926 01a3 13       		.uleb128 0x13
 2927 01a4 01       		.uleb128 0x1
 2928 01a5 13       		.uleb128 0x13
 2929 01a6 00       		.byte	0
 2930 01a7 00       		.byte	0
 2931 01a8 20       		.uleb128 0x20
 2932 01a9 898201   		.uleb128 0x4109
 2933 01ac 01       		.byte	0x1
 2934 01ad 11       		.uleb128 0x11
 2935 01ae 01       		.uleb128 0x1
 2936 01af 31       		.uleb128 0x31
 2937 01b0 13       		.uleb128 0x13
 2938 01b1 00       		.byte	0
 2939 01b2 00       		.byte	0
 2940 01b3 21       		.uleb128 0x21
 2941 01b4 898201   		.uleb128 0x4109
 2942 01b7 00       		.byte	0
 2943 01b8 11       		.uleb128 0x11
 2944 01b9 01       		.uleb128 0x1
 2945 01ba 31       		.uleb128 0x31
 2946 01bb 13       		.uleb128 0x13
 2947 01bc 00       		.byte	0
 2948 01bd 00       		.byte	0
 2949 01be 22       		.uleb128 0x22
 2950 01bf 898201   		.uleb128 0x4109
 2951 01c2 01       		.byte	0x1
 2952 01c3 11       		.uleb128 0x11
 2953 01c4 01       		.uleb128 0x1
 2954 01c5 9542     		.uleb128 0x2115
 2955 01c7 0C       		.uleb128 0xc
 2956 01c8 31       		.uleb128 0x31
 2957 01c9 13       		.uleb128 0x13
 2958 01ca 01       		.uleb128 0x1
 2959 01cb 13       		.uleb128 0x13
 2960 01cc 00       		.byte	0
 2961 01cd 00       		.byte	0
 2962 01ce 23       		.uleb128 0x23
 2963 01cf 2E       		.uleb128 0x2e
 2964 01d0 01       		.byte	0x1
ARM GAS  C:\Users\NICOMA~1\AppData\Local\Temp\ccG3HhJL.s 			page 53


 2965 01d1 3F       		.uleb128 0x3f
 2966 01d2 0C       		.uleb128 0xc
 2967 01d3 03       		.uleb128 0x3
 2968 01d4 0E       		.uleb128 0xe
 2969 01d5 3A       		.uleb128 0x3a
 2970 01d6 0B       		.uleb128 0xb
 2971 01d7 3B       		.uleb128 0x3b
 2972 01d8 0B       		.uleb128 0xb
 2973 01d9 27       		.uleb128 0x27
 2974 01da 0C       		.uleb128 0xc
 2975 01db 49       		.uleb128 0x49
 2976 01dc 13       		.uleb128 0x13
 2977 01dd 11       		.uleb128 0x11
 2978 01de 01       		.uleb128 0x1
 2979 01df 12       		.uleb128 0x12
 2980 01e0 01       		.uleb128 0x1
 2981 01e1 40       		.uleb128 0x40
 2982 01e2 06       		.uleb128 0x6
 2983 01e3 9742     		.uleb128 0x2117
 2984 01e5 0C       		.uleb128 0xc
 2985 01e6 01       		.uleb128 0x1
 2986 01e7 13       		.uleb128 0x13
 2987 01e8 00       		.byte	0
 2988 01e9 00       		.byte	0
 2989 01ea 24       		.uleb128 0x24
 2990 01eb 34       		.uleb128 0x34
 2991 01ec 00       		.byte	0
 2992 01ed 03       		.uleb128 0x3
 2993 01ee 08       		.uleb128 0x8
 2994 01ef 3A       		.uleb128 0x3a
 2995 01f0 0B       		.uleb128 0xb
 2996 01f1 3B       		.uleb128 0x3b
 2997 01f2 0B       		.uleb128 0xb
 2998 01f3 49       		.uleb128 0x49
 2999 01f4 13       		.uleb128 0x13
 3000 01f5 02       		.uleb128 0x2
 3001 01f6 0A       		.uleb128 0xa
 3002 01f7 00       		.byte	0
 3003 01f8 00       		.byte	0
 3004 01f9 25       		.uleb128 0x25
 3005 01fa 2E       		.uleb128 0x2e
 3006 01fb 01       		.byte	0x1
 3007 01fc 3F       		.uleb128 0x3f
 3008 01fd 0C       		.uleb128 0xc
 3009 01fe 03       		.uleb128 0x3
 3010 01ff 0E       		.uleb128 0xe
 3011 0200 3A       		.uleb128 0x3a
 3012 0201 0B       		.uleb128 0xb
 3013 0202 3B       		.uleb128 0x3b
 3014 0203 05       		.uleb128 0x5
 3015 0204 27       		.uleb128 0x27
 3016 0205 0C       		.uleb128 0xc
 3017 0206 49       		.uleb128 0x49
 3018 0207 13       		.uleb128 0x13
 3019 0208 3C       		.uleb128 0x3c
 3020 0209 0C       		.uleb128 0xc
 3021 020a 01       		.uleb128 0x1
ARM GAS  C:\Users\NICOMA~1\AppData\Local\Temp\ccG3HhJL.s 			page 54


 3022 020b 13       		.uleb128 0x13
 3023 020c 00       		.byte	0
 3024 020d 00       		.byte	0
 3025 020e 26       		.uleb128 0x26
 3026 020f 2E       		.uleb128 0x2e
 3027 0210 00       		.byte	0
 3028 0211 3F       		.uleb128 0x3f
 3029 0212 0C       		.uleb128 0xc
 3030 0213 03       		.uleb128 0x3
 3031 0214 0E       		.uleb128 0xe
 3032 0215 3A       		.uleb128 0x3a
 3033 0216 0B       		.uleb128 0xb
 3034 0217 3B       		.uleb128 0x3b
 3035 0218 0B       		.uleb128 0xb
 3036 0219 27       		.uleb128 0x27
 3037 021a 0C       		.uleb128 0xc
 3038 021b 3C       		.uleb128 0x3c
 3039 021c 0C       		.uleb128 0xc
 3040 021d 00       		.byte	0
 3041 021e 00       		.byte	0
 3042 021f 27       		.uleb128 0x27
 3043 0220 2E       		.uleb128 0x2e
 3044 0221 01       		.byte	0x1
 3045 0222 3F       		.uleb128 0x3f
 3046 0223 0C       		.uleb128 0xc
 3047 0224 03       		.uleb128 0x3
 3048 0225 0E       		.uleb128 0xe
 3049 0226 3A       		.uleb128 0x3a
 3050 0227 0B       		.uleb128 0xb
 3051 0228 3B       		.uleb128 0x3b
 3052 0229 05       		.uleb128 0x5
 3053 022a 27       		.uleb128 0x27
 3054 022b 0C       		.uleb128 0xc
 3055 022c 3C       		.uleb128 0x3c
 3056 022d 0C       		.uleb128 0xc
 3057 022e 01       		.uleb128 0x1
 3058 022f 13       		.uleb128 0x13
 3059 0230 00       		.byte	0
 3060 0231 00       		.byte	0
 3061 0232 28       		.uleb128 0x28
 3062 0233 2E       		.uleb128 0x2e
 3063 0234 01       		.byte	0x1
 3064 0235 3F       		.uleb128 0x3f
 3065 0236 0C       		.uleb128 0xc
 3066 0237 03       		.uleb128 0x3
 3067 0238 0E       		.uleb128 0xe
 3068 0239 3A       		.uleb128 0x3a
 3069 023a 0B       		.uleb128 0xb
 3070 023b 3B       		.uleb128 0x3b
 3071 023c 0B       		.uleb128 0xb
 3072 023d 27       		.uleb128 0x27
 3073 023e 0C       		.uleb128 0xc
 3074 023f 3C       		.uleb128 0x3c
 3075 0240 0C       		.uleb128 0xc
 3076 0241 01       		.uleb128 0x1
 3077 0242 13       		.uleb128 0x13
 3078 0243 00       		.byte	0
ARM GAS  C:\Users\NICOMA~1\AppData\Local\Temp\ccG3HhJL.s 			page 55


 3079 0244 00       		.byte	0
 3080 0245 29       		.uleb128 0x29
 3081 0246 2E       		.uleb128 0x2e
 3082 0247 01       		.byte	0x1
 3083 0248 3F       		.uleb128 0x3f
 3084 0249 0C       		.uleb128 0xc
 3085 024a 03       		.uleb128 0x3
 3086 024b 0E       		.uleb128 0xe
 3087 024c 3A       		.uleb128 0x3a
 3088 024d 0B       		.uleb128 0xb
 3089 024e 3B       		.uleb128 0x3b
 3090 024f 05       		.uleb128 0x5
 3091 0250 27       		.uleb128 0x27
 3092 0251 0C       		.uleb128 0xc
 3093 0252 49       		.uleb128 0x49
 3094 0253 13       		.uleb128 0x13
 3095 0254 3C       		.uleb128 0x3c
 3096 0255 0C       		.uleb128 0xc
 3097 0256 00       		.byte	0
 3098 0257 00       		.byte	0
 3099 0258 00       		.byte	0
 3100              		.section	.debug_loc,"",%progbits
 3101              	.Ldebug_loc0:
 3102              	.LLST0:
 3103 0000 00000000 		.4byte	.LVL0
 3104 0004 04000000 		.4byte	.LVL1
 3105 0008 0100     		.2byte	0x1
 3106 000a 50       		.byte	0x50
 3107 000b 04000000 		.4byte	.LVL1
 3108 000f 07000000 		.4byte	.LVL2-1
 3109 0013 0300     		.2byte	0x3
 3110 0015 70       		.byte	0x70
 3111 0016 74       		.sleb128 -12
 3112 0017 9F       		.byte	0x9f
 3113 0018 07000000 		.4byte	.LVL2-1
 3114 001c 08000000 		.4byte	.LFE14
 3115 0020 0400     		.2byte	0x4
 3116 0022 F3       		.byte	0xf3
 3117 0023 01       		.uleb128 0x1
 3118 0024 50       		.byte	0x50
 3119 0025 9F       		.byte	0x9f
 3120 0026 00000000 		.4byte	0
 3121 002a 00000000 		.4byte	0
 3122              	.LLST1:
 3123 002e 00000000 		.4byte	.LVL0
 3124 0032 07000000 		.4byte	.LVL2-1
 3125 0036 0100     		.2byte	0x1
 3126 0038 51       		.byte	0x51
 3127 0039 07000000 		.4byte	.LVL2-1
 3128 003d 08000000 		.4byte	.LFE14
 3129 0041 0400     		.2byte	0x4
 3130 0043 F3       		.byte	0xf3
 3131 0044 01       		.uleb128 0x1
 3132 0045 51       		.byte	0x51
 3133 0046 9F       		.byte	0x9f
 3134 0047 00000000 		.4byte	0
 3135 004b 00000000 		.4byte	0
ARM GAS  C:\Users\NICOMA~1\AppData\Local\Temp\ccG3HhJL.s 			page 56


 3136              	.LLST2:
 3137 004f 00000000 		.4byte	.LVL0
 3138 0053 07000000 		.4byte	.LVL2-1
 3139 0057 0100     		.2byte	0x1
 3140 0059 52       		.byte	0x52
 3141 005a 07000000 		.4byte	.LVL2-1
 3142 005e 08000000 		.4byte	.LFE14
 3143 0062 0400     		.2byte	0x4
 3144 0064 F3       		.byte	0xf3
 3145 0065 01       		.uleb128 0x1
 3146 0066 52       		.byte	0x52
 3147 0067 9F       		.byte	0x9f
 3148 0068 00000000 		.4byte	0
 3149 006c 00000000 		.4byte	0
 3150              	.LLST3:
 3151 0070 00000000 		.4byte	.LVL0
 3152 0074 07000000 		.4byte	.LVL2-1
 3153 0078 0100     		.2byte	0x1
 3154 007a 53       		.byte	0x53
 3155 007b 07000000 		.4byte	.LVL2-1
 3156 007f 08000000 		.4byte	.LFE14
 3157 0083 0400     		.2byte	0x4
 3158 0085 F3       		.byte	0xf3
 3159 0086 01       		.uleb128 0x1
 3160 0087 53       		.byte	0x53
 3161 0088 9F       		.byte	0x9f
 3162 0089 00000000 		.4byte	0
 3163 008d 00000000 		.4byte	0
 3164              	.LLST4:
 3165 0091 00000000 		.4byte	.LVL3
 3166 0095 04000000 		.4byte	.LVL4
 3167 0099 0100     		.2byte	0x1
 3168 009b 50       		.byte	0x50
 3169 009c 04000000 		.4byte	.LVL4
 3170 00a0 0B000000 		.4byte	.LVL5-1
 3171 00a4 0300     		.2byte	0x3
 3172 00a6 70       		.byte	0x70
 3173 00a7 74       		.sleb128 -12
 3174 00a8 9F       		.byte	0x9f
 3175 00a9 0B000000 		.4byte	.LVL5-1
 3176 00ad 0C000000 		.4byte	.LFE8
 3177 00b1 0400     		.2byte	0x4
 3178 00b3 F3       		.byte	0xf3
 3179 00b4 01       		.uleb128 0x1
 3180 00b5 50       		.byte	0x50
 3181 00b6 9F       		.byte	0x9f
 3182 00b7 00000000 		.4byte	0
 3183 00bb 00000000 		.4byte	0
 3184              	.LLST5:
 3185 00bf 00000000 		.4byte	.LVL3
 3186 00c3 0B000000 		.4byte	.LVL5-1
 3187 00c7 0100     		.2byte	0x1
 3188 00c9 51       		.byte	0x51
 3189 00ca 0B000000 		.4byte	.LVL5-1
 3190 00ce 0C000000 		.4byte	.LFE8
 3191 00d2 0400     		.2byte	0x4
 3192 00d4 F3       		.byte	0xf3
ARM GAS  C:\Users\NICOMA~1\AppData\Local\Temp\ccG3HhJL.s 			page 57


 3193 00d5 01       		.uleb128 0x1
 3194 00d6 51       		.byte	0x51
 3195 00d7 9F       		.byte	0x9f
 3196 00d8 00000000 		.4byte	0
 3197 00dc 00000000 		.4byte	0
 3198              	.LLST6:
 3199 00e0 00000000 		.4byte	.LVL3
 3200 00e4 0B000000 		.4byte	.LVL5-1
 3201 00e8 0100     		.2byte	0x1
 3202 00ea 52       		.byte	0x52
 3203 00eb 0B000000 		.4byte	.LVL5-1
 3204 00ef 0C000000 		.4byte	.LFE8
 3205 00f3 0400     		.2byte	0x4
 3206 00f5 F3       		.byte	0xf3
 3207 00f6 01       		.uleb128 0x1
 3208 00f7 52       		.byte	0x52
 3209 00f8 9F       		.byte	0x9f
 3210 00f9 00000000 		.4byte	0
 3211 00fd 00000000 		.4byte	0
 3212              	.LLST7:
 3213 0101 00000000 		.4byte	.LVL6
 3214 0105 04000000 		.4byte	.LVL7
 3215 0109 0100     		.2byte	0x1
 3216 010b 50       		.byte	0x50
 3217 010c 04000000 		.4byte	.LVL7
 3218 0110 07000000 		.4byte	.LVL8-1
 3219 0114 0300     		.2byte	0x3
 3220 0116 70       		.byte	0x70
 3221 0117 50       		.sleb128 -48
 3222 0118 9F       		.byte	0x9f
 3223 0119 07000000 		.4byte	.LVL8-1
 3224 011d 08000000 		.4byte	.LFE13
 3225 0121 0400     		.2byte	0x4
 3226 0123 F3       		.byte	0xf3
 3227 0124 01       		.uleb128 0x1
 3228 0125 50       		.byte	0x50
 3229 0126 9F       		.byte	0x9f
 3230 0127 00000000 		.4byte	0
 3231 012b 00000000 		.4byte	0
 3232              	.LLST8:
 3233 012f 00000000 		.4byte	.LVL6
 3234 0133 07000000 		.4byte	.LVL8-1
 3235 0137 0100     		.2byte	0x1
 3236 0139 51       		.byte	0x51
 3237 013a 07000000 		.4byte	.LVL8-1
 3238 013e 08000000 		.4byte	.LFE13
 3239 0142 0400     		.2byte	0x4
 3240 0144 F3       		.byte	0xf3
 3241 0145 01       		.uleb128 0x1
 3242 0146 51       		.byte	0x51
 3243 0147 9F       		.byte	0x9f
 3244 0148 00000000 		.4byte	0
 3245 014c 00000000 		.4byte	0
 3246              	.LLST9:
 3247 0150 00000000 		.4byte	.LVL6
 3248 0154 07000000 		.4byte	.LVL8-1
 3249 0158 0100     		.2byte	0x1
ARM GAS  C:\Users\NICOMA~1\AppData\Local\Temp\ccG3HhJL.s 			page 58


 3250 015a 52       		.byte	0x52
 3251 015b 07000000 		.4byte	.LVL8-1
 3252 015f 08000000 		.4byte	.LFE13
 3253 0163 0400     		.2byte	0x4
 3254 0165 F3       		.byte	0xf3
 3255 0166 01       		.uleb128 0x1
 3256 0167 52       		.byte	0x52
 3257 0168 9F       		.byte	0x9f
 3258 0169 00000000 		.4byte	0
 3259 016d 00000000 		.4byte	0
 3260              	.LLST10:
 3261 0171 00000000 		.4byte	.LVL6
 3262 0175 07000000 		.4byte	.LVL8-1
 3263 0179 0100     		.2byte	0x1
 3264 017b 53       		.byte	0x53
 3265 017c 07000000 		.4byte	.LVL8-1
 3266 0180 08000000 		.4byte	.LFE13
 3267 0184 0400     		.2byte	0x4
 3268 0186 F3       		.byte	0xf3
 3269 0187 01       		.uleb128 0x1
 3270 0188 53       		.byte	0x53
 3271 0189 9F       		.byte	0x9f
 3272 018a 00000000 		.4byte	0
 3273 018e 00000000 		.4byte	0
 3274              	.LLST11:
 3275 0192 00000000 		.4byte	.LVL9
 3276 0196 04000000 		.4byte	.LVL10
 3277 019a 0100     		.2byte	0x1
 3278 019c 50       		.byte	0x50
 3279 019d 04000000 		.4byte	.LVL10
 3280 01a1 0B000000 		.4byte	.LVL11-1
 3281 01a5 0300     		.2byte	0x3
 3282 01a7 70       		.byte	0x70
 3283 01a8 50       		.sleb128 -48
 3284 01a9 9F       		.byte	0x9f
 3285 01aa 0B000000 		.4byte	.LVL11-1
 3286 01ae 0C000000 		.4byte	.LFE7
 3287 01b2 0400     		.2byte	0x4
 3288 01b4 F3       		.byte	0xf3
 3289 01b5 01       		.uleb128 0x1
 3290 01b6 50       		.byte	0x50
 3291 01b7 9F       		.byte	0x9f
 3292 01b8 00000000 		.4byte	0
 3293 01bc 00000000 		.4byte	0
 3294              	.LLST12:
 3295 01c0 00000000 		.4byte	.LVL9
 3296 01c4 0B000000 		.4byte	.LVL11-1
 3297 01c8 0100     		.2byte	0x1
 3298 01ca 51       		.byte	0x51
 3299 01cb 0B000000 		.4byte	.LVL11-1
 3300 01cf 0C000000 		.4byte	.LFE7
 3301 01d3 0400     		.2byte	0x4
 3302 01d5 F3       		.byte	0xf3
 3303 01d6 01       		.uleb128 0x1
 3304 01d7 51       		.byte	0x51
 3305 01d8 9F       		.byte	0x9f
 3306 01d9 00000000 		.4byte	0
ARM GAS  C:\Users\NICOMA~1\AppData\Local\Temp\ccG3HhJL.s 			page 59


 3307 01dd 00000000 		.4byte	0
 3308              	.LLST13:
 3309 01e1 00000000 		.4byte	.LVL9
 3310 01e5 0B000000 		.4byte	.LVL11-1
 3311 01e9 0100     		.2byte	0x1
 3312 01eb 52       		.byte	0x52
 3313 01ec 0B000000 		.4byte	.LVL11-1
 3314 01f0 0C000000 		.4byte	.LFE7
 3315 01f4 0400     		.2byte	0x4
 3316 01f6 F3       		.byte	0xf3
 3317 01f7 01       		.uleb128 0x1
 3318 01f8 52       		.byte	0x52
 3319 01f9 9F       		.byte	0x9f
 3320 01fa 00000000 		.4byte	0
 3321 01fe 00000000 		.4byte	0
 3322              	.LLST14:
 3323 0202 00000000 		.4byte	.LVL12
 3324 0206 04000000 		.4byte	.LVL13
 3325 020a 0100     		.2byte	0x1
 3326 020c 50       		.byte	0x50
 3327 020d 04000000 		.4byte	.LVL13
 3328 0211 07000000 		.4byte	.LVL14-1
 3329 0215 0300     		.2byte	0x3
 3330 0217 70       		.byte	0x70
 3331 0218 74       		.sleb128 -12
 3332 0219 9F       		.byte	0x9f
 3333 021a 07000000 		.4byte	.LVL14-1
 3334 021e 08000000 		.4byte	.LFE12
 3335 0222 0400     		.2byte	0x4
 3336 0224 F3       		.byte	0xf3
 3337 0225 01       		.uleb128 0x1
 3338 0226 50       		.byte	0x50
 3339 0227 9F       		.byte	0x9f
 3340 0228 00000000 		.4byte	0
 3341 022c 00000000 		.4byte	0
 3342              	.LLST15:
 3343 0230 00000000 		.4byte	.LVL12
 3344 0234 07000000 		.4byte	.LVL14-1
 3345 0238 0100     		.2byte	0x1
 3346 023a 51       		.byte	0x51
 3347 023b 07000000 		.4byte	.LVL14-1
 3348 023f 08000000 		.4byte	.LFE12
 3349 0243 0400     		.2byte	0x4
 3350 0245 F3       		.byte	0xf3
 3351 0246 01       		.uleb128 0x1
 3352 0247 51       		.byte	0x51
 3353 0248 9F       		.byte	0x9f
 3354 0249 00000000 		.4byte	0
 3355 024d 00000000 		.4byte	0
 3356              	.LLST16:
 3357 0251 00000000 		.4byte	.LVL15
 3358 0255 04000000 		.4byte	.LVL16
 3359 0259 0100     		.2byte	0x1
 3360 025b 50       		.byte	0x50
 3361 025c 04000000 		.4byte	.LVL16
 3362 0260 0B000000 		.4byte	.LVL17-1
 3363 0264 0300     		.2byte	0x3
ARM GAS  C:\Users\NICOMA~1\AppData\Local\Temp\ccG3HhJL.s 			page 60


 3364 0266 70       		.byte	0x70
 3365 0267 74       		.sleb128 -12
 3366 0268 9F       		.byte	0x9f
 3367 0269 0B000000 		.4byte	.LVL17-1
 3368 026d 0C000000 		.4byte	.LFE10
 3369 0271 0400     		.2byte	0x4
 3370 0273 F3       		.byte	0xf3
 3371 0274 01       		.uleb128 0x1
 3372 0275 50       		.byte	0x50
 3373 0276 9F       		.byte	0x9f
 3374 0277 00000000 		.4byte	0
 3375 027b 00000000 		.4byte	0
 3376              	.LLST17:
 3377 027f 00000000 		.4byte	.LVL18
 3378 0283 04000000 		.4byte	.LVL19
 3379 0287 0100     		.2byte	0x1
 3380 0289 50       		.byte	0x50
 3381 028a 04000000 		.4byte	.LVL19
 3382 028e 07000000 		.4byte	.LVL20-1
 3383 0292 0300     		.2byte	0x3
 3384 0294 70       		.byte	0x70
 3385 0295 50       		.sleb128 -48
 3386 0296 9F       		.byte	0x9f
 3387 0297 07000000 		.4byte	.LVL20-1
 3388 029b 08000000 		.4byte	.LFE11
 3389 029f 0400     		.2byte	0x4
 3390 02a1 F3       		.byte	0xf3
 3391 02a2 01       		.uleb128 0x1
 3392 02a3 50       		.byte	0x50
 3393 02a4 9F       		.byte	0x9f
 3394 02a5 00000000 		.4byte	0
 3395 02a9 00000000 		.4byte	0
 3396              	.LLST18:
 3397 02ad 00000000 		.4byte	.LVL18
 3398 02b1 07000000 		.4byte	.LVL20-1
 3399 02b5 0100     		.2byte	0x1
 3400 02b7 51       		.byte	0x51
 3401 02b8 07000000 		.4byte	.LVL20-1
 3402 02bc 08000000 		.4byte	.LFE11
 3403 02c0 0400     		.2byte	0x4
 3404 02c2 F3       		.byte	0xf3
 3405 02c3 01       		.uleb128 0x1
 3406 02c4 51       		.byte	0x51
 3407 02c5 9F       		.byte	0x9f
 3408 02c6 00000000 		.4byte	0
 3409 02ca 00000000 		.4byte	0
 3410              	.LLST19:
 3411 02ce 00000000 		.4byte	.LVL18
 3412 02d2 07000000 		.4byte	.LVL20-1
 3413 02d6 0100     		.2byte	0x1
 3414 02d8 52       		.byte	0x52
 3415 02d9 07000000 		.4byte	.LVL20-1
 3416 02dd 08000000 		.4byte	.LFE11
 3417 02e1 0400     		.2byte	0x4
 3418 02e3 F3       		.byte	0xf3
 3419 02e4 01       		.uleb128 0x1
 3420 02e5 52       		.byte	0x52
ARM GAS  C:\Users\NICOMA~1\AppData\Local\Temp\ccG3HhJL.s 			page 61


 3421 02e6 9F       		.byte	0x9f
 3422 02e7 00000000 		.4byte	0
 3423 02eb 00000000 		.4byte	0
 3424              	.LLST20:
 3425 02ef 00000000 		.4byte	.LVL21
 3426 02f3 04000000 		.4byte	.LVL22
 3427 02f7 0100     		.2byte	0x1
 3428 02f9 50       		.byte	0x50
 3429 02fa 04000000 		.4byte	.LVL22
 3430 02fe 0B000000 		.4byte	.LVL23-1
 3431 0302 0300     		.2byte	0x3
 3432 0304 70       		.byte	0x70
 3433 0305 50       		.sleb128 -48
 3434 0306 9F       		.byte	0x9f
 3435 0307 0B000000 		.4byte	.LVL23-1
 3436 030b 0C000000 		.4byte	.LFE9
 3437 030f 0400     		.2byte	0x4
 3438 0311 F3       		.byte	0xf3
 3439 0312 01       		.uleb128 0x1
 3440 0313 50       		.byte	0x50
 3441 0314 9F       		.byte	0x9f
 3442 0315 00000000 		.4byte	0
 3443 0319 00000000 		.4byte	0
 3444              	.LLST21:
 3445 031d 00000000 		.4byte	.LVL21
 3446 0321 0B000000 		.4byte	.LVL23-1
 3447 0325 0100     		.2byte	0x1
 3448 0327 51       		.byte	0x51
 3449 0328 0B000000 		.4byte	.LVL23-1
 3450 032c 0C000000 		.4byte	.LFE9
 3451 0330 0400     		.2byte	0x4
 3452 0332 F3       		.byte	0xf3
 3453 0333 01       		.uleb128 0x1
 3454 0334 51       		.byte	0x51
 3455 0335 9F       		.byte	0x9f
 3456 0336 00000000 		.4byte	0
 3457 033a 00000000 		.4byte	0
 3458              	.LLST22:
 3459 033e 00000000 		.4byte	.LFB16
 3460 0342 04000000 		.4byte	.LCFI0
 3461 0346 0200     		.2byte	0x2
 3462 0348 7D       		.byte	0x7d
 3463 0349 00       		.sleb128 0
 3464 034a 04000000 		.4byte	.LCFI0
 3465 034e 1C000000 		.4byte	.LCFI1
 3466 0352 0200     		.2byte	0x2
 3467 0354 7D       		.byte	0x7d
 3468 0355 0C       		.sleb128 12
 3469 0356 1C000000 		.4byte	.LCFI1
 3470 035a 64000000 		.4byte	.LFE16
 3471 035e 0200     		.2byte	0x2
 3472 0360 7D       		.byte	0x7d
 3473 0361 18       		.sleb128 24
 3474 0362 00000000 		.4byte	0
 3475 0366 00000000 		.4byte	0
 3476              	.LLST23:
 3477 036a 00000000 		.4byte	.LVL25
ARM GAS  C:\Users\NICOMA~1\AppData\Local\Temp\ccG3HhJL.s 			page 62


 3478 036e 34000000 		.4byte	.LVL27
 3479 0372 0100     		.2byte	0x1
 3480 0374 50       		.byte	0x50
 3481 0375 34000000 		.4byte	.LVL27
 3482 0379 64000000 		.4byte	.LFE16
 3483 037d 0100     		.2byte	0x1
 3484 037f 54       		.byte	0x54
 3485 0380 00000000 		.4byte	0
 3486 0384 00000000 		.4byte	0
 3487              	.LLST24:
 3488 0388 00000000 		.4byte	.LVL25
 3489 038c 0C000000 		.4byte	.LVL26
 3490 0390 0100     		.2byte	0x1
 3491 0392 51       		.byte	0x51
 3492 0393 0C000000 		.4byte	.LVL26
 3493 0397 3F000000 		.4byte	.LVL29-1
 3494 039b 0100     		.2byte	0x1
 3495 039d 53       		.byte	0x53
 3496 039e 3F000000 		.4byte	.LVL29-1
 3497 03a2 64000000 		.4byte	.LFE16
 3498 03a6 0400     		.2byte	0x4
 3499 03a8 F3       		.byte	0xf3
 3500 03a9 01       		.uleb128 0x1
 3501 03aa 51       		.byte	0x51
 3502 03ab 9F       		.byte	0x9f
 3503 03ac 00000000 		.4byte	0
 3504 03b0 00000000 		.4byte	0
 3505              	.LLST25:
 3506 03b4 00000000 		.4byte	.LVL25
 3507 03b8 38000000 		.4byte	.LVL28
 3508 03bc 0100     		.2byte	0x1
 3509 03be 52       		.byte	0x52
 3510 03bf 38000000 		.4byte	.LVL28
 3511 03c3 64000000 		.4byte	.LFE16
 3512 03c7 0100     		.2byte	0x1
 3513 03c9 55       		.byte	0x55
 3514 03ca 00000000 		.4byte	0
 3515 03ce 00000000 		.4byte	0
 3516              	.LLST26:
 3517 03d2 00000000 		.4byte	.LFB17
 3518 03d6 04000000 		.4byte	.LCFI2
 3519 03da 0200     		.2byte	0x2
 3520 03dc 7D       		.byte	0x7d
 3521 03dd 00       		.sleb128 0
 3522 03de 04000000 		.4byte	.LCFI2
 3523 03e2 20000000 		.4byte	.LFE17
 3524 03e6 0200     		.2byte	0x2
 3525 03e8 7D       		.byte	0x7d
 3526 03e9 08       		.sleb128 8
 3527 03ea 00000000 		.4byte	0
 3528 03ee 00000000 		.4byte	0
 3529              	.LLST27:
 3530 03f2 00000000 		.4byte	.LVL31
 3531 03f6 0F000000 		.4byte	.LVL32-1
 3532 03fa 0100     		.2byte	0x1
 3533 03fc 50       		.byte	0x50
 3534 03fd 0F000000 		.4byte	.LVL32-1
ARM GAS  C:\Users\NICOMA~1\AppData\Local\Temp\ccG3HhJL.s 			page 63


 3535 0401 20000000 		.4byte	.LFE17
 3536 0405 0100     		.2byte	0x1
 3537 0407 54       		.byte	0x54
 3538 0408 00000000 		.4byte	0
 3539 040c 00000000 		.4byte	0
 3540              	.LLST28:
 3541 0410 00000000 		.4byte	.LVL31
 3542 0414 0F000000 		.4byte	.LVL32-1
 3543 0418 0100     		.2byte	0x1
 3544 041a 51       		.byte	0x51
 3545 041b 0F000000 		.4byte	.LVL32-1
 3546 041f 20000000 		.4byte	.LFE17
 3547 0423 0400     		.2byte	0x4
 3548 0425 F3       		.byte	0xf3
 3549 0426 01       		.uleb128 0x1
 3550 0427 51       		.byte	0x51
 3551 0428 9F       		.byte	0x9f
 3552 0429 00000000 		.4byte	0
 3553 042d 00000000 		.4byte	0
 3554              	.LLST29:
 3555 0431 00000000 		.4byte	.LFB18
 3556 0435 04000000 		.4byte	.LCFI3
 3557 0439 0200     		.2byte	0x2
 3558 043b 7D       		.byte	0x7d
 3559 043c 00       		.sleb128 0
 3560 043d 04000000 		.4byte	.LCFI3
 3561 0441 34000000 		.4byte	.LFE18
 3562 0445 0200     		.2byte	0x2
 3563 0447 7D       		.byte	0x7d
 3564 0448 08       		.sleb128 8
 3565 0449 00000000 		.4byte	0
 3566 044d 00000000 		.4byte	0
 3567              	.LLST30:
 3568 0451 00000000 		.4byte	.LVL33
 3569 0455 0F000000 		.4byte	.LVL34-1
 3570 0459 0100     		.2byte	0x1
 3571 045b 50       		.byte	0x50
 3572 045c 0F000000 		.4byte	.LVL34-1
 3573 0460 34000000 		.4byte	.LFE18
 3574 0464 0100     		.2byte	0x1
 3575 0466 54       		.byte	0x54
 3576 0467 00000000 		.4byte	0
 3577 046b 00000000 		.4byte	0
 3578              	.LLST31:
 3579 046f 00000000 		.4byte	.LFB19
 3580 0473 04000000 		.4byte	.LCFI4
 3581 0477 0200     		.2byte	0x2
 3582 0479 7D       		.byte	0x7d
 3583 047a 00       		.sleb128 0
 3584 047b 04000000 		.4byte	.LCFI4
 3585 047f 4C000000 		.4byte	.LFE19
 3586 0483 0200     		.2byte	0x2
 3587 0485 7D       		.byte	0x7d
 3588 0486 10       		.sleb128 16
 3589 0487 00000000 		.4byte	0
 3590 048b 00000000 		.4byte	0
 3591              	.LLST32:
ARM GAS  C:\Users\NICOMA~1\AppData\Local\Temp\ccG3HhJL.s 			page 64


 3592 048f 00000000 		.4byte	.LVL38
 3593 0493 18000000 		.4byte	.LVL39
 3594 0497 0100     		.2byte	0x1
 3595 0499 50       		.byte	0x50
 3596 049a 18000000 		.4byte	.LVL39
 3597 049e 3C000000 		.4byte	.LVL41
 3598 04a2 0100     		.2byte	0x1
 3599 04a4 54       		.byte	0x54
 3600 04a5 3C000000 		.4byte	.LVL41
 3601 04a9 40000000 		.4byte	.LVL42
 3602 04ad 0100     		.2byte	0x1
 3603 04af 50       		.byte	0x50
 3604 04b0 40000000 		.4byte	.LVL42
 3605 04b4 4C000000 		.4byte	.LFE19
 3606 04b8 0100     		.2byte	0x1
 3607 04ba 54       		.byte	0x54
 3608 04bb 00000000 		.4byte	0
 3609 04bf 00000000 		.4byte	0
 3610              	.LLST33:
 3611 04c3 00000000 		.4byte	.LVL38
 3612 04c7 18000000 		.4byte	.LVL39
 3613 04cb 0100     		.2byte	0x1
 3614 04cd 51       		.byte	0x51
 3615 04ce 18000000 		.4byte	.LVL39
 3616 04d2 3C000000 		.4byte	.LVL41
 3617 04d6 0400     		.2byte	0x4
 3618 04d8 F3       		.byte	0xf3
 3619 04d9 01       		.uleb128 0x1
 3620 04da 51       		.byte	0x51
 3621 04db 9F       		.byte	0x9f
 3622 04dc 3C000000 		.4byte	.LVL41
 3623 04e0 44000000 		.4byte	.LVL43
 3624 04e4 0100     		.2byte	0x1
 3625 04e6 51       		.byte	0x51
 3626 04e7 44000000 		.4byte	.LVL43
 3627 04eb 4C000000 		.4byte	.LFE19
 3628 04ef 0400     		.2byte	0x4
 3629 04f1 F3       		.byte	0xf3
 3630 04f2 01       		.uleb128 0x1
 3631 04f3 51       		.byte	0x51
 3632 04f4 9F       		.byte	0x9f
 3633 04f5 00000000 		.4byte	0
 3634 04f9 00000000 		.4byte	0
 3635              	.LLST34:
 3636 04fd 00000000 		.4byte	.LFB20
 3637 0501 04000000 		.4byte	.LCFI5
 3638 0505 0200     		.2byte	0x2
 3639 0507 7D       		.byte	0x7d
 3640 0508 00       		.sleb128 0
 3641 0509 04000000 		.4byte	.LCFI5
 3642 050d 34000000 		.4byte	.LFE20
 3643 0511 0200     		.2byte	0x2
 3644 0513 7D       		.byte	0x7d
 3645 0514 10       		.sleb128 16
 3646 0515 00000000 		.4byte	0
 3647 0519 00000000 		.4byte	0
 3648              	.LLST35:
ARM GAS  C:\Users\NICOMA~1\AppData\Local\Temp\ccG3HhJL.s 			page 65


 3649 051d 00000000 		.4byte	.LVL45
 3650 0521 0C000000 		.4byte	.LVL46
 3651 0525 0100     		.2byte	0x1
 3652 0527 50       		.byte	0x50
 3653 0528 0C000000 		.4byte	.LVL46
 3654 052c 34000000 		.4byte	.LFE20
 3655 0530 0100     		.2byte	0x1
 3656 0532 54       		.byte	0x54
 3657 0533 00000000 		.4byte	0
 3658 0537 00000000 		.4byte	0
 3659              		.section	.debug_aranges,"",%progbits
 3660 0000 84000000 		.4byte	0x84
 3661 0004 0200     		.2byte	0x2
 3662 0006 00000000 		.4byte	.Ldebug_info0
 3663 000a 04       		.byte	0x4
 3664 000b 00       		.byte	0
 3665 000c 0000     		.2byte	0
 3666 000e 0000     		.2byte	0
 3667 0010 00000000 		.4byte	.LFB14
 3668 0014 08000000 		.4byte	.LFE14-.LFB14
 3669 0018 00000000 		.4byte	.LFB8
 3670 001c 0C000000 		.4byte	.LFE8-.LFB8
 3671 0020 00000000 		.4byte	.LFB13
 3672 0024 08000000 		.4byte	.LFE13-.LFB13
 3673 0028 00000000 		.4byte	.LFB7
 3674 002c 0C000000 		.4byte	.LFE7-.LFB7
 3675 0030 00000000 		.4byte	.LFB12
 3676 0034 08000000 		.4byte	.LFE12-.LFB12
 3677 0038 00000000 		.4byte	.LFB10
 3678 003c 0C000000 		.4byte	.LFE10-.LFB10
 3679 0040 00000000 		.4byte	.LFB11
 3680 0044 08000000 		.4byte	.LFE11-.LFB11
 3681 0048 00000000 		.4byte	.LFB9
 3682 004c 0C000000 		.4byte	.LFE9-.LFB9
 3683 0050 00000000 		.4byte	.LFB15
 3684 0054 04000000 		.4byte	.LFE15-.LFB15
 3685 0058 00000000 		.4byte	.LFB16
 3686 005c 64000000 		.4byte	.LFE16-.LFB16
 3687 0060 00000000 		.4byte	.LFB17
 3688 0064 20000000 		.4byte	.LFE17-.LFB17
 3689 0068 00000000 		.4byte	.LFB18
 3690 006c 34000000 		.4byte	.LFE18-.LFB18
 3691 0070 00000000 		.4byte	.LFB19
 3692 0074 4C000000 		.4byte	.LFE19-.LFB19
 3693 0078 00000000 		.4byte	.LFB20
 3694 007c 34000000 		.4byte	.LFE20-.LFB20
 3695 0080 00000000 		.4byte	0
 3696 0084 00000000 		.4byte	0
 3697              		.section	.debug_ranges,"",%progbits
 3698              	.Ldebug_ranges0:
 3699 0000 00000000 		.4byte	.LFB14
 3700 0004 08000000 		.4byte	.LFE14
 3701 0008 00000000 		.4byte	.LFB8
 3702 000c 0C000000 		.4byte	.LFE8
 3703 0010 00000000 		.4byte	.LFB13
 3704 0014 08000000 		.4byte	.LFE13
 3705 0018 00000000 		.4byte	.LFB7
ARM GAS  C:\Users\NICOMA~1\AppData\Local\Temp\ccG3HhJL.s 			page 66


 3706 001c 0C000000 		.4byte	.LFE7
 3707 0020 00000000 		.4byte	.LFB12
 3708 0024 08000000 		.4byte	.LFE12
 3709 0028 00000000 		.4byte	.LFB10
 3710 002c 0C000000 		.4byte	.LFE10
 3711 0030 00000000 		.4byte	.LFB11
 3712 0034 08000000 		.4byte	.LFE11
 3713 0038 00000000 		.4byte	.LFB9
 3714 003c 0C000000 		.4byte	.LFE9
 3715 0040 00000000 		.4byte	.LFB15
 3716 0044 04000000 		.4byte	.LFE15
 3717 0048 00000000 		.4byte	.LFB16
 3718 004c 64000000 		.4byte	.LFE16
 3719 0050 00000000 		.4byte	.LFB17
 3720 0054 20000000 		.4byte	.LFE17
 3721 0058 00000000 		.4byte	.LFB18
 3722 005c 34000000 		.4byte	.LFE18
 3723 0060 00000000 		.4byte	.LFB19
 3724 0064 4C000000 		.4byte	.LFE19
 3725 0068 00000000 		.4byte	.LFB20
 3726 006c 34000000 		.4byte	.LFE20
 3727 0070 00000000 		.4byte	0
 3728 0074 00000000 		.4byte	0
 3729              		.section	.debug_line,"",%progbits
 3730              	.Ldebug_line0:
 3731 0000 D2020000 		.section	.debug_str,"MS",%progbits,1
 3731      0200AA01 
 3731      00000201 
 3731      FB0E0D00 
 3731      01010101 
 3732              	.LASF108:
 3733 0000 63684F51 		.ascii	"chOQPutTimeout\000"
 3733      50757454 
 3733      696D656F 
 3733      757400
 3734              	.LASF39:
 3735 000f 705F6D73 		.ascii	"p_msg\000"
 3735      6700
 3736              	.LASF2:
 3737 0015 73697A65 		.ascii	"size_t\000"
 3737      5F7400
 3738              	.LASF59:
 3739 001c 7264796D 		.ascii	"rdymsg\000"
 3739      736700
 3740              	.LASF109:
 3741 0023 63684951 		.ascii	"chIQInit\000"
 3741      496E6974 
 3741      00
 3742              	.LASF76:
 3743 002c 4F757470 		.ascii	"OutputQueue\000"
 3743      75745175 
 3743      65756500 
 3744              	.LASF105:
 3745 0038 63684951 		.ascii	"chIQReadTimeout\000"
 3745      52656164 
 3745      54696D65 
 3745      6F757400 
ARM GAS  C:\Users\NICOMA~1\AppData\Local\Temp\ccG3HhJL.s 			page 67


 3746              	.LASF12:
 3747 0048 6C6F6E67 		.ascii	"long long unsigned int\000"
 3747      206C6F6E 
 3747      6720756E 
 3747      7369676E 
 3747      65642069 
 3748              	.LASF86:
 3749 005f 62617564 		.ascii	"baud_rate\000"
 3749      5F726174 
 3749      6500
 3750              	.LASF60:
 3751 0069 65786974 		.ascii	"exitcode\000"
 3751      636F6465 
 3751      00
 3752              	.LASF27:
 3753 0072 705F7072 		.ascii	"p_prio\000"
 3753      696F00
 3754              	.LASF94:
 3755 0079 72656164 		.ascii	"readt\000"
 3755      7400
 3756              	.LASF66:
 3757 007f 715F7761 		.ascii	"q_waiting\000"
 3757      6974696E 
 3757      6700
 3758              	.LASF11:
 3759 0089 6C6F6E67 		.ascii	"long long int\000"
 3759      206C6F6E 
 3759      6720696E 
 3759      7400
 3760              	.LASF1:
 3761 0097 7369676E 		.ascii	"signed char\000"
 3761      65642063 
 3761      68617200 
 3762              	.LASF78:
 3763 00a3 53445F53 		.ascii	"SD_STOP\000"
 3763      544F5000 
 3764              	.LASF13:
 3765 00ab 626F6F6C 		.ascii	"bool_t\000"
 3765      5F7400
 3766              	.LASF49:
 3767 00b2 6D5F7175 		.ascii	"m_queue\000"
 3767      65756500 
 3768              	.LASF18:
 3769 00ba 74736C69 		.ascii	"tslices_t\000"
 3769      6365735F 
 3769      7400
 3770              	.LASF83:
 3771 00c4 73746174 		.ascii	"state\000"
 3771      6500
 3772              	.LASF110:
 3773 00ca 63684F51 		.ascii	"chOQInit\000"
 3773      496E6974 
 3773      00
 3774              	.LASF8:
 3775 00d3 6C6F6E67 		.ascii	"long int\000"
 3775      20696E74 
 3775      00
ARM GAS  C:\Users\NICOMA~1\AppData\Local\Temp\ccG3HhJL.s 			page 68


 3776              	.LASF16:
 3777 00dc 74737461 		.ascii	"tstate_t\000"
 3777      74655F74 
 3777      00
 3778              	.LASF119:
 3779 00e5 63684F51 		.ascii	"chOQGetI\000"
 3779      47657449 
 3779      00
 3780              	.LASF115:
 3781 00ee 73645F6C 		.ascii	"sd_lld_init\000"
 3781      6C645F69 
 3781      6E697400 
 3782              	.LASF68:
 3783 00fa 715F6275 		.ascii	"q_buffer\000"
 3783      66666572 
 3783      00
 3784              	.LASF70:
 3785 0103 715F7772 		.ascii	"q_wrptr\000"
 3785      70747200 
 3786              	.LASF118:
 3787 010b 63684576 		.ascii	"chEvtBroadcastFlagsI\000"
 3787      7442726F 
 3787      61646361 
 3787      7374466C 
 3787      61677349 
 3788              	.LASF29:
 3789 0120 705F6E65 		.ascii	"p_newer\000"
 3789      77657200 
 3790              	.LASF122:
 3791 0128 433A5C55 		.ascii	"C:\\Users\\Nico Maas\\Desktop\\ChibiOS\\demos\\ARM1"
 3791      73657273 
 3791      5C4E6963 
 3791      6F204D61 
 3791      61735C44 
 3792 0155 312D4243 		.ascii	"1-BCM2835-GCC\000"
 3792      4D323833 
 3792      352D4743 
 3792      4300
 3793              	.LASF116:
 3794 0163 63685363 		.ascii	"chSchRescheduleS\000"
 3794      68526573 
 3794      63686564 
 3794      756C6553 
 3794      00
 3795              	.LASF45:
 3796 0174 72656761 		.ascii	"regarm_t\000"
 3796      726D5F74 
 3796      00
 3797              	.LASF117:
 3798 017d 63684951 		.ascii	"chIQPutI\000"
 3798      50757449 
 3798      00
 3799              	.LASF57:
 3800 0186 4576656E 		.ascii	"EventSource\000"
 3800      74536F75 
 3800      72636500 
 3801              	.LASF0:
ARM GAS  C:\Users\NICOMA~1\AppData\Local\Temp\ccG3HhJL.s 			page 69


 3802 0192 756E7369 		.ascii	"unsigned int\000"
 3802      676E6564 
 3802      20696E74 
 3802      00
 3803              	.LASF88:
 3804 019f 53657269 		.ascii	"SerialDriverVMT\000"
 3804      616C4472 
 3804      69766572 
 3804      564D5400 
 3805              	.LASF114:
 3806 01af 63684951 		.ascii	"chIQResetI\000"
 3806      52657365 
 3806      744900
 3807              	.LASF99:
 3808 01ba 696E6F74 		.ascii	"inotify\000"
 3808      69667900 
 3809              	.LASF84:
 3810 01c2 69717565 		.ascii	"iqueue\000"
 3810      756500
 3811              	.LASF10:
 3812 01c9 6C6F6E67 		.ascii	"long unsigned int\000"
 3812      20756E73 
 3812      69676E65 
 3812      6420696E 
 3812      7400
 3813              	.LASF96:
 3814 01db 74696D65 		.ascii	"timeout\000"
 3814      6F757400 
 3815              	.LASF92:
 3816 01e3 67657474 		.ascii	"gett\000"
 3816      00
 3817              	.LASF82:
 3818 01e8 6576656E 		.ascii	"event\000"
 3818      7400
 3819              	.LASF47:
 3820 01ee 636F6E74 		.ascii	"context\000"
 3820      65787400 
 3821              	.LASF6:
 3822 01f6 73686F72 		.ascii	"short unsigned int\000"
 3822      7420756E 
 3822      7369676E 
 3822      65642069 
 3822      6E7400
 3823              	.LASF20:
 3824 0209 6D73675F 		.ascii	"msg_t\000"
 3824      7400
 3825              	.LASF85:
 3826 020f 6F717565 		.ascii	"oqueue\000"
 3826      756500
 3827              	.LASF53:
 3828 0216 656C5F6E 		.ascii	"el_next\000"
 3828      65787400 
 3829              	.LASF93:
 3830 021e 77726974 		.ascii	"writet\000"
 3830      657400
 3831              	.LASF15:
 3832 0225 746D6F64 		.ascii	"tmode_t\000"
ARM GAS  C:\Users\NICOMA~1\AppData\Local\Temp\ccG3HhJL.s 			page 70


 3832      655F7400 
 3833              	.LASF44:
 3834 022d 54687265 		.ascii	"ThreadsList\000"
 3834      6164734C 
 3834      69737400 
 3835              	.LASF21:
 3836 0239 6576656E 		.ascii	"eventmask_t\000"
 3836      746D6173 
 3836      6B5F7400 
 3837              	.LASF75:
 3838 0245 496E7075 		.ascii	"InputQueue\000"
 3838      74517565 
 3838      756500
 3839              	.LASF48:
 3840 0250 4D757465 		.ascii	"Mutex\000"
 3840      7800
 3841              	.LASF65:
 3842 0256 47656E65 		.ascii	"GenericQueue\000"
 3842      72696351 
 3842      75657565 
 3842      00
 3843              	.LASF106:
 3844 0263 63684F51 		.ascii	"chOQWriteTimeout\000"
 3844      57726974 
 3844      6554696D 
 3844      656F7574 
 3844      00
 3845              	.LASF89:
 3846 0274 77726974 		.ascii	"write\000"
 3846      6500
 3847              	.LASF91:
 3848 027a 70757474 		.ascii	"putt\000"
 3848      00
 3849              	.LASF64:
 3850 027f 73697A65 		.ascii	"sizetype\000"
 3850      74797065 
 3850      00
 3851              	.LASF67:
 3852 0288 715F636F 		.ascii	"q_counter\000"
 3852      756E7465 
 3852      7200
 3853              	.LASF30:
 3854 0292 705F6F6C 		.ascii	"p_older\000"
 3854      64657200 
 3855              	.LASF43:
 3856 029a 54687265 		.ascii	"ThreadsQueue\000"
 3856      61647351 
 3856      75657565 
 3856      00
 3857              	.LASF103:
 3858 02a7 73645374 		.ascii	"sdStop\000"
 3858      6F7000
 3859              	.LASF95:
 3860 02ae 74696D65 		.ascii	"time\000"
 3860      00
 3861              	.LASF120:
 3862 02b3 474E5520 		.ascii	"GNU C 4.7.2\000"
ARM GAS  C:\Users\NICOMA~1\AppData\Local\Temp\ccG3HhJL.s 			page 71


 3862      4320342E 
 3862      372E3200 
 3863              	.LASF55:
 3864 02bf 656C5F6D 		.ascii	"el_mask\000"
 3864      61736B00 
 3865              	.LASF87:
 3866 02c7 53657269 		.ascii	"SerialConfig\000"
 3866      616C436F 
 3866      6E666967 
 3866      00
 3867              	.LASF17:
 3868 02d4 74726566 		.ascii	"trefs_t\000"
 3868      735F7400 
 3869              	.LASF74:
 3870 02dc 716E6F74 		.ascii	"qnotify_t\000"
 3870      6966795F 
 3870      7400
 3871              	.LASF26:
 3872 02e6 705F7072 		.ascii	"p_prev\000"
 3872      657600
 3873              	.LASF19:
 3874 02ed 74707269 		.ascii	"tprio_t\000"
 3874      6F5F7400 
 3875              	.LASF71:
 3876 02f5 715F7264 		.ascii	"q_rdptr\000"
 3876      70747200 
 3877              	.LASF14:
 3878 02fd 5F426F6F 		.ascii	"_Bool\000"
 3878      6C00
 3879              	.LASF7:
 3880 0303 696E7433 		.ascii	"int32_t\000"
 3880      325F7400 
 3881              	.LASF4:
 3882 030b 756E7369 		.ascii	"unsigned char\000"
 3882      676E6564 
 3882      20636861 
 3882      7200
 3883              	.LASF111:
 3884 0319 73645F6C 		.ascii	"sd_lld_start\000"
 3884      6C645F73 
 3884      74617274 
 3884      00
 3885              	.LASF54:
 3886 0326 656C5F6C 		.ascii	"el_listener\000"
 3886      69737465 
 3886      6E657200 
 3887              	.LASF56:
 3888 0332 656C5F66 		.ascii	"el_flags\000"
 3888      6C616773 
 3888      00
 3889              	.LASF41:
 3890 033b 705F6D74 		.ascii	"p_mtxlist\000"
 3890      786C6973 
 3890      7400
 3891              	.LASF5:
 3892 0345 73686F72 		.ascii	"short int\000"
 3892      7420696E 
ARM GAS  C:\Users\NICOMA~1\AppData\Local\Temp\ccG3HhJL.s 			page 72


 3892      7400
 3893              	.LASF32:
 3894 034f 705F7374 		.ascii	"p_state\000"
 3894      61746500 
 3895              	.LASF35:
 3896 0357 705F7072 		.ascii	"p_preempt\000"
 3896      65656D70 
 3896      7400
 3897              	.LASF98:
 3898 0361 73644F62 		.ascii	"sdObjectInit\000"
 3898      6A656374 
 3898      496E6974 
 3898      00
 3899              	.LASF62:
 3900 036e 65776D61 		.ascii	"ewmask\000"
 3900      736B00
 3901              	.LASF25:
 3902 0375 705F6E65 		.ascii	"p_next\000"
 3902      787400
 3903              	.LASF33:
 3904 037c 705F666C 		.ascii	"p_flags\000"
 3904      61677300 
 3905              	.LASF24:
 3906 0384 54687265 		.ascii	"Thread\000"
 3906      616400
 3907              	.LASF40:
 3908 038b 705F6570 		.ascii	"p_epending\000"
 3908      656E6469 
 3908      6E6700
 3909              	.LASF77:
 3910 0396 53445F55 		.ascii	"SD_UNINIT\000"
 3910      4E494E49 
 3910      5400
 3911              	.LASF9:
 3912 03a0 75696E74 		.ascii	"uint32_t\000"
 3912      33325F74 
 3912      00
 3913              	.LASF80:
 3914 03a9 73647374 		.ascii	"sdstate_t\000"
 3914      6174655F 
 3914      7400
 3915              	.LASF81:
 3916 03b3 53657269 		.ascii	"SerialDriver\000"
 3916      616C4472 
 3916      69766572 
 3916      00
 3917              	.LASF90:
 3918 03c0 72656164 		.ascii	"read\000"
 3918      00
 3919              	.LASF63:
 3920 03c5 63686172 		.ascii	"char\000"
 3920      00
 3921              	.LASF104:
 3922 03ca 7364496E 		.ascii	"sdIncomingDataI\000"
 3922      636F6D69 
 3922      6E674461 
 3922      74614900 
ARM GAS  C:\Users\NICOMA~1\AppData\Local\Temp\ccG3HhJL.s 			page 73


 3923              	.LASF102:
 3924 03da 636F6E66 		.ascii	"config\000"
 3924      696700
 3925              	.LASF101:
 3926 03e1 73645374 		.ascii	"sdStart\000"
 3926      61727400 
 3927              	.LASF51:
 3928 03e9 6D5F6E65 		.ascii	"m_next\000"
 3928      787400
 3929              	.LASF23:
 3930 03f0 73797374 		.ascii	"systime_t\000"
 3930      696D655F 
 3930      7400
 3931              	.LASF42:
 3932 03fa 705F7265 		.ascii	"p_realprio\000"
 3932      616C7072 
 3932      696F00
 3933              	.LASF113:
 3934 0405 63684F51 		.ascii	"chOQResetI\000"
 3934      52657365 
 3934      744900
 3935              	.LASF36:
 3936 0410 705F7469 		.ascii	"p_time\000"
 3936      6D6500
 3937              	.LASF46:
 3938 0417 696E7463 		.ascii	"intctx\000"
 3938      747800
 3939              	.LASF38:
 3940 041e 705F6D73 		.ascii	"p_msgqueue\000"
 3940      67717565 
 3940      756500
 3941              	.LASF79:
 3942 0429 53445F52 		.ascii	"SD_READY\000"
 3942      45414459 
 3942      00
 3943              	.LASF22:
 3944 0432 666C6167 		.ascii	"flagsmask_t\000"
 3944      736D6173 
 3944      6B5F7400 
 3945              	.LASF69:
 3946 043e 715F746F 		.ascii	"q_top\000"
 3946      7000
 3947              	.LASF34:
 3948 0444 705F7265 		.ascii	"p_refs\000"
 3948      667300
 3949              	.LASF72:
 3950 044b 715F6E6F 		.ascii	"q_notify\000"
 3950      74696679 
 3950      00
 3951              	.LASF123:
 3952 0454 73645265 		.ascii	"sdRequestDataI\000"
 3952      71756573 
 3952      74446174 
 3952      614900
 3953              	.LASF3:
 3954 0463 75696E74 		.ascii	"uint8_t\000"
 3954      385F7400 
ARM GAS  C:\Users\NICOMA~1\AppData\Local\Temp\ccG3HhJL.s 			page 74


 3955              	.LASF121:
 3956 046b 2E2E2F2E 		.ascii	"../../os/hal/src/serial.c\000"
 3956      2E2F6F73 
 3956      2F68616C 
 3956      2F737263 
 3956      2F736572 
 3957              	.LASF100:
 3958 0485 6F6E6F74 		.ascii	"onotify\000"
 3958      69667900 
 3959              	.LASF52:
 3960 048d 4576656E 		.ascii	"EventListener\000"
 3960      744C6973 
 3960      74656E65 
 3960      7200
 3961              	.LASF61:
 3962 049b 77746F62 		.ascii	"wtobjp\000"
 3962      6A7000
 3963              	.LASF31:
 3964 04a2 705F6E61 		.ascii	"p_name\000"
 3964      6D6500
 3965              	.LASF58:
 3966 04a9 65735F6E 		.ascii	"es_next\000"
 3966      65787400 
 3967              	.LASF112:
 3968 04b1 73645F6C 		.ascii	"sd_lld_stop\000"
 3968      6C645F73 
 3968      746F7000 
 3969              	.LASF97:
 3970 04bd 7364496E 		.ascii	"sdInit\000"
 3970      697400
 3971              	.LASF73:
 3972 04c4 715F6C69 		.ascii	"q_link\000"
 3972      6E6B00
 3973              	.LASF50:
 3974 04cb 6D5F6F77 		.ascii	"m_owner\000"
 3974      6E657200 
 3975              	.LASF28:
 3976 04d3 705F6374 		.ascii	"p_ctx\000"
 3976      7800
 3977              	.LASF37:
 3978 04d9 705F7761 		.ascii	"p_waiting\000"
 3978      6974696E 
 3978      6700
 3979              	.LASF107:
 3980 04e3 63684951 		.ascii	"chIQGetTimeout\000"
 3980      47657454 
 3980      696D656F 
 3980      757400
 3981              		.ident	"GCC: (GNU) 4.7.2"
ARM GAS  C:\Users\NICOMA~1\AppData\Local\Temp\ccG3HhJL.s 			page 75


DEFINED SYMBOLS
                            *ABS*:00000000 serial.c
C:\Users\NICOMA~1\AppData\Local\Temp\ccG3HhJL.s:17     .text.readt:00000000 $a
C:\Users\NICOMA~1\AppData\Local\Temp\ccG3HhJL.s:19     .text.readt:00000000 readt
C:\Users\NICOMA~1\AppData\Local\Temp\ccG3HhJL.s:39     .text.read:00000000 $a
C:\Users\NICOMA~1\AppData\Local\Temp\ccG3HhJL.s:41     .text.read:00000000 read
C:\Users\NICOMA~1\AppData\Local\Temp\ccG3HhJL.s:61     .text.writet:00000000 $a
C:\Users\NICOMA~1\AppData\Local\Temp\ccG3HhJL.s:63     .text.writet:00000000 writet
C:\Users\NICOMA~1\AppData\Local\Temp\ccG3HhJL.s:82     .text.write:00000000 $a
C:\Users\NICOMA~1\AppData\Local\Temp\ccG3HhJL.s:84     .text.write:00000000 write
C:\Users\NICOMA~1\AppData\Local\Temp\ccG3HhJL.s:104    .text.gett:00000000 $a
C:\Users\NICOMA~1\AppData\Local\Temp\ccG3HhJL.s:106    .text.gett:00000000 gett
C:\Users\NICOMA~1\AppData\Local\Temp\ccG3HhJL.s:125    .text.get:00000000 $a
C:\Users\NICOMA~1\AppData\Local\Temp\ccG3HhJL.s:127    .text.get:00000000 get
C:\Users\NICOMA~1\AppData\Local\Temp\ccG3HhJL.s:147    .text.putt:00000000 $a
C:\Users\NICOMA~1\AppData\Local\Temp\ccG3HhJL.s:149    .text.putt:00000000 putt
C:\Users\NICOMA~1\AppData\Local\Temp\ccG3HhJL.s:168    .text.put:00000000 $a
C:\Users\NICOMA~1\AppData\Local\Temp\ccG3HhJL.s:170    .text.put:00000000 put
C:\Users\NICOMA~1\AppData\Local\Temp\ccG3HhJL.s:190    .text.sdInit:00000000 $a
C:\Users\NICOMA~1\AppData\Local\Temp\ccG3HhJL.s:193    .text.sdInit:00000000 sdInit
C:\Users\NICOMA~1\AppData\Local\Temp\ccG3HhJL.s:208    .text.sdObjectInit:00000000 $a
C:\Users\NICOMA~1\AppData\Local\Temp\ccG3HhJL.s:211    .text.sdObjectInit:00000000 sdObjectInit
C:\Users\NICOMA~1\AppData\Local\Temp\ccG3HhJL.s:269    .text.sdObjectInit:00000060 $d
C:\Users\NICOMA~1\AppData\Local\Temp\ccG3HhJL.s:274    .text.sdStart:00000000 $a
C:\Users\NICOMA~1\AppData\Local\Temp\ccG3HhJL.s:277    .text.sdStart:00000000 sdStart
C:\Users\NICOMA~1\AppData\Local\Temp\ccG3HhJL.s:310    .text.sdStop:00000000 $a
C:\Users\NICOMA~1\AppData\Local\Temp\ccG3HhJL.s:313    .text.sdStop:00000000 sdStop
C:\Users\NICOMA~1\AppData\Local\Temp\ccG3HhJL.s:357    .text.sdIncomingDataI:00000000 $a
C:\Users\NICOMA~1\AppData\Local\Temp\ccG3HhJL.s:360    .text.sdIncomingDataI:00000000 sdIncomingDataI
C:\Users\NICOMA~1\AppData\Local\Temp\ccG3HhJL.s:414    .text.sdRequestDataI:00000000 $a
C:\Users\NICOMA~1\AppData\Local\Temp\ccG3HhJL.s:417    .text.sdRequestDataI:00000000 sdRequestDataI
C:\Users\NICOMA~1\AppData\Local\Temp\ccG3HhJL.s:457    .rodata.vmt:00000000 $d
C:\Users\NICOMA~1\AppData\Local\Temp\ccG3HhJL.s:461    .rodata.vmt:00000000 vmt
                     .debug_frame:00000010 $d

UNDEFINED SYMBOLS
chIQReadTimeout
chOQWriteTimeout
chIQGetTimeout
chOQPutTimeout
sd_lld_init
chIQInit
chOQInit
sd_lld_start
sd_lld_stop
chOQResetI
chIQResetI
chSchRescheduleS
chIQPutI
chEvtBroadcastFlagsI
chOQGetI
