ARM GAS  C:\Users\NICOMA~1\AppData\Local\Temp\ccJ5ykxM.s 			page 1


   1              		.cpu arm1176jz-s
   2              		.fpu softvfp
   3              		.eabi_attribute 20, 1
   4              		.eabi_attribute 21, 1
   5              		.eabi_attribute 23, 3
   6              		.eabi_attribute 24, 1
   7              		.eabi_attribute 25, 1
   8              		.eabi_attribute 26, 1
   9              		.eabi_attribute 30, 2
  10              		.eabi_attribute 34, 1
  11              		.eabi_attribute 18, 4
  12              		.file	"shell.c"
  13              		.text
  14              	.Ltext0:
  15              		.cfi_sections	.debug_frame
  16              		.section	.text.chprintf,"ax",%progbits
  17              		.align	2
  18              		.type	chprintf, %function
  19              	chprintf:
  20              	.LFB7:
  21              		.file 1 "../../os/various/chprintf.h"
  22              		.loc 1 69 0
  23              		.cfi_startproc
  24              		@ args = 4, pretend = 12, frame = 8
  25              		@ frame_needed = 0, uses_anonymous_args = 1
  26              	.LVL0:
  27 0000 0E002DE9 		stmfd	sp!, {r1, r2, r3}
  28              	.LCFI0:
  29              		.cfi_def_cfa_offset 12
  30              		.cfi_offset 1, -12
  31              		.cfi_offset 2, -8
  32              		.cfi_offset 3, -4
  33 0004 04E02DE5 		str	lr, [sp, #-4]!
  34              	.LCFI1:
  35              		.cfi_def_cfa_offset 16
  36              		.cfi_offset 14, -16
  37 0008 08D04DE2 		sub	sp, sp, #8
  38              	.LCFI2:
  39              		.cfi_def_cfa_offset 24
  40              		.loc 1 72 0
  41 000c 10308DE2 		add	r3, sp, #16
  42              		.loc 1 73 0
  43 0010 0C109DE5 		ldr	r1, [sp, #12]
  44 0014 0320A0E1 		mov	r2, r3
  45              		.loc 1 72 0
  46 0018 04308DE5 		str	r3, [sp, #4]
  47              		.loc 1 73 0
  48 001c FEFFFFEB 		bl	chvprintf
  49              	.LVL1:
  50              		.loc 1 75 0
  51 0020 08D08DE2 		add	sp, sp, #8
  52 0024 04E09DE4 		ldr	lr, [sp], #4
  53 0028 0CD08DE2 		add	sp, sp, #12
  54 002c 1EFF2FE1 		bx	lr
  55              		.cfi_endproc
  56              	.LFE7:
  57              		.size	chprintf, .-chprintf
ARM GAS  C:\Users\NICOMA~1\AppData\Local\Temp\ccJ5ykxM.s 			page 2


  58              		.section	.text._strtok.constprop.2,"ax",%progbits
  59              		.align	2
  60              		.type	_strtok.constprop.2, %function
  61              	_strtok.constprop.2:
  62              	.LFB22:
  63              		.file 2 "../../os/various/shell.c"
  64              		.loc 2 37 0
  65              		.cfi_startproc
  66              		@ args = 0, pretend = 0, frame = 0
  67              		@ frame_needed = 0, uses_anonymous_args = 0
  68              	.LVL2:
  69 0000 38402DE9 		stmfd	sp!, {r3, r4, r5, lr}
  70              	.LCFI3:
  71              		.cfi_def_cfa_offset 16
  72              		.cfi_offset 3, -16
  73              		.cfi_offset 4, -12
  74              		.cfi_offset 5, -8
  75              		.cfi_offset 14, -4
  76              		.loc 2 39 0
  77 0004 004050E2 		subs	r4, r0, #0
  78              		.loc 2 37 0
  79 0008 0150A0E1 		mov	r5, r1
  80              		.loc 2 40 0
  81 000c 00408115 		strne	r4, [r1, #0]
  82              		.loc 2 39 0
  83 0010 1000000A 		beq	.L15
  84              	.L4:
  85              		.loc 2 46 0
  86 0014 54109FE5 		ldr	r1, .L16
  87              	.LVL3:
  88 0018 0400A0E1 		mov	r0, r4
  89              	.LVL4:
  90 001c FEFFFFEB 		bl	strspn
  91              	.LVL5:
  92 0020 004084E0 		add	r4, r4, r0
  93              	.LVL6:
  94              		.loc 2 47 0
  95 0024 0400A0E1 		mov	r0, r4
  96 0028 40109FE5 		ldr	r1, .L16
  97 002c FEFFFFEB 		bl	strpbrk
  98              	.LVL7:
  99              		.loc 2 48 0
 100 0030 000050E3 		cmp	r0, #0
 101              		.loc 2 49 0
 102 0034 0030A013 		movne	r3, #0
 103              		.loc 2 47 0
 104 0038 000085E5 		str	r0, [r5, #0]
 105              		.loc 2 49 0
 106 003c 0130C014 		strneb	r3, [r0], #1
 107 0040 00008515 		strne	r0, [r5, #0]
 108              		.loc 2 51 0
 109 0044 0030D4E5 		ldrb	r3, [r4, #0]	@ zero_extendqisi2
 110 0048 000053E3 		cmp	r3, #0
 111 004c 0400000A 		beq	.L7
 112              		.loc 2 52 0
 113 0050 0400A0E1 		mov	r0, r4
 114 0054 3880BDE8 		ldmfd	sp!, {r3, r4, r5, pc}
ARM GAS  C:\Users\NICOMA~1\AppData\Local\Temp\ccJ5ykxM.s 			page 3


 115              	.LVL8:
 116              	.L15:
 117              		.loc 2 41 0
 118 0058 004091E5 		ldr	r4, [r1, #0]
 119              	.LVL9:
 120              		.loc 2 43 0
 121 005c 000054E3 		cmp	r4, #0
 122 0060 EBFFFF1A 		bne	.L4
 123              	.LVL10:
 124              	.L7:
 125              		.loc 2 44 0
 126 0064 0040A0E3 		mov	r4, #0
 127              	.LVL11:
 128              		.loc 2 52 0
 129 0068 0400A0E1 		mov	r0, r4
 130 006c 3880BDE8 		ldmfd	sp!, {r3, r4, r5, pc}
 131              	.L17:
 132              		.align	2
 133              	.L16:
 134 0070 00000000 		.word	.LC0
 135              		.cfi_endproc
 136              	.LFE22:
 137              		.size	_strtok.constprop.2, .-_strtok.constprop.2
 138              		.section	.text.cmd_systime,"ax",%progbits
 139              		.align	2
 140              		.type	cmd_systime, %function
 141              	cmd_systime:
 142              	.LFB12:
 143              		.loc 2 99 0
 144              		.cfi_startproc
 145              		@ args = 0, pretend = 0, frame = 0
 146              		@ frame_needed = 0, uses_anonymous_args = 0
 147              		@ link register save eliminated.
 148              	.LVL12:
 149              		.loc 2 102 0
 150 0000 000051E3 		cmp	r1, #0
 151 0004 020000DA 		ble	.L19
 152              	.LVL13:
 153              	.LBB6:
 154              	.LBB7:
 155              		.loc 2 56 0
 156 0008 14109FE5 		ldr	r1, .L20
 157              	.LVL14:
 158 000c 14209FE5 		ldr	r2, .L20+4
 159              	.LVL15:
 160              	.LBE7:
 161              	.LBE6:
 162              		.loc 2 107 0
 163              	.LBB9:
 164              	.LBB8:
 165              		.loc 2 56 0
 166 0010 FEFFFFEA 		b	chprintf
 167              	.LVL16:
 168              	.L19:
 169              	.LBE8:
 170              	.LBE9:
 171              	.LBB10:
ARM GAS  C:\Users\NICOMA~1\AppData\Local\Temp\ccJ5ykxM.s 			page 4


 172              	.LBB11:
 173              		.loc 2 106 0
 174 0014 10309FE5 		ldr	r3, .L20+8
 175 0018 10109FE5 		ldr	r1, .L20+12
 176              	.LVL17:
 177 001c 0C2093E5 		ldr	r2, [r3, #12]
 178              	.LVL18:
 179              	.LBE11:
 180              	.LBE10:
 181              		.loc 2 107 0
 182              	.LBB13:
 183              	.LBB12:
 184              		.loc 2 106 0
 185 0020 FEFFFFEA 		b	chprintf
 186              	.LVL19:
 187              	.L21:
 188              		.align	2
 189              	.L20:
 190 0024 04000000 		.word	.LC1
 191 0028 10000000 		.word	.LC2
 192 002c 00000000 		.word	vtlist
 193 0030 18000000 		.word	.LC3
 194              	.LBE12:
 195              	.LBE13:
 196              		.cfi_endproc
 197              	.LFE12:
 198              		.size	cmd_systime, .-cmd_systime
 199              		.section	.text.cmd_info,"ax",%progbits
 200              		.align	2
 201              		.type	cmd_info, %function
 202              	cmd_info:
 203              	.LFB11:
 204              		.loc 2 67 0
 205              		.cfi_startproc
 206              		@ args = 0, pretend = 0, frame = 0
 207              		@ frame_needed = 0, uses_anonymous_args = 0
 208              	.LVL20:
 209 0000 10402DE9 		stmfd	sp!, {r4, lr}
 210              	.LCFI4:
 211              		.cfi_def_cfa_offset 8
 212              		.cfi_offset 4, -8
 213              		.cfi_offset 14, -4
 214              		.loc 2 70 0
 215 0004 000051E3 		cmp	r1, #0
 216              		.loc 2 67 0
 217 0008 08D04DE2 		sub	sp, sp, #8
 218              	.LCFI5:
 219              		.cfi_def_cfa_offset 16
 220              		.loc 2 67 0
 221 000c 0040A0E1 		mov	r4, r0
 222              		.loc 2 70 0
 223 0010 040000DA 		ble	.L23
 224              	.LVL21:
 225              	.LBB18:
 226              	.LBB19:
 227              		.loc 2 56 0
 228 0014 8C109FE5 		ldr	r1, .L24
ARM GAS  C:\Users\NICOMA~1\AppData\Local\Temp\ccJ5ykxM.s 			page 5


 229              	.LVL22:
 230 0018 8C209FE5 		ldr	r2, .L24+4
 231              	.LVL23:
 232              	.LBE19:
 233              	.LBE18:
 234              		.loc 2 97 0
 235 001c 08D08DE2 		add	sp, sp, #8
 236 0020 1040BDE8 		ldmfd	sp!, {r4, lr}
 237              	.LBB21:
 238              	.LBB20:
 239              		.loc 2 56 0
 240 0024 FEFFFFEA 		b	chprintf
 241              	.LVL24:
 242              	.L23:
 243              	.LBE20:
 244              	.LBE21:
 245              	.LBB22:
 246              	.LBB23:
 247              		.loc 2 75 0
 248 0028 80109FE5 		ldr	r1, .L24+8
 249              	.LVL25:
 250 002c 80209FE5 		ldr	r2, .L24+12
 251              	.LVL26:
 252 0030 FEFFFFEB 		bl	chprintf
 253              	.LVL27:
 254              		.loc 2 77 0
 255 0034 0400A0E1 		mov	r0, r4
 256 0038 78109FE5 		ldr	r1, .L24+16
 257 003c 78209FE5 		ldr	r2, .L24+20
 258 0040 FEFFFFEB 		bl	chprintf
 259              	.LVL28:
 260              		.loc 2 79 0
 261 0044 0400A0E1 		mov	r0, r4
 262 0048 70109FE5 		ldr	r1, .L24+24
 263 004c 70209FE5 		ldr	r2, .L24+28
 264 0050 FEFFFFEB 		bl	chprintf
 265              	.LVL29:
 266              		.loc 2 81 0
 267 0054 0400A0E1 		mov	r0, r4
 268 0058 68109FE5 		ldr	r1, .L24+32
 269 005c 68209FE5 		ldr	r2, .L24+36
 270 0060 FEFFFFEB 		bl	chprintf
 271              	.LVL30:
 272              		.loc 2 84 0
 273 0064 0400A0E1 		mov	r0, r4
 274 0068 60109FE5 		ldr	r1, .L24+40
 275 006c 60209FE5 		ldr	r2, .L24+44
 276 0070 FEFFFFEB 		bl	chprintf
 277              	.LVL31:
 278              		.loc 2 87 0
 279 0074 0400A0E1 		mov	r0, r4
 280 0078 58109FE5 		ldr	r1, .L24+48
 281 007c 58209FE5 		ldr	r2, .L24+52
 282 0080 FEFFFFEB 		bl	chprintf
 283              	.LVL32:
 284              		.loc 2 94 0
 285 0084 54309FE5 		ldr	r3, .L24+56
ARM GAS  C:\Users\NICOMA~1\AppData\Local\Temp\ccJ5ykxM.s 			page 6


 286 0088 0400A0E1 		mov	r0, r4
 287 008c 00308DE5 		str	r3, [sp, #0]
 288 0090 4C109FE5 		ldr	r1, .L24+60
 289 0094 4C209FE5 		ldr	r2, .L24+64
 290 0098 4C309FE5 		ldr	r3, .L24+68
 291 009c FEFFFFEB 		bl	chprintf
 292              	.LVL33:
 293              	.LBE23:
 294              	.LBE22:
 295              		.loc 2 97 0
 296 00a0 08D08DE2 		add	sp, sp, #8
 297 00a4 1080BDE8 		ldmfd	sp!, {r4, pc}
 298              	.L25:
 299              		.align	2
 300              	.L24:
 301 00a8 04000000 		.word	.LC1
 302 00ac 20000000 		.word	.LC4
 303 00b0 28000000 		.word	.LC5
 304 00b4 3C000000 		.word	.LC6
 305 00b8 44000000 		.word	.LC7
 306 00bc 58000000 		.word	.LC8
 307 00c0 64000000 		.word	.LC9
 308 00c4 78000000 		.word	.LC10
 309 00c8 80000000 		.word	.LC11
 310 00cc 94000000 		.word	.LC12
 311 00d0 A4000000 		.word	.LC13
 312 00d4 B8000000 		.word	.LC14
 313 00d8 C8000000 		.word	.LC15
 314 00dc DC000000 		.word	.LC16
 315 00e0 0C010000 		.word	.LC20
 316 00e4 E4000000 		.word	.LC17
 317 00e8 FC000000 		.word	.LC18
 318 00ec 08010000 		.word	.LC19
 319              		.cfi_endproc
 320              	.LFE11:
 321              		.size	cmd_info, .-cmd_info
 322              		.section	.text.shellInit,"ax",%progbits
 323              		.align	2
 324              		.global	shellInit
 325              		.type	shellInit, %function
 326              	shellInit:
 327              	.LFB15:
 328              		.loc 2 204 0
 329              		.cfi_startproc
 330              		@ args = 0, pretend = 0, frame = 0
 331              		@ frame_needed = 0, uses_anonymous_args = 0
 332              		@ link register save eliminated.
 333              		.loc 2 206 0
 334 0000 04309FE5 		ldr	r3, .L27
 335 0004 003083E5 		str	r3, [r3, #0]
 336 0008 1EFF2FE1 		bx	lr
 337              	.L28:
 338              		.align	2
 339              	.L27:
 340 000c 00000000 		.word	shell_terminated
 341              		.cfi_endproc
 342              	.LFE15:
ARM GAS  C:\Users\NICOMA~1\AppData\Local\Temp\ccJ5ykxM.s 			page 7


 343              		.size	shellInit, .-shellInit
 344              		.section	.text.shellExit,"ax",%progbits
 345              		.align	2
 346              		.global	shellExit
 347              		.type	shellExit, %function
 348              	shellExit:
 349              	.LFB16:
 350              		.loc 2 218 0
 351              		.cfi_startproc
 352              		@ args = 0, pretend = 0, frame = 0
 353              		@ frame_needed = 0, uses_anonymous_args = 0
 354              	.LVL34:
 355 0000 10402DE9 		stmfd	sp!, {r4, lr}
 356              	.LCFI6:
 357              		.cfi_def_cfa_offset 8
 358              		.cfi_offset 4, -8
 359              		.cfi_offset 14, -4
 360              		.loc 2 218 0
 361 0004 0040A0E1 		mov	r4, r0
 362              		.loc 2 222 0
 363              	@ 222 "../../os/various/shell.c" 1
 364 0008 9FF021E3 		msr     CPSR_c, #0x9F
 365              	@ 0 "" 2
 366              		.loc 2 223 0
 367 000c 10009FE5 		ldr	r0, .L30
 368              	.LVL35:
 369 0010 0010A0E3 		mov	r1, #0
 370 0014 FEFFFFEB 		bl	chEvtBroadcastFlagsI
 371              	.LVL36:
 372              		.loc 2 224 0
 373 0018 0400A0E1 		mov	r0, r4
 374              		.loc 2 225 0
 375 001c 1040BDE8 		ldmfd	sp!, {r4, lr}
 376              		.loc 2 224 0
 377 0020 FEFFFFEA 		b	chThdExitS
 378              	.LVL37:
 379              	.L31:
 380              		.align	2
 381              	.L30:
 382 0024 00000000 		.word	shell_terminated
 383              		.cfi_endproc
 384              	.LFE16:
 385              		.size	shellExit, .-shellExit
 386              		.section	.text.shellCreate,"ax",%progbits
 387              		.align	2
 388              		.global	shellCreate
 389              		.type	shellCreate, %function
 390              	shellCreate:
 391              	.LFB17:
 392              		.loc 2 240 0
 393              		.cfi_startproc
 394              		@ args = 0, pretend = 0, frame = 0
 395              		@ frame_needed = 0, uses_anonymous_args = 0
 396              	.LVL38:
 397 0000 04E02DE5 		str	lr, [sp, #-4]!
 398              	.LCFI7:
 399              		.cfi_def_cfa_offset 4
ARM GAS  C:\Users\NICOMA~1\AppData\Local\Temp\ccJ5ykxM.s 			page 8


 400              		.cfi_offset 14, -4
 401 0004 0CD04DE2 		sub	sp, sp, #12
 402              	.LCFI8:
 403              		.cfi_def_cfa_offset 16
 404              		.loc 2 242 0
 405 0008 00008DE5 		str	r0, [sp, #0]
 406 000c 0C309FE5 		ldr	r3, .L33
 407 0010 0000A0E3 		mov	r0, #0
 408              	.LVL39:
 409 0014 FEFFFFEB 		bl	chThdCreateFromHeap
 410              	.LVL40:
 411              		.loc 2 243 0
 412 0018 0CD08DE2 		add	sp, sp, #12
 413 001c 0080BDE8 		ldmfd	sp!, {pc}
 414              	.L34:
 415              		.align	2
 416              	.L33:
 417 0020 00000000 		.word	shell_thread
 418              		.cfi_endproc
 419              	.LFE17:
 420              		.size	shellCreate, .-shellCreate
 421              		.section	.text.shellCreateStatic,"ax",%progbits
 422              		.align	2
 423              		.global	shellCreateStatic
 424              		.type	shellCreateStatic, %function
 425              	shellCreateStatic:
 426              	.LFB18:
 427              		.loc 2 258 0
 428              		.cfi_startproc
 429              		@ args = 0, pretend = 0, frame = 0
 430              		@ frame_needed = 0, uses_anonymous_args = 0
 431              	.LVL41:
 432 0000 04E02DE5 		str	lr, [sp, #-4]!
 433              	.LCFI9:
 434              		.cfi_def_cfa_offset 4
 435              		.cfi_offset 14, -4
 436 0004 0CD04DE2 		sub	sp, sp, #12
 437              	.LCFI10:
 438              		.cfi_def_cfa_offset 16
 439              		.loc 2 260 0
 440 0008 00008DE5 		str	r0, [sp, #0]
 441 000c 0100A0E1 		mov	r0, r1
 442              	.LVL42:
 443 0010 0210A0E1 		mov	r1, r2
 444              	.LVL43:
 445 0014 0320A0E1 		mov	r2, r3
 446              	.LVL44:
 447 0018 08309FE5 		ldr	r3, .L36
 448              	.LVL45:
 449 001c FEFFFFEB 		bl	chThdCreateStatic
 450              	.LVL46:
 451              		.loc 2 261 0
 452 0020 0CD08DE2 		add	sp, sp, #12
 453 0024 0080BDE8 		ldmfd	sp!, {pc}
 454              	.L37:
 455              		.align	2
 456              	.L36:
ARM GAS  C:\Users\NICOMA~1\AppData\Local\Temp\ccJ5ykxM.s 			page 9


 457 0028 00000000 		.word	shell_thread
 458              		.cfi_endproc
 459              	.LFE18:
 460              		.size	shellCreateStatic, .-shellCreateStatic
 461              		.section	.text.shellGetLine,"ax",%progbits
 462              		.align	2
 463              		.global	shellGetLine
 464              		.type	shellGetLine, %function
 465              	shellGetLine:
 466              	.LFB19:
 467              		.loc 2 275 0
 468              		.cfi_startproc
 469              		@ args = 0, pretend = 0, frame = 8
 470              		@ frame_needed = 0, uses_anonymous_args = 0
 471              	.LVL47:
 472 0000 F0402DE9 		stmfd	sp!, {r4, r5, r6, r7, lr}
 473              	.LCFI11:
 474              		.cfi_def_cfa_offset 20
 475              		.cfi_offset 4, -20
 476              		.cfi_offset 5, -16
 477              		.cfi_offset 6, -12
 478              		.cfi_offset 7, -8
 479              		.cfi_offset 14, -4
 480              	.LBB24:
 481              		.loc 2 303 0
 482 0004 012042E2 		sub	r2, r2, #1
 483              	.LVL48:
 484              	.LBE24:
 485              		.loc 2 275 0
 486 0008 0CD04DE2 		sub	sp, sp, #12
 487              	.LCFI12:
 488              		.cfi_def_cfa_offset 32
 489              		.loc 2 275 0
 490 000c 0160A0E1 		mov	r6, r1
 491              	.LVL49:
 492 0010 0040A0E1 		mov	r4, r0
 493              		.loc 2 276 0
 494 0014 0150A0E1 		mov	r5, r1
 495              	.LBB25:
 496              		.loc 2 303 0
 497 0018 027081E0 		add	r7, r1, r2
 498              	.LVL50:
 499              	.L50:
 500              		.loc 2 281 0
 501 001c 003094E5 		ldr	r3, [r4, #0]
 502 0020 0120A0E3 		mov	r2, #1
 503 0024 07108DE2 		add	r1, sp, #7
 504 0028 043093E5 		ldr	r3, [r3, #4]
 505 002c 0400A0E1 		mov	r0, r4
 506 0030 33FF2FE1 		blx	r3
 507              	.LVL51:
 508 0034 000050E3 		cmp	r0, #0
 509 0038 2300000A 		beq	.L47
 510              		.loc 2 283 0
 511 003c 0710DDE5 		ldrb	r1, [sp, #7]	@ zero_extendqisi2
 512 0040 040051E3 		cmp	r1, #4
 513 0044 2300000A 		beq	.L51
ARM GAS  C:\Users\NICOMA~1\AppData\Local\Temp\ccJ5ykxM.s 			page 10


 514              		.loc 2 287 0
 515 0048 080051E3 		cmp	r1, #8
 516 004c 0C00000A 		beq	.L52
 517              		.loc 2 296 0
 518 0050 0D0051E3 		cmp	r1, #13
 519 0054 2400000A 		beq	.L53
 520              		.loc 2 301 0
 521 0058 1F0051E3 		cmp	r1, #31
 522 005c EEFFFF9A 		bls	.L50
 523              		.loc 2 303 0
 524 0060 070055E1 		cmp	r5, r7
 525 0064 ECFFFF2A 		bcs	.L50
 526              		.loc 2 304 0
 527 0068 003094E5 		ldr	r3, [r4, #0]
 528 006c 0400A0E1 		mov	r0, r4
 529 0070 083093E5 		ldr	r3, [r3, #8]
 530 0074 33FF2FE1 		blx	r3
 531              	.LVL52:
 532              		.loc 2 305 0
 533 0078 0730DDE5 		ldrb	r3, [sp, #7]	@ zero_extendqisi2
 534              	.LVL53:
 535 007c 0130C5E4 		strb	r3, [r5], #1
 536              	.LVL54:
 537 0080 E5FFFFEA 		b	.L50
 538              	.LVL55:
 539              	.L52:
 540              		.loc 2 288 0
 541 0084 060055E1 		cmp	r5, r6
 542 0088 E3FFFF0A 		beq	.L50
 543              		.loc 2 289 0
 544 008c 003094E5 		ldr	r3, [r4, #0]
 545 0090 0400A0E1 		mov	r0, r4
 546 0094 083093E5 		ldr	r3, [r3, #8]
 547 0098 33FF2FE1 		blx	r3
 548              	.LVL56:
 549              		.loc 2 290 0
 550 009c 003094E5 		ldr	r3, [r4, #0]
 551 00a0 2010A0E3 		mov	r1, #32
 552 00a4 083093E5 		ldr	r3, [r3, #8]
 553 00a8 0400A0E1 		mov	r0, r4
 554 00ac 33FF2FE1 		blx	r3
 555              	.LVL57:
 556              		.loc 2 291 0
 557 00b0 003094E5 		ldr	r3, [r4, #0]
 558 00b4 0400A0E1 		mov	r0, r4
 559 00b8 083093E5 		ldr	r3, [r3, #8]
 560 00bc 0710DDE5 		ldrb	r1, [sp, #7]	@ zero_extendqisi2
 561 00c0 33FF2FE1 		blx	r3
 562              	.LVL58:
 563              		.loc 2 292 0
 564 00c4 015045E2 		sub	r5, r5, #1
 565              	.LVL59:
 566 00c8 D3FFFFEA 		b	.L50
 567              	.L47:
 568              		.loc 2 282 0
 569 00cc 0100A0E3 		mov	r0, #1
 570              	.L40:
ARM GAS  C:\Users\NICOMA~1\AppData\Local\Temp\ccJ5ykxM.s 			page 11


 571              	.LBE25:
 572              		.loc 2 308 0
 573 00d0 0CD08DE2 		add	sp, sp, #12
 574 00d4 F080BDE8 		ldmfd	sp!, {r4, r5, r6, r7, pc}
 575              	.L51:
 576              	.LBB26:
 577              		.loc 2 284 0
 578 00d8 0400A0E1 		mov	r0, r4
 579 00dc 20109FE5 		ldr	r1, .L54
 580 00e0 FEFFFFEB 		bl	chprintf
 581              	.LVL60:
 582              		.loc 2 285 0
 583 00e4 0100A0E3 		mov	r0, #1
 584 00e8 F8FFFFEA 		b	.L40
 585              	.L53:
 586              		.loc 2 297 0
 587 00ec 0400A0E1 		mov	r0, r4
 588 00f0 10109FE5 		ldr	r1, .L54+4
 589 00f4 FEFFFFEB 		bl	chprintf
 590              	.LVL61:
 591              		.loc 2 298 0
 592 00f8 0000A0E3 		mov	r0, #0
 593 00fc 0000C5E5 		strb	r0, [r5, #0]
 594 0100 F2FFFFEA 		b	.L40
 595              	.L55:
 596              		.align	2
 597              	.L54:
 598 0104 18010000 		.word	.LC21
 599 0108 1C010000 		.word	.LC22
 600              	.LBE26:
 601              		.cfi_endproc
 602              	.LFE19:
 603              		.size	shellGetLine, .-shellGetLine
 604              		.section	.text.shell_thread,"ax",%progbits
 605              		.align	2
 606              		.type	shell_thread, %function
 607              	shell_thread:
 608              	.LFB14:
 609              		.loc 2 141 0
 610              		.cfi_startproc
 611              		@ args = 0, pretend = 0, frame = 88
 612              		@ frame_needed = 0, uses_anonymous_args = 0
 613              	.LVL62:
 614 0000 F0452DE9 		stmfd	sp!, {r4, r5, r6, r7, r8, sl, lr}
 615              	.LCFI13:
 616              		.cfi_def_cfa_offset 28
 617              		.cfi_offset 4, -28
 618              		.cfi_offset 5, -24
 619              		.cfi_offset 6, -20
 620              		.cfi_offset 7, -16
 621              		.cfi_offset 8, -12
 622              		.cfi_offset 10, -8
 623              		.cfi_offset 14, -4
 624              		.loc 2 148 0
 625 0004 40329FE5 		ldr	r3, .L109
 626              		.loc 2 143 0
 627 0008 006090E5 		ldr	r6, [r0, #0]
ARM GAS  C:\Users\NICOMA~1\AppData\Local\Temp\ccJ5ykxM.s 			page 12


 628              	.LVL63:
 629              		.loc 2 148 0
 630 000c 183093E5 		ldr	r3, [r3, #24]
 631 0010 38229FE5 		ldr	r2, .L109+4
 632              		.loc 2 144 0
 633 0014 048090E5 		ldr	r8, [r0, #4]
 634              	.LVL64:
 635              		.loc 2 141 0
 636 0018 5CD04DE2 		sub	sp, sp, #92
 637              	.LCFI14:
 638              		.cfi_def_cfa_offset 120
 639              		.loc 2 149 0
 640 001c 0600A0E1 		mov	r0, r6
 641              	.LVL65:
 642              		.loc 2 148 0
 643 0020 182083E5 		str	r2, [r3, #24]
 644              		.loc 2 149 0
 645 0024 28129FE5 		ldr	r1, .L109+8
 646 0028 FEFFFFEB 		bl	chprintf
 647              	.LVL66:
 648              	.LBB39:
 649              	.LBB40:
 650              		.loc 2 61 0
 651 002c 24A29FE5 		ldr	sl, .L109+12
 652              	.L102:
 653              	.LBE40:
 654              	.LBE39:
 655              		.loc 2 151 0
 656 0030 0600A0E1 		mov	r0, r6
 657 0034 20129FE5 		ldr	r1, .L109+16
 658 0038 FEFFFFEB 		bl	chprintf
 659              	.LVL67:
 660              		.loc 2 152 0
 661 003c 0600A0E1 		mov	r0, r6
 662 0040 18108DE2 		add	r1, sp, #24
 663 0044 4020A0E3 		mov	r2, #64
 664 0048 FEFFFFEB 		bl	shellGetLine
 665              	.LVL68:
 666 004c 004050E2 		subs	r4, r0, #0
 667 0050 2400001A 		bne	.L105
 668              		.loc 2 156 0
 669 0054 18008DE2 		add	r0, sp, #24
 670 0058 0D10A0E1 		mov	r1, sp
 671 005c FEFFFFEB 		bl	_strtok.constprop.2
 672              	.LVL69:
 673              		.loc 2 141 0
 674 0060 0D50A0E1 		mov	r5, sp
 675              		.loc 2 156 0
 676 0064 0070A0E1 		mov	r7, r0
 677              	.LVL70:
 678              	.L60:
 679              		.loc 2 159 0 discriminator 1
 680 0068 0000A0E3 		mov	r0, #0
 681              	.LVL71:
 682 006c 0D10A0E1 		mov	r1, sp
 683 0070 FEFFFFEB 		bl	_strtok.constprop.2
 684              	.LVL72:
ARM GAS  C:\Users\NICOMA~1\AppData\Local\Temp\ccJ5ykxM.s 			page 13


 685 0074 000050E3 		cmp	r0, #0
 686 0078 0900000A 		beq	.L106
 687              		.loc 2 160 0
 688 007c 040054E3 		cmp	r4, #4
 689              		.loc 2 165 0
 690 0080 0400A515 		strne	r0, [r5, #4]!
 691 0084 01408412 		addne	r4, r4, #1
 692              	.LVL73:
 693 0088 F6FFFF1A 		bne	.L60
 694              	.L107:
 695              		.loc 2 161 0
 696 008c 0600A0E1 		mov	r0, r6
 697              	.LVL74:
 698 0090 C8119FE5 		ldr	r1, .L109+20
 699 0094 FEFFFFEB 		bl	chprintf
 700              	.LVL75:
 701              		.loc 2 167 0
 702 0098 0030A0E3 		mov	r3, #0
 703 009c 14308DE5 		str	r3, [sp, #20]
 704 00a0 E2FFFFEA 		b	.L102
 705              	.LVL76:
 706              	.L106:
 707 00a4 58308DE2 		add	r3, sp, #88
 708 00a8 042183E0 		add	r2, r3, r4, asl #2
 709              		.loc 2 168 0
 710 00ac 000057E3 		cmp	r7, #0
 711              		.loc 2 167 0
 712 00b0 540002E5 		str	r0, [r2, #-84]
 713              		.loc 2 168 0
 714 00b4 DDFFFF0A 		beq	.L102
 715              		.loc 2 169 0
 716 00b8 0700A0E1 		mov	r0, r7
 717              	.LVL77:
 718 00bc A0119FE5 		ldr	r1, .L109+24
 719 00c0 FEFFFFEB 		bl	strcasecmp
 720              	.LVL78:
 721 00c4 000050E3 		cmp	r0, #0
 722 00c8 0E00001A 		bne	.L64
 723              		.loc 2 170 0
 724 00cc 000054E3 		cmp	r4, #0
 725 00d0 0700000A 		beq	.L59
 726              	.LVL79:
 727              	.LBB42:
 728              	.LBB43:
 729              		.loc 2 56 0
 730 00d4 0600A0E1 		mov	r0, r6
 731 00d8 88119FE5 		ldr	r1, .L109+28
 732 00dc 80219FE5 		ldr	r2, .L109+24
 733 00e0 FEFFFFEB 		bl	chprintf
 734              	.LVL80:
 735              	.LBE43:
 736              	.LBE42:
 737              		.loc 2 172 0
 738 00e4 D1FFFFEA 		b	.L102
 739              	.LVL81:
 740              	.L105:
 741              		.loc 2 153 0
ARM GAS  C:\Users\NICOMA~1\AppData\Local\Temp\ccJ5ykxM.s 			page 14


 742 00e8 0600A0E1 		mov	r0, r6
 743 00ec 78119FE5 		ldr	r1, .L109+32
 744 00f0 FEFFFFEB 		bl	chprintf
 745              	.LVL82:
 746              	.L59:
 747              		.loc 2 194 0
 748 00f4 0000A0E3 		mov	r0, #0
 749 00f8 FEFFFFEB 		bl	shellExit
 750              	.LVL83:
 751              		.loc 2 197 0
 752 00fc 0000A0E3 		mov	r0, #0
 753 0100 5CD08DE2 		add	sp, sp, #92
 754 0104 F085BDE8 		ldmfd	sp!, {r4, r5, r6, r7, r8, sl, pc}
 755              	.LVL84:
 756              	.L64:
 757              		.loc 2 176 0
 758 0108 0700A0E1 		mov	r0, r7
 759 010c 5C119FE5 		ldr	r1, .L109+36
 760 0110 FEFFFFEB 		bl	strcasecmp
 761              	.LVL85:
 762 0114 000050E3 		cmp	r0, #0
 763 0118 0600001A 		bne	.L108
 764              		.loc 2 177 0
 765 011c 000054E3 		cmp	r4, #0
 766              	.LBB44:
 767              	.LBB45:
 768              		.loc 2 56 0
 769 0120 0600A0E1 		mov	r0, r6
 770              	.LBE45:
 771              	.LBE44:
 772              		.loc 2 177 0
 773 0124 1500000A 		beq	.L69
 774              	.LVL86:
 775              	.LBB47:
 776              	.LBB46:
 777              		.loc 2 56 0
 778 0128 38119FE5 		ldr	r1, .L109+28
 779 012c 3C219FE5 		ldr	r2, .L109+36
 780 0130 FEFFFFEB 		bl	chprintf
 781              	.LVL87:
 782              	.LBE46:
 783              	.LBE47:
 784              		.loc 2 179 0
 785 0134 BDFFFFEA 		b	.L102
 786              	.LVL88:
 787              	.L108:
 788              	.LBB48:
 789              	.LBB49:
 790              		.loc 2 121 0
 791 0138 00009AE5 		ldr	r0, [sl, #0]
 792 013c 000050E3 		cmp	r0, #0
 793 0140 10519F15 		ldrne	r5, .L109+12
 794 0144 0300001A 		bne	.L77
 795 0148 280000EA 		b	.L68
 796              	.LVL89:
 797              	.L76:
 798 014c 0800B5E5 		ldr	r0, [r5, #8]!
ARM GAS  C:\Users\NICOMA~1\AppData\Local\Temp\ccJ5ykxM.s 			page 15


 799              	.LVL90:
 800 0150 000050E3 		cmp	r0, #0
 801 0154 2500000A 		beq	.L68
 802              	.LVL91:
 803              	.L77:
 804              		.loc 2 122 0
 805 0158 0710A0E1 		mov	r1, r7
 806 015c FEFFFFEB 		bl	strcasecmp
 807              	.LVL92:
 808 0160 000050E3 		cmp	r0, #0
 809 0164 F8FFFF1A 		bne	.L76
 810              	.LVL93:
 811              	.L104:
 812              	.LBE49:
 813              	.LBE48:
 814              	.LBB50:
 815              	.LBB51:
 816              		.loc 2 123 0
 817 0168 043095E5 		ldr	r3, [r5, #4]
 818 016c 0600A0E1 		mov	r0, r6
 819 0170 0410A0E1 		mov	r1, r4
 820 0174 04208DE2 		add	r2, sp, #4
 821 0178 33FF2FE1 		blx	r3
 822              	.LVL94:
 823 017c ABFFFFEA 		b	.L102
 824              	.LVL95:
 825              	.L69:
 826              	.LBE51:
 827              	.LBE50:
 828              		.loc 2 181 0
 829 0180 EC109FE5 		ldr	r1, .L109+40
 830 0184 FEFFFFEB 		bl	chprintf
 831              	.LVL96:
 832              	.LBB53:
 833              	.LBB41:
 834              		.loc 2 61 0
 835 0188 00209AE5 		ldr	r2, [sl, #0]
 836 018c 000052E3 		cmp	r2, #0
 837 0190 C0409F15 		ldrne	r4, .L109+12
 838              	.LVL97:
 839 0194 0500000A 		beq	.L74
 840              	.LVL98:
 841              	.L73:
 842              		.loc 2 62 0
 843 0198 0600A0E1 		mov	r0, r6
 844 019c D4109FE5 		ldr	r1, .L109+44
 845 01a0 FEFFFFEB 		bl	chprintf
 846              	.LVL99:
 847              		.loc 2 61 0
 848 01a4 0820B4E5 		ldr	r2, [r4, #8]!
 849 01a8 000052E3 		cmp	r2, #0
 850 01ac F9FFFF1A 		bne	.L73
 851              	.L74:
 852              	.LBE41:
 853              	.LBE53:
 854              		.loc 2 183 0
 855 01b0 000058E3 		cmp	r8, #0
ARM GAS  C:\Users\NICOMA~1\AppData\Local\Temp\ccJ5ykxM.s 			page 16


 856 01b4 0900000A 		beq	.L72
 857              	.LVL100:
 858              	.LBB54:
 859              	.LBB55:
 860              		.loc 2 61 0
 861 01b8 002098E5 		ldr	r2, [r8, #0]
 862 01bc 000052E3 		cmp	r2, #0
 863 01c0 0600000A 		beq	.L72
 864 01c4 0840A0E1 		mov	r4, r8
 865              	.LVL101:
 866              	.L75:
 867              		.loc 2 62 0
 868 01c8 0600A0E1 		mov	r0, r6
 869 01cc A4109FE5 		ldr	r1, .L109+44
 870 01d0 FEFFFFEB 		bl	chprintf
 871              	.LVL102:
 872              		.loc 2 61 0
 873 01d4 0820B4E5 		ldr	r2, [r4, #8]!
 874 01d8 000052E3 		cmp	r2, #0
 875 01dc F9FFFF1A 		bne	.L75
 876              	.L72:
 877              	.LBE55:
 878              	.LBE54:
 879              		.loc 2 185 0
 880 01e0 0600A0E1 		mov	r0, r6
 881 01e4 90109FE5 		ldr	r1, .L109+48
 882 01e8 FEFFFFEB 		bl	chprintf
 883              	.LVL103:
 884 01ec 8FFFFFEA 		b	.L102
 885              	.LVL104:
 886              	.L68:
 887              		.loc 2 187 0
 888 01f0 000058E3 		cmp	r8, #0
 889 01f4 0C00000A 		beq	.L80
 890              	.LVL105:
 891              	.LBB56:
 892              	.LBB52:
 893              		.loc 2 121 0
 894 01f8 000098E5 		ldr	r0, [r8, #0]
 895 01fc 000050E3 		cmp	r0, #0
 896 0200 0900000A 		beq	.L80
 897 0204 0850A0E1 		mov	r5, r8
 898 0208 020000EA 		b	.L79
 899              	.LVL106:
 900              	.L78:
 901 020c 0800B5E5 		ldr	r0, [r5, #8]!
 902              	.LVL107:
 903 0210 000050E3 		cmp	r0, #0
 904 0214 0400000A 		beq	.L80
 905              	.LVL108:
 906              	.L79:
 907              		.loc 2 122 0
 908 0218 0710A0E1 		mov	r1, r7
 909 021c FEFFFFEB 		bl	strcasecmp
 910              	.LVL109:
 911 0220 000050E3 		cmp	r0, #0
 912 0224 F8FFFF1A 		bne	.L78
ARM GAS  C:\Users\NICOMA~1\AppData\Local\Temp\ccJ5ykxM.s 			page 17


 913 0228 CEFFFFEA 		b	.L104
 914              	.LVL110:
 915              	.L80:
 916              	.LBE52:
 917              	.LBE56:
 918              		.loc 2 189 0
 919 022c 0600A0E1 		mov	r0, r6
 920 0230 48109FE5 		ldr	r1, .L109+52
 921 0234 0720A0E1 		mov	r2, r7
 922 0238 FEFFFFEB 		bl	chprintf
 923              	.LVL111:
 924              		.loc 2 190 0
 925 023c 0600A0E1 		mov	r0, r6
 926 0240 3C109FE5 		ldr	r1, .L109+56
 927 0244 FEFFFFEB 		bl	chprintf
 928              	.LVL112:
 929 0248 78FFFFEA 		b	.L102
 930              	.L110:
 931              		.align	2
 932              	.L109:
 933 024c 00000000 		.word	rlist
 934 0250 20010000 		.word	.LC23
 935 0254 28010000 		.word	.LC24
 936 0258 00000000 		.word	.LANCHOR0
 937 025c 40010000 		.word	.LC25
 938 0260 54010000 		.word	.LC27
 939 0264 6C010000 		.word	.LC28
 940 0268 04000000 		.word	.LC1
 941 026c 48010000 		.word	.LC26
 942 0270 74010000 		.word	.LC29
 943 0274 7C010000 		.word	.LC30
 944 0278 94010000 		.word	.LC31
 945 027c 1C010000 		.word	.LC22
 946 0280 98010000 		.word	.LC32
 947 0284 9C010000 		.word	.LC33
 948              		.cfi_endproc
 949              	.LFE14:
 950              		.size	shell_thread, .-shell_thread
 951              		.comm	shell_terminated,4,4
 952              		.section	.data.local_commands,"aw",%progbits
 953              		.align	2
 954              		.set	.LANCHOR0,. + 0
 955              		.type	local_commands, %object
 956              		.size	local_commands, 24
 957              	local_commands:
 958 0000 20000000 		.word	.LC4
 959 0004 00000000 		.word	cmd_info
 960 0008 10000000 		.word	.LC2
 961 000c 00000000 		.word	cmd_systime
 962 0010 00000000 		.word	0
 963 0014 00000000 		.word	0
 964              		.section	.rodata.str1.4,"aMS",%progbits,1
 965              		.align	2
 966              	.LC0:
 967 0000 200900   		.ascii	" \011\000"
 968 0003 00       		.space	1
 969              	.LC1:
ARM GAS  C:\Users\NICOMA~1\AppData\Local\Temp\ccJ5ykxM.s 			page 18


 970 0004 55736167 		.ascii	"Usage: %s\015\012\000"
 970      653A2025 
 970      730D0A00 
 971              	.LC2:
 972 0010 73797374 		.ascii	"systime\000"
 972      696D6500 
 973              	.LC3:
 974 0018 256C750D 		.ascii	"%lu\015\012\000"
 974      0A00
 975 001e 0000     		.space	2
 976              	.LC4:
 977 0020 696E666F 		.ascii	"info\000"
 977      00
 978 0025 000000   		.space	3
 979              	.LC5:
 980 0028 4B65726E 		.ascii	"Kernel:       %s\015\012\000"
 980      656C3A20 
 980      20202020 
 980      20202573 
 980      0D0A00
 981 003b 00       		.space	1
 982              	.LC6:
 983 003c 322E362E 		.ascii	"2.6.6\000"
 983      3600
 984 0042 0000     		.space	2
 985              	.LC7:
 986 0044 436F6D70 		.ascii	"Compiler:     %s\015\012\000"
 986      696C6572 
 986      3A202020 
 986      20202573 
 986      0D0A00
 987 0057 00       		.space	1
 988              	.LC8:
 989 0058 47434320 		.ascii	"GCC 4.7.2\000"
 989      342E372E 
 989      3200
 990 0062 0000     		.space	2
 991              	.LC9:
 992 0064 41726368 		.ascii	"Architecture: %s\015\012\000"
 992      69746563 
 992      74757265 
 992      3A202573 
 992      0D0A00
 993 0077 00       		.space	1
 994              	.LC10:
 995 0078 41524D31 		.ascii	"ARM11\000"
 995      3100
 996 007e 0000     		.space	2
 997              	.LC11:
 998 0080 436F7265 		.ascii	"Core Variant: %s\015\012\000"
 998      20566172 
 998      69616E74 
 998      3A202573 
 998      0D0A00
 999 0093 00       		.space	1
 1000              	.LC12:
 1001 0094 41524D31 		.ascii	"ARM1176JZF-S\000"
ARM GAS  C:\Users\NICOMA~1\AppData\Local\Temp\ccJ5ykxM.s 			page 19


 1001      3137364A 
 1001      5A462D53 
 1001      00
 1002 00a1 000000   		.space	3
 1003              	.LC13:
 1004 00a4 506F7274 		.ascii	"Port Info:    %s\015\012\000"
 1004      20496E66 
 1004      6F3A2020 
 1004      20202573 
 1004      0D0A00
 1005 00b7 00       		.space	1
 1006              	.LC14:
 1007 00b8 50757265 		.ascii	"Pure ARM mode\000"
 1007      2041524D 
 1007      206D6F64 
 1007      6500
 1008 00c6 0000     		.space	2
 1009              	.LC15:
 1010 00c8 506C6174 		.ascii	"Platform:     %s\015\012\000"
 1010      666F726D 
 1010      3A202020 
 1010      20202573 
 1010      0D0A00
 1011 00db 00       		.space	1
 1012              	.LC16:
 1013 00dc 42434D32 		.ascii	"BCM2835\000"
 1013      38333500 
 1014              	.LC17:
 1015 00e4 4275696C 		.ascii	"Build time:   %s%s%s\015\012\000"
 1015      64207469 
 1015      6D653A20 
 1015      20202573 
 1015      25732573 
 1016 00fb 00       		.space	1
 1017              	.LC18:
 1018 00fc 4F637420 		.ascii	"Oct  1 2014\000"
 1018      20312032 
 1018      30313400 
 1019              	.LC19:
 1020 0108 202D2000 		.ascii	" - \000"
 1021              	.LC20:
 1022 010c 30393A35 		.ascii	"09:50:13\000"
 1022      303A3133 
 1022      00
 1023 0115 000000   		.space	3
 1024              	.LC21:
 1025 0118 5E4400   		.ascii	"^D\000"
 1026 011b 00       		.space	1
 1027              	.LC22:
 1028 011c 0D0A00   		.ascii	"\015\012\000"
 1029 011f 00       		.space	1
 1030              	.LC23:
 1031 0120 7368656C 		.ascii	"shell\000"
 1031      6C00
 1032 0126 0000     		.space	2
 1033              	.LC24:
 1034 0128 0D0A4368 		.ascii	"\015\012ChibiOS/RT Shell\015\012\000"
ARM GAS  C:\Users\NICOMA~1\AppData\Local\Temp\ccJ5ykxM.s 			page 20


 1034      6962694F 
 1034      532F5254 
 1034      20536865 
 1034      6C6C0D0A 
 1035 013d 000000   		.space	3
 1036              	.LC25:
 1037 0140 63683E20 		.ascii	"ch> \000"
 1037      00
 1038 0145 000000   		.space	3
 1039              	.LC26:
 1040 0148 0D0A6C6F 		.ascii	"\015\012logout\000"
 1040      676F7574 
 1040      00
 1041 0151 000000   		.space	3
 1042              	.LC27:
 1043 0154 746F6F20 		.ascii	"too many arguments\015\012\000"
 1043      6D616E79 
 1043      20617267 
 1043      756D656E 
 1043      74730D0A 
 1044 0169 000000   		.space	3
 1045              	.LC28:
 1046 016c 65786974 		.ascii	"exit\000"
 1046      00
 1047 0171 000000   		.space	3
 1048              	.LC29:
 1049 0174 68656C70 		.ascii	"help\000"
 1049      00
 1050 0179 000000   		.space	3
 1051              	.LC30:
 1052 017c 436F6D6D 		.ascii	"Commands: help exit \000"
 1052      616E6473 
 1052      3A206865 
 1052      6C702065 
 1052      78697420 
 1053 0191 000000   		.space	3
 1054              	.LC31:
 1055 0194 25732000 		.ascii	"%s \000"
 1056              	.LC32:
 1057 0198 257300   		.ascii	"%s\000"
 1058 019b 00       		.space	1
 1059              	.LC33:
 1060 019c 203F0D0A 		.ascii	" ?\015\012\000"
 1060      00
 1061 01a1 000000   		.text
 1062              	.Letext0:
 1063              		.file 3 "c:\\yagarto-20121222\\bin\\../lib/gcc/arm-none-eabi/4.7.2/include/stddef.h"
 1064              		.file 4 "c:/yagarto-20121222/lib/gcc/../../arm-none-eabi/sys-include/stdint.h"
 1065              		.file 5 "../../os/ports/GCC/ARM/chtypes.h"
 1066              		.file 6 "../../os/kernel/include/chlists.h"
 1067              		.file 7 "../../os/kernel/include/chthreads.h"
 1068              		.file 8 "../../os/ports/GCC/ARM/chcore.h"
 1069              		.file 9 "../../os/kernel/include/chvt.h"
 1070              		.file 10 "../../os/kernel/include/chschd.h"
 1071              		.file 11 "../../os/kernel/include/chmtx.h"
 1072              		.file 12 "../../os/kernel/include/chevents.h"
 1073              		.file 13 "../../os/kernel/include/chmemcore.h"
ARM GAS  C:\Users\NICOMA~1\AppData\Local\Temp\ccJ5ykxM.s 			page 21


 1074              		.file 14 "../../os/kernel/include/chheap.h"
 1075              		.file 15 "../../os/kernel/include/chstreams.h"
 1076              		.file 16 "../../os/various/shell.h"
 1077              		.file 17 "c:\\yagarto-20121222\\bin\\../lib/gcc/arm-none-eabi/4.7.2/include/stdarg.h"
 1078              		.file 18 "<built-in>"
 1079              		.file 19 "c:/yagarto-20121222/lib/gcc/../../arm-none-eabi/sys-include/string.h"
 1080              		.file 20 "../../os/kernel/include/chdynamic.h"