ARM GAS  C:\Users\NICOMA~1\AppData\Local\Temp\ccQEW3Yh.s 			page 1


   1              		.cpu arm1176jz-s
   2              		.fpu softvfp
   3              		.eabi_attribute 20, 1
   4              		.eabi_attribute 21, 1
   5              		.eabi_attribute 23, 3
   6              		.eabi_attribute 24, 1
   7              		.eabi_attribute 25, 1
   8              		.eabi_attribute 26, 1
   9              		.eabi_attribute 30, 2
  10              		.eabi_attribute 34, 1
  11              		.eabi_attribute 18, 4
  12              		.file	"spi.c"
  13              		.text
  14              	.Ltext0:
  15              		.cfi_sections	.debug_frame
  16              		.section	.text.spiInit,"ax",%progbits
  17              		.align	2
  18              		.global	spiInit
  19              		.type	spiInit, %function
  20              	spiInit:
  21              	.LFB7:
  22              		.file 1 "../../os/hal/src/spi.c"
  23              		.loc 1 68 0
  24              		.cfi_startproc
  25              		@ args = 0, pretend = 0, frame = 0
  26              		@ frame_needed = 0, uses_anonymous_args = 0
  27              		@ link register save eliminated.
  28              		.loc 1 71 0
  29              		.loc 1 70 0
  30 0000 FEFFFFEA 		b	spi_lld_init
  31              	.LVL0:
  32              		.cfi_endproc
  33              	.LFE7:
  34              		.size	spiInit, .-spiInit
  35              		.section	.text.spiObjectInit,"ax",%progbits
  36              		.align	2
  37              		.global	spiObjectInit
  38              		.type	spiObjectInit, %function
  39              	spiObjectInit:
  40              	.LFB8:
  41              		.loc 1 80 0
  42              		.cfi_startproc
  43              		@ args = 0, pretend = 0, frame = 0
  44              		@ frame_needed = 0, uses_anonymous_args = 0
  45              		@ link register save eliminated.
  46              	.LVL1:
  47              		.loc 1 83 0
  48 0000 0030A0E3 		mov	r3, #0
  49              		.loc 1 82 0
  50 0004 0120A0E3 		mov	r2, #1
  51 0008 0020C0E5 		strb	r2, [r0, #0]
  52              		.loc 1 83 0
  53 000c 043080E5 		str	r3, [r0, #4]
  54              		.loc 1 85 0
  55 0010 083080E5 		str	r3, [r0, #8]
  56              		.loc 1 89 0
  57 0014 0C0080E2 		add	r0, r0, #12
ARM GAS  C:\Users\NICOMA~1\AppData\Local\Temp\ccQEW3Yh.s 			page 2


  58              	.LVL2:
  59              		.loc 1 97 0
  60              		.loc 1 89 0
  61 0018 FEFFFFEA 		b	chMtxInit
  62              	.LVL3:
  63              		.cfi_endproc
  64              	.LFE8:
  65              		.size	spiObjectInit, .-spiObjectInit
  66              		.section	.text.spiStart,"ax",%progbits
  67              		.align	2
  68              		.global	spiStart
  69              		.type	spiStart, %function
  70              	spiStart:
  71              	.LFB9:
  72              		.loc 1 107 0
  73              		.cfi_startproc
  74              		@ args = 0, pretend = 0, frame = 0
  75              		@ frame_needed = 0, uses_anonymous_args = 0
  76              	.LVL4:
  77 0000 10402DE9 		stmfd	sp!, {r4, lr}
  78              	.LCFI0:
  79              		.cfi_def_cfa_offset 8
  80              		.cfi_offset 4, -8
  81              		.cfi_offset 14, -4
  82              		.loc 1 107 0
  83 0004 0040A0E1 		mov	r4, r0
  84              		.loc 1 111 0
  85              	@ 111 "../../os/hal/src/spi.c" 1
  86 0008 9FF021E3 		msr     CPSR_c, #0x9F
  87              	@ 0 "" 2
  88              		.loc 1 114 0
  89 000c 041080E5 		str	r1, [r0, #4]
  90              		.loc 1 115 0
  91 0010 FEFFFFEB 		bl	spi_lld_start
  92              	.LVL5:
  93              		.loc 1 116 0
  94 0014 0230A0E3 		mov	r3, #2
  95 0018 0030C4E5 		strb	r3, [r4, #0]
  96              		.loc 1 117 0
  97              	@ 117 "../../os/hal/src/spi.c" 1
  98 001c 1FF021E3 		msr     CPSR_c, #0x1F
  99              	@ 0 "" 2
 100 0020 1080BDE8 		ldmfd	sp!, {r4, pc}
 101              		.cfi_endproc
 102              	.LFE9:
 103              		.size	spiStart, .-spiStart
 104              		.section	.text.spiStop,"ax",%progbits
 105              		.align	2
 106              		.global	spiStop
 107              		.type	spiStop, %function
 108              	spiStop:
 109              	.LFB10:
 110              		.loc 1 129 0
 111              		.cfi_startproc
 112              		@ args = 0, pretend = 0, frame = 0
 113              		@ frame_needed = 0, uses_anonymous_args = 0
 114              	.LVL6:
ARM GAS  C:\Users\NICOMA~1\AppData\Local\Temp\ccQEW3Yh.s 			page 3


 115 0000 10402DE9 		stmfd	sp!, {r4, lr}
 116              	.LCFI1:
 117              		.cfi_def_cfa_offset 8
 118              		.cfi_offset 4, -8
 119              		.cfi_offset 14, -4
 120              		.loc 1 129 0
 121 0004 0040A0E1 		mov	r4, r0
 122              		.loc 1 133 0
 123              	@ 133 "../../os/hal/src/spi.c" 1
 124 0008 9FF021E3 		msr     CPSR_c, #0x9F
 125              	@ 0 "" 2
 126              		.loc 1 136 0
 127 000c FEFFFFEB 		bl	spi_lld_unselect
 128              	.LVL7:
 129              		.loc 1 137 0
 130 0010 0400A0E1 		mov	r0, r4
 131 0014 FEFFFFEB 		bl	spi_lld_stop
 132              	.LVL8:
 133              		.loc 1 138 0
 134 0018 0130A0E3 		mov	r3, #1
 135 001c 0030C4E5 		strb	r3, [r4, #0]
 136              		.loc 1 139 0
 137              	@ 139 "../../os/hal/src/spi.c" 1
 138 0020 1FF021E3 		msr     CPSR_c, #0x1F
 139              	@ 0 "" 2
 140 0024 1080BDE8 		ldmfd	sp!, {r4, pc}
 141              		.cfi_endproc
 142              	.LFE10:
 143              		.size	spiStop, .-spiStop
 144              		.section	.text.spiSelect,"ax",%progbits
 145              		.align	2
 146              		.global	spiSelect
 147              		.type	spiSelect, %function
 148              	spiSelect:
 149              	.LFB11:
 150              		.loc 1 149 0
 151              		.cfi_startproc
 152              		@ args = 0, pretend = 0, frame = 0
 153              		@ frame_needed = 0, uses_anonymous_args = 0
 154              	.LVL9:
 155 0000 08402DE9 		stmfd	sp!, {r3, lr}
 156              	.LCFI2:
 157              		.cfi_def_cfa_offset 8
 158              		.cfi_offset 3, -8
 159              		.cfi_offset 14, -4
 160              		.loc 1 153 0
 161              	@ 153 "../../os/hal/src/spi.c" 1
 162 0004 9FF021E3 		msr     CPSR_c, #0x9F
 163              	@ 0 "" 2
 164              		.loc 1 155 0
 165 0008 FEFFFFEB 		bl	spi_lld_select
 166              	.LVL10:
 167              		.loc 1 156 0
 168              	@ 156 "../../os/hal/src/spi.c" 1
 169 000c 1FF021E3 		msr     CPSR_c, #0x1F
 170              	@ 0 "" 2
 171 0010 0880BDE8 		ldmfd	sp!, {r3, pc}
ARM GAS  C:\Users\NICOMA~1\AppData\Local\Temp\ccQEW3Yh.s 			page 4


 172              		.cfi_endproc
 173              	.LFE11:
 174              		.size	spiSelect, .-spiSelect
 175              		.section	.text.spiUnselect,"ax",%progbits
 176              		.align	2
 177              		.global	spiUnselect
 178              		.type	spiUnselect, %function
 179              	spiUnselect:
 180              	.LFB12:
 181              		.loc 1 167 0
 182              		.cfi_startproc
 183              		@ args = 0, pretend = 0, frame = 0
 184              		@ frame_needed = 0, uses_anonymous_args = 0
 185              	.LVL11:
 186 0000 08402DE9 		stmfd	sp!, {r3, lr}
 187              	.LCFI3:
 188              		.cfi_def_cfa_offset 8
 189              		.cfi_offset 3, -8
 190              		.cfi_offset 14, -4
 191              		.loc 1 171 0
 192              	@ 171 "../../os/hal/src/spi.c" 1
 193 0004 9FF021E3 		msr     CPSR_c, #0x9F
 194              	@ 0 "" 2
 195              		.loc 1 173 0
 196 0008 FEFFFFEB 		bl	spi_lld_unselect
 197              	.LVL12:
 198              		.loc 1 174 0
 199              	@ 174 "../../os/hal/src/spi.c" 1
 200 000c 1FF021E3 		msr     CPSR_c, #0x1F
 201              	@ 0 "" 2
 202 0010 0880BDE8 		ldmfd	sp!, {r3, pc}
 203              		.cfi_endproc
 204              	.LFE12:
 205              		.size	spiUnselect, .-spiUnselect
 206              		.section	.text.spiStartIgnore,"ax",%progbits
 207              		.align	2
 208              		.global	spiStartIgnore
 209              		.type	spiStartIgnore, %function
 210              	spiStartIgnore:
 211              	.LFB13:
 212              		.loc 1 190 0
 213              		.cfi_startproc
 214              		@ args = 0, pretend = 0, frame = 0
 215              		@ frame_needed = 0, uses_anonymous_args = 0
 216              	.LVL13:
 217 0000 08402DE9 		stmfd	sp!, {r3, lr}
 218              	.LCFI4:
 219              		.cfi_def_cfa_offset 8
 220              		.cfi_offset 3, -8
 221              		.cfi_offset 14, -4
 222              		.loc 1 194 0
 223              	@ 194 "../../os/hal/src/spi.c" 1
 224 0004 9FF021E3 		msr     CPSR_c, #0x9F
 225              	@ 0 "" 2
 226              		.loc 1 196 0
 227 0008 0320A0E3 		mov	r2, #3
 228 000c 0020C0E5 		strb	r2, [r0, #0]
ARM GAS  C:\Users\NICOMA~1\AppData\Local\Temp\ccQEW3Yh.s 			page 5


 229 0010 FEFFFFEB 		bl	spi_lld_ignore
 230              	.LVL14:
 231              		.loc 1 197 0
 232              	@ 197 "../../os/hal/src/spi.c" 1
 233 0014 1FF021E3 		msr     CPSR_c, #0x1F
 234              	@ 0 "" 2
 235 0018 0880BDE8 		ldmfd	sp!, {r3, pc}
 236              		.cfi_endproc
 237              	.LFE13:
 238              		.size	spiStartIgnore, .-spiStartIgnore
 239              		.section	.text.spiStartExchange,"ax",%progbits
 240              		.align	2
 241              		.global	spiStartExchange
 242              		.type	spiStartExchange, %function
 243              	spiStartExchange:
 244              	.LFB14:
 245              		.loc 1 218 0
 246              		.cfi_startproc
 247              		@ args = 0, pretend = 0, frame = 0
 248              		@ frame_needed = 0, uses_anonymous_args = 0
 249              	.LVL15:
 250 0000 08402DE9 		stmfd	sp!, {r3, lr}
 251              	.LCFI5:
 252              		.cfi_def_cfa_offset 8
 253              		.cfi_offset 3, -8
 254              		.cfi_offset 14, -4
 255              		.loc 1 223 0
 256              	@ 223 "../../os/hal/src/spi.c" 1
 257 0004 9FF021E3 		msr     CPSR_c, #0x9F
 258              	@ 0 "" 2
 259              		.loc 1 225 0
 260 0008 03E0A0E3 		mov	lr, #3
 261 000c 00E0C0E5 		strb	lr, [r0, #0]
 262 0010 FEFFFFEB 		bl	spi_lld_exchange
 263              	.LVL16:
 264              		.loc 1 226 0
 265              	@ 226 "../../os/hal/src/spi.c" 1
 266 0014 1FF021E3 		msr     CPSR_c, #0x1F
 267              	@ 0 "" 2
 268 0018 0880BDE8 		ldmfd	sp!, {r3, pc}
 269              		.cfi_endproc
 270              	.LFE14:
 271              		.size	spiStartExchange, .-spiStartExchange
 272              		.section	.text.spiStartSend,"ax",%progbits
 273              		.align	2
 274              		.global	spiStartSend
 275              		.type	spiStartSend, %function
 276              	spiStartSend:
 277              	.LFB15:
 278              		.loc 1 244 0
 279              		.cfi_startproc
 280              		@ args = 0, pretend = 0, frame = 0
 281              		@ frame_needed = 0, uses_anonymous_args = 0
 282              	.LVL17:
 283 0000 08402DE9 		stmfd	sp!, {r3, lr}
 284              	.LCFI6:
 285              		.cfi_def_cfa_offset 8
ARM GAS  C:\Users\NICOMA~1\AppData\Local\Temp\ccQEW3Yh.s 			page 6


 286              		.cfi_offset 3, -8
 287              		.cfi_offset 14, -4
 288              		.loc 1 249 0
 289              	@ 249 "../../os/hal/src/spi.c" 1
 290 0004 9FF021E3 		msr     CPSR_c, #0x9F
 291              	@ 0 "" 2
 292              		.loc 1 251 0
 293 0008 03C0A0E3 		mov	ip, #3
 294 000c 00C0C0E5 		strb	ip, [r0, #0]
 295 0010 FEFFFFEB 		bl	spi_lld_send
 296              	.LVL18:
 297              		.loc 1 252 0
 298              	@ 252 "../../os/hal/src/spi.c" 1
 299 0014 1FF021E3 		msr     CPSR_c, #0x1F
 300              	@ 0 "" 2
 301 0018 0880BDE8 		ldmfd	sp!, {r3, pc}
 302              		.cfi_endproc
 303              	.LFE15:
 304              		.size	spiStartSend, .-spiStartSend
 305              		.section	.text.spiStartReceive,"ax",%progbits
 306              		.align	2
 307              		.global	spiStartReceive
 308              		.type	spiStartReceive, %function
 309              	spiStartReceive:
 310              	.LFB16:
 311              		.loc 1 270 0
 312              		.cfi_startproc
 313              		@ args = 0, pretend = 0, frame = 0
 314              		@ frame_needed = 0, uses_anonymous_args = 0
 315              	.LVL19:
 316 0000 08402DE9 		stmfd	sp!, {r3, lr}
 317              	.LCFI7:
 318              		.cfi_def_cfa_offset 8
 319              		.cfi_offset 3, -8
 320              		.cfi_offset 14, -4
 321              		.loc 1 275 0
 322              	@ 275 "../../os/hal/src/spi.c" 1
 323 0004 9FF021E3 		msr     CPSR_c, #0x9F
 324              	@ 0 "" 2
 325              		.loc 1 277 0
 326 0008 03C0A0E3 		mov	ip, #3
 327 000c 00C0C0E5 		strb	ip, [r0, #0]
 328 0010 FEFFFFEB 		bl	spi_lld_receive
 329              	.LVL20:
 330              		.loc 1 278 0
 331              	@ 278 "../../os/hal/src/spi.c" 1
 332 0014 1FF021E3 		msr     CPSR_c, #0x1F
 333              	@ 0 "" 2
 334 0018 0880BDE8 		ldmfd	sp!, {r3, pc}
 335              		.cfi_endproc
 336              	.LFE16:
 337              		.size	spiStartReceive, .-spiStartReceive
 338              		.section	.text.spiIgnore,"ax",%progbits
 339              		.align	2
 340              		.global	spiIgnore
 341              		.type	spiIgnore, %function
 342              	spiIgnore:
ARM GAS  C:\Users\NICOMA~1\AppData\Local\Temp\ccQEW3Yh.s 			page 7


 343              	.LFB17:
 344              		.loc 1 296 0
 345              		.cfi_startproc
 346              		@ args = 0, pretend = 0, frame = 0
 347              		@ frame_needed = 0, uses_anonymous_args = 0
 348              	.LVL21:
 349 0000 10402DE9 		stmfd	sp!, {r4, lr}
 350              	.LCFI8:
 351              		.cfi_def_cfa_offset 8
 352              		.cfi_offset 4, -8
 353              		.cfi_offset 14, -4
 354              		.loc 1 296 0
 355 0004 0040A0E1 		mov	r4, r0
 356              		.loc 1 300 0
 357              	@ 300 "../../os/hal/src/spi.c" 1
 358 0008 9FF021E3 		msr     CPSR_c, #0x9F
 359              	@ 0 "" 2
 360              		.loc 1 303 0
 361 000c 0330A0E3 		mov	r3, #3
 362 0010 0030C0E5 		strb	r3, [r0, #0]
 363 0014 FEFFFFEB 		bl	spi_lld_ignore
 364              	.LVL22:
 365              		.loc 1 304 0
 366 0018 14309FE5 		ldr	r3, .L12
 367 001c 0200A0E3 		mov	r0, #2
 368 0020 183093E5 		ldr	r3, [r3, #24]
 369 0024 083084E5 		str	r3, [r4, #8]
 370 0028 FEFFFFEB 		bl	chSchGoSleepS
 371              	.LVL23:
 372              		.loc 1 305 0
 373              	@ 305 "../../os/hal/src/spi.c" 1
 374 002c 1FF021E3 		msr     CPSR_c, #0x1F
 375              	@ 0 "" 2
 376 0030 1080BDE8 		ldmfd	sp!, {r4, pc}
 377              	.L13:
 378              		.align	2
 379              	.L12:
 380 0034 00000000 		.word	rlist
 381              		.cfi_endproc
 382              	.LFE17:
 383              		.size	spiIgnore, .-spiIgnore
 384              		.section	.text.spiExchange,"ax",%progbits
 385              		.align	2
 386              		.global	spiExchange
 387              		.type	spiExchange, %function
 388              	spiExchange:
 389              	.LFB18:
 390              		.loc 1 327 0
 391              		.cfi_startproc
 392              		@ args = 0, pretend = 0, frame = 0
 393              		@ frame_needed = 0, uses_anonymous_args = 0
 394              	.LVL24:
 395 0000 10402DE9 		stmfd	sp!, {r4, lr}
 396              	.LCFI9:
 397              		.cfi_def_cfa_offset 8
 398              		.cfi_offset 4, -8
 399              		.cfi_offset 14, -4
ARM GAS  C:\Users\NICOMA~1\AppData\Local\Temp\ccQEW3Yh.s 			page 8


 400              		.loc 1 327 0
 401 0004 0040A0E1 		mov	r4, r0
 402              		.loc 1 332 0
 403              	@ 332 "../../os/hal/src/spi.c" 1
 404 0008 9FF021E3 		msr     CPSR_c, #0x9F
 405              	@ 0 "" 2
 406              		.loc 1 336 0
 407 000c 03C0A0E3 		mov	ip, #3
 408 0010 00C0C0E5 		strb	ip, [r0, #0]
 409 0014 FEFFFFEB 		bl	spi_lld_exchange
 410              	.LVL25:
 411              		.loc 1 337 0
 412 0018 14309FE5 		ldr	r3, .L15
 413 001c 0200A0E3 		mov	r0, #2
 414 0020 183093E5 		ldr	r3, [r3, #24]
 415 0024 083084E5 		str	r3, [r4, #8]
 416 0028 FEFFFFEB 		bl	chSchGoSleepS
 417              	.LVL26:
 418              		.loc 1 338 0
 419              	@ 338 "../../os/hal/src/spi.c" 1
 420 002c 1FF021E3 		msr     CPSR_c, #0x1F
 421              	@ 0 "" 2
 422 0030 1080BDE8 		ldmfd	sp!, {r4, pc}
 423              	.L16:
 424              		.align	2
 425              	.L15:
 426 0034 00000000 		.word	rlist
 427              		.cfi_endproc
 428              	.LFE18:
 429              		.size	spiExchange, .-spiExchange
 430              		.section	.text.spiSend,"ax",%progbits
 431              		.align	2
 432              		.global	spiSend
 433              		.type	spiSend, %function
 434              	spiSend:
 435              	.LFB19:
 436              		.loc 1 357 0
 437              		.cfi_startproc
 438              		@ args = 0, pretend = 0, frame = 0
 439              		@ frame_needed = 0, uses_anonymous_args = 0
 440              	.LVL27:
 441 0000 10402DE9 		stmfd	sp!, {r4, lr}
 442              	.LCFI10:
 443              		.cfi_def_cfa_offset 8
 444              		.cfi_offset 4, -8
 445              		.cfi_offset 14, -4
 446              		.loc 1 357 0
 447 0004 0040A0E1 		mov	r4, r0
 448              		.loc 1 361 0
 449              	@ 361 "../../os/hal/src/spi.c" 1
 450 0008 9FF021E3 		msr     CPSR_c, #0x9F
 451              	@ 0 "" 2
 452              		.loc 1 364 0
 453 000c 0330A0E3 		mov	r3, #3
 454 0010 0030C0E5 		strb	r3, [r0, #0]
 455 0014 FEFFFFEB 		bl	spi_lld_send
 456              	.LVL28:
ARM GAS  C:\Users\NICOMA~1\AppData\Local\Temp\ccQEW3Yh.s 			page 9


 457              		.loc 1 365 0
 458 0018 14309FE5 		ldr	r3, .L18
 459 001c 0200A0E3 		mov	r0, #2
 460 0020 183093E5 		ldr	r3, [r3, #24]
 461 0024 083084E5 		str	r3, [r4, #8]
 462 0028 FEFFFFEB 		bl	chSchGoSleepS
 463              	.LVL29:
 464              		.loc 1 366 0
 465              	@ 366 "../../os/hal/src/spi.c" 1
 466 002c 1FF021E3 		msr     CPSR_c, #0x1F
 467              	@ 0 "" 2
 468 0030 1080BDE8 		ldmfd	sp!, {r4, pc}
 469              	.L19:
 470              		.align	2
 471              	.L18:
 472 0034 00000000 		.word	rlist
 473              		.cfi_endproc
 474              	.LFE19:
 475              		.size	spiSend, .-spiSend
 476              		.section	.text.spiReceive,"ax",%progbits
 477              		.align	2
 478              		.global	spiReceive
 479              		.type	spiReceive, %function
 480              	spiReceive:
 481              	.LFB20:
 482              		.loc 1 385 0
 483              		.cfi_startproc
 484              		@ args = 0, pretend = 0, frame = 0
 485              		@ frame_needed = 0, uses_anonymous_args = 0
 486              	.LVL30:
 487 0000 10402DE9 		stmfd	sp!, {r4, lr}
 488              	.LCFI11:
 489              		.cfi_def_cfa_offset 8
 490              		.cfi_offset 4, -8
 491              		.cfi_offset 14, -4
 492              		.loc 1 385 0
 493 0004 0040A0E1 		mov	r4, r0
 494              		.loc 1 390 0
 495              	@ 390 "../../os/hal/src/spi.c" 1
 496 0008 9FF021E3 		msr     CPSR_c, #0x9F
 497              	@ 0 "" 2
 498              		.loc 1 394 0
 499 000c 0330A0E3 		mov	r3, #3
 500 0010 0030C0E5 		strb	r3, [r0, #0]
 501 0014 FEFFFFEB 		bl	spi_lld_receive
 502              	.LVL31:
 503              		.loc 1 395 0
 504 0018 14309FE5 		ldr	r3, .L21
 505 001c 0200A0E3 		mov	r0, #2
 506 0020 183093E5 		ldr	r3, [r3, #24]
 507 0024 083084E5 		str	r3, [r4, #8]
 508 0028 FEFFFFEB 		bl	chSchGoSleepS
 509              	.LVL32:
 510              		.loc 1 396 0
 511              	@ 396 "../../os/hal/src/spi.c" 1
 512 002c 1FF021E3 		msr     CPSR_c, #0x1F
 513              	@ 0 "" 2
ARM GAS  C:\Users\NICOMA~1\AppData\Local\Temp\ccQEW3Yh.s 			page 10


 514 0030 1080BDE8 		ldmfd	sp!, {r4, pc}
 515              	.L22:
 516              		.align	2
 517              	.L21:
 518 0034 00000000 		.word	rlist
 519              		.cfi_endproc
 520              	.LFE20:
 521              		.size	spiReceive, .-spiReceive
 522              		.section	.text.spiAcquireBus,"ax",%progbits
 523              		.align	2
 524              		.global	spiAcquireBus
 525              		.type	spiAcquireBus, %function
 526              	spiAcquireBus:
 527              	.LFB21:
 528              		.loc 1 412 0
 529              		.cfi_startproc
 530              		@ args = 0, pretend = 0, frame = 0
 531              		@ frame_needed = 0, uses_anonymous_args = 0
 532              		@ link register save eliminated.
 533              	.LVL33:
 534              		.loc 1 417 0
 535 0000 0C0080E2 		add	r0, r0, #12
 536              	.LVL34:
 537              		.loc 1 421 0
 538              		.loc 1 417 0
 539 0004 FEFFFFEA 		b	chMtxLock
 540              	.LVL35:
 541              		.cfi_endproc
 542              	.LFE21:
 543              		.size	spiAcquireBus, .-spiAcquireBus
 544              		.section	.text.spiReleaseBus,"ax",%progbits
 545              		.align	2
 546              		.global	spiReleaseBus
 547              		.type	spiReleaseBus, %function
 548              	spiReleaseBus:
 549              	.LFB22:
 550              		.loc 1 432 0
 551              		.cfi_startproc
 552              		@ args = 0, pretend = 0, frame = 0
 553              		@ frame_needed = 0, uses_anonymous_args = 0
 554              		@ link register save eliminated.
 555              	.LVL36:
 556              		.loc 1 442 0
 557              		.loc 1 438 0
 558 0000 FEFFFFEA 		b	chMtxUnlock
 559              	.LVL37:
 560              		.cfi_endproc
 561              	.LFE22:
 562              		.size	spiReleaseBus, .-spiReleaseBus
 563              		.text
 564              	.Letext0:
 565              		.file 2 "c:\\yagarto-20121222\\bin\\../lib/gcc/arm-none-eabi/4.7.2/include/stddef.h"
 566              		.file 3 "c:/yagarto-20121222/lib/gcc/../../arm-none-eabi/sys-include/stdint.h"
 567              		.file 4 "../../os/ports/GCC/ARM/chtypes.h"
 568              		.file 5 "../../os/kernel/include/chlists.h"
 569              		.file 6 "../../os/kernel/include/chthreads.h"
 570              		.file 7 "../../os/ports/GCC/ARM/chcore.h"
ARM GAS  C:\Users\NICOMA~1\AppData\Local\Temp\ccQEW3Yh.s 			page 11


 571              		.file 8 "../../os/kernel/include/chschd.h"
 572              		.file 9 "../../os/kernel/include/chmtx.h"
 573              		.file 10 "../../os/hal/include/spi.h"
 574              		.file 11 "../../os/hal/platforms/BCM2835/spi_lld.h"