ARM GAS  C:\Users\NICOMA~1\AppData\Local\Temp\ccAPJOX0.s 			page 1


   1              		.cpu arm1176jz-s
   2              		.fpu softvfp
   3              		.eabi_attribute 20, 1
   4              		.eabi_attribute 21, 1
   5              		.eabi_attribute 23, 3
   6              		.eabi_attribute 24, 1
   7              		.eabi_attribute 25, 1
   8              		.eabi_attribute 26, 1
   9              		.eabi_attribute 30, 2
  10              		.eabi_attribute 34, 1
  11              		.eabi_attribute 18, 4
  12              		.file	"spi_lld.c"
  13              		.text
  14              	.Ltext0:
  15              		.cfi_sections	.debug_frame
  16              		.section	.text.spi_lld_serve_interrupt,"ax",%progbits
  17              		.align	2
  18              		.global	spi_lld_serve_interrupt
  19              		.type	spi_lld_serve_interrupt, %function
  20              	spi_lld_serve_interrupt:
  21              	.LFB8:
  22              		.file 1 "../../os/hal/platforms/BCM2835/spi_lld.c"
  23              		.loc 1 75 0
  24              		.cfi_startproc
  25              		@ args = 0, pretend = 0, frame = 0
  26              		@ frame_needed = 0, uses_anonymous_args = 0
  27              	.LVL0:
  28              		.loc 1 76 0
  29 0000 84319FE5 		ldr	r3, .L57
  30              		.loc 1 75 0
  31 0004 10402DE9 		stmfd	sp!, {r4, lr}
  32              	.LCFI0:
  33              		.cfi_def_cfa_offset 8
  34              		.cfi_offset 4, -8
  35              		.cfi_offset 14, -4
  36              		.loc 1 76 0
  37 0008 083293E5 		ldr	r3, [r3, #520]
  38              		.loc 1 75 0
  39 000c 0040A0E1 		mov	r4, r0
  40              		.loc 1 76 0
  41 0010 010513E3 		tst	r3, #4194304
  42 0014 1080BD08 		ldmeqfd	sp!, {r4, pc}
  43              		.loc 1 77 0
  44 0018 70219FE5 		ldr	r2, .L57+4
  45 001c 003092E5 		ldr	r3, [r2, #0]
  46 0020 010813E3 		tst	r3, #65536
  47 0024 1700000A 		beq	.L4
  48              	.LVL1:
  49              	.LBB8:
  50              		.loc 1 79 0
  51 0028 243090E5 		ldr	r3, [r0, #36]
  52 002c 000053E3 		cmp	r3, #0
  53 0030 2700000A 		beq	.L51
  54              		.loc 1 81 0
  55 0034 041090E5 		ldr	r1, [r0, #4]
  56              	.LBB9:
  57              		.loc 1 83 0
ARM GAS  C:\Users\NICOMA~1\AppData\Local\Temp\ccAPJOX0.s 			page 2


  58 0038 20C090E5 		ldr	ip, [r0, #32]
  59              	.LBE9:
  60              		.loc 1 81 0
  61 003c 0410D1E5 		ldrb	r1, [r1, #4]	@ zero_extendqisi2
  62 0040 000051E3 		cmp	r1, #0
  63              	.LBB10:
  64              		.loc 1 84 0
  65 0044 001092E5 		ldr	r1, [r2, #0]
  66              	.LBE10:
  67              		.loc 1 81 0
  68 0048 3C00000A 		beq	.L6
  69              	.LVL2:
  70              	.LBB11:
  71              		.loc 1 84 0
  72 004c 010711E3 		tst	r1, #262144
  73 0050 0C00000A 		beq	.L4
  74 0054 0C00A0E1 		mov	r0, ip
  75              	.LVL3:
  76 0058 010000EA 		b	.L10
  77              	.LVL4:
  78              	.L9:
  79              		.loc 1 84 0 is_stmt 0 discriminator 2
  80 005c 000053E3 		cmp	r3, #0
  81 0060 0700000A 		beq	.L53
  82              	.L10:
  83              		.loc 1 85 0 is_stmt 1
  84 0064 00005CE3 		cmp	ip, #0
  85 0068 B210D010 		ldrneh	r1, [r0], #2
  86              	.LVL5:
  87 006c 0C10A001 		moveq	r1, ip
  88 0070 041082E5 		str	r1, [r2, #4]
  89              		.loc 1 84 0
  90 0074 001092E5 		ldr	r1, [r2, #0]
  91              		.loc 1 86 0
  92 0078 023043E2 		sub	r3, r3, #2
  93              		.loc 1 84 0
  94 007c 010711E3 		tst	r1, #262144
  95 0080 F5FFFF1A 		bne	.L9
  96              	.L53:
  97 0084 243084E5 		str	r3, [r4, #36]
  98              	.LVL6:
  99              	.L4:
 100              	.LBE11:
 101              	.LBE8:
 102              		.loc 1 106 0
 103 0088 00219FE5 		ldr	r2, .L57+4
 104 008c 003092E5 		ldr	r3, [r2, #0]
 105 0090 020713E3 		tst	r3, #524288
 106 0094 1080BD08 		ldmeqfd	sp!, {r4, pc}
 107              		.loc 1 107 0
 108 0098 003092E5 		ldr	r3, [r2, #0]
 109 009c 020813E3 		tst	r3, #131072
 110 00a0 0600000A 		beq	.L55
 111              	.L20:
 112              	.LBB15:
 113              		.loc 1 107 0 is_stmt 0 discriminator 3
 114 00a4 1C3094E5 		ldr	r3, [r4, #28]
ARM GAS  C:\Users\NICOMA~1\AppData\Local\Temp\ccAPJOX0.s 			page 3


 115 00a8 041092E5 		ldr	r1, [r2, #4]
 116              	.LVL7:
 117 00ac 000053E3 		cmp	r3, #0
 118 00b0 0010C315 		strneb	r1, [r3, #0]
 119              	.LVL8:
 120              	.LBE15:
 121 00b4 003092E5 		ldr	r3, [r2, #0]
 122              	.LVL9:
 123 00b8 020813E3 		tst	r3, #131072
 124 00bc F8FFFF1A 		bne	.L20
 125              	.LVL10:
 126              	.L55:
 127 00c0 1080BDE8 		ldmfd	sp!, {r4, pc}
 128              	.LVL11:
 129              	.L14:
 130              	.LBB16:
 131              	.LBB12:
 132              		.loc 1 99 0 is_stmt 1 discriminator 3
 133 00c4 1C3094E5 		ldr	r3, [r4, #28]
 134 00c8 041092E5 		ldr	r1, [r2, #4]
 135              	.LVL12:
 136 00cc 000053E3 		cmp	r3, #0
 137 00d0 0010C315 		strneb	r1, [r3, #0]
 138              	.LVL13:
 139              	.L51:
 140              	.LBE12:
 141              		.loc 1 99 0 is_stmt 0 discriminator 1
 142 00d4 003092E5 		ldr	r3, [r2, #0]
 143 00d8 B0109FE5 		ldr	r1, .L57+4
 144 00dc 020813E3 		tst	r3, #131072
 145 00e0 F7FFFF1A 		bne	.L14
 146              		.loc 1 102 0 is_stmt 1
 147 00e4 043094E5 		ldr	r3, [r4, #4]
 148              		.loc 1 101 0
 149 00e8 002091E5 		ldr	r2, [r1, #0]
 150              		.loc 1 102 0
 151 00ec 003093E5 		ldr	r3, [r3, #0]
 152              		.loc 1 101 0
 153 00f0 1A2DC2E3 		bic	r2, r2, #1664
 154              		.loc 1 102 0
 155 00f4 000053E3 		cmp	r3, #0
 156              		.loc 1 101 0
 157 00f8 002081E5 		str	r2, [r1, #0]
 158              		.loc 1 102 0
 159 00fc 1F00000A 		beq	.L15
 160              		.loc 1 102 0 is_stmt 0 discriminator 1
 161 0100 0420A0E3 		mov	r2, #4
 162 0104 0020C4E5 		strb	r2, [r4, #0]
 163 0108 0400A0E1 		mov	r0, r4
 164              	.LVL14:
 165 010c 33FF2FE1 		blx	r3
 166              	.LVL15:
 167 0110 0030D4E5 		ldrb	r3, [r4, #0]	@ zero_extendqisi2
 168 0114 040053E3 		cmp	r3, #4
 169 0118 1800000A 		beq	.L15
 170              	.L16:
 171              		.loc 1 102 0 discriminator 4
ARM GAS  C:\Users\NICOMA~1\AppData\Local\Temp\ccAPJOX0.s 			page 4


 172 011c 083094E5 		ldr	r3, [r4, #8]
 173 0120 000053E3 		cmp	r3, #0
 174 0124 D7FFFF0A 		beq	.L4
 175              	.LVL16:
 176              	.LBB13:
 177              		.loc 1 102 0 discriminator 5
 178 0128 0020A0E3 		mov	r2, #0
 179 012c 082084E5 		str	r2, [r4, #8]
 180 0130 0300A0E1 		mov	r0, r3
 181 0134 242083E5 		str	r2, [r3, #36]
 182 0138 FEFFFFEB 		bl	chSchReadyI
 183              	.LVL17:
 184 013c D1FFFFEA 		b	.L4
 185              	.LVL18:
 186              	.L6:
 187              	.LBE13:
 188              	.LBB14:
 189              		.loc 1 91 0 is_stmt 1
 190 0140 010711E3 		tst	r1, #262144
 191 0144 CFFFFF0A 		beq	.L4
 192 0148 0C00A0E1 		mov	r0, ip
 193              	.LVL19:
 194 014c 010000EA 		b	.L12
 195              	.LVL20:
 196              	.L56:
 197              		.loc 1 91 0 is_stmt 0 discriminator 2
 198 0150 000053E3 		cmp	r3, #0
 199 0154 CBFFFF0A 		beq	.L4
 200              	.L12:
 201              		.loc 1 92 0 is_stmt 1
 202 0158 00005CE3 		cmp	ip, #0
 203 015c 0110D014 		ldrneb	r1, [r0], #1	@ zero_extendqisi2
 204              	.LVL21:
 205 0160 0C10A001 		moveq	r1, ip
 206 0164 041082E5 		str	r1, [r2, #4]
 207              		.loc 1 91 0
 208 0168 001092E5 		ldr	r1, [r2, #0]
 209              		.loc 1 93 0
 210 016c 013043E2 		sub	r3, r3, #1
 211              		.loc 1 91 0
 212 0170 010711E3 		tst	r1, #262144
 213              		.loc 1 93 0
 214 0174 243084E5 		str	r3, [r4, #36]
 215              		.loc 1 91 0
 216 0178 F4FFFF1A 		bne	.L56
 217 017c C1FFFFEA 		b	.L4
 218              	.LVL22:
 219              	.L15:
 220              	.LBE14:
 221              		.loc 1 102 0 discriminator 2
 222 0180 0230A0E3 		mov	r3, #2
 223 0184 0030C4E5 		strb	r3, [r4, #0]
 224 0188 E3FFFFEA 		b	.L16
 225              	.L58:
 226              		.align	2
 227              	.L57:
 228 018c 00B00020 		.word	536915968
ARM GAS  C:\Users\NICOMA~1\AppData\Local\Temp\ccAPJOX0.s 			page 5


 229 0190 00402020 		.word	538984448
 230              	.LBE16:
 231              		.cfi_endproc
 232              	.LFE8:
 233              		.size	spi_lld_serve_interrupt, .-spi_lld_serve_interrupt
 234              		.section	.text.spi_lld_init,"ax",%progbits
 235              		.align	2
 236              		.global	spi_lld_init
 237              		.type	spi_lld_init, %function
 238              	spi_lld_init:
 239              	.LFB9:
 240              		.loc 1 121 0
 241              		.cfi_startproc
 242              		@ args = 0, pretend = 0, frame = 0
 243              		@ frame_needed = 0, uses_anonymous_args = 0
 244              		@ link register save eliminated.
 245              		.loc 1 122 0
 246 0000 00009FE5 		ldr	r0, .L60
 247              		.loc 1 123 0
 248              		.loc 1 122 0
 249 0004 FEFFFFEA 		b	spiObjectInit
 250              	.LVL23:
 251              	.L61:
 252              		.align	2
 253              	.L60:
 254 0008 00000000 		.word	SPI0
 255              		.cfi_endproc
 256              	.LFE9:
 257              		.size	spi_lld_init, .-spi_lld_init
 258              		.section	.text.spi_lld_start,"ax",%progbits
 259              		.align	2
 260              		.global	spi_lld_start
 261              		.type	spi_lld_start, %function
 262              	spi_lld_start:
 263              	.LFB10:
 264              		.loc 1 132 0
 265              		.cfi_startproc
 266              		@ args = 0, pretend = 0, frame = 0
 267              		@ frame_needed = 0, uses_anonymous_args = 0
 268              	.LVL24:
 269              		.loc 1 135 0
 270 0000 B4309FE5 		ldr	r3, .L85
 271              		.loc 1 132 0
 272 0004 10402DE9 		stmfd	sp!, {r4, lr}
 273              	.LCFI1:
 274              		.cfi_def_cfa_offset 8
 275              		.cfi_offset 4, -8
 276              		.cfi_offset 14, -4
 277              		.loc 1 135 0
 278 0008 202293E5 		ldr	r2, [r3, #544]
 279              		.loc 1 132 0
 280 000c 0040A0E1 		mov	r4, r0
 281              		.loc 1 135 0
 282 0010 012582E3 		orr	r2, r2, #4194304
 283 0014 202283E5 		str	r2, [r3, #544]
 284              		.loc 1 138 0
 285 0018 0700A0E3 		mov	r0, #7
ARM GAS  C:\Users\NICOMA~1\AppData\Local\Temp\ccAPJOX0.s 			page 6


 286              	.LVL25:
 287 001c 0410A0E3 		mov	r1, #4
 288 0020 FEFFFFEB 		bl	bcm2835_gpio_fnsel
 289              	.LVL26:
 290              		.loc 1 139 0
 291 0024 0800A0E3 		mov	r0, #8
 292 0028 0410A0E3 		mov	r1, #4
 293 002c FEFFFFEB 		bl	bcm2835_gpio_fnsel
 294              	.LVL27:
 295              		.loc 1 140 0
 296 0030 0900A0E3 		mov	r0, #9
 297 0034 0410A0E3 		mov	r1, #4
 298 0038 FEFFFFEB 		bl	bcm2835_gpio_fnsel
 299              	.LVL28:
 300              		.loc 1 141 0
 301 003c 0A00A0E3 		mov	r0, #10
 302 0040 0410A0E3 		mov	r1, #4
 303 0044 FEFFFFEB 		bl	bcm2835_gpio_fnsel
 304              	.LVL29:
 305              		.loc 1 142 0
 306 0048 0410A0E3 		mov	r1, #4
 307 004c 0B00A0E3 		mov	r0, #11
 308 0050 FEFFFFEB 		bl	bcm2835_gpio_fnsel
 309              	.LVL30:
 310              		.loc 1 149 0
 311 0054 043094E5 		ldr	r3, [r4, #4]
 312              	.LVL31:
 313              		.loc 1 151 0
 314 0058 0920D3E5 		ldrb	r2, [r3, #9]	@ zero_extendqisi2
 315              		.loc 1 154 0
 316 005c 0A10D3E5 		ldrb	r1, [r3, #10]	@ zero_extendqisi2
 317              		.loc 1 147 0
 318 0060 000052E3 		cmp	r2, #0
 319 0064 0820A013 		movne	r2, #8
 320 0068 0020A003 		moveq	r2, #0
 321              	.LVL32:
 322              		.loc 1 154 0
 323 006c 000051E3 		cmp	r1, #0
 324              		.loc 1 157 0
 325 0070 0610D3E5 		ldrb	r1, [r3, #6]	@ zero_extendqisi2
 326              		.loc 1 155 0
 327 0074 04208213 		orrne	r2, r2, #4
 328              	.LVL33:
 329              		.loc 1 157 0
 330 0078 000051E3 		cmp	r1, #0
 331              		.loc 1 160 0
 332 007c 0710D3E5 		ldrb	r1, [r3, #7]	@ zero_extendqisi2
 333              		.loc 1 158 0
 334 0080 40208213 		orrne	r2, r2, #64
 335              	.LVL34:
 336              		.loc 1 160 0
 337 0084 000051E3 		cmp	r1, #0
 338              		.loc 1 163 0
 339 0088 0810D3E5 		ldrb	r1, [r3, #8]	@ zero_extendqisi2
 340              		.loc 1 161 0
 341 008c 02268213 		orrne	r2, r2, #2097152
 342              	.LVL35:
ARM GAS  C:\Users\NICOMA~1\AppData\Local\Temp\ccAPJOX0.s 			page 7


 343              		.loc 1 163 0
 344 0090 000051E3 		cmp	r1, #0
 345              		.loc 1 166 0
 346 0094 0410D3E5 		ldrb	r1, [r3, #4]	@ zero_extendqisi2
 347              		.loc 1 164 0
 348 0098 01258213 		orrne	r2, r2, #4194304
 349              	.LVL36:
 350              		.loc 1 166 0
 351 009c 000051E3 		cmp	r1, #0
 352              		.loc 1 167 0
 353 00a0 022A8213 		orrne	r2, r2, #8192
 354              	.LVL37:
 355              		.loc 1 170 0
 356 00a4 14109FE5 		ldr	r1, .L85+4
 357 00a8 302082E3 		orr	r2, r2, #48
 358              	.LVL38:
 359 00ac 002081E5 		str	r2, [r1, #0]
 360              		.loc 1 172 0
 361 00b0 0C3093E5 		ldr	r3, [r3, #12]
 362              	.LVL39:
 363 00b4 083081E5 		str	r3, [r1, #8]
 364 00b8 1080BDE8 		ldmfd	sp!, {r4, pc}
 365              	.L86:
 366              		.align	2
 367              	.L85:
 368 00bc 00B00020 		.word	536915968
 369 00c0 00402020 		.word	538984448
 370              		.cfi_endproc
 371              	.LFE10:
 372              		.size	spi_lld_start, .-spi_lld_start
 373              		.section	.text.spi_lld_stop,"ax",%progbits
 374              		.align	2
 375              		.global	spi_lld_stop
 376              		.type	spi_lld_stop, %function
 377              	spi_lld_stop:
 378              	.LFB11:
 379              		.loc 1 182 0
 380              		.cfi_startproc
 381              		@ args = 0, pretend = 0, frame = 0
 382              		@ frame_needed = 0, uses_anonymous_args = 0
 383              	.LVL40:
 384 0000 08402DE9 		stmfd	sp!, {r3, lr}
 385              	.LCFI2:
 386              		.cfi_def_cfa_offset 8
 387              		.cfi_offset 3, -8
 388              		.cfi_offset 14, -4
 389              		.loc 1 185 0
 390 0004 48309FE5 		ldr	r3, .L88
 391              		.loc 1 188 0
 392 0008 0700A0E3 		mov	r0, #7
 393              	.LVL41:
 394              		.loc 1 185 0
 395 000c 202293E5 		ldr	r2, [r3, #544]
 396              		.loc 1 188 0
 397 0010 0010A0E3 		mov	r1, #0
 398              		.loc 1 185 0
 399 0014 012582E3 		orr	r2, r2, #4194304
ARM GAS  C:\Users\NICOMA~1\AppData\Local\Temp\ccAPJOX0.s 			page 8


 400 0018 202283E5 		str	r2, [r3, #544]
 401              		.loc 1 188 0
 402 001c FEFFFFEB 		bl	bcm2835_gpio_fnsel
 403              	.LVL42:
 404              		.loc 1 189 0
 405 0020 0800A0E3 		mov	r0, #8
 406 0024 0010A0E3 		mov	r1, #0
 407 0028 FEFFFFEB 		bl	bcm2835_gpio_fnsel
 408              	.LVL43:
 409              		.loc 1 190 0
 410 002c 0900A0E3 		mov	r0, #9
 411 0030 0010A0E3 		mov	r1, #0
 412 0034 FEFFFFEB 		bl	bcm2835_gpio_fnsel
 413              	.LVL44:
 414              		.loc 1 191 0
 415 0038 0A00A0E3 		mov	r0, #10
 416 003c 0010A0E3 		mov	r1, #0
 417 0040 FEFFFFEB 		bl	bcm2835_gpio_fnsel
 418              	.LVL45:
 419              		.loc 1 192 0
 420 0044 0B00A0E3 		mov	r0, #11
 421 0048 0010A0E3 		mov	r1, #0
 422              		.loc 1 193 0
 423 004c 0840BDE8 		ldmfd	sp!, {r3, lr}
 424              		.loc 1 192 0
 425 0050 FEFFFFEA 		b	bcm2835_gpio_fnsel
 426              	.LVL46:
 427              	.L89:
 428              		.align	2
 429              	.L88:
 430 0054 00B00020 		.word	536915968
 431              		.cfi_endproc
 432              	.LFE11:
 433              		.size	spi_lld_stop, .-spi_lld_stop
 434              		.section	.text.spi_lld_select,"ax",%progbits
 435              		.align	2
 436              		.global	spi_lld_select
 437              		.type	spi_lld_select, %function
 438              	spi_lld_select:
 439              	.LFB12:
 440              		.loc 1 202 0
 441              		.cfi_startproc
 442              		@ args = 0, pretend = 0, frame = 0
 443              		@ frame_needed = 0, uses_anonymous_args = 0
 444              		@ link register save eliminated.
 445              	.LVL47:
 446              		.loc 1 203 0
 447 0000 1C309FE5 		ldr	r3, .L91
 448              		.loc 1 205 0
 449 0004 042090E5 		ldr	r2, [r0, #4]
 450              		.loc 1 203 0
 451 0008 001093E5 		ldr	r1, [r3, #0]
 452              	.LVL48:
 453              		.loc 1 205 0
 454 000c 0520D2E5 		ldrb	r2, [r2, #5]	@ zero_extendqisi2
 455              		.loc 1 204 0
 456 0010 0310C1E3 		bic	r1, r1, #3
ARM GAS  C:\Users\NICOMA~1\AppData\Local\Temp\ccAPJOX0.s 			page 9


 457              	.LVL49:
 458              		.loc 1 205 0
 459 0014 032002E2 		and	r2, r2, #3
 460 0018 012082E1 		orr	r2, r2, r1
 461              	.LVL50:
 462              		.loc 1 206 0
 463 001c 002083E5 		str	r2, [r3, #0]
 464 0020 1EFF2FE1 		bx	lr
 465              	.L92:
 466              		.align	2
 467              	.L91:
 468 0024 00402020 		.word	538984448
 469              		.cfi_endproc
 470              	.LFE12:
 471              		.size	spi_lld_select, .-spi_lld_select
 472              		.section	.text.spi_lld_unselect,"ax",%progbits
 473              		.align	2
 474              		.global	spi_lld_unselect
 475              		.type	spi_lld_unselect, %function
 476              	spi_lld_unselect:
 477              	.LFB13:
 478              		.loc 1 217 0
 479              		.cfi_startproc
 480              		@ args = 0, pretend = 0, frame = 0
 481              		@ frame_needed = 0, uses_anonymous_args = 0
 482              		@ link register save eliminated.
 483              	.LVL51:
 484              		.loc 1 223 0
 485 0000 0C309FE5 		ldr	r3, .L94
 486 0004 002093E5 		ldr	r2, [r3, #0]
 487 0008 0320C2E3 		bic	r2, r2, #3
 488 000c 002083E5 		str	r2, [r3, #0]
 489 0010 1EFF2FE1 		bx	lr
 490              	.L95:
 491              		.align	2
 492              	.L94:
 493 0014 00402020 		.word	538984448
 494              		.cfi_endproc
 495              	.LFE13:
 496              		.size	spi_lld_unselect, .-spi_lld_unselect
 497              		.section	.text.spi_lld_ignore,"ax",%progbits
 498              		.align	2
 499              		.global	spi_lld_ignore
 500              		.type	spi_lld_ignore, %function
 501              	spi_lld_ignore:
 502              	.LFB14:
 503              		.loc 1 237 0
 504              		.cfi_startproc
 505              		@ args = 0, pretend = 0, frame = 0
 506              		@ frame_needed = 0, uses_anonymous_args = 0
 507              		@ link register save eliminated.
 508              	.LVL52:
 509              	.LBB17:
 510              	.LBB18:
 511              		.loc 1 259 0
 512 0000 40309FE5 		ldr	r3, .L97
 513              	.LVL53:
ARM GAS  C:\Users\NICOMA~1\AppData\Local\Temp\ccAPJOX0.s 			page 10


 514              	.LBE18:
 515              	.LBE17:
 516              		.loc 1 237 0
 517 0004 04402DE5 		str	r4, [sp, #-4]!
 518              	.LCFI3:
 519              		.cfi_def_cfa_offset 4
 520              		.cfi_offset 4, -4
 521              	.LBB20:
 522              	.LBB19:
 523              		.loc 1 259 0
 524 0008 002093E5 		ldr	r2, [r3, #0]
 525              		.loc 1 261 0
 526 000c 00C0A0E3 		mov	ip, #0
 527              		.loc 1 259 0
 528 0010 302082E3 		orr	r2, r2, #48
 529 0014 002083E5 		str	r2, [r3, #0]
 530              		.loc 1 266 0
 531 0018 004093E5 		ldr	r4, [r3, #0]
 532              		.loc 1 267 0
 533 001c 28209FE5 		ldr	r2, .L97+4
 534              		.loc 1 266 0
 535 0020 1A4D84E3 		orr	r4, r4, #1664
 536              		.loc 1 261 0
 537 0024 20C080E5 		str	ip, [r0, #32]
 538              		.loc 1 262 0
 539 0028 241080E5 		str	r1, [r0, #36]
 540              		.loc 1 263 0
 541 002c 1CC080E5 		str	ip, [r0, #28]
 542              		.loc 1 266 0
 543 0030 004083E5 		str	r4, [r3, #0]
 544              		.loc 1 267 0
 545 0034 143292E5 		ldr	r3, [r2, #532]
 546 0038 013583E3 		orr	r3, r3, #4194304
 547 003c 143282E5 		str	r3, [r2, #532]
 548              	.LBE19:
 549              	.LBE20:
 550              		.loc 1 239 0
 551 0040 1000BDE8 		ldmfd	sp!, {r4}
 552 0044 1EFF2FE1 		bx	lr
 553              	.L98:
 554              		.align	2
 555              	.L97:
 556 0048 00402020 		.word	538984448
 557 004c 00B00020 		.word	536915968
 558              		.cfi_endproc
 559              	.LFE14:
 560              		.size	spi_lld_ignore, .-spi_lld_ignore
 561              		.section	.text.spi_lld_exchange,"ax",%progbits
 562              		.align	2
 563              		.global	spi_lld_exchange
 564              		.type	spi_lld_exchange, %function
 565              	spi_lld_exchange:
 566              	.LFB15:
 567              		.loc 1 257 0
 568              		.cfi_startproc
 569              		@ args = 0, pretend = 0, frame = 0
 570              		@ frame_needed = 0, uses_anonymous_args = 0
ARM GAS  C:\Users\NICOMA~1\AppData\Local\Temp\ccAPJOX0.s 			page 11


 571              		@ link register save eliminated.
 572              	.LVL54:
 573              		.loc 1 259 0
 574 0000 3CC09FE5 		ldr	ip, .L100
 575              		.loc 1 257 0
 576 0004 30002DE9 		stmfd	sp!, {r4, r5}
 577              	.LCFI4:
 578              		.cfi_def_cfa_offset 8
 579              		.cfi_offset 4, -8
 580              		.cfi_offset 5, -4
 581              		.loc 1 259 0
 582 0008 00509CE5 		ldr	r5, [ip, #0]
 583              		.loc 1 267 0
 584 000c 34409FE5 		ldr	r4, .L100+4
 585              		.loc 1 259 0
 586 0010 305085E3 		orr	r5, r5, #48
 587 0014 00508CE5 		str	r5, [ip, #0]
 588              		.loc 1 266 0
 589 0018 00509CE5 		ldr	r5, [ip, #0]
 590              		.loc 1 263 0
 591 001c 1C3080E5 		str	r3, [r0, #28]
 592              		.loc 1 266 0
 593 0020 1A5D85E3 		orr	r5, r5, #1664
 594              		.loc 1 261 0
 595 0024 202080E5 		str	r2, [r0, #32]
 596              		.loc 1 262 0
 597 0028 241080E5 		str	r1, [r0, #36]
 598              		.loc 1 266 0
 599 002c 00508CE5 		str	r5, [ip, #0]
 600              		.loc 1 267 0
 601 0030 143294E5 		ldr	r3, [r4, #532]
 602              	.LVL55:
 603 0034 013583E3 		orr	r3, r3, #4194304
 604 0038 143284E5 		str	r3, [r4, #532]
 605              		.loc 1 268 0
 606 003c 3000BDE8 		ldmfd	sp!, {r4, r5}
 607 0040 1EFF2FE1 		bx	lr
 608              	.L101:
 609              		.align	2
 610              	.L100:
 611 0044 00402020 		.word	538984448
 612 0048 00B00020 		.word	536915968
 613              		.cfi_endproc
 614              	.LFE15:
 615              		.size	spi_lld_exchange, .-spi_lld_exchange
 616              		.section	.text.spi_lld_send,"ax",%progbits
 617              		.align	2
 618              		.global	spi_lld_send
 619              		.type	spi_lld_send, %function
 620              	spi_lld_send:
 621              	.LFB16:
 622              		.loc 1 283 0
 623              		.cfi_startproc
 624              		@ args = 0, pretend = 0, frame = 0
 625              		@ frame_needed = 0, uses_anonymous_args = 0
 626              		@ link register save eliminated.
 627              	.LVL56:
ARM GAS  C:\Users\NICOMA~1\AppData\Local\Temp\ccAPJOX0.s 			page 12


 628              	.LBB21:
 629              	.LBB22:
 630              		.loc 1 259 0
 631 0000 40309FE5 		ldr	r3, .L103
 632              	.LVL57:
 633              	.LBE22:
 634              	.LBE21:
 635              		.loc 1 283 0
 636 0004 04402DE5 		str	r4, [sp, #-4]!
 637              	.LCFI5:
 638              		.cfi_def_cfa_offset 4
 639              		.cfi_offset 4, -4
 640              	.LBB24:
 641              	.LBB23:
 642              		.loc 1 259 0
 643 0008 004093E5 		ldr	r4, [r3, #0]
 644              		.loc 1 267 0
 645 000c 38C09FE5 		ldr	ip, .L103+4
 646              		.loc 1 259 0
 647 0010 304084E3 		orr	r4, r4, #48
 648 0014 004083E5 		str	r4, [r3, #0]
 649              		.loc 1 266 0
 650 0018 004093E5 		ldr	r4, [r3, #0]
 651              		.loc 1 261 0
 652 001c 202080E5 		str	r2, [r0, #32]
 653              		.loc 1 266 0
 654 0020 1A4D84E3 		orr	r4, r4, #1664
 655              		.loc 1 263 0
 656 0024 0020A0E3 		mov	r2, #0
 657              	.LVL58:
 658              		.loc 1 262 0
 659 0028 241080E5 		str	r1, [r0, #36]
 660              		.loc 1 263 0
 661 002c 1C2080E5 		str	r2, [r0, #28]
 662              		.loc 1 266 0
 663 0030 004083E5 		str	r4, [r3, #0]
 664              		.loc 1 267 0
 665 0034 14329CE5 		ldr	r3, [ip, #532]
 666 0038 013583E3 		orr	r3, r3, #4194304
 667 003c 14328CE5 		str	r3, [ip, #532]
 668              	.LBE23:
 669              	.LBE24:
 670              		.loc 1 285 0
 671 0040 1000BDE8 		ldmfd	sp!, {r4}
 672 0044 1EFF2FE1 		bx	lr
 673              	.L104:
 674              		.align	2
 675              	.L103:
 676 0048 00402020 		.word	538984448
 677 004c 00B00020 		.word	536915968
 678              		.cfi_endproc
 679              	.LFE16:
 680              		.size	spi_lld_send, .-spi_lld_send
 681              		.section	.text.spi_lld_receive,"ax",%progbits
 682              		.align	2
 683              		.global	spi_lld_receive
 684              		.type	spi_lld_receive, %function
ARM GAS  C:\Users\NICOMA~1\AppData\Local\Temp\ccAPJOX0.s 			page 13


 685              	spi_lld_receive:
 686              	.LFB17:
 687              		.loc 1 300 0
 688              		.cfi_startproc
 689              		@ args = 0, pretend = 0, frame = 0
 690              		@ frame_needed = 0, uses_anonymous_args = 0
 691              		@ link register save eliminated.
 692              	.LVL59:
 693              	.LBB25:
 694              	.LBB26:
 695              		.loc 1 259 0
 696 0000 40309FE5 		ldr	r3, .L106
 697              	.LVL60:
 698              	.LBE26:
 699              	.LBE25:
 700              		.loc 1 300 0
 701 0004 30002DE9 		stmfd	sp!, {r4, r5}
 702              	.LCFI6:
 703              		.cfi_def_cfa_offset 8
 704              		.cfi_offset 4, -8
 705              		.cfi_offset 5, -4
 706              	.LBB28:
 707              	.LBB27:
 708              		.loc 1 259 0
 709 0008 004093E5 		ldr	r4, [r3, #0]
 710              		.loc 1 267 0
 711 000c 38C09FE5 		ldr	ip, .L106+4
 712              		.loc 1 259 0
 713 0010 304084E3 		orr	r4, r4, #48
 714 0014 004083E5 		str	r4, [r3, #0]
 715              		.loc 1 266 0
 716 0018 004093E5 		ldr	r4, [r3, #0]
 717              		.loc 1 261 0
 718 001c 0050A0E3 		mov	r5, #0
 719              		.loc 1 266 0
 720 0020 1A4D84E3 		orr	r4, r4, #1664
 721              		.loc 1 261 0
 722 0024 205080E5 		str	r5, [r0, #32]
 723              		.loc 1 262 0
 724 0028 241080E5 		str	r1, [r0, #36]
 725              		.loc 1 263 0
 726 002c 1C2080E5 		str	r2, [r0, #28]
 727              		.loc 1 266 0
 728 0030 004083E5 		str	r4, [r3, #0]
 729              		.loc 1 267 0
 730 0034 14329CE5 		ldr	r3, [ip, #532]
 731 0038 013583E3 		orr	r3, r3, #4194304
 732 003c 14328CE5 		str	r3, [ip, #532]
 733              	.LBE27:
 734              	.LBE28:
 735              		.loc 1 302 0
 736 0040 3000BDE8 		ldmfd	sp!, {r4, r5}
 737 0044 1EFF2FE1 		bx	lr
 738              	.L107:
 739              		.align	2
 740              	.L106:
 741 0048 00402020 		.word	538984448
ARM GAS  C:\Users\NICOMA~1\AppData\Local\Temp\ccAPJOX0.s 			page 14


 742 004c 00B00020 		.word	536915968
 743              		.cfi_endproc
 744              	.LFE17:
 745              		.size	spi_lld_receive, .-spi_lld_receive
 746              		.section	.text.spi_lld_polled_exchange,"ax",%progbits
 747              		.align	2
 748              		.global	spi_lld_polled_exchange
 749              		.type	spi_lld_polled_exchange, %function
 750              	spi_lld_polled_exchange:
 751              	.LFB18:
 752              		.loc 1 316 0
 753              		.cfi_startproc
 754              		@ args = 0, pretend = 0, frame = 0
 755              		@ frame_needed = 0, uses_anonymous_args = 0
 756              		@ link register save eliminated.
 757              	.LVL61:
 758              		.loc 1 320 0
 759 0000 4C309FE5 		ldr	r3, .L119
 760 0004 002093E5 		ldr	r2, [r3, #0]
 761              		.loc 1 323 0
 762 0008 0300A0E1 		mov	r0, r3
 763              	.LVL62:
 764              		.loc 1 320 0
 765 000c B02082E3 		orr	r2, r2, #176
 766 0010 002083E5 		str	r2, [r3, #0]
 767              	.L109:
 768              		.loc 1 323 0 discriminator 1
 769 0014 003090E5 		ldr	r3, [r0, #0]
 770 0018 34209FE5 		ldr	r2, .L119
 771 001c 010713E3 		tst	r3, #262144
 772 0020 FBFFFF0A 		beq	.L109
 773              		.loc 1 326 0
 774 0024 041082E5 		str	r1, [r2, #4]
 775              		.loc 1 329 0
 776 0028 0210A0E1 		mov	r1, r2
 777              	.LVL63:
 778              	.L110:
 779              		.loc 1 329 0 is_stmt 0 discriminator 1
 780 002c 003091E5 		ldr	r3, [r1, #0]
 781 0030 1C209FE5 		ldr	r2, .L119
 782 0034 010813E3 		tst	r3, #65536
 783 0038 FBFFFF0A 		beq	.L110
 784              		.loc 1 332 0 is_stmt 1
 785 003c 040092E5 		ldr	r0, [r2, #4]
 786              	.LVL64:
 787              		.loc 1 335 0
 788 0040 003092E5 		ldr	r3, [r2, #0]
 789              		.loc 1 338 0
 790 0044 7000FFE6 		uxth	r0, r0
 791              	.LVL65:
 792              		.loc 1 335 0
 793 0048 8030C3E3 		bic	r3, r3, #128
 794 004c 003082E5 		str	r3, [r2, #0]
 795              		.loc 1 338 0
 796 0050 1EFF2FE1 		bx	lr
 797              	.L120:
 798              		.align	2
ARM GAS  C:\Users\NICOMA~1\AppData\Local\Temp\ccAPJOX0.s 			page 15


 799              	.L119:
 800 0054 00402020 		.word	538984448
 801              		.cfi_endproc
 802              	.LFE18:
 803              		.size	spi_lld_polled_exchange, .-spi_lld_polled_exchange
 804              		.comm	SPI0,40,4
 805              		.text
 806              	.Letext0:
 807              		.file 2 "c:\\yagarto-20121222\\bin\\../lib/gcc/arm-none-eabi/4.7.2/include/stddef.h"
 808              		.file 3 "c:/yagarto-20121222/lib/gcc/../../arm-none-eabi/sys-include/stdint.h"
 809              		.file 4 "../../os/ports/GCC/ARM/chtypes.h"
 810              		.file 5 "../../os/kernel/include/chlists.h"
 811              		.file 6 "../../os/kernel/include/chthreads.h"
 812              		.file 7 "../../os/ports/GCC/ARM/chcore.h"
 813              		.file 8 "../../os/kernel/include/chmtx.h"
 814              		.file 9 "../../os/hal/include/spi.h"
 815              		.file 10 "../../os/hal/platforms/BCM2835/spi_lld.h"
 816              		.file 11 "../../os/kernel/include/chschd.h"
 817              		.file 12 "../../os/hal/platforms/BCM2835/bcm2835.h"