ARM GAS  C:\Users\NICOMA~1\AppData\Local\Temp\cc8jT6bk.s 			page 1


   1              		.cpu arm1176jz-s
   2              		.fpu softvfp
   3              		.eabi_attribute 20, 1
   4              		.eabi_attribute 21, 1
   5              		.eabi_attribute 23, 3
   6              		.eabi_attribute 24, 1
   7              		.eabi_attribute 25, 1
   8              		.eabi_attribute 26, 1
   9              		.eabi_attribute 30, 2
  10              		.eabi_attribute 34, 1
  11              		.eabi_attribute 18, 4
  12              		.file	"testheap.c"
  13              		.text
  14              	.Ltext0:
  15              		.cfi_sections	.debug_frame
  16              		.section	.text.heap1_execute,"ax",%progbits
  17              		.align	2
  18              		.type	heap1_execute, %function
  19              	heap1_execute:
  20              	.LFB8:
  21              		.file 1 "../../test/testheap.c"
  22              		.loc 1 69 0
  23              		.cfi_startproc
  24              		@ args = 0, pretend = 0, frame = 8
  25              		@ frame_needed = 0, uses_anonymous_args = 0
  26 0000 70402DE9 		stmfd	sp!, {r4, r5, r6, lr}
  27              	.LCFI0:
  28              		.cfi_def_cfa_offset 16
  29              		.cfi_offset 4, -16
  30              		.cfi_offset 5, -12
  31              		.cfi_offset 6, -8
  32              		.cfi_offset 14, -4
  33 0004 08D04DE2 		sub	sp, sp, #8
  34              	.LCFI1:
  35              		.cfi_def_cfa_offset 24
  36              		.loc 1 74 0
  37 0008 FEFFFFEB 		bl	chCoreStatus
  38              	.LVL0:
  39              		.loc 1 80 0
  40 000c 04108DE2 		add	r1, sp, #4
  41 0010 0000A0E3 		mov	r0, #0
  42 0014 FEFFFFEB 		bl	chHeapStatus
  43              	.LVL1:
  44              		.loc 1 81 0
  45 0018 1010A0E3 		mov	r1, #16
  46 001c 0000A0E3 		mov	r0, #0
  47 0020 FEFFFFEB 		bl	chHeapAlloc
  48              	.LVL2:
  49              		.loc 1 82 0
  50 0024 001090E2 		adds	r1, r0, #0
  51 0028 0110A013 		movne	r1, #1
  52 002c 0040A0E1 		mov	r4, r0
  53 0030 0100A0E3 		mov	r0, #1
  54              	.LVL3:
  55 0034 FEFFFFEB 		bl	_test_assert
  56              	.LVL4:
  57 0038 005050E2 		subs	r5, r0, #0
ARM GAS  C:\Users\NICOMA~1\AppData\Local\Temp\cc8jT6bk.s 			page 2


  58 003c 0100000A 		beq	.L7
  59              	.LVL5:
  60              	.L1:
  61              		.loc 1 140 0
  62 0040 08D08DE2 		add	sp, sp, #8
  63 0044 7080BDE8 		ldmfd	sp!, {r4, r5, r6, pc}
  64              	.LVL6:
  65              	.L7:
  66              		.loc 1 83 0
  67 0048 0400A0E1 		mov	r0, r4
  68 004c FEFFFFEB 		bl	chHeapFree
  69              	.LVL7:
  70              		.loc 1 84 0
  71 0050 FF10E0E3 		mvn	r1, #255
  72 0054 0500A0E1 		mov	r0, r5
  73 0058 FEFFFFEB 		bl	chHeapAlloc
  74              	.LVL8:
  75              		.loc 1 85 0
  76 005c 011070E2 		rsbs	r1, r0, #1
  77 0060 0010A033 		movcc	r1, #0
  78 0064 0200A0E3 		mov	r0, #2
  79              	.LVL9:
  80 0068 FEFFFFEB 		bl	_test_assert
  81              	.LVL10:
  82 006c 000050E3 		cmp	r0, #0
  83 0070 F2FFFF1A 		bne	.L1
  84              		.loc 1 88 0
  85 0074 04108DE2 		add	r1, sp, #4
  86 0078 CC029FE5 		ldr	r0, .L8
  87 007c FEFFFFEB 		bl	chHeapStatus
  88              	.LVL11:
  89              		.loc 1 91 0
  90 0080 1010A0E3 		mov	r1, #16
  91 0084 C0029FE5 		ldr	r0, .L8
  92 0088 FEFFFFEB 		bl	chHeapAlloc
  93              	.LVL12:
  94              		.loc 1 92 0
  95 008c 1010A0E3 		mov	r1, #16
  96              		.loc 1 91 0
  97 0090 0050A0E1 		mov	r5, r0
  98              	.LVL13:
  99              		.loc 1 92 0
 100 0094 B0029FE5 		ldr	r0, .L8
 101              	.LVL14:
 102 0098 FEFFFFEB 		bl	chHeapAlloc
 103              	.LVL15:
 104              		.loc 1 93 0
 105 009c 1010A0E3 		mov	r1, #16
 106              		.loc 1 92 0
 107 00a0 0040A0E1 		mov	r4, r0
 108              	.LVL16:
 109              		.loc 1 93 0
 110 00a4 A0029FE5 		ldr	r0, .L8
 111              	.LVL17:
 112 00a8 FEFFFFEB 		bl	chHeapAlloc
 113              	.LVL18:
 114 00ac 0060A0E1 		mov	r6, r0
ARM GAS  C:\Users\NICOMA~1\AppData\Local\Temp\cc8jT6bk.s 			page 3


 115              	.LVL19:
 116              		.loc 1 94 0
 117 00b0 0500A0E1 		mov	r0, r5
 118              	.LVL20:
 119 00b4 FEFFFFEB 		bl	chHeapFree
 120              	.LVL21:
 121              		.loc 1 95 0
 122 00b8 0400A0E1 		mov	r0, r4
 123 00bc FEFFFFEB 		bl	chHeapFree
 124              	.LVL22:
 125              		.loc 1 96 0
 126 00c0 0600A0E1 		mov	r0, r6
 127 00c4 FEFFFFEB 		bl	chHeapFree
 128              	.LVL23:
 129              		.loc 1 97 0
 130 00c8 0D10A0E1 		mov	r1, sp
 131 00cc 78029FE5 		ldr	r0, .L8
 132 00d0 FEFFFFEB 		bl	chHeapStatus
 133              	.LVL24:
 134 00d4 01C050E2 		subs	ip, r0, #1
 135 00d8 00107CE2 		rsbs	r1, ip, #0
 136 00dc 0C10B1E0 		adcs	r1, r1, ip
 137 00e0 0300A0E3 		mov	r0, #3
 138 00e4 FEFFFFEB 		bl	_test_assert
 139              	.LVL25:
 140 00e8 000050E3 		cmp	r0, #0
 141 00ec D3FFFF1A 		bne	.L1
 142              		.loc 1 100 0
 143 00f0 1010A0E3 		mov	r1, #16
 144 00f4 50029FE5 		ldr	r0, .L8
 145 00f8 FEFFFFEB 		bl	chHeapAlloc
 146              	.LVL26:
 147              		.loc 1 101 0
 148 00fc 1010A0E3 		mov	r1, #16
 149              		.loc 1 100 0
 150 0100 0040A0E1 		mov	r4, r0
 151              	.LVL27:
 152              		.loc 1 101 0
 153 0104 40029FE5 		ldr	r0, .L8
 154              	.LVL28:
 155 0108 FEFFFFEB 		bl	chHeapAlloc
 156              	.LVL29:
 157              		.loc 1 102 0
 158 010c 1010A0E3 		mov	r1, #16
 159              		.loc 1 101 0
 160 0110 0050A0E1 		mov	r5, r0
 161              	.LVL30:
 162              		.loc 1 102 0
 163 0114 30029FE5 		ldr	r0, .L8
 164              	.LVL31:
 165 0118 FEFFFFEB 		bl	chHeapAlloc
 166              	.LVL32:
 167              		.loc 1 103 0
 168 011c FEFFFFEB 		bl	chHeapFree
 169              	.LVL33:
 170              		.loc 1 104 0
 171 0120 0500A0E1 		mov	r0, r5
ARM GAS  C:\Users\NICOMA~1\AppData\Local\Temp\cc8jT6bk.s 			page 4


 172 0124 FEFFFFEB 		bl	chHeapFree
 173              	.LVL34:
 174              		.loc 1 105 0
 175 0128 0400A0E1 		mov	r0, r4
 176 012c FEFFFFEB 		bl	chHeapFree
 177              	.LVL35:
 178              		.loc 1 106 0
 179 0130 0D10A0E1 		mov	r1, sp
 180 0134 10029FE5 		ldr	r0, .L8
 181 0138 FEFFFFEB 		bl	chHeapStatus
 182              	.LVL36:
 183 013c 010050E2 		subs	r0, r0, #1
 184 0140 001070E2 		rsbs	r1, r0, #0
 185 0144 0010B1E0 		adcs	r1, r1, r0
 186 0148 0400A0E3 		mov	r0, #4
 187 014c FEFFFFEB 		bl	_test_assert
 188              	.LVL37:
 189 0150 000050E3 		cmp	r0, #0
 190 0154 B9FFFF1A 		bne	.L1
 191              		.loc 1 109 0
 192 0158 1110A0E3 		mov	r1, #17
 193 015c E8019FE5 		ldr	r0, .L8
 194 0160 FEFFFFEB 		bl	chHeapAlloc
 195              	.LVL38:
 196              		.loc 1 110 0
 197 0164 1010A0E3 		mov	r1, #16
 198              		.loc 1 109 0
 199 0168 0040A0E1 		mov	r4, r0
 200              	.LVL39:
 201              		.loc 1 110 0
 202 016c D8019FE5 		ldr	r0, .L8
 203              	.LVL40:
 204 0170 FEFFFFEB 		bl	chHeapAlloc
 205              	.LVL41:
 206 0174 0050A0E1 		mov	r5, r0
 207              	.LVL42:
 208              		.loc 1 111 0
 209 0178 0400A0E1 		mov	r0, r4
 210              	.LVL43:
 211 017c FEFFFFEB 		bl	chHeapFree
 212              	.LVL44:
 213              		.loc 1 112 0
 214 0180 0D10A0E1 		mov	r1, sp
 215 0184 C0019FE5 		ldr	r0, .L8
 216 0188 FEFFFFEB 		bl	chHeapStatus
 217              	.LVL45:
 218 018c 022050E2 		subs	r2, r0, #2
 219 0190 001072E2 		rsbs	r1, r2, #0
 220 0194 0210B1E0 		adcs	r1, r1, r2
 221 0198 0500A0E3 		mov	r0, #5
 222 019c FEFFFFEB 		bl	_test_assert
 223              	.LVL46:
 224 01a0 000050E3 		cmp	r0, #0
 225 01a4 A5FFFF1A 		bne	.L1
 226              		.loc 1 113 0
 227 01a8 1010A0E3 		mov	r1, #16
 228 01ac 98019FE5 		ldr	r0, .L8
ARM GAS  C:\Users\NICOMA~1\AppData\Local\Temp\cc8jT6bk.s 			page 5


 229 01b0 FEFFFFEB 		bl	chHeapAlloc
 230              	.LVL47:
 231              		.loc 1 116 0
 232 01b4 0D10A0E1 		mov	r1, sp
 233              		.loc 1 113 0
 234 01b8 0040A0E1 		mov	r4, r0
 235              	.LVL48:
 236              		.loc 1 116 0
 237 01bc 88019FE5 		ldr	r0, .L8
 238              	.LVL49:
 239 01c0 FEFFFFEB 		bl	chHeapStatus
 240              	.LVL50:
 241 01c4 010050E3 		cmp	r0, #1
 242 01c8 0010A001 		moveq	r1, r0
 243 01cc 0500000A 		beq	.L3
 244              		.loc 1 116 0 is_stmt 0 discriminator 2
 245 01d0 0D10A0E1 		mov	r1, sp
 246 01d4 70019FE5 		ldr	r0, .L8
 247 01d8 FEFFFFEB 		bl	chHeapStatus
 248              	.LVL51:
 249 01dc 023050E2 		subs	r3, r0, #2
 250 01e0 001073E2 		rsbs	r1, r3, #0
 251 01e4 0310B1E0 		adcs	r1, r1, r3
 252              	.L3:
 253              		.loc 1 116 0 discriminator 4
 254 01e8 0600A0E3 		mov	r0, #6
 255 01ec FEFFFFEB 		bl	_test_assert
 256              	.LVL52:
 257 01f0 000050E3 		cmp	r0, #0
 258 01f4 91FFFF1A 		bne	.L1
 259              		.loc 1 118 0 is_stmt 1
 260 01f8 0500A0E1 		mov	r0, r5
 261 01fc FEFFFFEB 		bl	chHeapFree
 262              	.LVL53:
 263              		.loc 1 119 0
 264 0200 0400A0E1 		mov	r0, r4
 265 0204 FEFFFFEB 		bl	chHeapFree
 266              	.LVL54:
 267              		.loc 1 120 0
 268 0208 0D10A0E1 		mov	r1, sp
 269 020c 38019FE5 		ldr	r0, .L8
 270 0210 FEFFFFEB 		bl	chHeapStatus
 271              	.LVL55:
 272 0214 01E050E2 		subs	lr, r0, #1
 273 0218 00107EE2 		rsbs	r1, lr, #0
 274 021c 0E10B1E0 		adcs	r1, r1, lr
 275 0220 0700A0E3 		mov	r0, #7
 276 0224 FEFFFFEB 		bl	_test_assert
 277              	.LVL56:
 278 0228 000050E3 		cmp	r0, #0
 279 022c 83FFFF1A 		bne	.L1
 280              		.loc 1 123 0
 281 0230 1010A0E3 		mov	r1, #16
 282 0234 10019FE5 		ldr	r0, .L8
 283 0238 FEFFFFEB 		bl	chHeapAlloc
 284              	.LVL57:
 285              		.loc 1 124 0
ARM GAS  C:\Users\NICOMA~1\AppData\Local\Temp\cc8jT6bk.s 			page 6


 286 023c 1010A0E3 		mov	r1, #16
 287              		.loc 1 123 0
 288 0240 0050A0E1 		mov	r5, r0
 289              	.LVL58:
 290              		.loc 1 124 0
 291 0244 00019FE5 		ldr	r0, .L8
 292              	.LVL59:
 293 0248 FEFFFFEB 		bl	chHeapAlloc
 294              	.LVL60:
 295 024c 0040A0E1 		mov	r4, r0
 296              	.LVL61:
 297              		.loc 1 125 0
 298 0250 0500A0E1 		mov	r0, r5
 299              	.LVL62:
 300 0254 FEFFFFEB 		bl	chHeapFree
 301              	.LVL63:
 302              		.loc 1 126 0
 303 0258 0D10A0E1 		mov	r1, sp
 304 025c E8009FE5 		ldr	r0, .L8
 305 0260 FEFFFFEB 		bl	chHeapStatus
 306              	.LVL64:
 307 0264 02C050E2 		subs	ip, r0, #2
 308 0268 00107CE2 		rsbs	r1, ip, #0
 309 026c 0C10B1E0 		adcs	r1, r1, ip
 310 0270 0800A0E3 		mov	r0, #8
 311 0274 FEFFFFEB 		bl	_test_assert
 312              	.LVL65:
 313 0278 000050E3 		cmp	r0, #0
 314 027c 6FFFFF1A 		bne	.L1
 315              		.loc 1 127 0
 316 0280 2010A0E3 		mov	r1, #32
 317 0284 C0009FE5 		ldr	r0, .L8
 318 0288 FEFFFFEB 		bl	chHeapAlloc
 319              	.LVL66:
 320              		.loc 1 128 0
 321 028c FEFFFFEB 		bl	chHeapFree
 322              	.LVL67:
 323              		.loc 1 129 0
 324 0290 0400A0E1 		mov	r0, r4
 325 0294 FEFFFFEB 		bl	chHeapFree
 326              	.LVL68:
 327              		.loc 1 130 0
 328 0298 0D10A0E1 		mov	r1, sp
 329 029c A8009FE5 		ldr	r0, .L8
 330 02a0 FEFFFFEB 		bl	chHeapStatus
 331              	.LVL69:
 332 02a4 010050E2 		subs	r0, r0, #1
 333 02a8 001070E2 		rsbs	r1, r0, #0
 334 02ac 0010B1E0 		adcs	r1, r1, r0
 335 02b0 0900A0E3 		mov	r0, #9
 336 02b4 FEFFFFEB 		bl	_test_assert
 337              	.LVL70:
 338 02b8 000050E3 		cmp	r0, #0
 339 02bc 5FFFFF1A 		bne	.L1
 340              		.loc 1 133 0
 341 02c0 0D10A0E1 		mov	r1, sp
 342 02c4 80009FE5 		ldr	r0, .L8
ARM GAS  C:\Users\NICOMA~1\AppData\Local\Temp\cc8jT6bk.s 			page 7


 343 02c8 FEFFFFEB 		bl	chHeapStatus
 344              	.LVL71:
 345              		.loc 1 134 0
 346 02cc 00109DE5 		ldr	r1, [sp, #0]
 347 02d0 74009FE5 		ldr	r0, .L8
 348 02d4 FEFFFFEB 		bl	chHeapAlloc
 349              	.LVL72:
 350              		.loc 1 135 0
 351 02d8 0D10A0E1 		mov	r1, sp
 352              		.loc 1 134 0
 353 02dc 0040A0E1 		mov	r4, r0
 354              	.LVL73:
 355              		.loc 1 135 0
 356 02e0 64009FE5 		ldr	r0, .L8
 357              	.LVL74:
 358 02e4 FEFFFFEB 		bl	chHeapStatus
 359              	.LVL75:
 360 02e8 011070E2 		rsbs	r1, r0, #1
 361 02ec 0010A033 		movcc	r1, #0
 362 02f0 0A00A0E3 		mov	r0, #10
 363 02f4 FEFFFFEB 		bl	_test_assert
 364              	.LVL76:
 365 02f8 000050E3 		cmp	r0, #0
 366 02fc 4FFFFF1A 		bne	.L1
 367              		.loc 1 136 0
 368 0300 0400A0E1 		mov	r0, r4
 369 0304 FEFFFFEB 		bl	chHeapFree
 370              	.LVL77:
 371              		.loc 1 138 0
 372 0308 0D10A0E1 		mov	r1, sp
 373 030c 38009FE5 		ldr	r0, .L8
 374 0310 FEFFFFEB 		bl	chHeapStatus
 375              	.LVL78:
 376 0314 012050E2 		subs	r2, r0, #1
 377 0318 001072E2 		rsbs	r1, r2, #0
 378 031c 0210B1E0 		adcs	r1, r1, r2
 379 0320 0B00A0E3 		mov	r0, #11
 380 0324 FEFFFFEB 		bl	_test_assert
 381              	.LVL79:
 382 0328 000050E3 		cmp	r0, #0
 383 032c 43FFFF1A 		bne	.L1
 384              	.LVL80:
 385              		.loc 1 139 0
 386 0330 0A009DE8 		ldmia	sp, {r1, r3}
 387 0334 033051E0 		subs	r3, r1, r3
 388              	.LVL81:
 389 0338 001073E2 		rsbs	r1, r3, #0
 390              	.LVL82:
 391 033c 0310B1E0 		adcs	r1, r1, r3
 392 0340 0C00A0E3 		mov	r0, #12
 393 0344 FEFFFFEB 		bl	_test_assert
 394              	.LVL83:
 395 0348 3CFFFFEA 		b	.L1
 396              	.L9:
 397              		.align	2
 398              	.L8:
 399 034c 00000000 		.word	.LANCHOR0
ARM GAS  C:\Users\NICOMA~1\AppData\Local\Temp\cc8jT6bk.s 			page 8


 400              		.cfi_endproc
 401              	.LFE8:
 402              		.size	heap1_execute, .-heap1_execute
 403              		.section	.text.heap1_setup,"ax",%progbits
 404              		.align	2
 405              		.type	heap1_setup, %function
 406              	heap1_setup:
 407              	.LFB7:
 408              		.loc 1 64 0
 409              		.cfi_startproc
 410              		@ args = 0, pretend = 0, frame = 0
 411              		@ frame_needed = 0, uses_anonymous_args = 0
 412              		@ link register save eliminated.
 413              		.loc 1 66 0
 414 0000 08009FE5 		ldr	r0, .L11
 415 0004 08109FE5 		ldr	r1, .L11+4
 416 0008 08209FE5 		ldr	r2, .L11+8
 417              		.loc 1 67 0
 418              		.loc 1 66 0
 419 000c FEFFFFEA 		b	chHeapInit
 420              	.LVL84:
 421              	.L12:
 422              		.align	2
 423              	.L11:
 424 0010 00000000 		.word	.LANCHOR0
 425 0014 00000000 		.word	test
 426 0018 78050000 		.word	1400
 427              		.cfi_endproc
 428              	.LFE7:
 429              		.size	heap1_setup, .-heap1_setup
 430              		.global	patternheap
 431              		.global	testheap1
 432              		.section	.rodata.patternheap,"a",%progbits
 433              		.align	2
 434              		.type	patternheap, %object
 435              		.size	patternheap, 8
 436              	patternheap:
 437 0000 00000000 		.word	testheap1
 438 0004 00000000 		.word	0
 439              		.section	.rodata.str1.4,"aMS",%progbits,1
 440              		.align	2
 441              	.LC0:
 442 0000 48656170 		.ascii	"Heap, allocation and fragmentation test\000"
 442      2C20616C 
 442      6C6F6361 
 442      74696F6E 
 442      20616E64 
 443              		.section	.rodata.testheap1,"a",%progbits
 444              		.align	2
 445              		.type	testheap1, %object
 446              		.size	testheap1, 16
 447              	testheap1:
 448 0000 00000000 		.word	.LC0
 449 0004 00000000 		.word	heap1_setup
 450 0008 00000000 		.word	0
 451 000c 00000000 		.word	heap1_execute
 452              		.section	.bss.test_heap,"aw",%nobits
ARM GAS  C:\Users\NICOMA~1\AppData\Local\Temp\cc8jT6bk.s 			page 9


 453              		.align	2
 454              		.set	.LANCHOR0,. + 0
 455              		.type	test_heap, %object
 456              		.size	test_heap, 28
 457              	test_heap:
 458 0000 00000000 		.space	28
 458      00000000 
 458      00000000 
 458      00000000 
 458      00000000 
 459              		.text
 460              	.Letext0:
 461              		.file 2 "c:\\yagarto-20121222\\bin\\../lib/gcc/arm-none-eabi/4.7.2/include/stddef.h"
 462              		.file 3 "c:/yagarto-20121222/lib/gcc/../../arm-none-eabi/sys-include/stdint.h"
 463              		.file 4 "../../os/ports/GCC/ARM/chtypes.h"
 464              		.file 5 "../../os/kernel/include/chlists.h"
 465              		.file 6 "../../os/kernel/include/chthreads.h"
 466              		.file 7 "../../os/ports/GCC/ARM/chcore.h"
 467              		.file 8 "../../os/kernel/include/chmtx.h"
 468              		.file 9 "../../os/kernel/include/chmemcore.h"
 469              		.file 10 "../../os/kernel/include/chheap.h"
 470              		.file 11 "../../test/test.h"