ARM GAS  C:\Users\NICOMA~1\AppData\Local\Temp\cc3mH8fB.s 			page 1


   1              		.cpu arm1176jz-s
   2              		.fpu softvfp
   3              		.eabi_attribute 20, 1
   4              		.eabi_attribute 21, 1
   5              		.eabi_attribute 23, 3
   6              		.eabi_attribute 24, 1
   7              		.eabi_attribute 25, 1
   8              		.eabi_attribute 26, 1
   9              		.eabi_attribute 30, 2
  10              		.eabi_attribute 34, 1
  11              		.eabi_attribute 18, 4
  12              		.file	"testdyn.c"
  13              		.text
  14              	.Ltext0:
  15              		.cfi_sections	.debug_frame
  16              		.section	.text.regfind,"ax",%progbits
  17              		.align	2
  18              		.type	regfind, %function
  19              	regfind:
  20              	.LFB10:
  21              		.file 1 "../../test/testdyn.c"
  22              		.loc 1 191 0
  23              		.cfi_startproc
  24              		@ args = 0, pretend = 0, frame = 0
  25              		@ frame_needed = 0, uses_anonymous_args = 0
  26              	.LVL0:
  27 0000 38402DE9 		stmfd	sp!, {r3, r4, r5, lr}
  28              	.LCFI0:
  29              		.cfi_def_cfa_offset 16
  30              		.cfi_offset 3, -16
  31              		.cfi_offset 4, -12
  32              		.cfi_offset 5, -8
  33              		.cfi_offset 14, -4
  34              		.loc 1 191 0
  35 0004 0050A0E1 		mov	r5, r0
  36              		.loc 1 195 0
  37 0008 FEFFFFEB 		bl	chRegFirstThread
  38              	.LVL1:
  39              		.loc 1 193 0
  40 000c 0040A0E3 		mov	r4, #0
  41              		.loc 1 195 0
  42 0010 0030A0E1 		mov	r3, r0
  43              	.LVL2:
  44              	.L2:
  45              		.loc 1 198 0 discriminator 1
  46 0014 0300A0E1 		mov	r0, r3
  47              		.loc 1 197 0 discriminator 1
  48 0018 050053E1 		cmp	r3, r5
  49 001c 01408403 		orreq	r4, r4, #1
  50              	.LVL3:
  51              		.loc 1 198 0 discriminator 1
  52 0020 FEFFFFEB 		bl	chRegNextThread
  53              	.LVL4:
  54              		.loc 1 199 0 discriminator 1
  55 0024 003050E2 		subs	r3, r0, #0
  56 0028 F9FFFF1A 		bne	.L2
  57              		.loc 1 201 0
ARM GAS  C:\Users\NICOMA~1\AppData\Local\Temp\cc3mH8fB.s 			page 2


  58 002c 0400A0E1 		mov	r0, r4
  59              	.LVL5:
  60 0030 3880BDE8 		ldmfd	sp!, {r3, r4, r5, pc}
  61              		.cfi_endproc
  62              	.LFE10:
  63              		.size	regfind, .-regfind
  64              		.section	.text.dyn3_execute,"ax",%progbits
  65              		.align	2
  66              		.type	dyn3_execute, %function
  67              	dyn3_execute:
  68              	.LFB12:
  69              		.loc 1 208 0
  70              		.cfi_startproc
  71              		@ args = 0, pretend = 0, frame = 0
  72              		@ frame_needed = 0, uses_anonymous_args = 0
  73              	.LVL6:
  74 0000 10402DE9 		stmfd	sp!, {r4, lr}
  75              	.LCFI1:
  76              		.cfi_def_cfa_offset 8
  77              		.cfi_offset 4, -8
  78              		.cfi_offset 14, -4
  79              		.loc 1 210 0
  80 0004 B4319FE5 		ldr	r3, .L10
  81              		.loc 1 213 0
  82 0008 B4019FE5 		ldr	r0, .L10+4
  83              		.loc 1 210 0
  84 000c 183093E5 		ldr	r3, [r3, #24]
  85              		.loc 1 208 0
  86 0010 08D04DE2 		sub	sp, sp, #8
  87              	.LCFI2:
  88              		.cfi_def_cfa_offset 16
  89              		.loc 1 213 0
  90 0014 082093E5 		ldr	r2, [r3, #8]
  91 0018 461FA0E3 		mov	r1, #280
  92 001c A4319FE5 		ldr	r3, .L10+8
  93 0020 012042E2 		sub	r2, r2, #1
  94 0024 00008DE5 		str	r0, [sp, #0]
  95 0028 9C019FE5 		ldr	r0, .L10+12
  96 002c FEFFFFEB 		bl	chThdCreateFromHeap
  97              	.LVL7:
  98              		.loc 1 214 0
  99 0030 1E10D0E5 		ldrb	r1, [r0, #30]	@ zero_extendqisi2
 100              		.loc 1 213 0
 101 0034 0040A0E1 		mov	r4, r0
 102              	.LVL8:
 103              		.loc 1 214 0
 104 0038 0100A0E3 		mov	r0, #1
 105              	.LVL9:
 106 003c 00E051E0 		subs	lr, r1, r0
 107 0040 00107EE2 		rsbs	r1, lr, #0
 108 0044 0E10B1E0 		adcs	r1, r1, lr
 109 0048 FEFFFFEB 		bl	_test_assert
 110              	.LVL10:
 111 004c 000050E3 		cmp	r0, #0
 112 0050 0100000A 		beq	.L9
 113              	.L5:
 114              		.loc 1 236 0
ARM GAS  C:\Users\NICOMA~1\AppData\Local\Temp\cc3mH8fB.s 			page 3


 115 0054 08D08DE2 		add	sp, sp, #8
 116 0058 1080BDE8 		ldmfd	sp!, {r4, pc}
 117              	.L9:
 118              		.loc 1 215 0
 119 005c 0400A0E1 		mov	r0, r4
 120 0060 FEFFFFEB 		bl	chThdAddRef
 121              	.LVL11:
 122              		.loc 1 216 0
 123 0064 1E10D4E5 		ldrb	r1, [r4, #30]	@ zero_extendqisi2
 124 0068 0200A0E3 		mov	r0, #2
 125 006c 00C051E0 		subs	ip, r1, r0
 126 0070 00107CE2 		rsbs	r1, ip, #0
 127 0074 0C10B1E0 		adcs	r1, r1, ip
 128 0078 FEFFFFEB 		bl	_test_assert
 129              	.LVL12:
 130 007c 000050E3 		cmp	r0, #0
 131 0080 F3FFFF1A 		bne	.L5
 132              		.loc 1 217 0
 133 0084 0400A0E1 		mov	r0, r4
 134 0088 FEFFFFEB 		bl	chThdRelease
 135              	.LVL13:
 136              		.loc 1 218 0
 137 008c 1E10D4E5 		ldrb	r1, [r4, #30]	@ zero_extendqisi2
 138 0090 0300A0E3 		mov	r0, #3
 139 0094 012051E2 		subs	r2, r1, #1
 140 0098 001072E2 		rsbs	r1, r2, #0
 141 009c 0210B1E0 		adcs	r1, r1, r2
 142 00a0 FEFFFFEB 		bl	_test_assert
 143              	.LVL14:
 144 00a4 000050E3 		cmp	r0, #0
 145 00a8 E9FFFF1A 		bne	.L5
 146              		.loc 1 221 0
 147 00ac 0400A0E1 		mov	r0, r4
 148 00b0 FEFFFFEB 		bl	regfind
 149              	.LVL15:
 150 00b4 0010A0E1 		mov	r1, r0
 151 00b8 0400A0E3 		mov	r0, #4
 152 00bc FEFFFFEB 		bl	_test_assert
 153              	.LVL16:
 154 00c0 000050E3 		cmp	r0, #0
 155 00c4 E2FFFF1A 		bne	.L5
 156              		.loc 1 222 0
 157 00c8 0400A0E1 		mov	r0, r4
 158 00cc FEFFFFEB 		bl	regfind
 159              	.LVL17:
 160 00d0 0010A0E1 		mov	r1, r0
 161 00d4 0500A0E3 		mov	r0, #5
 162 00d8 FEFFFFEB 		bl	_test_assert
 163              	.LVL18:
 164 00dc 000050E3 		cmp	r0, #0
 165 00e0 DBFFFF1A 		bne	.L5
 166              		.loc 1 225 0
 167 00e4 0400A0E1 		mov	r0, r4
 168 00e8 FEFFFFEB 		bl	chThdRelease
 169              	.LVL19:
 170              		.loc 1 226 0
 171 00ec 1E10D4E5 		ldrb	r1, [r4, #30]	@ zero_extendqisi2
ARM GAS  C:\Users\NICOMA~1\AppData\Local\Temp\cc3mH8fB.s 			page 4


 172 00f0 0600A0E3 		mov	r0, #6
 173 00f4 011071E2 		rsbs	r1, r1, #1
 174 00f8 0010A033 		movcc	r1, #0
 175 00fc FEFFFFEB 		bl	_test_assert
 176              	.LVL20:
 177 0100 000050E3 		cmp	r0, #0
 178 0104 D2FFFF1A 		bne	.L5
 179              		.loc 1 227 0
 180 0108 1C10D4E5 		ldrb	r1, [r4, #28]	@ zero_extendqisi2
 181 010c 0700A0E3 		mov	r0, #7
 182 0110 011071E2 		rsbs	r1, r1, #1
 183 0114 0010A033 		movcc	r1, #0
 184 0118 FEFFFFEB 		bl	_test_assert
 185              	.LVL21:
 186 011c 000050E3 		cmp	r0, #0
 187 0120 CBFFFF1A 		bne	.L5
 188              		.loc 1 228 0
 189 0124 0400A0E1 		mov	r0, r4
 190 0128 FEFFFFEB 		bl	regfind
 191              	.LVL22:
 192 012c 0010A0E1 		mov	r1, r0
 193 0130 0800A0E3 		mov	r0, #8
 194 0134 FEFFFFEB 		bl	_test_assert
 195              	.LVL23:
 196 0138 000050E3 		cmp	r0, #0
 197 013c C4FFFF1A 		bne	.L5
 198              		.loc 1 229 0
 199 0140 0400A0E1 		mov	r0, r4
 200 0144 FEFFFFEB 		bl	regfind
 201              	.LVL24:
 202 0148 0010A0E1 		mov	r1, r0
 203 014c 0900A0E3 		mov	r0, #9
 204 0150 FEFFFFEB 		bl	_test_assert
 205              	.LVL25:
 206 0154 000050E3 		cmp	r0, #0
 207 0158 BDFFFF1A 		bne	.L5
 208              		.loc 1 230 0
 209 015c 3200A0E3 		mov	r0, #50
 210 0160 FEFFFFEB 		bl	chThdSleep
 211              	.LVL26:
 212              		.loc 1 231 0
 213 0164 1C10D4E5 		ldrb	r1, [r4, #28]	@ zero_extendqisi2
 214 0168 0A00A0E3 		mov	r0, #10
 215 016c 0E3051E2 		subs	r3, r1, #14
 216 0170 001073E2 		rsbs	r1, r3, #0
 217 0174 0310B1E0 		adcs	r1, r1, r3
 218 0178 FEFFFFEB 		bl	_test_assert
 219              	.LVL27:
 220 017c 000050E3 		cmp	r0, #0
 221 0180 B3FFFF1A 		bne	.L5
 222              		.loc 1 234 0
 223 0184 0400A0E1 		mov	r0, r4
 224 0188 FEFFFFEB 		bl	regfind
 225              	.LVL28:
 226 018c 0010A0E1 		mov	r1, r0
 227 0190 0B00A0E3 		mov	r0, #11
 228 0194 FEFFFFEB 		bl	_test_assert
ARM GAS  C:\Users\NICOMA~1\AppData\Local\Temp\cc3mH8fB.s 			page 5


 229              	.LVL29:
 230 0198 000050E3 		cmp	r0, #0
 231 019c ACFFFF1A 		bne	.L5
 232              		.loc 1 235 0
 233 01a0 0400A0E1 		mov	r0, r4
 234 01a4 FEFFFFEB 		bl	regfind
 235              	.LVL30:
 236 01a8 011020E2 		eor	r1, r0, #1
 237 01ac 7110EFE6 		uxtb	r1, r1
 238 01b0 0C00A0E3 		mov	r0, #12
 239              		.loc 1 236 0
 240 01b4 08D08DE2 		add	sp, sp, #8
 241 01b8 1040BDE8 		ldmfd	sp!, {r4, lr}
 242              		.loc 1 235 0
 243 01bc FEFFFFEA 		b	_test_assert
 244              	.LVL31:
 245              	.L11:
 246              		.align	2
 247              	.L10:
 248 01c0 00000000 		.word	rlist
 249 01c4 00000000 		.word	.LC0
 250 01c8 00000000 		.word	thread
 251 01cc 00000000 		.word	.LANCHOR0
 252              		.cfi_endproc
 253              	.LFE12:
 254              		.size	dyn3_execute, .-dyn3_execute
 255              		.section	.text.thread,"ax",%progbits
 256              		.align	2
 257              		.type	thread, %function
 258              	thread:
 259              	.LFB7:
 260              		.loc 1 71 0
 261              		.cfi_startproc
 262              		@ args = 0, pretend = 0, frame = 0
 263              		@ frame_needed = 0, uses_anonymous_args = 0
 264              	.LVL32:
 265 0000 08402DE9 		stmfd	sp!, {r3, lr}
 266              	.LCFI3:
 267              		.cfi_def_cfa_offset 8
 268              		.cfi_offset 3, -8
 269              		.cfi_offset 14, -4
 270              		.loc 1 73 0
 271 0004 0000D0E5 		ldrb	r0, [r0, #0]	@ zero_extendqisi2
 272              	.LVL33:
 273 0008 FEFFFFEB 		bl	test_emit_token
 274              	.LVL34:
 275              		.loc 1 75 0
 276 000c 0000A0E3 		mov	r0, #0
 277 0010 0880BDE8 		ldmfd	sp!, {r3, pc}
 278              		.cfi_endproc
 279              	.LFE7:
 280              		.size	thread, .-thread
 281              		.section	.text.dyn3_setup,"ax",%progbits
 282              		.align	2
 283              		.type	dyn3_setup, %function
 284              	dyn3_setup:
 285              	.LFB11:
ARM GAS  C:\Users\NICOMA~1\AppData\Local\Temp\cc3mH8fB.s 			page 6


 286              		.loc 1 203 0
 287              		.cfi_startproc
 288              		@ args = 0, pretend = 0, frame = 0
 289              		@ frame_needed = 0, uses_anonymous_args = 0
 290              		@ link register save eliminated.
 291              		.loc 1 205 0
 292 0000 08009FE5 		ldr	r0, .L14
 293 0004 08109FE5 		ldr	r1, .L14+4
 294 0008 08209FE5 		ldr	r2, .L14+8
 295              		.loc 1 206 0
 296              		.loc 1 205 0
 297 000c FEFFFFEA 		b	chHeapInit
 298              	.LVL35:
 299              	.L15:
 300              		.align	2
 301              	.L14:
 302 0010 00000000 		.word	.LANCHOR0
 303 0014 00000000 		.word	test
 304 0018 78050000 		.word	1400
 305              		.cfi_endproc
 306              	.LFE11:
 307              		.size	dyn3_setup, .-dyn3_setup
 308              		.section	.text.dyn1_setup,"ax",%progbits
 309              		.align	2
 310              		.type	dyn1_setup, %function
 311              	dyn1_setup:
 312              	.LFB8:
 313              		.loc 1 78 0
 314              		.cfi_startproc
 315              		@ args = 0, pretend = 0, frame = 0
 316              		@ frame_needed = 0, uses_anonymous_args = 0
 317              		@ link register save eliminated.
 318              		.loc 1 80 0
 319 0000 08009FE5 		ldr	r0, .L17
 320 0004 08109FE5 		ldr	r1, .L17+4
 321 0008 08209FE5 		ldr	r2, .L17+8
 322              		.loc 1 81 0
 323              		.loc 1 80 0
 324 000c FEFFFFEA 		b	chHeapInit
 325              	.LVL36:
 326              	.L18:
 327              		.align	2
 328              	.L17:
 329 0010 00000000 		.word	.LANCHOR0
 330 0014 00000000 		.word	test
 331 0018 78050000 		.word	1400
 332              		.cfi_endproc
 333              	.LFE8:
 334              		.size	dyn1_setup, .-dyn1_setup
 335              		.section	.text.dyn1_execute,"ax",%progbits
 336              		.align	2
 337              		.type	dyn1_execute, %function
 338              	dyn1_execute:
 339              	.LFB9:
 340              		.loc 1 83 0
 341              		.cfi_startproc
 342              		@ args = 0, pretend = 0, frame = 8
ARM GAS  C:\Users\NICOMA~1\AppData\Local\Temp\cc3mH8fB.s 			page 7


 343              		@ frame_needed = 0, uses_anonymous_args = 0
 344 0000 70402DE9 		stmfd	sp!, {r4, r5, r6, lr}
 345              	.LCFI4:
 346              		.cfi_def_cfa_offset 16
 347              		.cfi_offset 4, -16
 348              		.cfi_offset 5, -12
 349              		.cfi_offset 6, -8
 350              		.cfi_offset 14, -4
 351              		.loc 1 86 0
 352 0004 58319FE5 		ldr	r3, .L29
 353              		.loc 1 83 0
 354 0008 10D04DE2 		sub	sp, sp, #16
 355              	.LCFI5:
 356              		.cfi_def_cfa_offset 32
 357              		.loc 1 86 0
 358 000c 183093E5 		ldr	r3, [r3, #24]
 359              		.loc 1 88 0
 360 0010 0C108DE2 		add	r1, sp, #12
 361 0014 4C019FE5 		ldr	r0, .L29+4
 362              		.loc 1 86 0
 363 0018 085093E5 		ldr	r5, [r3, #8]
 364              	.LVL37:
 365              		.loc 1 88 0
 366 001c FEFFFFEB 		bl	chHeapStatus
 367              	.LVL38:
 368              		.loc 1 90 0
 369 0020 44019FE5 		ldr	r0, .L29+8
 370 0024 461FA0E3 		mov	r1, #280
 371 0028 012045E2 		sub	r2, r5, #1
 372 002c 3C319FE5 		ldr	r3, .L29+12
 373 0030 00008DE5 		str	r0, [sp, #0]
 374 0034 2C019FE5 		ldr	r0, .L29+4
 375 0038 FEFFFFEB 		bl	chThdCreateFromHeap
 376              	.LVL39:
 377 003c 30419FE5 		ldr	r4, .L29+16
 378              		.loc 1 92 0
 379 0040 022045E2 		sub	r2, r5, #2
 380              		.loc 1 90 0
 381 0044 000084E5 		str	r0, [r4, #0]
 382              		.loc 1 92 0
 383 0048 28019FE5 		ldr	r0, .L29+20
 384 004c 1C319FE5 		ldr	r3, .L29+12
 385 0050 461FA0E3 		mov	r1, #280
 386 0054 00008DE5 		str	r0, [sp, #0]
 387 0058 08019FE5 		ldr	r0, .L29+4
 388 005c FEFFFFEB 		bl	chThdCreateFromHeap
 389              	.LVL40:
 390              		.loc 1 95 0
 391 0060 08108DE2 		add	r1, sp, #8
 392              		.loc 1 92 0
 393 0064 040084E5 		str	r0, [r4, #4]
 394              		.loc 1 95 0
 395 0068 F8009FE5 		ldr	r0, .L29+4
 396 006c FEFFFFEB 		bl	chHeapStatus
 397              	.LVL41:
 398              		.loc 1 96 0
 399 0070 08109DE5 		ldr	r1, [sp, #8]
ARM GAS  C:\Users\NICOMA~1\AppData\Local\Temp\cc3mH8fB.s 			page 8


 400 0074 EC009FE5 		ldr	r0, .L29+4
 401 0078 FEFFFFEB 		bl	chHeapAlloc
 402              	.LVL42:
 403 007c 0060A0E1 		mov	r6, r0
 404              	.LVL43:
 405              		.loc 1 97 0
 406 0080 F4009FE5 		ldr	r0, .L29+24
 407              	.LVL44:
 408 0084 461FA0E3 		mov	r1, #280
 409 0088 032045E2 		sub	r2, r5, #3
 410 008c DC309FE5 		ldr	r3, .L29+12
 411 0090 00008DE5 		str	r0, [sp, #0]
 412 0094 CC009FE5 		ldr	r0, .L29+4
 413 0098 FEFFFFEB 		bl	chThdCreateFromHeap
 414              	.LVL45:
 415 009c 080084E5 		str	r0, [r4, #8]
 416              		.loc 1 99 0
 417 00a0 0600A0E1 		mov	r0, r6
 418 00a4 FEFFFFEB 		bl	chHeapFree
 419              	.LVL46:
 420              		.loc 1 101 0
 421 00a8 001094E5 		ldr	r1, [r4, #0]
 422 00ac 000051E3 		cmp	r1, #0
 423 00b0 0600000A 		beq	.L20
 424              		.loc 1 101 0 is_stmt 0 discriminator 1
 425 00b4 041094E5 		ldr	r1, [r4, #4]
 426 00b8 000051E3 		cmp	r1, #0
 427 00bc 0300000A 		beq	.L20
 428              		.loc 1 101 0 discriminator 3
 429 00c0 081094E5 		ldr	r1, [r4, #8]
 430 00c4 000051E3 		cmp	r1, #0
 431 00c8 0010A013 		movne	r1, #0
 432 00cc 1D00000A 		beq	.L27
 433              	.L20:
 434              		.loc 1 101 0 discriminator 7
 435 00d0 0100A0E3 		mov	r0, #1
 436 00d4 FEFFFFEB 		bl	_test_assert
 437              	.LVL47:
 438 00d8 000050E3 		cmp	r0, #0
 439 00dc 0100000A 		beq	.L28
 440              	.LVL48:
 441              	.L19:
 442              		.loc 1 115 0 is_stmt 1
 443 00e0 10D08DE2 		add	sp, sp, #16
 444 00e4 7080BDE8 		ldmfd	sp!, {r4, r5, r6, pc}
 445              	.LVL49:
 446              	.L28:
 447              		.loc 1 109 0
 448 00e8 FEFFFFEB 		bl	test_wait_threads
 449              	.LVL50:
 450              		.loc 1 110 0
 451 00ec 0200A0E3 		mov	r0, #2
 452 00f0 88109FE5 		ldr	r1, .L29+28
 453 00f4 FEFFFFEB 		bl	_test_assert_sequence
 454              	.LVL51:
 455 00f8 000050E3 		cmp	r0, #0
 456 00fc F7FFFF1A 		bne	.L19
ARM GAS  C:\Users\NICOMA~1\AppData\Local\Temp\cc3mH8fB.s 			page 9


 457              		.loc 1 113 0
 458 0100 08108DE2 		add	r1, sp, #8
 459 0104 5C009FE5 		ldr	r0, .L29+4
 460 0108 FEFFFFEB 		bl	chHeapStatus
 461              	.LVL52:
 462 010c 012050E2 		subs	r2, r0, #1
 463 0110 001072E2 		rsbs	r1, r2, #0
 464 0114 0210B1E0 		adcs	r1, r1, r2
 465 0118 0300A0E3 		mov	r0, #3
 466 011c FEFFFFEB 		bl	_test_assert
 467              	.LVL53:
 468 0120 000050E3 		cmp	r0, #0
 469 0124 EDFFFF1A 		bne	.L19
 470              		.loc 1 114 0
 471 0128 08109DE5 		ldr	r1, [sp, #8]
 472              	.LVL54:
 473 012c 0C309DE5 		ldr	r3, [sp, #12]
 474 0130 0400A0E3 		mov	r0, #4
 475 0134 033051E0 		subs	r3, r1, r3
 476 0138 001073E2 		rsbs	r1, r3, #0
 477 013c 0310B1E0 		adcs	r1, r1, r3
 478 0140 FEFFFFEB 		bl	_test_assert
 479              	.LVL55:
 480 0144 E5FFFFEA 		b	.L19
 481              	.LVL56:
 482              	.L27:
 483              		.loc 1 101 0 discriminator 4
 484 0148 0C3094E5 		ldr	r3, [r4, #12]
 485 014c 000053E3 		cmp	r3, #0
 486 0150 DEFFFF1A 		bne	.L20
 487              		.loc 1 101 0 is_stmt 0 discriminator 5
 488 0154 101094E5 		ldr	r1, [r4, #16]
 489 0158 011071E2 		rsbs	r1, r1, #1
 490 015c 0010A033 		movcc	r1, #0
 491 0160 DAFFFFEA 		b	.L20
 492              	.L30:
 493              		.align	2
 494              	.L29:
 495 0164 00000000 		.word	rlist
 496 0168 00000000 		.word	.LANCHOR0
 497 016c 00000000 		.word	.LC0
 498 0170 00000000 		.word	thread
 499 0174 00000000 		.word	threads
 500 0178 04000000 		.word	.LC1
 501 017c 08000000 		.word	.LC2
 502 0180 0C000000 		.word	.LC3
 503              		.cfi_endproc
 504              	.LFE9:
 505              		.size	dyn1_execute, .-dyn1_execute
 506              		.global	patterndyn
 507              		.global	testdyn3
 508              		.global	testdyn1
 509              		.section	.rodata.testdyn1,"a",%progbits
 510              		.align	2
 511              		.type	testdyn1, %object
 512              		.size	testdyn1, 16
 513              	testdyn1:
ARM GAS  C:\Users\NICOMA~1\AppData\Local\Temp\cc3mH8fB.s 			page 10


 514 0000 38000000 		.word	.LC5
 515 0004 00000000 		.word	dyn1_setup
 516 0008 00000000 		.word	0
 517 000c 00000000 		.word	dyn1_execute
 518              		.section	.rodata.testdyn3,"a",%progbits
 519              		.align	2
 520              		.type	testdyn3, %object
 521              		.size	testdyn3, 16
 522              	testdyn3:
 523 0000 10000000 		.word	.LC4
 524 0004 00000000 		.word	dyn3_setup
 525 0008 00000000 		.word	0
 526 000c 00000000 		.word	dyn3_execute
 527              		.section	.rodata.str1.4,"aMS",%progbits,1
 528              		.align	2
 529              	.LC0:
 530 0000 4100     		.ascii	"A\000"
 531 0002 0000     		.space	2
 532              	.LC1:
 533 0004 4200     		.ascii	"B\000"
 534 0006 0000     		.space	2
 535              	.LC2:
 536 0008 4300     		.ascii	"C\000"
 537 000a 0000     		.space	2
 538              	.LC3:
 539 000c 414200   		.ascii	"AB\000"
 540 000f 00       		.space	1
 541              	.LC4:
 542 0010 44796E61 		.ascii	"Dynamic APIs, registry and references\000"
 542      6D696320 
 542      41504973 
 542      2C207265 
 542      67697374 
 543 0036 0000     		.space	2
 544              	.LC5:
 545 0038 44796E61 		.ascii	"Dynamic APIs, threads creation from heap\000"
 545      6D696320 
 545      41504973 
 545      2C207468 
 545      72656164 
 546 0061 000000   		.section	.rodata.patterndyn,"a",%progbits
 547              		.align	2
 548              		.type	patterndyn, %object
 549              		.size	patterndyn, 12
 550              	patterndyn:
 551 0000 00000000 		.word	testdyn1
 552 0004 00000000 		.word	testdyn3
 553 0008 00000000 		.word	0
 554              		.section	.bss.heap1,"aw",%nobits
 555              		.align	2
 556              		.set	.LANCHOR0,. + 0
 557              		.type	heap1, %object
 558              		.size	heap1, 28
 559              	heap1:
 560 0000 00000000 		.space	28
 560      00000000 
 560      00000000 
ARM GAS  C:\Users\NICOMA~1\AppData\Local\Temp\cc3mH8fB.s 			page 11


 560      00000000 
 560      00000000 
 561              		.text
 562              	.Letext0:
 563              		.file 2 "c:\\yagarto-20121222\\bin\\../lib/gcc/arm-none-eabi/4.7.2/include/stddef.h"
 564              		.file 3 "c:/yagarto-20121222/lib/gcc/../../arm-none-eabi/sys-include/stdint.h"
 565              		.file 4 "../../os/ports/GCC/ARM/chtypes.h"
 566              		.file 5 "../../os/kernel/include/chlists.h"
 567              		.file 6 "../../os/kernel/include/chthreads.h"
 568              		.file 7 "../../os/ports/GCC/ARM/chcore.h"
 569              		.file 8 "../../os/kernel/include/chschd.h"
 570              		.file 9 "../../os/kernel/include/chmtx.h"
 571              		.file 10 "../../os/kernel/include/chmemcore.h"
 572              		.file 11 "../../os/kernel/include/chheap.h"
 573              		.file 12 "../../test/test.h"
 574              		.file 13 "../../os/kernel/include/chregistry.h"
 575              		.file 14 "../../os/kernel/include/chdynamic.h"