ARM GAS  C:\Users\NICOMA~1\AppData\Local\Temp\ccSLkfsR.s 			page 1


   1              		.cpu arm1176jz-s
   2              		.fpu softvfp
   3              		.eabi_attribute 20, 1
   4              		.eabi_attribute 21, 1
   5              		.eabi_attribute 23, 3
   6              		.eabi_attribute 24, 1
   7              		.eabi_attribute 25, 1
   8              		.eabi_attribute 26, 1
   9              		.eabi_attribute 30, 2
  10              		.eabi_attribute 34, 1
  11              		.eabi_attribute 18, 4
  12              		.file	"testevt.c"
  13              		.text
  14              	.Ltext0:
  15              		.cfi_sections	.debug_frame
  16              		.section	.text.evt3_setup,"ax",%progbits
  17              		.align	2
  18              		.type	evt3_setup, %function
  19              	evt3_setup:
  20              	.LFB16:
  21              		.file 1 "../../test/testevt.c"
  22              		.loc 1 247 0
  23              		.cfi_startproc
  24              		@ args = 0, pretend = 0, frame = 0
  25              		@ frame_needed = 0, uses_anonymous_args = 0
  26              		@ link register save eliminated.
  27              		.loc 1 249 0
  28 0000 0000E0E3 		mvn	r0, #0
  29              		.loc 1 250 0
  30              		.loc 1 249 0
  31 0004 FEFFFFEA 		b	chEvtGetAndClearEvents
  32              	.LVL0:
  33              		.cfi_endproc
  34              	.LFE16:
  35              		.size	evt3_setup, .-evt3_setup
  36              		.section	.text.evt2_setup,"ax",%progbits
  37              		.align	2
  38              		.type	evt2_setup, %function
  39              	evt2_setup:
  40              	.LFB12:
  41              		.loc 1 128 0
  42              		.cfi_startproc
  43              		@ args = 0, pretend = 0, frame = 0
  44              		@ frame_needed = 0, uses_anonymous_args = 0
  45              		@ link register save eliminated.
  46              		.loc 1 130 0
  47 0000 0000E0E3 		mvn	r0, #0
  48              		.loc 1 131 0
  49              		.loc 1 130 0
  50 0004 FEFFFFEA 		b	chEvtGetAndClearEvents
  51              	.LVL1:
  52              		.cfi_endproc
  53              	.LFE12:
  54              		.size	evt2_setup, .-evt2_setup
  55              		.section	.text.evt1_setup,"ax",%progbits
  56              		.align	2
  57              		.type	evt1_setup, %function
ARM GAS  C:\Users\NICOMA~1\AppData\Local\Temp\ccSLkfsR.s 			page 2


  58              	evt1_setup:
  59              	.LFB7:
  60              		.loc 1 75 0
  61              		.cfi_startproc
  62              		@ args = 0, pretend = 0, frame = 0
  63              		@ frame_needed = 0, uses_anonymous_args = 0
  64              		@ link register save eliminated.
  65              		.loc 1 77 0
  66 0000 0000E0E3 		mvn	r0, #0
  67              		.loc 1 78 0
  68              		.loc 1 77 0
  69 0004 FEFFFFEA 		b	chEvtGetAndClearEvents
  70              	.LVL2:
  71              		.cfi_endproc
  72              	.LFE7:
  73              		.size	evt1_setup, .-evt1_setup
  74              		.section	.text.evt2_execute,"ax",%progbits
  75              		.align	2
  76              		.type	evt2_execute, %function
  77              	evt2_execute:
  78              	.LFB15:
  79              		.loc 1 149 0
  80              		.cfi_startproc
  81              		@ args = 0, pretend = 0, frame = 32
  82              		@ frame_needed = 0, uses_anonymous_args = 0
  83 0000 F0452DE9 		stmfd	sp!, {r4, r5, r6, r7, r8, sl, lr}
  84              	.LCFI0:
  85              		.cfi_def_cfa_offset 28
  86              		.cfi_offset 4, -28
  87              		.cfi_offset 5, -24
  88              		.cfi_offset 6, -20
  89              		.cfi_offset 7, -16
  90              		.cfi_offset 8, -12
  91              		.cfi_offset 10, -8
  92              		.cfi_offset 14, -4
  93              		.loc 1 157 0
  94 0004 0500A0E3 		mov	r0, #5
  95              		.loc 1 149 0
  96 0008 2CD04DE2 		sub	sp, sp, #44
  97              	.LCFI1:
  98              		.cfi_def_cfa_offset 72
  99              		.loc 1 157 0
 100 000c FEFFFFEB 		bl	chEvtAddEvents
 101              	.LVL3:
 102              		.loc 1 158 0
 103 0010 0000E0E3 		mvn	r0, #0
 104 0014 FEFFFFEB 		bl	chEvtWaitOne
 105              	.LVL4:
 106              		.loc 1 159 0
 107 0018 012050E2 		subs	r2, r0, #1
 108 001c 001072E2 		rsbs	r1, r2, #0
 109 0020 0210B1E0 		adcs	r1, r1, r2
 110 0024 0100A0E3 		mov	r0, #1
 111              	.LVL5:
 112 0028 FEFFFFEB 		bl	_test_assert
 113              	.LVL6:
 114 002c 000050E3 		cmp	r0, #0
ARM GAS  C:\Users\NICOMA~1\AppData\Local\Temp\ccSLkfsR.s 			page 3


 115 0030 0100000A 		beq	.L8
 116              	.L4:
 117              		.loc 1 222 0
 118 0034 2CD08DE2 		add	sp, sp, #44
 119 0038 F085BDE8 		ldmfd	sp!, {r4, r5, r6, r7, r8, sl, pc}
 120              	.L8:
 121              		.loc 1 160 0
 122 003c 0000E0E3 		mvn	r0, #0
 123 0040 FEFFFFEB 		bl	chEvtWaitOne
 124              	.LVL7:
 125              		.loc 1 161 0
 126 0044 043050E2 		subs	r3, r0, #4
 127 0048 001073E2 		rsbs	r1, r3, #0
 128 004c 0310B1E0 		adcs	r1, r1, r3
 129 0050 0200A0E3 		mov	r0, #2
 130              	.LVL8:
 131 0054 FEFFFFEB 		bl	_test_assert
 132              	.LVL9:
 133 0058 000050E3 		cmp	r0, #0
 134 005c F4FFFF1A 		bne	.L4
 135              		.loc 1 162 0
 136 0060 0000E0E3 		mvn	r0, #0
 137 0064 FEFFFFEB 		bl	chEvtGetAndClearEvents
 138              	.LVL10:
 139              		.loc 1 163 0
 140 0068 011070E2 		rsbs	r1, r0, #1
 141 006c 0010A033 		movcc	r1, #0
 142 0070 0300A0E3 		mov	r0, #3
 143              	.LVL11:
 144 0074 FEFFFFEB 		bl	_test_assert
 145              	.LVL12:
 146 0078 000050E3 		cmp	r0, #0
 147 007c ECFFFF1A 		bne	.L4
 148              		.loc 1 170 0
 149 0080 70829FE5 		ldr	r8, .L9
 150              		.loc 1 168 0
 151 0084 FEFFFFEB 		bl	test_wait_tick
 152              	.LVL13:
 153              		.loc 1 170 0
 154 0088 18C098E5 		ldr	ip, [r8, #24]
 155 008c 68329FE5 		ldr	r3, .L9+4
 156 0090 08209CE5 		ldr	r2, [ip, #8]
 157 0094 007093E5 		ldr	r7, [r3, #0]
 158              		.loc 1 169 0
 159 0098 60629FE5 		ldr	r6, .L9+8
 160              		.loc 1 170 0
 161 009c 00C08DE5 		str	ip, [sp, #0]
 162 00a0 461FA0E3 		mov	r1, #280
 163 00a4 012042E2 		sub	r2, r2, #1
 164 00a8 54329FE5 		ldr	r3, .L9+12
 165 00ac 0700A0E1 		mov	r0, r7
 166              		.loc 1 169 0
 167 00b0 0C4096E5 		ldr	r4, [r6, #12]
 168              	.LVL14:
 169              		.loc 1 170 0
 170 00b4 FEFFFFEB 		bl	chThdCreateStatic
 171              	.LVL15:
ARM GAS  C:\Users\NICOMA~1\AppData\Local\Temp\ccSLkfsR.s 			page 4


 172 00b8 48529FE5 		ldr	r5, .L9+16
 173 00bc 000085E5 		str	r0, [r5, #0]
 174              		.loc 1 172 0
 175 00c0 0000E0E3 		mvn	r0, #0
 176 00c4 FEFFFFEB 		bl	chEvtWaitOne
 177              	.LVL16:
 178              		.loc 1 173 0
 179 00c8 321084E2 		add	r1, r4, #50
 180              	.LVL17:
 181              		.loc 1 172 0
 182 00cc 00A0A0E1 		mov	sl, r0
 183              	.LVL18:
 184              		.loc 1 173 0
 185 00d0 372084E2 		add	r2, r4, #55
 186 00d4 0400A0E3 		mov	r0, #4
 187              	.LVL19:
 188 00d8 FEFFFFEB 		bl	_test_assert_time_window
 189              	.LVL20:
 190 00dc 000050E3 		cmp	r0, #0
 191 00e0 D3FFFF1A 		bne	.L4
 192              		.loc 1 174 0
 193 00e4 01E05AE2 		subs	lr, sl, #1
 194 00e8 00107EE2 		rsbs	r1, lr, #0
 195 00ec 0E10B1E0 		adcs	r1, r1, lr
 196 00f0 0500A0E3 		mov	r0, #5
 197 00f4 FEFFFFEB 		bl	_test_assert
 198              	.LVL21:
 199 00f8 000050E3 		cmp	r0, #0
 200 00fc CCFFFF1A 		bne	.L4
 201              		.loc 1 175 0
 202 0100 0000E0E3 		mvn	r0, #0
 203 0104 FEFFFFEB 		bl	chEvtGetAndClearEvents
 204              	.LVL22:
 205              		.loc 1 176 0
 206 0108 011070E2 		rsbs	r1, r0, #1
 207 010c 0010A033 		movcc	r1, #0
 208 0110 0600A0E3 		mov	r0, #6
 209              	.LVL23:
 210 0114 FEFFFFEB 		bl	_test_assert
 211              	.LVL24:
 212 0118 000050E3 		cmp	r0, #0
 213 011c C4FFFF1A 		bne	.L4
 214              		.loc 1 177 0
 215 0120 FEFFFFEB 		bl	test_wait_threads
 216              	.LVL25:
 217              		.loc 1 182 0
 218 0124 0500A0E3 		mov	r0, #5
 219 0128 FEFFFFEB 		bl	chEvtAddEvents
 220              	.LVL26:
 221              		.loc 1 183 0
 222 012c 0000E0E3 		mvn	r0, #0
 223 0130 FEFFFFEB 		bl	chEvtWaitAny
 224              	.LVL27:
 225              		.loc 1 184 0
 226 0134 05C050E2 		subs	ip, r0, #5
 227 0138 00107CE2 		rsbs	r1, ip, #0
 228 013c 0C10B1E0 		adcs	r1, r1, ip
ARM GAS  C:\Users\NICOMA~1\AppData\Local\Temp\ccSLkfsR.s 			page 5


 229 0140 0700A0E3 		mov	r0, #7
 230              	.LVL28:
 231 0144 FEFFFFEB 		bl	_test_assert
 232              	.LVL29:
 233 0148 000050E3 		cmp	r0, #0
 234 014c B8FFFF1A 		bne	.L4
 235              		.loc 1 185 0
 236 0150 0000E0E3 		mvn	r0, #0
 237 0154 FEFFFFEB 		bl	chEvtGetAndClearEvents
 238              	.LVL30:
 239              		.loc 1 186 0
 240 0158 011070E2 		rsbs	r1, r0, #1
 241 015c 0010A033 		movcc	r1, #0
 242 0160 0800A0E3 		mov	r0, #8
 243              	.LVL31:
 244 0164 FEFFFFEB 		bl	_test_assert
 245              	.LVL32:
 246 0168 000050E3 		cmp	r0, #0
 247 016c B0FFFF1A 		bne	.L4
 248              		.loc 1 191 0
 249 0170 FEFFFFEB 		bl	test_wait_tick
 250              	.LVL33:
 251              		.loc 1 193 0
 252 0174 180098E5 		ldr	r0, [r8, #24]
 253 0178 461FA0E3 		mov	r1, #280
 254 017c 082090E5 		ldr	r2, [r0, #8]
 255 0180 7C319FE5 		ldr	r3, .L9+12
 256 0184 012042E2 		sub	r2, r2, #1
 257 0188 00008DE5 		str	r0, [sp, #0]
 258 018c 0700A0E1 		mov	r0, r7
 259              		.loc 1 192 0
 260 0190 0C4096E5 		ldr	r4, [r6, #12]
 261              	.LVL34:
 262              		.loc 1 193 0
 263 0194 FEFFFFEB 		bl	chThdCreateStatic
 264              	.LVL35:
 265 0198 000085E5 		str	r0, [r5, #0]
 266              		.loc 1 195 0
 267 019c 0000E0E3 		mvn	r0, #0
 268 01a0 FEFFFFEB 		bl	chEvtWaitAny
 269              	.LVL36:
 270              		.loc 1 196 0
 271 01a4 321084E2 		add	r1, r4, #50
 272              	.LVL37:
 273              		.loc 1 195 0
 274 01a8 00A0A0E1 		mov	sl, r0
 275              	.LVL38:
 276              		.loc 1 196 0
 277 01ac 372084E2 		add	r2, r4, #55
 278 01b0 0900A0E3 		mov	r0, #9
 279              	.LVL39:
 280 01b4 FEFFFFEB 		bl	_test_assert_time_window
 281              	.LVL40:
 282 01b8 000050E3 		cmp	r0, #0
 283 01bc 9CFFFF1A 		bne	.L4
 284              		.loc 1 197 0
 285 01c0 01005AE2 		subs	r0, sl, #1
ARM GAS  C:\Users\NICOMA~1\AppData\Local\Temp\ccSLkfsR.s 			page 6


 286 01c4 001070E2 		rsbs	r1, r0, #0
 287 01c8 0010B1E0 		adcs	r1, r1, r0
 288 01cc 0A00A0E3 		mov	r0, #10
 289 01d0 FEFFFFEB 		bl	_test_assert
 290              	.LVL41:
 291 01d4 000050E3 		cmp	r0, #0
 292 01d8 95FFFF1A 		bne	.L4
 293              		.loc 1 198 0
 294 01dc 0000E0E3 		mvn	r0, #0
 295 01e0 FEFFFFEB 		bl	chEvtGetAndClearEvents
 296              	.LVL42:
 297              		.loc 1 199 0
 298 01e4 011070E2 		rsbs	r1, r0, #1
 299 01e8 0010A033 		movcc	r1, #0
 300 01ec 0B00A0E3 		mov	r0, #11
 301              	.LVL43:
 302 01f0 FEFFFFEB 		bl	_test_assert
 303              	.LVL44:
 304 01f4 000050E3 		cmp	r0, #0
 305 01f8 8DFFFF1A 		bne	.L4
 306              		.loc 1 205 0
 307 01fc 08A19FE5 		ldr	sl, .L9+20
 308              		.loc 1 206 0
 309 0200 08419FE5 		ldr	r4, .L9+24
 310              	.LVL45:
 311              		.loc 1 200 0
 312 0204 FEFFFFEB 		bl	test_wait_threads
 313              	.LVL46:
 314              		.loc 1 207 0
 315 0208 0A00A0E1 		mov	r0, sl
 316 020c 08108DE2 		add	r1, sp, #8
 317 0210 0120A0E3 		mov	r2, #1
 318              		.loc 1 205 0
 319 0214 00A08AE5 		str	sl, [sl, #0]
 320              		.loc 1 206 0
 321 0218 004084E5 		str	r4, [r4, #0]
 322              		.loc 1 207 0
 323 021c FEFFFFEB 		bl	chEvtRegisterMask
 324              	.LVL47:
 325              		.loc 1 208 0
 326 0220 18108DE2 		add	r1, sp, #24
 327 0224 0420A0E3 		mov	r2, #4
 328 0228 0400A0E1 		mov	r0, r4
 329 022c FEFFFFEB 		bl	chEvtRegisterMask
 330              	.LVL48:
 331              		.loc 1 209 0
 332 0230 FEFFFFEB 		bl	test_wait_tick
 333              	.LVL49:
 334              		.loc 1 211 0
 335 0234 183098E5 		ldr	r3, [r8, #24]
 336 0238 D4009FE5 		ldr	r0, .L9+28
 337 023c 082093E5 		ldr	r2, [r3, #8]
 338 0240 461FA0E3 		mov	r1, #280
 339 0244 012042E2 		sub	r2, r2, #1
 340 0248 C8309FE5 		ldr	r3, .L9+32
 341 024c 00008DE5 		str	r0, [sp, #0]
 342 0250 0700A0E1 		mov	r0, r7
ARM GAS  C:\Users\NICOMA~1\AppData\Local\Temp\ccSLkfsR.s 			page 7


 343              		.loc 1 210 0
 344 0254 0C6096E5 		ldr	r6, [r6, #12]
 345              	.LVL50:
 346              		.loc 1 211 0
 347 0258 FEFFFFEB 		bl	chThdCreateStatic
 348              	.LVL51:
 349 025c 000085E5 		str	r0, [r5, #0]
 350              		.loc 1 213 0
 351 0260 0500A0E3 		mov	r0, #5
 352 0264 FEFFFFEB 		bl	chEvtWaitAll
 353              	.LVL52:
 354              		.loc 1 214 0
 355 0268 0C00A0E3 		mov	r0, #12
 356 026c 321086E2 		add	r1, r6, #50
 357              	.LVL53:
 358 0270 372086E2 		add	r2, r6, #55
 359 0274 FEFFFFEB 		bl	_test_assert_time_window
 360              	.LVL54:
 361 0278 000050E3 		cmp	r0, #0
 362 027c 6CFFFF1A 		bne	.L4
 363              		.loc 1 215 0
 364 0280 0000E0E3 		mvn	r0, #0
 365 0284 FEFFFFEB 		bl	chEvtGetAndClearEvents
 366              	.LVL55:
 367              		.loc 1 216 0
 368 0288 011070E2 		rsbs	r1, r0, #1
 369 028c 0010A033 		movcc	r1, #0
 370 0290 0D00A0E3 		mov	r0, #13
 371              	.LVL56:
 372 0294 FEFFFFEB 		bl	_test_assert
 373              	.LVL57:
 374 0298 000050E3 		cmp	r0, #0
 375 029c 64FFFF1A 		bne	.L4
 376              		.loc 1 217 0
 377 02a0 FEFFFFEB 		bl	test_wait_threads
 378              	.LVL58:
 379              		.loc 1 218 0
 380 02a4 0A00A0E1 		mov	r0, sl
 381 02a8 08108DE2 		add	r1, sp, #8
 382 02ac FEFFFFEB 		bl	chEvtUnregister
 383              	.LVL59:
 384              		.loc 1 219 0
 385 02b0 0400A0E1 		mov	r0, r4
 386 02b4 18108DE2 		add	r1, sp, #24
 387 02b8 FEFFFFEB 		bl	chEvtUnregister
 388              	.LVL60:
 389              		.loc 1 220 0
 390 02bc 00109AE5 		ldr	r1, [sl, #0]
 391 02c0 0E00A0E3 		mov	r0, #14
 392 02c4 0A2051E0 		subs	r2, r1, sl
 393 02c8 001072E2 		rsbs	r1, r2, #0
 394 02cc 0210B1E0 		adcs	r1, r1, r2
 395 02d0 FEFFFFEB 		bl	_test_assert
 396              	.LVL61:
 397 02d4 000050E3 		cmp	r0, #0
 398 02d8 55FFFF1A 		bne	.L4
 399              		.loc 1 221 0
ARM GAS  C:\Users\NICOMA~1\AppData\Local\Temp\ccSLkfsR.s 			page 8


 400 02dc 001094E5 		ldr	r1, [r4, #0]
 401 02e0 0F00A0E3 		mov	r0, #15
 402 02e4 043051E0 		subs	r3, r1, r4
 403 02e8 001073E2 		rsbs	r1, r3, #0
 404 02ec 0310B1E0 		adcs	r1, r1, r3
 405 02f0 FEFFFFEB 		bl	_test_assert
 406              	.LVL62:
 407 02f4 4EFFFFEA 		b	.L4
 408              	.L10:
 409              		.align	2
 410              	.L9:
 411 02f8 00000000 		.word	rlist
 412 02fc 00000000 		.word	wa
 413 0300 00000000 		.word	vtlist
 414 0304 00000000 		.word	thread1
 415 0308 00000000 		.word	threads
 416 030c 00000000 		.word	.LANCHOR0
 417 0310 00000000 		.word	.LANCHOR1
 418 0314 00000000 		.word	.LC0
 419 0318 00000000 		.word	thread2
 420              		.cfi_endproc
 421              	.LFE15:
 422              		.size	evt2_execute, .-evt2_execute
 423              		.section	.text.thread2,"ax",%progbits
 424              		.align	2
 425              		.type	thread2, %function
 426              	thread2:
 427              	.LFB14:
 428              		.loc 1 140 0
 429              		.cfi_startproc
 430              		@ args = 0, pretend = 0, frame = 0
 431              		@ frame_needed = 0, uses_anonymous_args = 0
 432              	.LVL63:
 433 0000 08402DE9 		stmfd	sp!, {r3, lr}
 434              	.LCFI2:
 435              		.cfi_def_cfa_offset 8
 436              		.cfi_offset 3, -8
 437              		.cfi_offset 14, -4
 438              		.loc 1 143 0
 439 0004 0010A0E3 		mov	r1, #0
 440 0008 1C009FE5 		ldr	r0, .L12
 441              	.LVL64:
 442 000c FEFFFFEB 		bl	chEvtBroadcastFlags
 443              	.LVL65:
 444              		.loc 1 144 0
 445 0010 3200A0E3 		mov	r0, #50
 446 0014 FEFFFFEB 		bl	chThdSleep
 447              	.LVL66:
 448              		.loc 1 145 0
 449 0018 10009FE5 		ldr	r0, .L12+4
 450 001c 0010A0E3 		mov	r1, #0
 451 0020 FEFFFFEB 		bl	chEvtBroadcastFlags
 452              	.LVL67:
 453              		.loc 1 147 0
 454 0024 0000A0E3 		mov	r0, #0
 455 0028 0880BDE8 		ldmfd	sp!, {r3, pc}
 456              	.L13:
ARM GAS  C:\Users\NICOMA~1\AppData\Local\Temp\ccSLkfsR.s 			page 9


 457              		.align	2
 458              	.L12:
 459 002c 00000000 		.word	.LANCHOR0
 460 0030 00000000 		.word	.LANCHOR1
 461              		.cfi_endproc
 462              	.LFE14:
 463              		.size	thread2, .-thread2
 464              		.section	.text.thread1,"ax",%progbits
 465              		.align	2
 466              		.type	thread1, %function
 467              	thread1:
 468              	.LFB13:
 469              		.loc 1 133 0
 470              		.cfi_startproc
 471              		@ args = 0, pretend = 0, frame = 0
 472              		@ frame_needed = 0, uses_anonymous_args = 0
 473              	.LVL68:
 474 0000 10402DE9 		stmfd	sp!, {r4, lr}
 475              	.LCFI3:
 476              		.cfi_def_cfa_offset 8
 477              		.cfi_offset 4, -8
 478              		.cfi_offset 14, -4
 479              		.loc 1 133 0
 480 0004 0040A0E1 		mov	r4, r0
 481              		.loc 1 135 0
 482 0008 3200A0E3 		mov	r0, #50
 483              	.LVL69:
 484 000c FEFFFFEB 		bl	chThdSleep
 485              	.LVL70:
 486              		.loc 1 136 0
 487 0010 0400A0E1 		mov	r0, r4
 488 0014 0110A0E3 		mov	r1, #1
 489 0018 FEFFFFEB 		bl	chEvtSignal
 490              	.LVL71:
 491              		.loc 1 138 0
 492 001c 0000A0E3 		mov	r0, #0
 493 0020 1080BDE8 		ldmfd	sp!, {r4, pc}
 494              		.cfi_endproc
 495              	.LFE13:
 496              		.size	thread1, .-thread1
 497              		.section	.text.evt1_execute,"ax",%progbits
 498              		.align	2
 499              		.type	evt1_execute, %function
 500              	evt1_execute:
 501              	.LFB11:
 502              		.loc 1 85 0
 503              		.cfi_startproc
 504              		@ args = 0, pretend = 0, frame = 32
 505              		@ frame_needed = 0, uses_anonymous_args = 0
 506 0000 10402DE9 		stmfd	sp!, {r4, lr}
 507              	.LCFI4:
 508              		.cfi_def_cfa_offset 8
 509              		.cfi_offset 4, -8
 510              		.cfi_offset 14, -4
 511              		.loc 1 91 0
 512 0004 B8409FE5 		ldr	r4, .L19
 513              		.loc 1 85 0
ARM GAS  C:\Users\NICOMA~1\AppData\Local\Temp\ccSLkfsR.s 			page 10


 514 0008 20D04DE2 		sub	sp, sp, #32
 515              	.LCFI5:
 516              		.cfi_def_cfa_offset 40
 517              		.loc 1 92 0
 518 000c 0400A0E1 		mov	r0, r4
 519 0010 0D10A0E1 		mov	r1, sp
 520 0014 0120A0E3 		mov	r2, #1
 521              		.loc 1 91 0
 522 0018 004084E5 		str	r4, [r4, #0]
 523              		.loc 1 92 0
 524 001c FEFFFFEB 		bl	chEvtRegisterMask
 525              	.LVL72:
 526              		.loc 1 93 0
 527 0020 0400A0E1 		mov	r0, r4
 528 0024 10108DE2 		add	r1, sp, #16
 529 0028 0220A0E3 		mov	r2, #2
 530 002c FEFFFFEB 		bl	chEvtRegisterMask
 531              	.LVL73:
 532              		.loc 1 94 0
 533 0030 001094E5 		ldr	r1, [r4, #0]
 534 0034 0100A0E3 		mov	r0, #1
 535 0038 041051E0 		subs	r1, r1, r4
 536 003c 0110A013 		movne	r1, #1
 537 0040 FEFFFFEB 		bl	_test_assert
 538              	.LVL74:
 539 0044 000050E3 		cmp	r0, #0
 540 0048 0100000A 		beq	.L18
 541              	.L15:
 542              		.loc 1 105 0
 543 004c 20D08DE2 		add	sp, sp, #32
 544 0050 1080BDE8 		ldmfd	sp!, {r4, pc}
 545              	.L18:
 546              		.loc 1 95 0
 547 0054 0400A0E1 		mov	r0, r4
 548 0058 0D10A0E1 		mov	r1, sp
 549 005c FEFFFFEB 		bl	chEvtUnregister
 550              	.LVL75:
 551              		.loc 1 96 0
 552 0060 001094E5 		ldr	r1, [r4, #0]
 553 0064 0200A0E3 		mov	r0, #2
 554 0068 041051E0 		subs	r1, r1, r4
 555 006c 0110A013 		movne	r1, #1
 556 0070 FEFFFFEB 		bl	_test_assert
 557              	.LVL76:
 558 0074 000050E3 		cmp	r0, #0
 559 0078 F3FFFF1A 		bne	.L15
 560              		.loc 1 97 0
 561 007c 0400A0E1 		mov	r0, r4
 562 0080 10108DE2 		add	r1, sp, #16
 563 0084 FEFFFFEB 		bl	chEvtUnregister
 564              	.LVL77:
 565              		.loc 1 98 0
 566 0088 001094E5 		ldr	r1, [r4, #0]
 567 008c 0300A0E3 		mov	r0, #3
 568 0090 04C051E0 		subs	ip, r1, r4
 569 0094 00107CE2 		rsbs	r1, ip, #0
 570 0098 0C10B1E0 		adcs	r1, r1, ip
ARM GAS  C:\Users\NICOMA~1\AppData\Local\Temp\ccSLkfsR.s 			page 11


 571 009c FEFFFFEB 		bl	_test_assert
 572              	.LVL78:
 573 00a0 000050E3 		cmp	r0, #0
 574 00a4 E8FFFF1A 		bne	.L15
 575              		.loc 1 103 0
 576 00a8 18009FE5 		ldr	r0, .L19+4
 577 00ac 0710A0E3 		mov	r1, #7
 578 00b0 FEFFFFEB 		bl	chEvtDispatch
 579              	.LVL79:
 580              		.loc 1 104 0
 581 00b4 10109FE5 		ldr	r1, .L19+8
 582 00b8 0400A0E3 		mov	r0, #4
 583 00bc FEFFFFEB 		bl	_test_assert_sequence
 584              	.LVL80:
 585 00c0 E1FFFFEA 		b	.L15
 586              	.L20:
 587              		.align	2
 588              	.L19:
 589 00c4 00000000 		.word	.LANCHOR0
 590 00c8 00000000 		.word	.LANCHOR2
 591 00cc 04000000 		.word	.LC1
 592              		.cfi_endproc
 593              	.LFE11:
 594              		.size	evt1_execute, .-evt1_execute
 595              		.section	.text.h3,"ax",%progbits
 596              		.align	2
 597              		.type	h3, %function
 598              	h3:
 599              	.LFB10:
 600              		.loc 1 82 0
 601              		.cfi_startproc
 602              		@ args = 0, pretend = 0, frame = 0
 603              		@ frame_needed = 0, uses_anonymous_args = 0
 604              		@ link register save eliminated.
 605              	.LVL81:
 606              		.loc 1 82 0
 607 0000 4300A0E3 		mov	r0, #67
 608              	.LVL82:
 609 0004 FEFFFFEA 		b	test_emit_token
 610              	.LVL83:
 611              		.cfi_endproc
 612              	.LFE10:
 613              		.size	h3, .-h3
 614              		.section	.text.h2,"ax",%progbits
 615              		.align	2
 616              		.type	h2, %function
 617              	h2:
 618              	.LFB9:
 619              		.loc 1 81 0
 620              		.cfi_startproc
 621              		@ args = 0, pretend = 0, frame = 0
 622              		@ frame_needed = 0, uses_anonymous_args = 0
 623              		@ link register save eliminated.
 624              	.LVL84:
 625              		.loc 1 81 0
 626 0000 4200A0E3 		mov	r0, #66
 627              	.LVL85:
ARM GAS  C:\Users\NICOMA~1\AppData\Local\Temp\ccSLkfsR.s 			page 12


 628 0004 FEFFFFEA 		b	test_emit_token
 629              	.LVL86:
 630              		.cfi_endproc
 631              	.LFE9:
 632              		.size	h2, .-h2
 633              		.section	.text.h1,"ax",%progbits
 634              		.align	2
 635              		.type	h1, %function
 636              	h1:
 637              	.LFB8:
 638              		.loc 1 80 0
 639              		.cfi_startproc
 640              		@ args = 0, pretend = 0, frame = 0
 641              		@ frame_needed = 0, uses_anonymous_args = 0
 642              		@ link register save eliminated.
 643              	.LVL87:
 644              		.loc 1 80 0
 645 0000 4100A0E3 		mov	r0, #65
 646              	.LVL88:
 647 0004 FEFFFFEA 		b	test_emit_token
 648              	.LVL89:
 649              		.cfi_endproc
 650              	.LFE8:
 651              		.size	h1, .-h1
 652              		.section	.text.evt3_execute,"ax",%progbits
 653              		.align	2
 654              		.type	evt3_execute, %function
 655              	evt3_execute:
 656              	.LFB17:
 657              		.loc 1 252 0
 658              		.cfi_startproc
 659              		@ args = 0, pretend = 0, frame = 0
 660              		@ frame_needed = 0, uses_anonymous_args = 0
 661 0000 08402DE9 		stmfd	sp!, {r3, lr}
 662              	.LCFI6:
 663              		.cfi_def_cfa_offset 8
 664              		.cfi_offset 3, -8
 665              		.cfi_offset 14, -4
 666              		.loc 1 258 0
 667 0004 0010A0E3 		mov	r1, #0
 668 0008 0000E0E3 		mvn	r0, #0
 669 000c FEFFFFEB 		bl	chEvtWaitOneTimeout
 670              	.LVL90:
 671              		.loc 1 259 0
 672 0010 011070E2 		rsbs	r1, r0, #1
 673 0014 0010A033 		movcc	r1, #0
 674 0018 0100A0E3 		mov	r0, #1
 675              	.LVL91:
 676 001c FEFFFFEB 		bl	_test_assert
 677              	.LVL92:
 678 0020 001050E2 		subs	r1, r0, #0
 679 0024 0880BD18 		ldmnefd	sp!, {r3, pc}
 680              		.loc 1 260 0
 681 0028 0000E0E3 		mvn	r0, #0
 682 002c FEFFFFEB 		bl	chEvtWaitAnyTimeout
 683              	.LVL93:
 684              		.loc 1 261 0
ARM GAS  C:\Users\NICOMA~1\AppData\Local\Temp\ccSLkfsR.s 			page 13


 685 0030 011070E2 		rsbs	r1, r0, #1
 686 0034 0010A033 		movcc	r1, #0
 687 0038 0200A0E3 		mov	r0, #2
 688              	.LVL94:
 689 003c FEFFFFEB 		bl	_test_assert
 690              	.LVL95:
 691 0040 001050E2 		subs	r1, r0, #0
 692 0044 0880BD18 		ldmnefd	sp!, {r3, pc}
 693              		.loc 1 262 0
 694 0048 0000E0E3 		mvn	r0, #0
 695 004c FEFFFFEB 		bl	chEvtWaitAllTimeout
 696              	.LVL96:
 697              		.loc 1 263 0
 698 0050 011070E2 		rsbs	r1, r0, #1
 699 0054 0010A033 		movcc	r1, #0
 700 0058 0300A0E3 		mov	r0, #3
 701              	.LVL97:
 702 005c FEFFFFEB 		bl	_test_assert
 703              	.LVL98:
 704 0060 000050E3 		cmp	r0, #0
 705 0064 0880BD18 		ldmnefd	sp!, {r3, pc}
 706              	.LBB4:
 707              	.LBB5:
 708              		.loc 1 264 0
 709 0068 0A10A0E3 		mov	r1, #10
 710 006c 0000E0E3 		mvn	r0, #0
 711 0070 FEFFFFEB 		bl	chEvtWaitOneTimeout
 712              	.LVL99:
 713              		.loc 1 265 0
 714 0074 011070E2 		rsbs	r1, r0, #1
 715 0078 0010A033 		movcc	r1, #0
 716 007c 0400A0E3 		mov	r0, #4
 717              	.LVL100:
 718 0080 FEFFFFEB 		bl	_test_assert
 719              	.LVL101:
 720 0084 000050E3 		cmp	r0, #0
 721 0088 0880BD18 		ldmnefd	sp!, {r3, pc}
 722              		.loc 1 266 0
 723 008c 0A10A0E3 		mov	r1, #10
 724 0090 0000E0E3 		mvn	r0, #0
 725 0094 FEFFFFEB 		bl	chEvtWaitAnyTimeout
 726              	.LVL102:
 727              		.loc 1 267 0
 728 0098 011070E2 		rsbs	r1, r0, #1
 729 009c 0010A033 		movcc	r1, #0
 730 00a0 0500A0E3 		mov	r0, #5
 731              	.LVL103:
 732 00a4 FEFFFFEB 		bl	_test_assert
 733              	.LVL104:
 734 00a8 000050E3 		cmp	r0, #0
 735 00ac 0880BD18 		ldmnefd	sp!, {r3, pc}
 736              		.loc 1 268 0
 737 00b0 0A10A0E3 		mov	r1, #10
 738 00b4 0000E0E3 		mvn	r0, #0
 739 00b8 FEFFFFEB 		bl	chEvtWaitAllTimeout
 740              	.LVL105:
 741              		.loc 1 269 0
ARM GAS  C:\Users\NICOMA~1\AppData\Local\Temp\ccSLkfsR.s 			page 14


 742 00bc 011070E2 		rsbs	r1, r0, #1
 743 00c0 0010A033 		movcc	r1, #0
 744 00c4 0600A0E3 		mov	r0, #6
 745              	.LVL106:
 746              	.LBE5:
 747              	.LBE4:
 748              		.loc 1 270 0
 749 00c8 0840BDE8 		ldmfd	sp!, {r3, lr}
 750              	.LBB7:
 751              	.LBB6:
 752              		.loc 1 269 0
 753 00cc FEFFFFEA 		b	_test_assert
 754              	.LVL107:
 755              	.LBE6:
 756              	.LBE7:
 757              		.cfi_endproc
 758              	.LFE17:
 759              		.size	evt3_execute, .-evt3_execute
 760              		.global	patternevt
 761              		.global	testevt3
 762              		.global	testevt2
 763              		.global	testevt1
 764              		.section	.rodata.patternevt,"a",%progbits
 765              		.align	2
 766              		.type	patternevt, %object
 767              		.size	patternevt, 16
 768              	patternevt:
 769 0000 00000000 		.word	testevt1
 770 0004 00000000 		.word	testevt2
 771 0008 00000000 		.word	testevt3
 772 000c 00000000 		.word	0
 773              		.section	.rodata.testevt2,"a",%progbits
 774              		.align	2
 775              		.type	testevt2, %object
 776              		.size	testevt2, 16
 777              	testevt2:
 778 0000 1C000000 		.word	.LC3
 779 0004 00000000 		.word	evt2_setup
 780 0008 00000000 		.word	0
 781 000c 00000000 		.word	evt2_execute
 782              		.section	.rodata.str1.4,"aMS",%progbits,1
 783              		.align	2
 784              	.LC0:
 785 0000 4100     		.ascii	"A\000"
 786 0002 0000     		.space	2
 787              	.LC1:
 788 0004 41424300 		.ascii	"ABC\000"
 789              	.LC2:
 790 0008 4576656E 		.ascii	"Events, timeouts\000"
 790      74732C20 
 790      74696D65 
 790      6F757473 
 790      00
 791 0019 000000   		.space	3
 792              	.LC3:
 793 001c 4576656E 		.ascii	"Events, wait and broadcast\000"
 793      74732C20 
ARM GAS  C:\Users\NICOMA~1\AppData\Local\Temp\ccSLkfsR.s 			page 15


 793      77616974 
 793      20616E64 
 793      2062726F 
 794 0037 00       		.space	1
 795              	.LC4:
 796 0038 4576656E 		.ascii	"Events, registration and dispatch\000"
 796      74732C20 
 796      72656769 
 796      73747261 
 796      74696F6E 
 797 005a 0000     		.section	.rodata.testevt1,"a",%progbits
 798              		.align	2
 799              		.type	testevt1, %object
 800              		.size	testevt1, 16
 801              	testevt1:
 802 0000 38000000 		.word	.LC4
 803 0004 00000000 		.word	evt1_setup
 804 0008 00000000 		.word	0
 805 000c 00000000 		.word	evt1_execute
 806              		.section	.rodata.evhndl,"a",%progbits
 807              		.align	2
 808              		.set	.LANCHOR2,. + 0
 809              		.type	evhndl, %object
 810              		.size	evhndl, 12
 811              	evhndl:
 812 0000 00000000 		.word	h1
 813 0004 00000000 		.word	h2
 814 0008 00000000 		.word	h3
 815              		.section	.rodata.testevt3,"a",%progbits
 816              		.align	2
 817              		.type	testevt3, %object
 818              		.size	testevt3, 16
 819              	testevt3:
 820 0000 08000000 		.word	.LC2
 821 0004 00000000 		.word	evt3_setup
 822 0008 00000000 		.word	0
 823 000c 00000000 		.word	evt3_execute
 824              		.section	.data.es1,"aw",%progbits
 825              		.align	2
 826              		.set	.LANCHOR0,. + 0
 827              		.type	es1, %object
 828              		.size	es1, 4
 829              	es1:
 830 0000 00000000 		.word	es1
 831              		.section	.data.es2,"aw",%progbits
 832              		.align	2
 833              		.set	.LANCHOR1,. + 0
 834              		.type	es2, %object
 835              		.size	es2, 4
 836              	es2:
 837 0000 00000000 		.word	es2
 838              		.text
 839              	.Letext0:
 840              		.file 2 "c:\\yagarto-20121222\\bin\\../lib/gcc/arm-none-eabi/4.7.2/include/stddef.h"
 841              		.file 3 "c:/yagarto-20121222/lib/gcc/../../arm-none-eabi/sys-include/stdint.h"
 842              		.file 4 "../../os/ports/GCC/ARM/chtypes.h"
 843              		.file 5 "../../os/kernel/include/chlists.h"
ARM GAS  C:\Users\NICOMA~1\AppData\Local\Temp\ccSLkfsR.s 			page 16


 844              		.file 6 "../../os/kernel/include/chthreads.h"
 845              		.file 7 "../../os/ports/GCC/ARM/chcore.h"
 846              		.file 8 "../../os/kernel/include/chvt.h"
 847              		.file 9 "../../os/kernel/include/chschd.h"
 848              		.file 10 "../../os/kernel/include/chmtx.h"
 849              		.file 11 "../../os/kernel/include/chevents.h"
 850              		.file 12 "../../test/test.h"