ARM GAS  C:\Users\NICOMA~1\AppData\Local\Temp\ccFyanKT.s 			page 1


   1              		.cpu arm1176jz-s
   2              		.fpu softvfp
   3              		.eabi_attribute 20, 1
   4              		.eabi_attribute 21, 1
   5              		.eabi_attribute 23, 3
   6              		.eabi_attribute 24, 1
   7              		.eabi_attribute 25, 1
   8              		.eabi_attribute 26, 1
   9              		.eabi_attribute 30, 2
  10              		.eabi_attribute 34, 1
  11              		.eabi_attribute 18, 4
  12              		.file	"testqueues.c"
  13              		.text
  14              	.Ltext0:
  15              		.cfi_sections	.debug_frame
  16              		.section	.text.notify,"ax",%progbits
  17              		.align	2
  18              		.type	notify, %function
  19              	notify:
  20              	.LFB7:
  21              		.file 1 "../../test/testqueues.c"
  22              		.loc 1 57 0
  23              		.cfi_startproc
  24              		@ args = 0, pretend = 0, frame = 0
  25              		@ frame_needed = 0, uses_anonymous_args = 0
  26              		@ link register save eliminated.
  27              	.LVL0:
  28 0000 1EFF2FE1 		bx	lr
  29              		.cfi_endproc
  30              	.LFE7:
  31              		.size	notify, .-notify
  32              		.section	.text.thread2,"ax",%progbits
  33              		.align	2
  34              		.type	thread2, %function
  35              	thread2:
  36              	.LFB12:
  37              		.loc 1 170 0
  38              		.cfi_startproc
  39              		@ args = 0, pretend = 0, frame = 0
  40              		@ frame_needed = 0, uses_anonymous_args = 0
  41              	.LVL1:
  42              		.loc 1 170 0
  43 0000 08402DE9 		stmfd	sp!, {r3, lr}
  44              	.LCFI0:
  45              		.cfi_def_cfa_offset 8
  46              		.cfi_offset 3, -8
  47              		.cfi_offset 14, -4
  48              		.loc 1 173 0
  49 0004 0010A0E3 		mov	r1, #0
  50 0008 C820A0E3 		mov	r2, #200
  51 000c 08009FE5 		ldr	r0, .L3
  52              	.LVL2:
  53 0010 FEFFFFEB 		bl	chOQPutTimeout
  54              	.LVL3:
  55              		.loc 1 175 0
  56 0014 0000A0E3 		mov	r0, #0
  57 0018 0880BDE8 		ldmfd	sp!, {r3, pc}
ARM GAS  C:\Users\NICOMA~1\AppData\Local\Temp\ccFyanKT.s 			page 2


  58              	.L4:
  59              		.align	2
  60              	.L3:
  61 001c 00000000 		.word	.LANCHOR0
  62              		.cfi_endproc
  63              	.LFE12:
  64              		.size	thread2, .-thread2
  65              		.section	.text.queues2_setup,"ax",%progbits
  66              		.align	2
  67              		.type	queues2_setup, %function
  68              	queues2_setup:
  69              	.LFB11:
  70              		.loc 1 165 0
  71              		.cfi_startproc
  72              		@ args = 0, pretend = 0, frame = 0
  73              		@ frame_needed = 0, uses_anonymous_args = 0
  74 0000 04E02DE5 		str	lr, [sp, #-4]!
  75              	.LCFI1:
  76              		.cfi_def_cfa_offset 4
  77              		.cfi_offset 14, -4
  78              		.loc 1 167 0
  79 0004 24309FE5 		ldr	r3, .L6
  80              		.loc 1 165 0
  81 0008 0CD04DE2 		sub	sp, sp, #12
  82              	.LCFI2:
  83              		.cfi_def_cfa_offset 16
  84              		.loc 1 167 0
  85 000c 001093E5 		ldr	r1, [r3, #0]
  86 0010 0030A0E3 		mov	r3, #0
  87 0014 00308DE5 		str	r3, [sp, #0]
  88 0018 14009FE5 		ldr	r0, .L6+4
  89 001c 0420A0E3 		mov	r2, #4
  90 0020 10309FE5 		ldr	r3, .L6+8
  91 0024 FEFFFFEB 		bl	chOQInit
  92              	.LVL4:
  93              		.loc 1 168 0
  94 0028 0CD08DE2 		add	sp, sp, #12
  95 002c 0080BDE8 		ldmfd	sp!, {pc}
  96              	.L7:
  97              		.align	2
  98              	.L6:
  99 0030 00000000 		.word	wa
 100 0034 00000000 		.word	.LANCHOR0
 101 0038 00000000 		.word	notify
 102              		.cfi_endproc
 103              	.LFE11:
 104              		.size	queues2_setup, .-queues2_setup
 105              		.section	.text.thread1,"ax",%progbits
 106              		.align	2
 107              		.type	thread1, %function
 108              	thread1:
 109              	.LFB9:
 110              		.loc 1 83 0
 111              		.cfi_startproc
 112              		@ args = 0, pretend = 0, frame = 0
 113              		@ frame_needed = 0, uses_anonymous_args = 0
 114              	.LVL5:
ARM GAS  C:\Users\NICOMA~1\AppData\Local\Temp\ccFyanKT.s 			page 3


 115 0000 08402DE9 		stmfd	sp!, {r3, lr}
 116              	.LCFI3:
 117              		.cfi_def_cfa_offset 8
 118              		.cfi_offset 3, -8
 119              		.cfi_offset 14, -4
 120              		.loc 1 86 0
 121 0004 C810A0E3 		mov	r1, #200
 122 0008 08009FE5 		ldr	r0, .L9
 123              	.LVL6:
 124 000c FEFFFFEB 		bl	chIQGetTimeout
 125              	.LVL7:
 126              		.loc 1 88 0
 127 0010 0000A0E3 		mov	r0, #0
 128 0014 0880BDE8 		ldmfd	sp!, {r3, pc}
 129              	.L10:
 130              		.align	2
 131              	.L9:
 132 0018 00000000 		.word	.LANCHOR1
 133              		.cfi_endproc
 134              	.LFE9:
 135              		.size	thread1, .-thread1
 136              		.section	.text.queues1_setup,"ax",%progbits
 137              		.align	2
 138              		.type	queues1_setup, %function
 139              	queues1_setup:
 140              	.LFB8:
 141              		.loc 1 78 0
 142              		.cfi_startproc
 143              		@ args = 0, pretend = 0, frame = 0
 144              		@ frame_needed = 0, uses_anonymous_args = 0
 145 0000 04E02DE5 		str	lr, [sp, #-4]!
 146              	.LCFI4:
 147              		.cfi_def_cfa_offset 4
 148              		.cfi_offset 14, -4
 149              		.loc 1 80 0
 150 0004 24309FE5 		ldr	r3, .L12
 151              		.loc 1 78 0
 152 0008 0CD04DE2 		sub	sp, sp, #12
 153              	.LCFI5:
 154              		.cfi_def_cfa_offset 16
 155              		.loc 1 80 0
 156 000c 001093E5 		ldr	r1, [r3, #0]
 157 0010 0030A0E3 		mov	r3, #0
 158 0014 00308DE5 		str	r3, [sp, #0]
 159 0018 14009FE5 		ldr	r0, .L12+4
 160 001c 0420A0E3 		mov	r2, #4
 161 0020 10309FE5 		ldr	r3, .L12+8
 162 0024 FEFFFFEB 		bl	chIQInit
 163              	.LVL8:
 164              		.loc 1 81 0
 165 0028 0CD08DE2 		add	sp, sp, #12
 166 002c 0080BDE8 		ldmfd	sp!, {pc}
 167              	.L13:
 168              		.align	2
 169              	.L12:
 170 0030 00000000 		.word	wa
 171 0034 00000000 		.word	.LANCHOR1
ARM GAS  C:\Users\NICOMA~1\AppData\Local\Temp\ccFyanKT.s 			page 4


 172 0038 00000000 		.word	notify
 173              		.cfi_endproc
 174              	.LFE8:
 175              		.size	queues1_setup, .-queues1_setup
 176              		.section	.text.queues2_execute,"ax",%progbits
 177              		.align	2
 178              		.type	queues2_execute, %function
 179              	queues2_execute:
 180              	.LFB13:
 181              		.loc 1 177 0
 182              		.cfi_startproc
 183              		@ args = 0, pretend = 0, frame = 0
 184              		@ frame_needed = 0, uses_anonymous_args = 0
 185 0000 70402DE9 		stmfd	sp!, {r4, r5, r6, lr}
 186              	.LCFI6:
 187              		.cfi_def_cfa_offset 16
 188              		.cfi_offset 4, -16
 189              		.cfi_offset 5, -12
 190              		.cfi_offset 6, -8
 191              		.cfi_offset 14, -4
 192 0004 08D04DE2 		sub	sp, sp, #8
 193              	.LCFI7:
 194              		.cfi_def_cfa_offset 24
 195              		.loc 1 182 0
 196              	@ 182 "../../test/testqueues.c" 1
 197 0008 9FF021E3 		msr     CPSR_c, #0x9F
 198              	@ 0 "" 2
 199 000c DC329FE5 		ldr	r3, .L37
 200 0010 141093E5 		ldr	r1, [r3, #20]
 201 0014 182093E5 		ldr	r2, [r3, #24]
 202 0018 020051E1 		cmp	r1, r2
 203 001c 0010A013 		movne	r1, #0
 204 0020 AA00000A 		beq	.L35
 205              	.L15:
 206              		.loc 1 182 0 is_stmt 0 discriminator 4
 207 0024 0100A0E3 		mov	r0, #1
 208 0028 FEFFFFEB 		bl	_test_assert
 209              	.LVL9:
 210              	@ 182 "../../test/testqueues.c" 1
 211 002c 1FF021E3 		msr     CPSR_c, #0x1F
 212              	@ 0 "" 2
 213 0030 000050E3 		cmp	r0, #0
 214 0034 4140A003 		moveq	r4, #65
 215 0038 2600001A 		bne	.L14
 216              	.L18:
 217              		.loc 1 186 0 is_stmt 1 discriminator 2
 218 003c AC529FE5 		ldr	r5, .L37
 219 0040 0410A0E1 		mov	r1, r4
 220 0044 014084E2 		add	r4, r4, #1
 221 0048 0500A0E1 		mov	r0, r5
 222 004c 0020E0E3 		mvn	r2, #0
 223 0050 7440EFE6 		uxtb	r4, r4
 224 0054 FEFFFFEB 		bl	chOQPutTimeout
 225              	.LVL10:
 226              		.loc 1 185 0 discriminator 2
 227 0058 450054E3 		cmp	r4, #69
 228 005c F6FFFF1A 		bne	.L18
ARM GAS  C:\Users\NICOMA~1\AppData\Local\Temp\ccFyanKT.s 			page 5


 229              		.loc 1 187 0
 230              	@ 187 "../../test/testqueues.c" 1
 231 0060 9FF021E3 		msr     CPSR_c, #0x9F
 232              	@ 0 "" 2
 233 0064 081095E5 		ldr	r1, [r5, #8]
 234 0068 0200A0E3 		mov	r0, #2
 235 006c 011071E2 		rsbs	r1, r1, #1
 236 0070 0010A033 		movcc	r1, #0
 237 0074 FEFFFFEB 		bl	_test_assert
 238              	.LVL11:
 239              	@ 187 "../../test/testqueues.c" 1
 240 0078 1FF021E3 		msr     CPSR_c, #0x1F
 241              	@ 0 "" 2
 242 007c 000050E3 		cmp	r0, #0
 243              	.LBB6:
 244              	.LBB7:
 245 0080 0440A003 		moveq	r4, #4
 246              	.LBE7:
 247              	.LBE6:
 248 0084 1300001A 		bne	.L14
 249              	.L20:
 250              	.LBB13:
 251              	.LBB9:
 252              	.LBB8:
 253              		.loc 1 193 0
 254              	@ 193 "../../test/testqueues.c" 1
 255 0088 9FF021E3 		msr     CPSR_c, #0x9F
 256              	@ 0 "" 2
 257              		.loc 1 194 0
 258 008c 5C529FE5 		ldr	r5, .L37
 259 0090 0500A0E1 		mov	r0, r5
 260 0094 FEFFFFEB 		bl	chOQGetI
 261              	.LVL12:
 262              		.loc 1 195 0
 263              	@ 195 "../../test/testqueues.c" 1
 264 0098 1FF021E3 		msr     CPSR_c, #0x1F
 265              	@ 0 "" 2
 266              		.loc 1 196 0
 267 009c 7000EFE6 		uxtb	r0, r0
 268              	.LVL13:
 269 00a0 FEFFFFEB 		bl	test_emit_token
 270              	.LVL14:
 271              	.LBE8:
 272              		.loc 1 190 0
 273 00a4 014054E2 		subs	r4, r4, #1
 274 00a8 F6FFFF1A 		bne	.L20
 275              		.loc 1 198 0
 276              	@ 198 "../../test/testqueues.c" 1
 277 00ac 9FF021E3 		msr     CPSR_c, #0x9F
 278              	@ 0 "" 2
 279 00b0 142095E5 		ldr	r2, [r5, #20]
 280 00b4 183095E5 		ldr	r3, [r5, #24]
 281 00b8 030052E1 		cmp	r2, r3
 282 00bc 0410A011 		movne	r1, r4
 283 00c0 8600000A 		beq	.L36
 284              	.L21:
 285 00c4 0300A0E3 		mov	r0, #3
ARM GAS  C:\Users\NICOMA~1\AppData\Local\Temp\ccFyanKT.s 			page 6


 286 00c8 FEFFFFEB 		bl	_test_assert
 287              	.LVL15:
 288              	@ 198 "../../test/testqueues.c" 1
 289 00cc 1FF021E3 		msr     CPSR_c, #0x1F
 290              	@ 0 "" 2
 291 00d0 000050E3 		cmp	r0, #0
 292 00d4 0100000A 		beq	.L22
 293              	.L14:
 294              	.LBE9:
 295              	.LBE13:
 296              		.loc 1 225 0
 297 00d8 08D08DE2 		add	sp, sp, #8
 298 00dc 7080BDE8 		ldmfd	sp!, {r4, r5, r6, pc}
 299              	.L22:
 300              	.LBB14:
 301              	.LBB10:
 302              		.loc 1 199 0
 303 00e0 0400A0E3 		mov	r0, #4
 304 00e4 08129FE5 		ldr	r1, .L37+4
 305 00e8 FEFFFFEB 		bl	_test_assert_sequence
 306              	.LVL16:
 307 00ec 000050E3 		cmp	r0, #0
 308 00f0 F8FFFF1A 		bne	.L14
 309              		.loc 1 200 0
 310              	@ 200 "../../test/testqueues.c" 1
 311 00f4 9FF021E3 		msr     CPSR_c, #0x9F
 312              	@ 0 "" 2
 313 00f8 F0419FE5 		ldr	r4, .L37
 314 00fc 0400A0E1 		mov	r0, r4
 315 0100 FEFFFFEB 		bl	chOQGetI
 316              	.LVL17:
 317 0104 030070E3 		cmn	r0, #3
 318 0108 0010A013 		movne	r1, #0
 319 010c 0110A003 		moveq	r1, #1
 320 0110 0500A0E3 		mov	r0, #5
 321 0114 FEFFFFEB 		bl	_test_assert
 322              	.LVL18:
 323              	@ 200 "../../test/testqueues.c" 1
 324 0118 1FF021E3 		msr     CPSR_c, #0x1F
 325              	@ 0 "" 2
 326 011c 003050E2 		subs	r3, r0, #0
 327 0120 ECFFFF1A 		bne	.L14
 328              		.loc 1 203 0
 329 0124 CC619FE5 		ldr	r6, .L37+8
 330 0128 0820A0E3 		mov	r2, #8
 331 012c 045096E5 		ldr	r5, [r6, #4]
 332 0130 0400A0E1 		mov	r0, r4
 333 0134 0510A0E1 		mov	r1, r5
 334 0138 FEFFFFEB 		bl	chOQWriteTimeout
 335              	.LVL19:
 336              		.loc 1 204 0
 337 013c 04E050E2 		subs	lr, r0, #4
 338 0140 00107EE2 		rsbs	r1, lr, #0
 339 0144 0E10B1E0 		adcs	r1, r1, lr
 340 0148 0600A0E3 		mov	r0, #6
 341              	.LVL20:
 342 014c FEFFFFEB 		bl	_test_assert
ARM GAS  C:\Users\NICOMA~1\AppData\Local\Temp\ccFyanKT.s 			page 7


 343              	.LVL21:
 344 0150 000050E3 		cmp	r0, #0
 345 0154 DFFFFF1A 		bne	.L14
 346              		.loc 1 205 0
 347              	@ 205 "../../test/testqueues.c" 1
 348 0158 9FF021E3 		msr     CPSR_c, #0x9F
 349              	@ 0 "" 2
 350 015c 081094E5 		ldr	r1, [r4, #8]
 351 0160 0700A0E3 		mov	r0, #7
 352 0164 011071E2 		rsbs	r1, r1, #1
 353 0168 0010A033 		movcc	r1, #0
 354 016c FEFFFFEB 		bl	_test_assert
 355              	.LVL22:
 356              	@ 205 "../../test/testqueues.c" 1
 357 0170 1FF021E3 		msr     CPSR_c, #0x1F
 358              	@ 0 "" 2
 359 0174 003050E2 		subs	r3, r0, #0
 360 0178 D6FFFF1A 		bne	.L14
 361              		.loc 1 206 0
 362 017c 78219FE5 		ldr	r2, .L37+12
 363 0180 000096E5 		ldr	r0, [r6, #0]
 364 0184 182092E5 		ldr	r2, [r2, #24]
 365 0188 461FA0E3 		mov	r1, #280
 366 018c 082092E5 		ldr	r2, [r2, #8]
 367 0190 00308DE5 		str	r3, [sp, #0]
 368 0194 012082E2 		add	r2, r2, #1
 369 0198 60319FE5 		ldr	r3, .L37+16
 370 019c FEFFFFEB 		bl	chThdCreateStatic
 371              	.LVL23:
 372 01a0 5C319FE5 		ldr	r3, .L37+20
 373 01a4 000083E5 		str	r0, [r3, #0]
 374              		.loc 1 207 0
 375              	@ 207 "../../test/testqueues.c" 1
 376 01a8 9FF021E3 		msr     CPSR_c, #0x9F
 377              	@ 0 "" 2
 378 01ac 101094E5 		ldr	r1, [r4, #16]
 379 01b0 0C2094E5 		ldr	r2, [r4, #12]
 380 01b4 083094E5 		ldr	r3, [r4, #8]
 381 01b8 011062E0 		rsb	r1, r2, r1
 382 01bc 011063E0 		rsb	r1, r3, r1
 383 01c0 04C051E2 		subs	ip, r1, #4
 384 01c4 00107CE2 		rsbs	r1, ip, #0
 385 01c8 0C10B1E0 		adcs	r1, r1, ip
 386 01cc 0800A0E3 		mov	r0, #8
 387 01d0 FEFFFFEB 		bl	_test_assert
 388              	.LVL24:
 389              	@ 207 "../../test/testqueues.c" 1
 390 01d4 1FF021E3 		msr     CPSR_c, #0x1F
 391              	@ 0 "" 2
 392 01d8 000050E3 		cmp	r0, #0
 393 01dc BDFFFF1A 		bne	.L14
 394              		.loc 1 208 0
 395 01e0 FEFFFFEB 		bl	test_wait_threads
 396              	.LVL25:
 397              		.loc 1 211 0
 398              	@ 211 "../../test/testqueues.c" 1
 399 01e4 9FF021E3 		msr     CPSR_c, #0x9F
ARM GAS  C:\Users\NICOMA~1\AppData\Local\Temp\ccFyanKT.s 			page 8


 400              	@ 0 "" 2
 401              		.loc 1 212 0
 402 01e8 0400A0E1 		mov	r0, r4
 403 01ec FEFFFFEB 		bl	chOQResetI
 404              	.LVL26:
 405              		.loc 1 213 0
 406              	@ 213 "../../test/testqueues.c" 1
 407 01f0 1FF021E3 		msr     CPSR_c, #0x1F
 408              	@ 0 "" 2
 409              		.loc 1 214 0
 410              	@ 214 "../../test/testqueues.c" 1
 411 01f4 9FF021E3 		msr     CPSR_c, #0x9F
 412              	@ 0 "" 2
 413 01f8 101094E5 		ldr	r1, [r4, #16]
 414 01fc 0C2094E5 		ldr	r2, [r4, #12]
 415 0200 083094E5 		ldr	r3, [r4, #8]
 416 0204 011062E0 		rsb	r1, r2, r1
 417 0208 030051E0 		subs	r0, r1, r3
 418 020c 001070E2 		rsbs	r1, r0, #0
 419 0210 0010B1E0 		adcs	r1, r1, r0
 420 0214 0900A0E3 		mov	r0, #9
 421 0218 FEFFFFEB 		bl	_test_assert
 422              	.LVL27:
 423              	@ 214 "../../test/testqueues.c" 1
 424 021c 1FF021E3 		msr     CPSR_c, #0x1F
 425              	@ 0 "" 2
 426 0220 003050E2 		subs	r3, r0, #0
 427 0224 ABFFFF1A 		bne	.L14
 428              		.loc 1 217 0
 429 0228 0220A0E3 		mov	r2, #2
 430 022c 0510A0E1 		mov	r1, r5
 431 0230 0400A0E1 		mov	r0, r4
 432 0234 FEFFFFEB 		bl	chOQWriteTimeout
 433              	.LVL28:
 434              		.loc 1 218 0
 435 0238 022050E2 		subs	r2, r0, #2
 436 023c 001072E2 		rsbs	r1, r2, #0
 437 0240 0210B1E0 		adcs	r1, r1, r2
 438 0244 0A00A0E3 		mov	r0, #10
 439              	.LVL29:
 440 0248 FEFFFFEB 		bl	_test_assert
 441              	.LVL30:
 442 024c 003050E2 		subs	r3, r0, #0
 443 0250 A0FFFF1A 		bne	.L14
 444              		.loc 1 219 0
 445 0254 0510A0E1 		mov	r1, r5
 446 0258 0220A0E3 		mov	r2, #2
 447 025c 0400A0E1 		mov	r0, r4
 448 0260 FEFFFFEB 		bl	chOQWriteTimeout
 449              	.LVL31:
 450              		.loc 1 220 0
 451 0264 023050E2 		subs	r3, r0, #2
 452 0268 001073E2 		rsbs	r1, r3, #0
 453 026c 0310B1E0 		adcs	r1, r1, r3
 454 0270 0B00A0E3 		mov	r0, #11
 455              	.LVL32:
 456 0274 FEFFFFEB 		bl	_test_assert
ARM GAS  C:\Users\NICOMA~1\AppData\Local\Temp\ccFyanKT.s 			page 9


 457              	.LVL33:
 458 0278 000050E3 		cmp	r0, #0
 459 027c 95FFFF1A 		bne	.L14
 460              		.loc 1 221 0
 461              	@ 221 "../../test/testqueues.c" 1
 462 0280 9FF021E3 		msr     CPSR_c, #0x9F
 463              	@ 0 "" 2
 464 0284 081094E5 		ldr	r1, [r4, #8]
 465 0288 0C00A0E3 		mov	r0, #12
 466 028c 011071E2 		rsbs	r1, r1, #1
 467 0290 0010A033 		movcc	r1, #0
 468 0294 FEFFFFEB 		bl	_test_assert
 469              	.LVL34:
 470              	@ 221 "../../test/testqueues.c" 1
 471 0298 1FF021E3 		msr     CPSR_c, #0x1F
 472              	@ 0 "" 2
 473 029c 000050E3 		cmp	r0, #0
 474 02a0 8CFFFF1A 		bne	.L14
 475              		.loc 1 224 0
 476 02a4 0010A0E3 		mov	r1, #0
 477 02a8 0A20A0E3 		mov	r2, #10
 478 02ac 3C009FE5 		ldr	r0, .L37
 479 02b0 FEFFFFEB 		bl	chOQPutTimeout
 480              	.LVL35:
 481 02b4 010070E3 		cmn	r0, #1
 482 02b8 0010A013 		movne	r1, #0
 483 02bc 0110A003 		moveq	r1, #1
 484 02c0 0D00A0E3 		mov	r0, #13
 485              	.LBE10:
 486              	.LBE14:
 487              		.loc 1 225 0
 488 02c4 08D08DE2 		add	sp, sp, #8
 489 02c8 7040BDE8 		ldmfd	sp!, {r4, r5, r6, lr}
 490              	.LBB15:
 491              	.LBB11:
 492              		.loc 1 224 0
 493 02cc FEFFFFEA 		b	_test_assert
 494              	.LVL36:
 495              	.L35:
 496              	.LBE11:
 497              	.LBE15:
 498              		.loc 1 182 0 discriminator 1
 499 02d0 081093E5 		ldr	r1, [r3, #8]
 500 02d4 001091E2 		adds	r1, r1, #0
 501 02d8 0110A013 		movne	r1, #1
 502 02dc 50FFFFEA 		b	.L15
 503              	.L36:
 504              	.LBB16:
 505              	.LBB12:
 506              		.loc 1 198 0
 507 02e0 081095E5 		ldr	r1, [r5, #8]
 508 02e4 001091E2 		adds	r1, r1, #0
 509 02e8 0110A013 		movne	r1, #1
 510 02ec 74FFFFEA 		b	.L21
 511              	.L38:
 512              		.align	2
 513              	.L37:
ARM GAS  C:\Users\NICOMA~1\AppData\Local\Temp\ccFyanKT.s 			page 10


 514 02f0 00000000 		.word	.LANCHOR0
 515 02f4 00000000 		.word	.LC0
 516 02f8 00000000 		.word	wa
 517 02fc 00000000 		.word	rlist
 518 0300 00000000 		.word	thread2
 519 0304 00000000 		.word	threads
 520              	.LBE12:
 521              	.LBE16:
 522              		.cfi_endproc
 523              	.LFE13:
 524              		.size	queues2_execute, .-queues2_execute
 525              		.section	.text.queues1_execute,"ax",%progbits
 526              		.align	2
 527              		.type	queues1_execute, %function
 528              	queues1_execute:
 529              	.LFB10:
 530              		.loc 1 90 0
 531              		.cfi_startproc
 532              		@ args = 0, pretend = 0, frame = 0
 533              		@ frame_needed = 0, uses_anonymous_args = 0
 534 0000 F0402DE9 		stmfd	sp!, {r4, r5, r6, r7, lr}
 535              	.LCFI8:
 536              		.cfi_def_cfa_offset 20
 537              		.cfi_offset 4, -20
 538              		.cfi_offset 5, -16
 539              		.cfi_offset 6, -12
 540              		.cfi_offset 7, -8
 541              		.cfi_offset 14, -4
 542 0004 0CD04DE2 		sub	sp, sp, #12
 543              	.LCFI9:
 544              		.cfi_def_cfa_offset 32
 545              		.loc 1 95 0
 546              	@ 95 "../../test/testqueues.c" 1
 547 0008 9FF021E3 		msr     CPSR_c, #0x9F
 548              	@ 0 "" 2
 549 000c 2C439FE5 		ldr	r4, .L56
 550 0010 0100A0E3 		mov	r0, #1
 551 0014 081094E5 		ldr	r1, [r4, #8]
 552 0018 011071E2 		rsbs	r1, r1, #1
 553 001c 0010A033 		movcc	r1, #0
 554 0020 FEFFFFEB 		bl	_test_assert
 555              	.LVL37:
 556              	@ 95 "../../test/testqueues.c" 1
 557 0024 1FF021E3 		msr     CPSR_c, #0x1F
 558              	@ 0 "" 2
 559 0028 005050E2 		subs	r5, r0, #0
 560 002c 1800001A 		bne	.L39
 561              		.loc 1 98 0 discriminator 2
 562              	@ 98 "../../test/testqueues.c" 1
 563 0030 9FF021E3 		msr     CPSR_c, #0x9F
 564              	@ 0 "" 2
 565              	.LVL38:
 566              		.loc 1 100 0 discriminator 2
 567 0034 4110A0E3 		mov	r1, #65
 568 0038 0400A0E1 		mov	r0, r4
 569 003c FEFFFFEB 		bl	chIQPutI
 570              	.LVL39:
ARM GAS  C:\Users\NICOMA~1\AppData\Local\Temp\ccFyanKT.s 			page 11


 571 0040 0400A0E1 		mov	r0, r4
 572 0044 4210A0E3 		mov	r1, #66
 573 0048 FEFFFFEB 		bl	chIQPutI
 574              	.LVL40:
 575 004c 0400A0E1 		mov	r0, r4
 576 0050 4310A0E3 		mov	r1, #67
 577 0054 FEFFFFEB 		bl	chIQPutI
 578              	.LVL41:
 579 0058 0400A0E1 		mov	r0, r4
 580 005c 4410A0E3 		mov	r1, #68
 581 0060 FEFFFFEB 		bl	chIQPutI
 582              	.LVL42:
 583              		.loc 1 101 0 discriminator 2
 584              	@ 101 "../../test/testqueues.c" 1
 585 0064 1FF021E3 		msr     CPSR_c, #0x1F
 586              	@ 0 "" 2
 587              		.loc 1 102 0 discriminator 2
 588              	@ 102 "../../test/testqueues.c" 1
 589 0068 9FF021E3 		msr     CPSR_c, #0x9F
 590              	@ 0 "" 2
 591 006c 142094E5 		ldr	r2, [r4, #20]
 592 0070 183094E5 		ldr	r3, [r4, #24]
 593 0074 030052E1 		cmp	r2, r3
 594 0078 0510A011 		movne	r1, r5
 595 007c AB00000A 		beq	.L55
 596              	.L42:
 597              		.loc 1 102 0 is_stmt 0 discriminator 4
 598 0080 0200A0E3 		mov	r0, #2
 599 0084 FEFFFFEB 		bl	_test_assert
 600              	.LVL43:
 601              	@ 102 "../../test/testqueues.c" 1
 602 0088 1FF021E3 		msr     CPSR_c, #0x1F
 603              	@ 0 "" 2
 604 008c 001050E2 		subs	r1, r0, #0
 605 0090 0100000A 		beq	.L43
 606              	.LVL44:
 607              	.L39:
 608              		.loc 1 147 0 is_stmt 1
 609 0094 0CD08DE2 		add	sp, sp, #12
 610 0098 F080BDE8 		ldmfd	sp!, {r4, r5, r6, r7, pc}
 611              	.LVL45:
 612              	.L43:
 613              	.LBB19:
 614              	.LBB20:
 615              		.loc 1 103 0
 616              	@ 103 "../../test/testqueues.c" 1
 617 009c 9FF021E3 		msr     CPSR_c, #0x9F
 618              	@ 0 "" 2
 619 00a0 98029FE5 		ldr	r0, .L56
 620 00a4 FEFFFFEB 		bl	chIQPutI
 621              	.LVL46:
 622 00a8 040070E3 		cmn	r0, #4
 623 00ac 0010A013 		movne	r1, #0
 624 00b0 0110A003 		moveq	r1, #1
 625 00b4 0300A0E3 		mov	r0, #3
 626 00b8 FEFFFFEB 		bl	_test_assert
 627              	.LVL47:
ARM GAS  C:\Users\NICOMA~1\AppData\Local\Temp\ccFyanKT.s 			page 12


 628              	@ 103 "../../test/testqueues.c" 1
 629 00bc 1FF021E3 		msr     CPSR_c, #0x1F
 630              	@ 0 "" 2
 631 00c0 000050E3 		cmp	r0, #0
 632 00c4 0440A003 		moveq	r4, #4
 633 00c8 F1FFFF1A 		bne	.L39
 634              	.L45:
 635              		.loc 1 107 0
 636 00cc 6C529FE5 		ldr	r5, .L56
 637 00d0 0010E0E3 		mvn	r1, #0
 638 00d4 0500A0E1 		mov	r0, r5
 639 00d8 FEFFFFEB 		bl	chIQGetTimeout
 640              	.LVL48:
 641 00dc 7000EFE6 		uxtb	r0, r0
 642 00e0 FEFFFFEB 		bl	test_emit_token
 643              	.LVL49:
 644              		.loc 1 106 0
 645 00e4 014054E2 		subs	r4, r4, #1
 646 00e8 F7FFFF1A 		bne	.L45
 647              		.loc 1 108 0
 648              	@ 108 "../../test/testqueues.c" 1
 649 00ec 9FF021E3 		msr     CPSR_c, #0x9F
 650              	@ 0 "" 2
 651 00f0 081095E5 		ldr	r1, [r5, #8]
 652 00f4 0400A0E3 		mov	r0, #4
 653 00f8 011071E2 		rsbs	r1, r1, #1
 654 00fc 0010A033 		movcc	r1, #0
 655 0100 FEFFFFEB 		bl	_test_assert
 656              	.LVL50:
 657              	@ 108 "../../test/testqueues.c" 1
 658 0104 1FF021E3 		msr     CPSR_c, #0x1F
 659              	@ 0 "" 2
 660 0108 000050E3 		cmp	r0, #0
 661 010c E0FFFF1A 		bne	.L39
 662              		.loc 1 109 0
 663 0110 0500A0E3 		mov	r0, #5
 664 0114 28129FE5 		ldr	r1, .L56+4
 665 0118 FEFFFFEB 		bl	_test_assert_sequence
 666              	.LVL51:
 667 011c 000050E3 		cmp	r0, #0
 668 0120 DBFFFF1A 		bne	.L39
 669              		.loc 1 112 0
 670              	@ 112 "../../test/testqueues.c" 1
 671 0124 9FF021E3 		msr     CPSR_c, #0x9F
 672              	@ 0 "" 2
 673              	.LVL52:
 674              		.loc 1 114 0
 675 0128 4110A0E3 		mov	r1, #65
 676 012c 0500A0E1 		mov	r0, r5
 677 0130 FEFFFFEB 		bl	chIQPutI
 678              	.LVL53:
 679 0134 0500A0E1 		mov	r0, r5
 680 0138 4210A0E3 		mov	r1, #66
 681 013c FEFFFFEB 		bl	chIQPutI
 682              	.LVL54:
 683 0140 0500A0E1 		mov	r0, r5
 684 0144 4310A0E3 		mov	r1, #67
ARM GAS  C:\Users\NICOMA~1\AppData\Local\Temp\ccFyanKT.s 			page 13


 685 0148 FEFFFFEB 		bl	chIQPutI
 686              	.LVL55:
 687 014c 0500A0E1 		mov	r0, r5
 688 0150 4410A0E3 		mov	r1, #68
 689 0154 FEFFFFEB 		bl	chIQPutI
 690              	.LVL56:
 691              		.loc 1 115 0
 692              	@ 115 "../../test/testqueues.c" 1
 693 0158 1FF021E3 		msr     CPSR_c, #0x1F
 694              	@ 0 "" 2
 695              		.loc 1 118 0
 696 015c E4719FE5 		ldr	r7, .L56+8
 697 0160 0820A0E3 		mov	r2, #8
 698 0164 046097E5 		ldr	r6, [r7, #4]
 699 0168 0430A0E1 		mov	r3, r4
 700 016c 0610A0E1 		mov	r1, r6
 701 0170 0500A0E1 		mov	r0, r5
 702 0174 FEFFFFEB 		bl	chIQReadTimeout
 703              	.LVL57:
 704              		.loc 1 119 0
 705 0178 040050E2 		subs	r0, r0, #4
 706              	.LVL58:
 707 017c 001070E2 		rsbs	r1, r0, #0
 708 0180 0010B1E0 		adcs	r1, r1, r0
 709 0184 0600A0E3 		mov	r0, #6
 710              	.LVL59:
 711 0188 FEFFFFEB 		bl	_test_assert
 712              	.LVL60:
 713 018c 000050E3 		cmp	r0, #0
 714 0190 BFFFFF1A 		bne	.L39
 715              		.loc 1 120 0
 716              	@ 120 "../../test/testqueues.c" 1
 717 0194 9FF021E3 		msr     CPSR_c, #0x9F
 718              	@ 0 "" 2
 719 0198 081095E5 		ldr	r1, [r5, #8]
 720 019c 0700A0E3 		mov	r0, #7
 721 01a0 011071E2 		rsbs	r1, r1, #1
 722 01a4 0010A033 		movcc	r1, #0
 723 01a8 FEFFFFEB 		bl	_test_assert
 724              	.LVL61:
 725              	@ 120 "../../test/testqueues.c" 1
 726 01ac 1FF021E3 		msr     CPSR_c, #0x1F
 727              	@ 0 "" 2
 728 01b0 000050E3 		cmp	r0, #0
 729 01b4 B6FFFF1A 		bne	.L39
 730              		.loc 1 123 0
 731              	@ 123 "../../test/testqueues.c" 1
 732 01b8 9FF021E3 		msr     CPSR_c, #0x9F
 733              	@ 0 "" 2
 734              	.LVL62:
 735              		.loc 1 125 0
 736 01bc 4110A0E3 		mov	r1, #65
 737 01c0 0500A0E1 		mov	r0, r5
 738 01c4 FEFFFFEB 		bl	chIQPutI
 739              	.LVL63:
 740 01c8 0500A0E1 		mov	r0, r5
 741 01cc 4210A0E3 		mov	r1, #66
ARM GAS  C:\Users\NICOMA~1\AppData\Local\Temp\ccFyanKT.s 			page 14


 742 01d0 FEFFFFEB 		bl	chIQPutI
 743              	.LVL64:
 744 01d4 0500A0E1 		mov	r0, r5
 745 01d8 4310A0E3 		mov	r1, #67
 746 01dc FEFFFFEB 		bl	chIQPutI
 747              	.LVL65:
 748 01e0 0500A0E1 		mov	r0, r5
 749 01e4 4410A0E3 		mov	r1, #68
 750 01e8 FEFFFFEB 		bl	chIQPutI
 751              	.LVL66:
 752              		.loc 1 126 0
 753              	@ 126 "../../test/testqueues.c" 1
 754 01ec 1FF021E3 		msr     CPSR_c, #0x1F
 755              	@ 0 "" 2
 756              		.loc 1 129 0
 757 01f0 0220A0E3 		mov	r2, #2
 758 01f4 0610A0E1 		mov	r1, r6
 759 01f8 0430A0E1 		mov	r3, r4
 760 01fc 0500A0E1 		mov	r0, r5
 761 0200 FEFFFFEB 		bl	chIQReadTimeout
 762              	.LVL67:
 763              		.loc 1 130 0
 764 0204 022050E2 		subs	r2, r0, #2
 765 0208 001072E2 		rsbs	r1, r2, #0
 766 020c 0210B1E0 		adcs	r1, r1, r2
 767 0210 0800A0E3 		mov	r0, #8
 768              	.LVL68:
 769 0214 FEFFFFEB 		bl	_test_assert
 770              	.LVL69:
 771 0218 000050E3 		cmp	r0, #0
 772 021c 9CFFFF1A 		bne	.L39
 773              		.loc 1 131 0
 774 0220 0610A0E1 		mov	r1, r6
 775 0224 0220A0E3 		mov	r2, #2
 776 0228 0430A0E1 		mov	r3, r4
 777 022c 0500A0E1 		mov	r0, r5
 778 0230 FEFFFFEB 		bl	chIQReadTimeout
 779              	.LVL70:
 780              		.loc 1 132 0
 781 0234 023050E2 		subs	r3, r0, #2
 782 0238 001073E2 		rsbs	r1, r3, #0
 783 023c 0310B1E0 		adcs	r1, r1, r3
 784 0240 0900A0E3 		mov	r0, #9
 785              	.LVL71:
 786 0244 FEFFFFEB 		bl	_test_assert
 787              	.LVL72:
 788 0248 000050E3 		cmp	r0, #0
 789 024c 90FFFF1A 		bne	.L39
 790              		.loc 1 133 0
 791              	@ 133 "../../test/testqueues.c" 1
 792 0250 9FF021E3 		msr     CPSR_c, #0x9F
 793              	@ 0 "" 2
 794 0254 081095E5 		ldr	r1, [r5, #8]
 795 0258 0A00A0E3 		mov	r0, #10
 796 025c 011071E2 		rsbs	r1, r1, #1
 797 0260 0010A033 		movcc	r1, #0
 798 0264 FEFFFFEB 		bl	_test_assert
ARM GAS  C:\Users\NICOMA~1\AppData\Local\Temp\ccFyanKT.s 			page 15


 799              	.LVL73:
 800              	@ 133 "../../test/testqueues.c" 1
 801 0268 1FF021E3 		msr     CPSR_c, #0x1F
 802              	@ 0 "" 2
 803 026c 000050E3 		cmp	r0, #0
 804 0270 87FFFF1A 		bne	.L39
 805              		.loc 1 136 0
 806              	@ 136 "../../test/testqueues.c" 1
 807 0274 9FF021E3 		msr     CPSR_c, #0x9F
 808              	@ 0 "" 2
 809              		.loc 1 137 0
 810 0278 0410A0E1 		mov	r1, r4
 811 027c 0500A0E1 		mov	r0, r5
 812 0280 FEFFFFEB 		bl	chIQPutI
 813              	.LVL74:
 814              		.loc 1 138 0
 815 0284 0500A0E1 		mov	r0, r5
 816 0288 FEFFFFEB 		bl	chIQResetI
 817              	.LVL75:
 818              		.loc 1 139 0
 819              	@ 139 "../../test/testqueues.c" 1
 820 028c 1FF021E3 		msr     CPSR_c, #0x1F
 821              	@ 0 "" 2
 822              		.loc 1 140 0
 823              	@ 140 "../../test/testqueues.c" 1
 824 0290 9FF021E3 		msr     CPSR_c, #0x9F
 825              	@ 0 "" 2
 826 0294 081095E5 		ldr	r1, [r5, #8]
 827 0298 0B00A0E3 		mov	r0, #11
 828 029c 011071E2 		rsbs	r1, r1, #1
 829 02a0 0010A033 		movcc	r1, #0
 830 02a4 FEFFFFEB 		bl	_test_assert
 831              	.LVL76:
 832              	@ 140 "../../test/testqueues.c" 1
 833 02a8 1FF021E3 		msr     CPSR_c, #0x1F
 834              	@ 0 "" 2
 835 02ac 000050E3 		cmp	r0, #0
 836 02b0 77FFFF1A 		bne	.L39
 837              		.loc 1 141 0
 838 02b4 90309FE5 		ldr	r3, .L56+12
 839 02b8 000097E5 		ldr	r0, [r7, #0]
 840 02bc 183093E5 		ldr	r3, [r3, #24]
 841 02c0 461FA0E3 		mov	r1, #280
 842 02c4 082093E5 		ldr	r2, [r3, #8]
 843 02c8 80309FE5 		ldr	r3, .L56+16
 844 02cc 00408DE5 		str	r4, [sp, #0]
 845 02d0 012082E2 		add	r2, r2, #1
 846 02d4 FEFFFFEB 		bl	chThdCreateStatic
 847              	.LVL77:
 848 02d8 74309FE5 		ldr	r3, .L56+20
 849 02dc 000083E5 		str	r0, [r3, #0]
 850              		.loc 1 142 0
 851              	@ 142 "../../test/testqueues.c" 1
 852 02e0 9FF021E3 		msr     CPSR_c, #0x9F
 853              	@ 0 "" 2
 854 02e4 081095E5 		ldr	r1, [r5, #8]
 855 02e8 0C00A0E3 		mov	r0, #12
ARM GAS  C:\Users\NICOMA~1\AppData\Local\Temp\ccFyanKT.s 			page 16


 856 02ec 011071E2 		rsbs	r1, r1, #1
 857 02f0 0010A033 		movcc	r1, #0
 858 02f4 FEFFFFEB 		bl	_test_assert
 859              	.LVL78:
 860              	@ 142 "../../test/testqueues.c" 1
 861 02f8 1FF021E3 		msr     CPSR_c, #0x1F
 862              	@ 0 "" 2
 863 02fc 000050E3 		cmp	r0, #0
 864 0300 63FFFF1A 		bne	.L39
 865              		.loc 1 143 0
 866 0304 FEFFFFEB 		bl	test_wait_threads
 867              	.LVL79:
 868              		.loc 1 146 0
 869 0308 0A10A0E3 		mov	r1, #10
 870 030c 2C009FE5 		ldr	r0, .L56
 871 0310 FEFFFFEB 		bl	chIQGetTimeout
 872              	.LVL80:
 873 0314 010070E3 		cmn	r0, #1
 874 0318 0010A013 		movne	r1, #0
 875 031c 0110A003 		moveq	r1, #1
 876 0320 0D00A0E3 		mov	r0, #13
 877              	.LBE20:
 878              	.LBE19:
 879              		.loc 1 147 0
 880 0324 0CD08DE2 		add	sp, sp, #12
 881 0328 F040BDE8 		ldmfd	sp!, {r4, r5, r6, r7, lr}
 882              	.LBB22:
 883              	.LBB21:
 884              		.loc 1 146 0
 885 032c FEFFFFEA 		b	_test_assert
 886              	.LVL81:
 887              	.L55:
 888              	.LBE21:
 889              	.LBE22:
 890              		.loc 1 102 0 discriminator 1
 891 0330 081094E5 		ldr	r1, [r4, #8]
 892 0334 001091E2 		adds	r1, r1, #0
 893 0338 0110A013 		movne	r1, #1
 894 033c 4FFFFFEA 		b	.L42
 895              	.L57:
 896              		.align	2
 897              	.L56:
 898 0340 00000000 		.word	.LANCHOR1
 899 0344 00000000 		.word	.LC0
 900 0348 00000000 		.word	wa
 901 034c 00000000 		.word	rlist
 902 0350 00000000 		.word	thread1
 903 0354 00000000 		.word	threads
 904              		.cfi_endproc
 905              	.LFE10:
 906              		.size	queues1_execute, .-queues1_execute
 907              		.global	patternqueues
 908              		.global	testqueues2
 909              		.global	testqueues1
 910              		.section	.rodata.testqueues1,"a",%progbits
 911              		.align	2
 912              		.type	testqueues1, %object
ARM GAS  C:\Users\NICOMA~1\AppData\Local\Temp\ccFyanKT.s 			page 17


 913              		.size	testqueues1, 16
 914              	testqueues1:
 915 0000 20000000 		.word	.LC2
 916 0004 00000000 		.word	queues1_setup
 917 0008 00000000 		.word	0
 918 000c 00000000 		.word	queues1_execute
 919              		.section	.rodata.testqueues2,"a",%progbits
 920              		.align	2
 921              		.type	testqueues2, %object
 922              		.size	testqueues2, 16
 923              	testqueues2:
 924 0000 08000000 		.word	.LC1
 925 0004 00000000 		.word	queues2_setup
 926 0008 00000000 		.word	0
 927 000c 00000000 		.word	queues2_execute
 928              		.section	.rodata.str1.4,"aMS",%progbits,1
 929              		.align	2
 930              	.LC0:
 931 0000 41424344 		.ascii	"ABCD\000"
 931      00
 932 0005 000000   		.space	3
 933              	.LC1:
 934 0008 51756575 		.ascii	"Queues, output queues\000"
 934      65732C20 
 934      6F757470 
 934      75742071 
 934      75657565 
 935 001e 0000     		.space	2
 936              	.LC2:
 937 0020 51756575 		.ascii	"Queues, input queues\000"
 937      65732C20 
 937      696E7075 
 937      74207175 
 937      65756573 
 938 0035 000000   		.section	.rodata.patternqueues,"a",%progbits
 939              		.align	2
 940              		.type	patternqueues, %object
 941              		.size	patternqueues, 12
 942              	patternqueues:
 943 0000 00000000 		.word	testqueues1
 944 0004 00000000 		.word	testqueues2
 945 0008 00000000 		.word	0
 946              		.section	.data.oq,"aw",%progbits
 947              		.align	2
 948              		.set	.LANCHOR0,. + 0
 949              		.type	oq, %object
 950              		.size	oq, 36
 951              	oq:
 952 0000 00000000 		.word	oq
 953 0004 00000000 		.word	oq
 954 0008 04000000 		.word	4
 955 000c 18010000 		.word	test+280
 956 0010 1C010000 		.word	test+284
 957 0014 18010000 		.word	test+280
 958 0018 18010000 		.word	test+280
 959 001c 00000000 		.word	notify
 960 0020 00000000 		.word	0
ARM GAS  C:\Users\NICOMA~1\AppData\Local\Temp\ccFyanKT.s 			page 18


 961              		.section	.data.iq,"aw",%progbits
 962              		.align	2
 963              		.set	.LANCHOR1,. + 0
 964              		.type	iq, %object
 965              		.size	iq, 36
 966              	iq:
 967 0000 00000000 		.word	iq
 968 0004 00000000 		.word	iq
 969 0008 00000000 		.word	0
 970 000c 00000000 		.word	test
 971 0010 04000000 		.word	test+4
 972 0014 00000000 		.word	test
 973 0018 00000000 		.word	test
 974 001c 00000000 		.word	notify
 975 0020 00000000 		.word	0
 976              		.text
 977              	.Letext0:
 978              		.file 2 "c:\\yagarto-20121222\\bin\\../lib/gcc/arm-none-eabi/4.7.2/include/stddef.h"
 979              		.file 3 "c:/yagarto-20121222/lib/gcc/../../arm-none-eabi/sys-include/stdint.h"
 980              		.file 4 "../../os/ports/GCC/ARM/chtypes.h"
 981              		.file 5 "../../os/kernel/include/chlists.h"
 982              		.file 6 "../../os/kernel/include/chthreads.h"
 983              		.file 7 "../../os/ports/GCC/ARM/chcore.h"
 984              		.file 8 "../../os/kernel/include/chschd.h"
 985              		.file 9 "../../os/kernel/include/chmtx.h"
 986              		.file 10 "../../os/kernel/include/chqueues.h"
 987              		.file 11 "../../test/test.h"