ARM GAS  C:\Users\NICOMA~1\AppData\Local\Temp\ccO3Bz3q.s 			page 1


   1              		.cpu arm1176jz-s
   2              		.fpu softvfp
   3              		.eabi_attribute 20, 1
   4              		.eabi_attribute 21, 1
   5              		.eabi_attribute 23, 3
   6              		.eabi_attribute 24, 1
   7              		.eabi_attribute 25, 1
   8              		.eabi_attribute 26, 1
   9              		.eabi_attribute 30, 2
  10              		.eabi_attribute 34, 1
  11              		.eabi_attribute 18, 4
  12              		.file	"testmbox.c"
  13              		.text
  14              	.Ltext0:
  15              		.cfi_sections	.debug_frame
  16              		.section	.text.mbox1_execute,"ax",%progbits
  17              		.align	2
  18              		.type	mbox1_execute, %function
  19              	mbox1_execute:
  20              	.LFB8:
  21              		.file 1 "../../test/testmbox.c"
  22              		.loc 1 76 0
  23              		.cfi_startproc
  24              		@ args = 0, pretend = 0, frame = 8
  25              		@ frame_needed = 0, uses_anonymous_args = 0
  26 0000 70402DE9 		stmfd	sp!, {r4, r5, r6, lr}
  27              	.LCFI0:
  28              		.cfi_def_cfa_offset 16
  29              		.cfi_offset 4, -16
  30              		.cfi_offset 5, -12
  31              		.cfi_offset 6, -8
  32              		.cfi_offset 14, -4
  33              		.loc 1 83 0
  34 0004 A0679FE5 		ldr	r6, .L31
  35              		.loc 1 76 0
  36 0008 08D04DE2 		sub	sp, sp, #8
  37              	.LCFI1:
  38              		.cfi_def_cfa_offset 24
  39              		.loc 1 83 0
  40 000c 241096E5 		ldr	r1, [r6, #36]
  41 0010 0100A0E3 		mov	r0, #1
  42 0014 05E051E2 		subs	lr, r1, #5
  43 0018 00107EE2 		rsbs	r1, lr, #0
  44 001c 0E10B1E0 		adcs	r1, r1, lr
  45 0020 FEFFFFEB 		bl	_test_assert
  46              	.LVL0:
  47 0024 000050E3 		cmp	r0, #0
  48 0028 1800001A 		bne	.L1
  49 002c 4240A0E3 		mov	r4, #66
  50              	.L3:
  51              		.loc 1 89 0
  52 0030 74579FE5 		ldr	r5, .L31
  53 0034 0410A0E1 		mov	r1, r4
  54 0038 0020E0E3 		mvn	r2, #0
  55 003c 0500A0E1 		mov	r0, r5
  56 0040 FEFFFFEB 		bl	chMBPost
  57              	.LVL1:
ARM GAS  C:\Users\NICOMA~1\AppData\Local\Temp\ccO3Bz3q.s 			page 2


  58              		.loc 1 90 0
  59 0044 011070E2 		rsbs	r1, r0, #1
  60 0048 0010A033 		movcc	r1, #0
  61 004c 0200A0E3 		mov	r0, #2
  62              	.LVL2:
  63 0050 FEFFFFEB 		bl	_test_assert
  64              	.LVL3:
  65 0054 000050E3 		cmp	r0, #0
  66 0058 014084E2 		add	r4, r4, #1
  67 005c 0B00001A 		bne	.L1
  68              		.loc 1 88 0
  69 0060 460054E3 		cmp	r4, #70
  70 0064 F1FFFF1A 		bne	.L3
  71              		.loc 1 92 0
  72 0068 4110A0E3 		mov	r1, #65
  73 006c 0020E0E3 		mvn	r2, #0
  74 0070 0500A0E1 		mov	r0, r5
  75 0074 FEFFFFEB 		bl	chMBPostAhead
  76              	.LVL4:
  77              		.loc 1 93 0
  78 0078 011070E2 		rsbs	r1, r0, #1
  79 007c 0010A033 		movcc	r1, #0
  80 0080 0300A0E3 		mov	r0, #3
  81              	.LVL5:
  82 0084 FEFFFFEB 		bl	_test_assert
  83              	.LVL6:
  84 0088 000050E3 		cmp	r0, #0
  85 008c 0100000A 		beq	.L28
  86              	.LVL7:
  87              	.L1:
  88              		.loc 1 220 0
  89 0090 08D08DE2 		add	sp, sp, #8
  90 0094 7080BDE8 		ldmfd	sp!, {r4, r5, r6, pc}
  91              	.L28:
  92              		.loc 1 98 0
  93 0098 5810A0E3 		mov	r1, #88
  94 009c 0120A0E3 		mov	r2, #1
  95 00a0 0500A0E1 		mov	r0, r5
  96 00a4 FEFFFFEB 		bl	chMBPost
  97              	.LVL8:
  98              		.loc 1 99 0
  99 00a8 010070E3 		cmn	r0, #1
 100 00ac 0010A013 		movne	r1, #0
 101 00b0 0110A003 		moveq	r1, #1
 102 00b4 0400A0E3 		mov	r0, #4
 103              	.LVL9:
 104 00b8 FEFFFFEB 		bl	_test_assert
 105              	.LVL10:
 106 00bc 000050E3 		cmp	r0, #0
 107 00c0 F2FFFF1A 		bne	.L1
 108              		.loc 1 100 0
 109              	@ 100 "../../test/testmbox.c" 1
 110 00c4 9FF021E3 		msr     CPSR_c, #0x9F
 111              	@ 0 "" 2
 112              		.loc 1 101 0
 113 00c8 5810A0E3 		mov	r1, #88
 114 00cc 0500A0E1 		mov	r0, r5
ARM GAS  C:\Users\NICOMA~1\AppData\Local\Temp\ccO3Bz3q.s 			page 3


 115 00d0 FEFFFFEB 		bl	chMBPostI
 116              	.LVL11:
 117 00d4 0010A0E1 		mov	r1, r0
 118              	.LVL12:
 119              		.loc 1 102 0
 120              	@ 102 "../../test/testmbox.c" 1
 121 00d8 1FF021E3 		msr     CPSR_c, #0x1F
 122              	@ 0 "" 2
 123              		.loc 1 103 0
 124 00dc 010071E3 		cmn	r1, #1
 125 00e0 0010A013 		movne	r1, #0
 126 00e4 0110A003 		moveq	r1, #1
 127 00e8 0500A0E3 		mov	r0, #5
 128              	.LVL13:
 129 00ec FEFFFFEB 		bl	_test_assert
 130              	.LVL14:
 131 00f0 000050E3 		cmp	r0, #0
 132 00f4 E5FFFF1A 		bne	.L1
 133              		.loc 1 104 0
 134 00f8 5810A0E3 		mov	r1, #88
 135 00fc 0120A0E3 		mov	r2, #1
 136 0100 0500A0E1 		mov	r0, r5
 137 0104 FEFFFFEB 		bl	chMBPostAhead
 138              	.LVL15:
 139              		.loc 1 105 0
 140 0108 010070E3 		cmn	r0, #1
 141 010c 0010A013 		movne	r1, #0
 142 0110 0110A003 		moveq	r1, #1
 143 0114 0600A0E3 		mov	r0, #6
 144              	.LVL16:
 145 0118 FEFFFFEB 		bl	_test_assert
 146              	.LVL17:
 147 011c 000050E3 		cmp	r0, #0
 148 0120 DAFFFF1A 		bne	.L1
 149              		.loc 1 106 0
 150              	@ 106 "../../test/testmbox.c" 1
 151 0124 9FF021E3 		msr     CPSR_c, #0x9F
 152              	@ 0 "" 2
 153              		.loc 1 107 0
 154 0128 5810A0E3 		mov	r1, #88
 155 012c 0500A0E1 		mov	r0, r5
 156 0130 FEFFFFEB 		bl	chMBPostAheadI
 157              	.LVL18:
 158 0134 0010A0E1 		mov	r1, r0
 159              	.LVL19:
 160              		.loc 1 108 0
 161              	@ 108 "../../test/testmbox.c" 1
 162 0138 1FF021E3 		msr     CPSR_c, #0x1F
 163              	@ 0 "" 2
 164              		.loc 1 109 0
 165 013c 010071E3 		cmn	r1, #1
 166 0140 0010A013 		movne	r1, #0
 167 0144 0110A003 		moveq	r1, #1
 168 0148 0700A0E3 		mov	r0, #7
 169              	.LVL20:
 170 014c FEFFFFEB 		bl	_test_assert
 171              	.LVL21:
ARM GAS  C:\Users\NICOMA~1\AppData\Local\Temp\ccO3Bz3q.s 			page 4


 172 0150 000050E3 		cmp	r0, #0
 173 0154 CDFFFF1A 		bne	.L1
 174              		.loc 1 114 0
 175              	@ 114 "../../test/testmbox.c" 1
 176 0158 9FF021E3 		msr     CPSR_c, #0x9F
 177              	@ 0 "" 2
 178 015c 241095E5 		ldr	r1, [r5, #36]
 179 0160 0800A0E3 		mov	r0, #8
 180 0164 011071E2 		rsbs	r1, r1, #1
 181 0168 0010A033 		movcc	r1, #0
 182 016c FEFFFFEB 		bl	_test_assert
 183              	.LVL22:
 184              	@ 114 "../../test/testmbox.c" 1
 185 0170 1FF021E3 		msr     CPSR_c, #0x1F
 186              	@ 0 "" 2
 187 0174 000050E3 		cmp	r0, #0
 188 0178 C4FFFF1A 		bne	.L1
 189              		.loc 1 115 0 discriminator 2
 190              	@ 115 "../../test/testmbox.c" 1
 191 017c 9FF021E3 		msr     CPSR_c, #0x9F
 192              	@ 0 "" 2
 193 0180 181095E5 		ldr	r1, [r5, #24]
 194 0184 0900A0E3 		mov	r0, #9
 195 0188 05C051E2 		subs	ip, r1, #5
 196 018c 00107CE2 		rsbs	r1, ip, #0
 197 0190 0C10B1E0 		adcs	r1, r1, ip
 198 0194 FEFFFFEB 		bl	_test_assert
 199              	.LVL23:
 200              	@ 115 "../../test/testmbox.c" 1
 201 0198 1FF021E3 		msr     CPSR_c, #0x1F
 202              	@ 0 "" 2
 203 019c 000050E3 		cmp	r0, #0
 204 01a0 BAFFFF1A 		bne	.L1
 205              		.loc 1 116 0 discriminator 2
 206              	@ 116 "../../test/testmbox.c" 1
 207 01a4 9FF021E3 		msr     CPSR_c, #0x9F
 208              	@ 0 "" 2
 209 01a8 0C1095E5 		ldr	r1, [r5, #12]
 210 01ac 083095E5 		ldr	r3, [r5, #8]
 211 01b0 0A00A0E3 		mov	r0, #10
 212 01b4 032051E0 		subs	r2, r1, r3
 213 01b8 001072E2 		rsbs	r1, r2, #0
 214 01bc 0210B1E0 		adcs	r1, r1, r2
 215 01c0 FEFFFFEB 		bl	_test_assert
 216              	.LVL24:
 217              	@ 116 "../../test/testmbox.c" 1
 218 01c4 1FF021E3 		msr     CPSR_c, #0x1F
 219              	@ 0 "" 2
 220 01c8 000050E3 		cmp	r0, #0
 221 01cc AFFFFF1A 		bne	.L1
 222              	.LVL25:
 223 01d0 0550A0E3 		mov	r5, #5
 224 01d4 030000EA 		b	.L8
 225              	.LVL26:
 226              	.L30:
 227              		.loc 1 124 0
 228 01d8 0400DDE5 		ldrb	r0, [sp, #4]	@ zero_extendqisi2
ARM GAS  C:\Users\NICOMA~1\AppData\Local\Temp\ccO3Bz3q.s 			page 5


 229 01dc FEFFFFEB 		bl	test_emit_token
 230              	.LVL27:
 231              		.loc 1 121 0
 232 01e0 015055E2 		subs	r5, r5, #1
 233 01e4 0B00000A 		beq	.L29
 234              	.L8:
 235              		.loc 1 122 0
 236 01e8 BC459FE5 		ldr	r4, .L31
 237 01ec 0020E0E3 		mvn	r2, #0
 238 01f0 04108DE2 		add	r1, sp, #4
 239 01f4 0400A0E1 		mov	r0, r4
 240 01f8 FEFFFFEB 		bl	chMBFetch
 241              	.LVL28:
 242              		.loc 1 123 0
 243 01fc 011070E2 		rsbs	r1, r0, #1
 244 0200 0010A033 		movcc	r1, #0
 245 0204 0B00A0E3 		mov	r0, #11
 246              	.LVL29:
 247 0208 FEFFFFEB 		bl	_test_assert
 248              	.LVL30:
 249 020c 000050E3 		cmp	r0, #0
 250 0210 F0FFFF0A 		beq	.L30
 251 0214 9DFFFFEA 		b	.L1
 252              	.L29:
 253              		.loc 1 126 0
 254 0218 0C00A0E3 		mov	r0, #12
 255 021c 8C159FE5 		ldr	r1, .L31+4
 256 0220 FEFFFFEB 		bl	_test_assert_sequence
 257              	.LVL31:
 258 0224 000050E3 		cmp	r0, #0
 259 0228 98FFFF1A 		bne	.L1
 260              		.loc 1 131 0
 261 022c 4710A0E3 		mov	r1, #71
 262 0230 0020E0E3 		mvn	r2, #0
 263 0234 0400A0E1 		mov	r0, r4
 264 0238 FEFFFFEB 		bl	chMBPost
 265              	.LVL32:
 266              		.loc 1 132 0
 267 023c 011070E2 		rsbs	r1, r0, #1
 268 0240 0010A033 		movcc	r1, #0
 269 0244 0D00A0E3 		mov	r0, #13
 270              	.LVL33:
 271 0248 FEFFFFEB 		bl	_test_assert
 272              	.LVL34:
 273 024c 000050E3 		cmp	r0, #0
 274 0250 8EFFFF1A 		bne	.L1
 275              		.loc 1 133 0
 276 0254 04108DE2 		add	r1, sp, #4
 277 0258 0020E0E3 		mvn	r2, #0
 278 025c 0400A0E1 		mov	r0, r4
 279 0260 FEFFFFEB 		bl	chMBFetch
 280              	.LVL35:
 281              		.loc 1 134 0
 282 0264 011070E2 		rsbs	r1, r0, #1
 283 0268 0010A033 		movcc	r1, #0
 284 026c 0E00A0E3 		mov	r0, #14
 285              	.LVL36:
ARM GAS  C:\Users\NICOMA~1\AppData\Local\Temp\ccO3Bz3q.s 			page 6


 286 0270 FEFFFFEB 		bl	_test_assert
 287              	.LVL37:
 288 0274 000050E3 		cmp	r0, #0
 289 0278 84FFFF1A 		bne	.L1
 290              		.loc 1 135 0
 291 027c 001094E5 		ldr	r1, [r4, #0]
 292 0280 083094E5 		ldr	r3, [r4, #8]
 293 0284 0F00A0E3 		mov	r0, #15
 294 0288 033051E0 		subs	r3, r1, r3
 295 028c 001073E2 		rsbs	r1, r3, #0
 296 0290 0310B1E0 		adcs	r1, r1, r3
 297 0294 FEFFFFEB 		bl	_test_assert
 298              	.LVL38:
 299 0298 000050E3 		cmp	r0, #0
 300 029c 7BFFFF1A 		bne	.L1
 301              		.loc 1 136 0
 302 02a0 001094E5 		ldr	r1, [r4, #0]
 303 02a4 0C3094E5 		ldr	r3, [r4, #12]
 304 02a8 1000A0E3 		mov	r0, #16
 305 02ac 03E051E0 		subs	lr, r1, r3
 306 02b0 00107EE2 		rsbs	r1, lr, #0
 307 02b4 0E10B1E0 		adcs	r1, r1, lr
 308 02b8 FEFFFFEB 		bl	_test_assert
 309              	.LVL39:
 310 02bc 000050E3 		cmp	r0, #0
 311 02c0 72FFFF1A 		bne	.L1
 312              		.loc 1 141 0
 313 02c4 04108DE2 		add	r1, sp, #4
 314 02c8 0120A0E3 		mov	r2, #1
 315 02cc 0400A0E1 		mov	r0, r4
 316 02d0 FEFFFFEB 		bl	chMBFetch
 317              	.LVL40:
 318              		.loc 1 142 0
 319 02d4 010070E3 		cmn	r0, #1
 320 02d8 0010A013 		movne	r1, #0
 321 02dc 0110A003 		moveq	r1, #1
 322 02e0 1100A0E3 		mov	r0, #17
 323              	.LVL41:
 324 02e4 FEFFFFEB 		bl	_test_assert
 325              	.LVL42:
 326 02e8 000050E3 		cmp	r0, #0
 327 02ec 67FFFF1A 		bne	.L1
 328              		.loc 1 143 0
 329              	@ 143 "../../test/testmbox.c" 1
 330 02f0 9FF021E3 		msr     CPSR_c, #0x9F
 331              	@ 0 "" 2
 332              		.loc 1 144 0
 333 02f4 04108DE2 		add	r1, sp, #4
 334 02f8 0400A0E1 		mov	r0, r4
 335 02fc FEFFFFEB 		bl	chMBFetchI
 336              	.LVL43:
 337 0300 0010A0E1 		mov	r1, r0
 338              	.LVL44:
 339              		.loc 1 145 0
 340              	@ 145 "../../test/testmbox.c" 1
 341 0304 1FF021E3 		msr     CPSR_c, #0x1F
 342              	@ 0 "" 2
ARM GAS  C:\Users\NICOMA~1\AppData\Local\Temp\ccO3Bz3q.s 			page 7


 343              		.loc 1 146 0
 344 0308 010071E3 		cmn	r1, #1
 345 030c 0010A013 		movne	r1, #0
 346 0310 0110A003 		moveq	r1, #1
 347 0314 1200A0E3 		mov	r0, #18
 348              	.LVL45:
 349 0318 FEFFFFEB 		bl	_test_assert
 350              	.LVL46:
 351 031c 000050E3 		cmp	r0, #0
 352 0320 5AFFFF1A 		bne	.L1
 353              		.loc 1 151 0
 354              	@ 151 "../../test/testmbox.c" 1
 355 0324 9FF021E3 		msr     CPSR_c, #0x9F
 356              	@ 0 "" 2
 357 0328 241094E5 		ldr	r1, [r4, #36]
 358 032c 1300A0E3 		mov	r0, #19
 359 0330 05C051E2 		subs	ip, r1, #5
 360 0334 00107CE2 		rsbs	r1, ip, #0
 361 0338 0C10B1E0 		adcs	r1, r1, ip
 362 033c FEFFFFEB 		bl	_test_assert
 363              	.LVL47:
 364              	@ 151 "../../test/testmbox.c" 1
 365 0340 1FF021E3 		msr     CPSR_c, #0x1F
 366              	@ 0 "" 2
 367 0344 000050E3 		cmp	r0, #0
 368 0348 50FFFF1A 		bne	.L1
 369              		.loc 1 152 0 discriminator 2
 370              	@ 152 "../../test/testmbox.c" 1
 371 034c 9FF021E3 		msr     CPSR_c, #0x9F
 372              	@ 0 "" 2
 373 0350 181096E5 		ldr	r1, [r6, #24]
 374 0354 1400A0E3 		mov	r0, #20
 375 0358 011071E2 		rsbs	r1, r1, #1
 376 035c 0010A033 		movcc	r1, #0
 377 0360 FEFFFFEB 		bl	_test_assert
 378              	.LVL48:
 379              	@ 152 "../../test/testmbox.c" 1
 380 0364 1FF021E3 		msr     CPSR_c, #0x1F
 381              	@ 0 "" 2
 382 0368 000050E3 		cmp	r0, #0
 383 036c 38449FE5 		ldr	r4, .L31
 384 0370 46FFFF1A 		bne	.L1
 385              		.loc 1 153 0 discriminator 2
 386              	@ 153 "../../test/testmbox.c" 1
 387 0374 9FF021E3 		msr     CPSR_c, #0x9F
 388              	@ 0 "" 2
 389 0378 0C1094E5 		ldr	r1, [r4, #12]
 390 037c 083094E5 		ldr	r3, [r4, #8]
 391 0380 1500A0E3 		mov	r0, #21
 392 0384 032051E0 		subs	r2, r1, r3
 393 0388 001072E2 		rsbs	r1, r2, #0
 394 038c 0210B1E0 		adcs	r1, r1, r2
 395 0390 FEFFFFEB 		bl	_test_assert
 396              	.LVL49:
 397              	@ 153 "../../test/testmbox.c" 1
 398 0394 1FF021E3 		msr     CPSR_c, #0x1F
 399              	@ 0 "" 2
ARM GAS  C:\Users\NICOMA~1\AppData\Local\Temp\ccO3Bz3q.s 			page 8


 400 0398 000050E3 		cmp	r0, #0
 401 039c 3BFFFF1A 		bne	.L1
 402              		.loc 1 158 0 discriminator 2
 403              	@ 158 "../../test/testmbox.c" 1
 404 03a0 9FF021E3 		msr     CPSR_c, #0x9F
 405              	@ 0 "" 2
 406              		.loc 1 159 0 discriminator 2
 407 03a4 4110A0E3 		mov	r1, #65
 408 03a8 0400A0E1 		mov	r0, r4
 409 03ac FEFFFFEB 		bl	chMBPostI
 410              	.LVL50:
 411              		.loc 1 160 0 discriminator 2
 412 03b0 011070E2 		rsbs	r1, r0, #1
 413 03b4 0010A033 		movcc	r1, #0
 414 03b8 1600A0E3 		mov	r0, #22
 415              	.LVL51:
 416 03bc FEFFFFEB 		bl	_test_assert
 417              	.LVL52:
 418 03c0 000050E3 		cmp	r0, #0
 419 03c4 31FFFF1A 		bne	.L1
 420              		.loc 1 161 0
 421 03c8 4210A0E3 		mov	r1, #66
 422 03cc 0400A0E1 		mov	r0, r4
 423 03d0 FEFFFFEB 		bl	chMBPostI
 424              	.LVL53:
 425              		.loc 1 162 0
 426 03d4 011070E2 		rsbs	r1, r0, #1
 427 03d8 0010A033 		movcc	r1, #0
 428 03dc 1700A0E3 		mov	r0, #23
 429              	.LVL54:
 430 03e0 FEFFFFEB 		bl	_test_assert
 431              	.LVL55:
 432 03e4 000050E3 		cmp	r0, #0
 433 03e8 28FFFF1A 		bne	.L1
 434              		.loc 1 163 0
 435 03ec 4310A0E3 		mov	r1, #67
 436 03f0 0400A0E1 		mov	r0, r4
 437 03f4 FEFFFFEB 		bl	chMBPostI
 438              	.LVL56:
 439              		.loc 1 164 0
 440 03f8 011070E2 		rsbs	r1, r0, #1
 441 03fc 0010A033 		movcc	r1, #0
 442 0400 1800A0E3 		mov	r0, #24
 443              	.LVL57:
 444 0404 FEFFFFEB 		bl	_test_assert
 445              	.LVL58:
 446 0408 000050E3 		cmp	r0, #0
 447 040c 1FFFFF1A 		bne	.L1
 448              		.loc 1 165 0
 449 0410 4410A0E3 		mov	r1, #68
 450 0414 0400A0E1 		mov	r0, r4
 451 0418 FEFFFFEB 		bl	chMBPostI
 452              	.LVL59:
 453              		.loc 1 166 0
 454 041c 011070E2 		rsbs	r1, r0, #1
 455 0420 0010A033 		movcc	r1, #0
 456 0424 1900A0E3 		mov	r0, #25
ARM GAS  C:\Users\NICOMA~1\AppData\Local\Temp\ccO3Bz3q.s 			page 9


 457              	.LVL60:
 458 0428 FEFFFFEB 		bl	_test_assert
 459              	.LVL61:
 460 042c 000050E3 		cmp	r0, #0
 461 0430 16FFFF1A 		bne	.L1
 462              		.loc 1 167 0
 463 0434 0400A0E1 		mov	r0, r4
 464 0438 4510A0E3 		mov	r1, #69
 465 043c FEFFFFEB 		bl	chMBPostI
 466              	.LVL62:
 467 0440 0010A0E1 		mov	r1, r0
 468              	.LVL63:
 469              		.loc 1 168 0
 470              	@ 168 "../../test/testmbox.c" 1
 471 0444 1FF021E3 		msr     CPSR_c, #0x1F
 472              	@ 0 "" 2
 473              		.loc 1 169 0
 474 0448 011071E2 		rsbs	r1, r1, #1
 475 044c 0010A033 		movcc	r1, #0
 476 0450 1A00A0E3 		mov	r0, #26
 477              	.LVL64:
 478 0454 FEFFFFEB 		bl	_test_assert
 479              	.LVL65:
 480 0458 000050E3 		cmp	r0, #0
 481 045c 0BFFFF1A 		bne	.L1
 482              		.loc 1 170 0
 483 0460 0C1094E5 		ldr	r1, [r4, #12]
 484 0464 083094E5 		ldr	r3, [r4, #8]
 485 0468 1B00A0E3 		mov	r0, #27
 486 046c 033051E0 		subs	r3, r1, r3
 487 0470 001073E2 		rsbs	r1, r3, #0
 488 0474 0310B1E0 		adcs	r1, r1, r3
 489 0478 FEFFFFEB 		bl	_test_assert
 490              	.LVL66:
 491 047c 000050E3 		cmp	r0, #0
 492 0480 02FFFF1A 		bne	.L1
 493 0484 0550A0E3 		mov	r5, #5
 494              	.L12:
 495              		.loc 1 172 0
 496              	@ 172 "../../test/testmbox.c" 1
 497 0488 9FF021E3 		msr     CPSR_c, #0x9F
 498              	@ 0 "" 2
 499              		.loc 1 173 0
 500 048c 18439FE5 		ldr	r4, .L31
 501 0490 04108DE2 		add	r1, sp, #4
 502 0494 0400A0E1 		mov	r0, r4
 503 0498 FEFFFFEB 		bl	chMBFetchI
 504              	.LVL67:
 505 049c 0010A0E1 		mov	r1, r0
 506              	.LVL68:
 507              		.loc 1 174 0
 508              	@ 174 "../../test/testmbox.c" 1
 509 04a0 1FF021E3 		msr     CPSR_c, #0x1F
 510              	@ 0 "" 2
 511              		.loc 1 175 0
 512 04a4 011071E2 		rsbs	r1, r1, #1
 513 04a8 0010A033 		movcc	r1, #0
ARM GAS  C:\Users\NICOMA~1\AppData\Local\Temp\ccO3Bz3q.s 			page 10


 514 04ac 1C00A0E3 		mov	r0, #28
 515              	.LVL69:
 516 04b0 FEFFFFEB 		bl	_test_assert
 517              	.LVL70:
 518 04b4 000050E3 		cmp	r0, #0
 519 04b8 F4FEFF1A 		bne	.L1
 520              		.loc 1 176 0
 521 04bc 0400DDE5 		ldrb	r0, [sp, #4]	@ zero_extendqisi2
 522 04c0 FEFFFFEB 		bl	test_emit_token
 523              	.LVL71:
 524              		.loc 1 171 0
 525 04c4 015055E2 		subs	r5, r5, #1
 526 04c8 EEFFFF1A 		bne	.L12
 527              		.loc 1 178 0
 528 04cc 1D00A0E3 		mov	r0, #29
 529 04d0 D8129FE5 		ldr	r1, .L31+4
 530 04d4 FEFFFFEB 		bl	_test_assert_sequence
 531              	.LVL72:
 532 04d8 000050E3 		cmp	r0, #0
 533 04dc EBFEFF1A 		bne	.L1
 534              		.loc 1 179 0
 535              	@ 179 "../../test/testmbox.c" 1
 536 04e0 9FF021E3 		msr     CPSR_c, #0x9F
 537              	@ 0 "" 2
 538 04e4 241094E5 		ldr	r1, [r4, #36]
 539 04e8 1E00A0E3 		mov	r0, #30
 540 04ec 05E051E2 		subs	lr, r1, #5
 541 04f0 00107EE2 		rsbs	r1, lr, #0
 542 04f4 0E10B1E0 		adcs	r1, r1, lr
 543 04f8 FEFFFFEB 		bl	_test_assert
 544              	.LVL73:
 545              	@ 179 "../../test/testmbox.c" 1
 546 04fc 1FF021E3 		msr     CPSR_c, #0x1F
 547              	@ 0 "" 2
 548 0500 000050E3 		cmp	r0, #0
 549 0504 E1FEFF1A 		bne	.L1
 550              		.loc 1 180 0 discriminator 2
 551              	@ 180 "../../test/testmbox.c" 1
 552 0508 9FF021E3 		msr     CPSR_c, #0x9F
 553              	@ 0 "" 2
 554 050c 181094E5 		ldr	r1, [r4, #24]
 555 0510 1F00A0E3 		mov	r0, #31
 556 0514 011071E2 		rsbs	r1, r1, #1
 557 0518 0010A033 		movcc	r1, #0
 558 051c FEFFFFEB 		bl	_test_assert
 559              	.LVL74:
 560              	@ 180 "../../test/testmbox.c" 1
 561 0520 1FF021E3 		msr     CPSR_c, #0x1F
 562              	@ 0 "" 2
 563 0524 000050E3 		cmp	r0, #0
 564 0528 D8FEFF1A 		bne	.L1
 565              		.loc 1 181 0 discriminator 2
 566 052c 0C1094E5 		ldr	r1, [r4, #12]
 567 0530 083094E5 		ldr	r3, [r4, #8]
 568 0534 2000A0E3 		mov	r0, #32
 569 0538 03C051E0 		subs	ip, r1, r3
 570 053c 00107CE2 		rsbs	r1, ip, #0
ARM GAS  C:\Users\NICOMA~1\AppData\Local\Temp\ccO3Bz3q.s 			page 11


 571 0540 0C10B1E0 		adcs	r1, r1, ip
 572 0544 FEFFFFEB 		bl	_test_assert
 573              	.LVL75:
 574 0548 000050E3 		cmp	r0, #0
 575 054c CFFEFF1A 		bne	.L1
 576              		.loc 1 183 0
 577              	@ 183 "../../test/testmbox.c" 1
 578 0550 9FF021E3 		msr     CPSR_c, #0x9F
 579              	@ 0 "" 2
 580              		.loc 1 184 0
 581 0554 4510A0E3 		mov	r1, #69
 582 0558 0400A0E1 		mov	r0, r4
 583 055c FEFFFFEB 		bl	chMBPostAheadI
 584              	.LVL76:
 585              		.loc 1 185 0
 586 0560 011070E2 		rsbs	r1, r0, #1
 587 0564 0010A033 		movcc	r1, #0
 588 0568 2100A0E3 		mov	r0, #33
 589              	.LVL77:
 590 056c FEFFFFEB 		bl	_test_assert
 591              	.LVL78:
 592 0570 000050E3 		cmp	r0, #0
 593 0574 C5FEFF1A 		bne	.L1
 594              		.loc 1 186 0
 595 0578 4410A0E3 		mov	r1, #68
 596 057c 0400A0E1 		mov	r0, r4
 597 0580 FEFFFFEB 		bl	chMBPostAheadI
 598              	.LVL79:
 599              		.loc 1 187 0
 600 0584 011070E2 		rsbs	r1, r0, #1
 601 0588 0010A033 		movcc	r1, #0
 602 058c 2200A0E3 		mov	r0, #34
 603              	.LVL80:
 604 0590 FEFFFFEB 		bl	_test_assert
 605              	.LVL81:
 606 0594 000050E3 		cmp	r0, #0
 607 0598 BCFEFF1A 		bne	.L1
 608              		.loc 1 188 0
 609 059c 4310A0E3 		mov	r1, #67
 610 05a0 0400A0E1 		mov	r0, r4
 611 05a4 FEFFFFEB 		bl	chMBPostAheadI
 612              	.LVL82:
 613              		.loc 1 189 0
 614 05a8 011070E2 		rsbs	r1, r0, #1
 615 05ac 0010A033 		movcc	r1, #0
 616 05b0 2300A0E3 		mov	r0, #35
 617              	.LVL83:
 618 05b4 FEFFFFEB 		bl	_test_assert
 619              	.LVL84:
 620 05b8 000050E3 		cmp	r0, #0
 621 05bc B3FEFF1A 		bne	.L1
 622              		.loc 1 190 0
 623 05c0 4210A0E3 		mov	r1, #66
 624 05c4 0400A0E1 		mov	r0, r4
 625 05c8 FEFFFFEB 		bl	chMBPostAheadI
 626              	.LVL85:
 627              		.loc 1 191 0
ARM GAS  C:\Users\NICOMA~1\AppData\Local\Temp\ccO3Bz3q.s 			page 12


 628 05cc 011070E2 		rsbs	r1, r0, #1
 629 05d0 0010A033 		movcc	r1, #0
 630 05d4 2400A0E3 		mov	r0, #36
 631              	.LVL86:
 632 05d8 FEFFFFEB 		bl	_test_assert
 633              	.LVL87:
 634 05dc 000050E3 		cmp	r0, #0
 635 05e0 AAFEFF1A 		bne	.L1
 636              		.loc 1 192 0
 637 05e4 C0419FE5 		ldr	r4, .L31
 638 05e8 4110A0E3 		mov	r1, #65
 639 05ec 0400A0E1 		mov	r0, r4
 640 05f0 FEFFFFEB 		bl	chMBPostAheadI
 641              	.LVL88:
 642 05f4 0010A0E1 		mov	r1, r0
 643              	.LVL89:
 644              		.loc 1 193 0
 645              	@ 193 "../../test/testmbox.c" 1
 646 05f8 1FF021E3 		msr     CPSR_c, #0x1F
 647              	@ 0 "" 2
 648              		.loc 1 194 0
 649 05fc 011071E2 		rsbs	r1, r1, #1
 650 0600 0010A033 		movcc	r1, #0
 651 0604 2500A0E3 		mov	r0, #37
 652              	.LVL90:
 653 0608 FEFFFFEB 		bl	_test_assert
 654              	.LVL91:
 655 060c 000050E3 		cmp	r0, #0
 656 0610 9EFEFF1A 		bne	.L1
 657              		.loc 1 195 0
 658 0614 0C1094E5 		ldr	r1, [r4, #12]
 659 0618 083094E5 		ldr	r3, [r4, #8]
 660 061c 2600A0E3 		mov	r0, #38
 661 0620 032051E0 		subs	r2, r1, r3
 662 0624 001072E2 		rsbs	r1, r2, #0
 663 0628 0210B1E0 		adcs	r1, r1, r2
 664 062c FEFFFFEB 		bl	_test_assert
 665              	.LVL92:
 666 0630 000050E3 		cmp	r0, #0
 667 0634 95FEFF1A 		bne	.L1
 668 0638 0550A0E3 		mov	r5, #5
 669              	.L15:
 670              		.loc 1 197 0
 671              	@ 197 "../../test/testmbox.c" 1
 672 063c 9FF021E3 		msr     CPSR_c, #0x9F
 673              	@ 0 "" 2
 674              		.loc 1 198 0
 675 0640 64419FE5 		ldr	r4, .L31
 676 0644 04108DE2 		add	r1, sp, #4
 677 0648 0400A0E1 		mov	r0, r4
 678 064c FEFFFFEB 		bl	chMBFetchI
 679              	.LVL93:
 680 0650 0010A0E1 		mov	r1, r0
 681              	.LVL94:
 682              		.loc 1 199 0
 683              	@ 199 "../../test/testmbox.c" 1
 684 0654 1FF021E3 		msr     CPSR_c, #0x1F
ARM GAS  C:\Users\NICOMA~1\AppData\Local\Temp\ccO3Bz3q.s 			page 13


 685              	@ 0 "" 2
 686              		.loc 1 200 0
 687 0658 011071E2 		rsbs	r1, r1, #1
 688 065c 0010A033 		movcc	r1, #0
 689 0660 2700A0E3 		mov	r0, #39
 690              	.LVL95:
 691 0664 FEFFFFEB 		bl	_test_assert
 692              	.LVL96:
 693 0668 000050E3 		cmp	r0, #0
 694 066c 87FEFF1A 		bne	.L1
 695              		.loc 1 201 0
 696 0670 0400DDE5 		ldrb	r0, [sp, #4]	@ zero_extendqisi2
 697 0674 FEFFFFEB 		bl	test_emit_token
 698              	.LVL97:
 699              		.loc 1 196 0
 700 0678 015055E2 		subs	r5, r5, #1
 701 067c EEFFFF1A 		bne	.L15
 702              		.loc 1 203 0
 703 0680 2800A0E3 		mov	r0, #40
 704 0684 24119FE5 		ldr	r1, .L31+4
 705 0688 FEFFFFEB 		bl	_test_assert_sequence
 706              	.LVL98:
 707 068c 000050E3 		cmp	r0, #0
 708 0690 7EFEFF1A 		bne	.L1
 709              		.loc 1 204 0
 710              	@ 204 "../../test/testmbox.c" 1
 711 0694 9FF021E3 		msr     CPSR_c, #0x9F
 712              	@ 0 "" 2
 713 0698 241094E5 		ldr	r1, [r4, #36]
 714 069c 2900A0E3 		mov	r0, #41
 715 06a0 053051E2 		subs	r3, r1, #5
 716 06a4 001073E2 		rsbs	r1, r3, #0
 717 06a8 0310B1E0 		adcs	r1, r1, r3
 718 06ac FEFFFFEB 		bl	_test_assert
 719              	.LVL99:
 720              	@ 204 "../../test/testmbox.c" 1
 721 06b0 1FF021E3 		msr     CPSR_c, #0x1F
 722              	@ 0 "" 2
 723 06b4 000050E3 		cmp	r0, #0
 724 06b8 74FEFF1A 		bne	.L1
 725              		.loc 1 205 0 discriminator 2
 726              	@ 205 "../../test/testmbox.c" 1
 727 06bc 9FF021E3 		msr     CPSR_c, #0x9F
 728              	@ 0 "" 2
 729 06c0 181094E5 		ldr	r1, [r4, #24]
 730 06c4 2A00A0E3 		mov	r0, #42
 731 06c8 011071E2 		rsbs	r1, r1, #1
 732 06cc 0010A033 		movcc	r1, #0
 733 06d0 FEFFFFEB 		bl	_test_assert
 734              	.LVL100:
 735              	@ 205 "../../test/testmbox.c" 1
 736 06d4 1FF021E3 		msr     CPSR_c, #0x1F
 737              	@ 0 "" 2
 738 06d8 000050E3 		cmp	r0, #0
 739 06dc 6BFEFF1A 		bne	.L1
 740              		.loc 1 206 0 discriminator 2
 741 06e0 0C1094E5 		ldr	r1, [r4, #12]
ARM GAS  C:\Users\NICOMA~1\AppData\Local\Temp\ccO3Bz3q.s 			page 14


 742 06e4 083094E5 		ldr	r3, [r4, #8]
 743 06e8 2B00A0E3 		mov	r0, #43
 744 06ec 03E051E0 		subs	lr, r1, r3
 745 06f0 00107EE2 		rsbs	r1, lr, #0
 746 06f4 0E10B1E0 		adcs	r1, r1, lr
 747 06f8 FEFFFFEB 		bl	_test_assert
 748              	.LVL101:
 749 06fc 000050E3 		cmp	r0, #0
 750 0700 62FEFF1A 		bne	.L1
 751              		.loc 1 211 0
 752 0704 0400A0E1 		mov	r0, r4
 753 0708 FEFFFFEB 		bl	chMBReset
 754              	.LVL102:
 755              		.loc 1 216 0
 756              	@ 216 "../../test/testmbox.c" 1
 757 070c 9FF021E3 		msr     CPSR_c, #0x9F
 758              	@ 0 "" 2
 759 0710 241094E5 		ldr	r1, [r4, #36]
 760 0714 2C00A0E3 		mov	r0, #44
 761 0718 05C051E2 		subs	ip, r1, #5
 762 071c 00107CE2 		rsbs	r1, ip, #0
 763 0720 0C10B1E0 		adcs	r1, r1, ip
 764 0724 FEFFFFEB 		bl	_test_assert
 765              	.LVL103:
 766              	@ 216 "../../test/testmbox.c" 1
 767 0728 1FF021E3 		msr     CPSR_c, #0x1F
 768              	@ 0 "" 2
 769 072c 000050E3 		cmp	r0, #0
 770 0730 56FEFF1A 		bne	.L1
 771              		.loc 1 217 0 discriminator 2
 772              	@ 217 "../../test/testmbox.c" 1
 773 0734 9FF021E3 		msr     CPSR_c, #0x9F
 774              	@ 0 "" 2
 775 0738 181094E5 		ldr	r1, [r4, #24]
 776 073c 2D00A0E3 		mov	r0, #45
 777 0740 011071E2 		rsbs	r1, r1, #1
 778 0744 0010A033 		movcc	r1, #0
 779 0748 FEFFFFEB 		bl	_test_assert
 780              	.LVL104:
 781              	@ 217 "../../test/testmbox.c" 1
 782 074c 1FF021E3 		msr     CPSR_c, #0x1F
 783              	@ 0 "" 2
 784 0750 000050E3 		cmp	r0, #0
 785 0754 4DFEFF1A 		bne	.L1
 786              		.loc 1 218 0 discriminator 2
 787              	@ 218 "../../test/testmbox.c" 1
 788 0758 9FF021E3 		msr     CPSR_c, #0x9F
 789              	@ 0 "" 2
 790 075c 001094E5 		ldr	r1, [r4, #0]
 791 0760 083094E5 		ldr	r3, [r4, #8]
 792 0764 2E00A0E3 		mov	r0, #46
 793 0768 032051E0 		subs	r2, r1, r3
 794 076c 001072E2 		rsbs	r1, r2, #0
 795 0770 0210B1E0 		adcs	r1, r1, r2
 796 0774 FEFFFFEB 		bl	_test_assert
 797              	.LVL105:
 798              	@ 218 "../../test/testmbox.c" 1
ARM GAS  C:\Users\NICOMA~1\AppData\Local\Temp\ccO3Bz3q.s 			page 15


 799 0778 1FF021E3 		msr     CPSR_c, #0x1F
 800              	@ 0 "" 2
 801 077c 000050E3 		cmp	r0, #0
 802 0780 42FEFF1A 		bne	.L1
 803              		.loc 1 219 0 discriminator 2
 804              	@ 219 "../../test/testmbox.c" 1
 805 0784 9FF021E3 		msr     CPSR_c, #0x9F
 806              	@ 0 "" 2
 807 0788 001094E5 		ldr	r1, [r4, #0]
 808 078c 0C3094E5 		ldr	r3, [r4, #12]
 809 0790 2F00A0E3 		mov	r0, #47
 810 0794 033051E0 		subs	r3, r1, r3
 811 0798 001073E2 		rsbs	r1, r3, #0
 812 079c 0310B1E0 		adcs	r1, r1, r3
 813 07a0 FEFFFFEB 		bl	_test_assert
 814              	.LVL106:
 815              	@ 219 "../../test/testmbox.c" 1
 816 07a4 1FF021E3 		msr     CPSR_c, #0x1F
 817              	@ 0 "" 2
 818 07a8 38FEFFEA 		b	.L1
 819              	.L32:
 820              		.align	2
 821              	.L31:
 822 07ac 00000000 		.word	.LANCHOR0
 823 07b0 00000000 		.word	.LC0
 824              		.cfi_endproc
 825              	.LFE8:
 826              		.size	mbox1_execute, .-mbox1_execute
 827              		.section	.text.mbox1_setup,"ax",%progbits
 828              		.align	2
 829              		.type	mbox1_setup, %function
 830              	mbox1_setup:
 831              	.LFB7:
 832              		.loc 1 71 0
 833              		.cfi_startproc
 834              		@ args = 0, pretend = 0, frame = 0
 835              		@ frame_needed = 0, uses_anonymous_args = 0
 836              		@ link register save eliminated.
 837              		.loc 1 73 0
 838 0000 08009FE5 		ldr	r0, .L34
 839 0004 08109FE5 		ldr	r1, .L34+4
 840 0008 0520A0E3 		mov	r2, #5
 841              		.loc 1 74 0
 842              		.loc 1 73 0
 843 000c FEFFFFEA 		b	chMBInit
 844              	.LVL107:
 845              	.L35:
 846              		.align	2
 847              	.L34:
 848 0010 00000000 		.word	.LANCHOR0
 849 0014 00000000 		.word	test
 850              		.cfi_endproc
 851              	.LFE7:
 852              		.size	mbox1_setup, .-mbox1_setup
 853              		.global	patternmbox
 854              		.global	testmbox1
 855              		.section	.data.mb1,"aw",%progbits
ARM GAS  C:\Users\NICOMA~1\AppData\Local\Temp\ccO3Bz3q.s 			page 16


 856              		.align	2
 857              		.set	.LANCHOR0,. + 0
 858              		.type	mb1, %object
 859              		.size	mb1, 40
 860              	mb1:
 861 0000 00000000 		.word	test
 862 0004 14000000 		.word	test+20
 863 0008 00000000 		.word	test
 864 000c 00000000 		.word	test
 865 0010 10000000 		.word	mb1+16
 866 0014 10000000 		.word	mb1+16
 867 0018 00000000 		.word	0
 868 001c 1C000000 		.word	mb1+28
 869 0020 1C000000 		.word	mb1+28
 870 0024 05000000 		.word	5
 871              		.section	.rodata.patternmbox,"a",%progbits
 872              		.align	2
 873              		.type	patternmbox, %object
 874              		.size	patternmbox, 8
 875              	patternmbox:
 876 0000 00000000 		.word	testmbox1
 877 0004 00000000 		.word	0
 878              		.section	.rodata.str1.4,"aMS",%progbits,1
 879              		.align	2
 880              	.LC0:
 881 0000 41424344 		.ascii	"ABCDE\000"
 881      4500
 882 0006 0000     		.space	2
 883              	.LC1:
 884 0008 4D61696C 		.ascii	"Mailboxes, queuing and timeouts\000"
 884      626F7865 
 884      732C2071 
 884      75657569 
 884      6E672061 
 885              		.section	.rodata.testmbox1,"a",%progbits
 886              		.align	2
 887              		.type	testmbox1, %object
 888              		.size	testmbox1, 16
 889              	testmbox1:
 890 0000 08000000 		.word	.LC1
 891 0004 00000000 		.word	mbox1_setup
 892 0008 00000000 		.word	0
 893 000c 00000000 		.word	mbox1_execute
 894              		.text
 895              	.Letext0:
 896              		.file 2 "c:/yagarto-20121222/lib/gcc/../../arm-none-eabi/sys-include/stdint.h"
 897              		.file 3 "../../os/ports/GCC/ARM/chtypes.h"
 898              		.file 4 "../../os/kernel/include/chlists.h"
 899              		.file 5 "../../os/kernel/include/chthreads.h"
 900              		.file 6 "../../os/ports/GCC/ARM/chcore.h"
 901              		.file 7 "../../os/kernel/include/chsem.h"
 902              		.file 8 "../../os/kernel/include/chmtx.h"
 903              		.file 9 "../../os/kernel/include/chmboxes.h"
 904              		.file 10 "../../test/test.h"