ARM GAS  C:\Users\NICOMA~1\AppData\Local\Temp\ccAPMnF6.s 			page 1


   1              		.cpu arm1176jz-s
   2              		.fpu softvfp
   3              		.eabi_attribute 20, 1
   4              		.eabi_attribute 21, 1
   5              		.eabi_attribute 23, 3
   6              		.eabi_attribute 24, 1
   7              		.eabi_attribute 25, 1
   8              		.eabi_attribute 26, 1
   9              		.eabi_attribute 30, 2
  10              		.eabi_attribute 34, 1
  11              		.eabi_attribute 18, 4
  12              		.file	"testthd.c"
  13              		.text
  14              	.Ltext0:
  15              		.cfi_sections	.debug_frame
  16              		.section	.text.thd3_execute,"ax",%progbits
  17              		.align	2
  18              		.type	thd3_execute, %function
  19              	thd3_execute:
  20              	.LFB10:
  21              		.file 1 "../../test/testthd.c"
  22              		.loc 1 126 0
  23              		.cfi_startproc
  24              		@ args = 0, pretend = 0, frame = 0
  25              		@ frame_needed = 0, uses_anonymous_args = 0
  26 0000 F8402DE9 		stmfd	sp!, {r3, r4, r5, r6, r7, lr}
  27              	.LCFI0:
  28              		.cfi_def_cfa_offset 24
  29              		.cfi_offset 3, -24
  30              		.cfi_offset 4, -20
  31              		.cfi_offset 5, -16
  32              		.cfi_offset 6, -12
  33              		.cfi_offset 7, -8
  34              		.cfi_offset 14, -4
  35              		.loc 1 129 0
  36 0004 D0619FE5 		ldr	r6, .L6
  37 0008 183096E5 		ldr	r3, [r6, #24]
  38 000c 084093E5 		ldr	r4, [r3, #8]
  39              	.LVL0:
  40              		.loc 1 130 0
  41 0010 015084E2 		add	r5, r4, #1
  42 0014 0500A0E1 		mov	r0, r5
  43 0018 FEFFFFEB 		bl	chThdSetPriority
  44              	.LVL1:
  45              		.loc 1 131 0
  46 001c 042050E0 		subs	r2, r0, r4
  47 0020 001072E2 		rsbs	r1, r2, #0
  48 0024 0210B1E0 		adcs	r1, r1, r2
  49              		.loc 1 130 0
  50 0028 0070A0E1 		mov	r7, r0
  51              	.LVL2:
  52              		.loc 1 131 0
  53 002c 0100A0E3 		mov	r0, #1
  54              	.LVL3:
  55 0030 FEFFFFEB 		bl	_test_assert
  56              	.LVL4:
  57 0034 000050E3 		cmp	r0, #0
ARM GAS  C:\Users\NICOMA~1\AppData\Local\Temp\ccAPMnF6.s 			page 2


  58 0038 F880BD18 		ldmnefd	sp!, {r3, r4, r5, r6, r7, pc}
  59              		.loc 1 133 0
  60 003c 183096E5 		ldr	r3, [r6, #24]
  61 0040 0200A0E3 		mov	r0, #2
  62 0044 081093E5 		ldr	r1, [r3, #8]
  63 0048 013055E0 		subs	r3, r5, r1
  64 004c 001073E2 		rsbs	r1, r3, #0
  65 0050 0310B1E0 		adcs	r1, r1, r3
  66 0054 FEFFFFEB 		bl	_test_assert
  67              	.LVL5:
  68 0058 000050E3 		cmp	r0, #0
  69 005c F880BD18 		ldmnefd	sp!, {r3, r4, r5, r6, r7, pc}
  70              		.loc 1 135 0
  71 0060 0700A0E1 		mov	r0, r7
  72 0064 FEFFFFEB 		bl	chThdSetPriority
  73              	.LVL6:
  74              		.loc 1 136 0
  75 0068 00E055E0 		subs	lr, r5, r0
  76 006c 00107EE2 		rsbs	r1, lr, #0
  77 0070 0E10B1E0 		adcs	r1, r1, lr
  78 0074 0300A0E3 		mov	r0, #3
  79              	.LVL7:
  80 0078 FEFFFFEB 		bl	_test_assert
  81              	.LVL8:
  82 007c 000050E3 		cmp	r0, #0
  83 0080 F880BD18 		ldmnefd	sp!, {r3, r4, r5, r6, r7, pc}
  84              		.loc 1 138 0
  85 0084 183096E5 		ldr	r3, [r6, #24]
  86 0088 0400A0E3 		mov	r0, #4
  87 008c 081093E5 		ldr	r1, [r3, #8]
  88 0090 04C051E0 		subs	ip, r1, r4
  89 0094 00107CE2 		rsbs	r1, ip, #0
  90 0098 0C10B1E0 		adcs	r1, r1, ip
  91 009c FEFFFFEB 		bl	_test_assert
  92              	.LVL9:
  93 00a0 000050E3 		cmp	r0, #0
  94 00a4 F880BD18 		ldmnefd	sp!, {r3, r4, r5, r6, r7, pc}
  95              		.loc 1 143 0
  96              	@ 143 "../../test/testthd.c" 1
  97 00a8 9FF021E3 		msr     CPSR_c, #0x9F
  98              	@ 0 "" 2
  99              		.loc 1 144 0
 100 00ac 183096E5 		ldr	r3, [r6, #24]
 101 00b0 082093E5 		ldr	r2, [r3, #8]
 102 00b4 022082E2 		add	r2, r2, #2
 103 00b8 082083E5 		str	r2, [r3, #8]
 104              		.loc 1 145 0
 105              	@ 145 "../../test/testthd.c" 1
 106 00bc 1FF021E3 		msr     CPSR_c, #0x1F
 107              	@ 0 "" 2
 108              		.loc 1 146 0
 109 00c0 183096E5 		ldr	r3, [r6, #24]
 110 00c4 027084E2 		add	r7, r4, #2
 111 00c8 081093E5 		ldr	r1, [r3, #8]
 112 00cc 0500A0E3 		mov	r0, #5
 113 00d0 072051E0 		subs	r2, r1, r7
 114 00d4 001072E2 		rsbs	r1, r2, #0
ARM GAS  C:\Users\NICOMA~1\AppData\Local\Temp\ccAPMnF6.s 			page 3


 115 00d8 0210B1E0 		adcs	r1, r1, r2
 116 00dc FEFFFFEB 		bl	_test_assert
 117              	.LVL10:
 118 00e0 000050E3 		cmp	r0, #0
 119 00e4 F880BD18 		ldmnefd	sp!, {r3, r4, r5, r6, r7, pc}
 120              		.loc 1 150 0
 121 00e8 0500A0E1 		mov	r0, r5
 122 00ec FEFFFFEB 		bl	chThdSetPriority
 123              	.LVL11:
 124              		.loc 1 151 0
 125 00f0 043050E0 		subs	r3, r0, r4
 126 00f4 001073E2 		rsbs	r1, r3, #0
 127 00f8 0310B1E0 		adcs	r1, r1, r3
 128 00fc 0600A0E3 		mov	r0, #6
 129              	.LVL12:
 130 0100 FEFFFFEB 		bl	_test_assert
 131              	.LVL13:
 132 0104 000050E3 		cmp	r0, #0
 133 0108 F880BD18 		ldmnefd	sp!, {r3, r4, r5, r6, r7, pc}
 134              		.loc 1 153 0
 135 010c 183096E5 		ldr	r3, [r6, #24]
 136 0110 0700A0E3 		mov	r0, #7
 137 0114 081093E5 		ldr	r1, [r3, #8]
 138 0118 01E057E0 		subs	lr, r7, r1
 139 011c 00107EE2 		rsbs	r1, lr, #0
 140 0120 0E10B1E0 		adcs	r1, r1, lr
 141 0124 FEFFFFEB 		bl	_test_assert
 142              	.LVL14:
 143 0128 000050E3 		cmp	r0, #0
 144 012c F880BD18 		ldmnefd	sp!, {r3, r4, r5, r6, r7, pc}
 145              		.loc 1 155 0
 146 0130 183096E5 		ldr	r3, [r6, #24]
 147 0134 0800A0E3 		mov	r0, #8
 148 0138 401093E5 		ldr	r1, [r3, #64]
 149 013c 01C055E0 		subs	ip, r5, r1
 150 0140 00107CE2 		rsbs	r1, ip, #0
 151 0144 0C10B1E0 		adcs	r1, r1, ip
 152 0148 FEFFFFEB 		bl	_test_assert
 153              	.LVL15:
 154 014c 000050E3 		cmp	r0, #0
 155 0150 F880BD18 		ldmnefd	sp!, {r3, r4, r5, r6, r7, pc}
 156              		.loc 1 159 0
 157 0154 037084E2 		add	r7, r4, #3
 158 0158 0700A0E1 		mov	r0, r7
 159 015c FEFFFFEB 		bl	chThdSetPriority
 160              	.LVL16:
 161              		.loc 1 160 0
 162 0160 000055E0 		subs	r0, r5, r0
 163              	.LVL17:
 164 0164 001070E2 		rsbs	r1, r0, #0
 165 0168 0010B1E0 		adcs	r1, r1, r0
 166 016c 0900A0E3 		mov	r0, #9
 167 0170 FEFFFFEB 		bl	_test_assert
 168              	.LVL18:
 169 0174 000050E3 		cmp	r0, #0
 170 0178 F880BD18 		ldmnefd	sp!, {r3, r4, r5, r6, r7, pc}
 171              		.loc 1 162 0
ARM GAS  C:\Users\NICOMA~1\AppData\Local\Temp\ccAPMnF6.s 			page 4


 172 017c 183096E5 		ldr	r3, [r6, #24]
 173 0180 0A00A0E3 		mov	r0, #10
 174 0184 081093E5 		ldr	r1, [r3, #8]
 175 0188 012057E0 		subs	r2, r7, r1
 176 018c 001072E2 		rsbs	r1, r2, #0
 177 0190 0210B1E0 		adcs	r1, r1, r2
 178 0194 FEFFFFEB 		bl	_test_assert
 179              	.LVL19:
 180 0198 000050E3 		cmp	r0, #0
 181 019c F880BD18 		ldmnefd	sp!, {r3, r4, r5, r6, r7, pc}
 182              		.loc 1 164 0
 183 01a0 183096E5 		ldr	r3, [r6, #24]
 184 01a4 0B00A0E3 		mov	r0, #11
 185 01a8 401093E5 		ldr	r1, [r3, #64]
 186 01ac 013057E0 		subs	r3, r7, r1
 187 01b0 001073E2 		rsbs	r1, r3, #0
 188 01b4 0310B1E0 		adcs	r1, r1, r3
 189 01b8 FEFFFFEB 		bl	_test_assert
 190              	.LVL20:
 191 01bc 000050E3 		cmp	r0, #0
 192 01c0 F880BD18 		ldmnefd	sp!, {r3, r4, r5, r6, r7, pc}
 193              		.loc 1 167 0
 194              	@ 167 "../../test/testthd.c" 1
 195 01c4 9FF021E3 		msr     CPSR_c, #0x9F
 196              	@ 0 "" 2
 197              		.loc 1 168 0
 198 01c8 183096E5 		ldr	r3, [r6, #24]
 199 01cc 084083E5 		str	r4, [r3, #8]
 200              		.loc 1 169 0
 201 01d0 404083E5 		str	r4, [r3, #64]
 202              		.loc 1 170 0
 203              	@ 170 "../../test/testthd.c" 1
 204 01d4 1FF021E3 		msr     CPSR_c, #0x1F
 205              	@ 0 "" 2
 206 01d8 F880BDE8 		ldmfd	sp!, {r3, r4, r5, r6, r7, pc}
 207              	.L7:
 208              		.align	2
 209              	.L6:
 210 01dc 00000000 		.word	rlist
 211              		.cfi_endproc
 212              	.LFE10:
 213              		.size	thd3_execute, .-thd3_execute
 214              		.section	.text.thd2_execute,"ax",%progbits
 215              		.align	2
 216              		.type	thd2_execute, %function
 217              	thd2_execute:
 218              	.LFB9:
 219              		.loc 1 94 0
 220              		.cfi_startproc
 221              		@ args = 0, pretend = 0, frame = 0
 222              		@ frame_needed = 0, uses_anonymous_args = 0
 223 0000 F0402DE9 		stmfd	sp!, {r4, r5, r6, r7, lr}
 224              	.LCFI1:
 225              		.cfi_def_cfa_offset 20
 226              		.cfi_offset 4, -20
 227              		.cfi_offset 5, -16
 228              		.cfi_offset 6, -12
ARM GAS  C:\Users\NICOMA~1\AppData\Local\Temp\ccAPMnF6.s 			page 5


 229              		.cfi_offset 7, -8
 230              		.cfi_offset 14, -4
 231              		.loc 1 96 0
 232 0004 08719FE5 		ldr	r7, .L9
 233 0008 08619FE5 		ldr	r6, .L9+4
 234 000c 183097E5 		ldr	r3, [r7, #24]
 235 0010 04519FE5 		ldr	r5, .L9+8
 236 0014 082093E5 		ldr	r2, [r3, #8]
 237 0018 00119FE5 		ldr	r1, .L9+12
 238              		.loc 1 94 0
 239 001c 0CD04DE2 		sub	sp, sp, #12
 240              	.LCFI2:
 241              		.cfi_def_cfa_offset 32
 242              		.loc 1 96 0
 243 0020 0530A0E1 		mov	r3, r5
 244 0024 00108DE5 		str	r1, [sp, #0]
 245 0028 040096E5 		ldr	r0, [r6, #4]
 246 002c 042042E2 		sub	r2, r2, #4
 247 0030 461FA0E3 		mov	r1, #280
 248 0034 FEFFFFEB 		bl	chThdCreateStatic
 249              	.LVL21:
 250 0038 E4409FE5 		ldr	r4, .L9+16
 251              		.loc 1 97 0
 252 003c 183097E5 		ldr	r3, [r7, #24]
 253 0040 001096E5 		ldr	r1, [r6, #0]
 254 0044 082093E5 		ldr	r2, [r3, #8]
 255              		.loc 1 96 0
 256 0048 040084E5 		str	r0, [r4, #4]
 257              		.loc 1 97 0
 258 004c D4009FE5 		ldr	r0, .L9+20
 259 0050 0530A0E1 		mov	r3, r5
 260 0054 00008DE5 		str	r0, [sp, #0]
 261 0058 052042E2 		sub	r2, r2, #5
 262 005c 0100A0E1 		mov	r0, r1
 263 0060 461FA0E3 		mov	r1, #280
 264 0064 FEFFFFEB 		bl	chThdCreateStatic
 265              	.LVL22:
 266              		.loc 1 98 0
 267 0068 183097E5 		ldr	r3, [r7, #24]
 268 006c 101096E5 		ldr	r1, [r6, #16]
 269 0070 082093E5 		ldr	r2, [r3, #8]
 270              		.loc 1 97 0
 271 0074 000084E5 		str	r0, [r4, #0]
 272              		.loc 1 98 0
 273 0078 AC009FE5 		ldr	r0, .L9+24
 274 007c 0530A0E1 		mov	r3, r5
 275 0080 00008DE5 		str	r0, [sp, #0]
 276 0084 012042E2 		sub	r2, r2, #1
 277 0088 0100A0E1 		mov	r0, r1
 278 008c 461FA0E3 		mov	r1, #280
 279 0090 FEFFFFEB 		bl	chThdCreateStatic
 280              	.LVL23:
 281              		.loc 1 99 0
 282 0094 182097E5 		ldr	r2, [r7, #24]
 283 0098 0C3096E5 		ldr	r3, [r6, #12]
 284 009c 082092E5 		ldr	r2, [r2, #8]
 285 00a0 88109FE5 		ldr	r1, .L9+28
ARM GAS  C:\Users\NICOMA~1\AppData\Local\Temp\ccAPMnF6.s 			page 6


 286              		.loc 1 98 0
 287 00a4 100084E5 		str	r0, [r4, #16]
 288              		.loc 1 99 0
 289 00a8 00108DE5 		str	r1, [sp, #0]
 290 00ac 0300A0E1 		mov	r0, r3
 291 00b0 461FA0E3 		mov	r1, #280
 292 00b4 022042E2 		sub	r2, r2, #2
 293 00b8 0530A0E1 		mov	r3, r5
 294 00bc FEFFFFEB 		bl	chThdCreateStatic
 295              	.LVL24:
 296 00c0 0C0084E5 		str	r0, [r4, #12]
 297              		.loc 1 101 0
 298              	@ 101 "../../test/testthd.c" 1
 299 00c4 9FF021E3 		msr     CPSR_c, #0x9F
 300              	@ 0 "" 2
 301              		.loc 1 102 0
 302 00c8 183097E5 		ldr	r3, [r7, #24]
 303 00cc 080096E5 		ldr	r0, [r6, #8]
 304 00d0 082093E5 		ldr	r2, [r3, #8]
 305 00d4 58309FE5 		ldr	r3, .L9+32
 306 00d8 461FA0E3 		mov	r1, #280
 307 00dc 00308DE5 		str	r3, [sp, #0]
 308 00e0 032042E2 		sub	r2, r2, #3
 309 00e4 0530A0E1 		mov	r3, r5
 310 00e8 FEFFFFEB 		bl	chThdCreateI
 311              	.LVL25:
 312 00ec 080084E5 		str	r0, [r4, #8]
 313              		.loc 1 103 0
 314              	@ 103 "../../test/testthd.c" 1
 315 00f0 1FF021E3 		msr     CPSR_c, #0x1F
 316              	@ 0 "" 2
 317              		.loc 1 104 0
 318 00f4 080094E5 		ldr	r0, [r4, #8]
 319 00f8 FEFFFFEB 		bl	chThdResume
 320              	.LVL26:
 321              		.loc 1 105 0
 322 00fc FEFFFFEB 		bl	test_wait_threads
 323              	.LVL27:
 324              		.loc 1 106 0
 325 0100 30109FE5 		ldr	r1, .L9+36
 326 0104 0100A0E3 		mov	r0, #1
 327              		.loc 1 107 0
 328 0108 0CD08DE2 		add	sp, sp, #12
 329 010c F040BDE8 		ldmfd	sp!, {r4, r5, r6, r7, lr}
 330              		.loc 1 106 0
 331 0110 FEFFFFEA 		b	_test_assert_sequence
 332              	.LVL28:
 333              	.L10:
 334              		.align	2
 335              	.L9:
 336 0114 00000000 		.word	rlist
 337 0118 00000000 		.word	wa
 338 011c 00000000 		.word	thread
 339 0120 00000000 		.word	.LC0
 340 0124 00000000 		.word	threads
 341 0128 04000000 		.word	.LC1
 342 012c 08000000 		.word	.LC2
ARM GAS  C:\Users\NICOMA~1\AppData\Local\Temp\ccAPMnF6.s 			page 7


 343 0130 0C000000 		.word	.LC3
 344 0134 10000000 		.word	.LC4
 345 0138 14000000 		.word	.LC5
 346              		.cfi_endproc
 347              	.LFE9:
 348              		.size	thd2_execute, .-thd2_execute
 349              		.section	.text.thd1_execute,"ax",%progbits
 350              		.align	2
 351              		.type	thd1_execute, %function
 352              	thd1_execute:
 353              	.LFB8:
 354              		.loc 1 66 0
 355              		.cfi_startproc
 356              		@ args = 0, pretend = 0, frame = 0
 357              		@ frame_needed = 0, uses_anonymous_args = 0
 358 0000 F0402DE9 		stmfd	sp!, {r4, r5, r6, r7, lr}
 359              	.LCFI3:
 360              		.cfi_def_cfa_offset 20
 361              		.cfi_offset 4, -20
 362              		.cfi_offset 5, -16
 363              		.cfi_offset 6, -12
 364              		.cfi_offset 7, -8
 365              		.cfi_offset 14, -4
 366              		.loc 1 68 0
 367 0004 FC709FE5 		ldr	r7, .L12
 368 0008 FC609FE5 		ldr	r6, .L12+4
 369 000c 183097E5 		ldr	r3, [r7, #24]
 370 0010 F8509FE5 		ldr	r5, .L12+8
 371 0014 082093E5 		ldr	r2, [r3, #8]
 372 0018 F4C09FE5 		ldr	ip, .L12+12
 373              		.loc 1 66 0
 374 001c 0CD04DE2 		sub	sp, sp, #12
 375              	.LCFI4:
 376              		.cfi_def_cfa_offset 32
 377              		.loc 1 68 0
 378 0020 0530A0E1 		mov	r3, r5
 379 0024 00C08DE5 		str	ip, [sp, #0]
 380 0028 000096E5 		ldr	r0, [r6, #0]
 381 002c 461FA0E3 		mov	r1, #280
 382 0030 052042E2 		sub	r2, r2, #5
 383 0034 FEFFFFEB 		bl	chThdCreateStatic
 384              	.LVL29:
 385 0038 D8409FE5 		ldr	r4, .L12+16
 386              		.loc 1 69 0
 387 003c 183097E5 		ldr	r3, [r7, #24]
 388 0040 04C096E5 		ldr	ip, [r6, #4]
 389 0044 082093E5 		ldr	r2, [r3, #8]
 390              		.loc 1 68 0
 391 0048 000084E5 		str	r0, [r4, #0]
 392              		.loc 1 69 0
 393 004c C8009FE5 		ldr	r0, .L12+20
 394 0050 0530A0E1 		mov	r3, r5
 395 0054 00008DE5 		str	r0, [sp, #0]
 396 0058 461FA0E3 		mov	r1, #280
 397 005c 042042E2 		sub	r2, r2, #4
 398 0060 0C00A0E1 		mov	r0, ip
 399 0064 FEFFFFEB 		bl	chThdCreateStatic
ARM GAS  C:\Users\NICOMA~1\AppData\Local\Temp\ccAPMnF6.s 			page 8


 400              	.LVL30:
 401              		.loc 1 70 0
 402 0068 183097E5 		ldr	r3, [r7, #24]
 403 006c 08C096E5 		ldr	ip, [r6, #8]
 404 0070 082093E5 		ldr	r2, [r3, #8]
 405              		.loc 1 69 0
 406 0074 040084E5 		str	r0, [r4, #4]
 407              		.loc 1 70 0
 408 0078 A0009FE5 		ldr	r0, .L12+24
 409 007c 0530A0E1 		mov	r3, r5
 410 0080 00008DE5 		str	r0, [sp, #0]
 411 0084 461FA0E3 		mov	r1, #280
 412 0088 032042E2 		sub	r2, r2, #3
 413 008c 0C00A0E1 		mov	r0, ip
 414 0090 FEFFFFEB 		bl	chThdCreateStatic
 415              	.LVL31:
 416              		.loc 1 71 0
 417 0094 183097E5 		ldr	r3, [r7, #24]
 418 0098 0CC096E5 		ldr	ip, [r6, #12]
 419 009c 082093E5 		ldr	r2, [r3, #8]
 420              		.loc 1 70 0
 421 00a0 080084E5 		str	r0, [r4, #8]
 422              		.loc 1 71 0
 423 00a4 78009FE5 		ldr	r0, .L12+28
 424 00a8 0530A0E1 		mov	r3, r5
 425 00ac 00008DE5 		str	r0, [sp, #0]
 426 00b0 461FA0E3 		mov	r1, #280
 427 00b4 022042E2 		sub	r2, r2, #2
 428 00b8 0C00A0E1 		mov	r0, ip
 429 00bc FEFFFFEB 		bl	chThdCreateStatic
 430              	.LVL32:
 431              		.loc 1 72 0
 432 00c0 183097E5 		ldr	r3, [r7, #24]
 433 00c4 10C096E5 		ldr	ip, [r6, #16]
 434 00c8 082093E5 		ldr	r2, [r3, #8]
 435              		.loc 1 71 0
 436 00cc 0C0084E5 		str	r0, [r4, #12]
 437              		.loc 1 72 0
 438 00d0 50009FE5 		ldr	r0, .L12+32
 439 00d4 461FA0E3 		mov	r1, #280
 440 00d8 012042E2 		sub	r2, r2, #1
 441 00dc 0530A0E1 		mov	r3, r5
 442 00e0 00008DE5 		str	r0, [sp, #0]
 443 00e4 0C00A0E1 		mov	r0, ip
 444 00e8 FEFFFFEB 		bl	chThdCreateStatic
 445              	.LVL33:
 446 00ec 100084E5 		str	r0, [r4, #16]
 447              		.loc 1 73 0
 448 00f0 FEFFFFEB 		bl	test_wait_threads
 449              	.LVL34:
 450              		.loc 1 74 0
 451 00f4 30109FE5 		ldr	r1, .L12+36
 452 00f8 0100A0E3 		mov	r0, #1
 453              		.loc 1 75 0
 454 00fc 0CD08DE2 		add	sp, sp, #12
 455 0100 F040BDE8 		ldmfd	sp!, {r4, r5, r6, r7, lr}
 456              		.loc 1 74 0
ARM GAS  C:\Users\NICOMA~1\AppData\Local\Temp\ccAPMnF6.s 			page 9


 457 0104 FEFFFFEA 		b	_test_assert_sequence
 458              	.LVL35:
 459              	.L13:
 460              		.align	2
 461              	.L12:
 462 0108 00000000 		.word	rlist
 463 010c 00000000 		.word	wa
 464 0110 00000000 		.word	thread
 465 0114 04000000 		.word	.LC1
 466 0118 00000000 		.word	threads
 467 011c 00000000 		.word	.LC0
 468 0120 10000000 		.word	.LC4
 469 0124 0C000000 		.word	.LC3
 470 0128 08000000 		.word	.LC2
 471 012c 14000000 		.word	.LC5
 472              		.cfi_endproc
 473              	.LFE8:
 474              		.size	thd1_execute, .-thd1_execute
 475              		.section	.text.thread,"ax",%progbits
 476              		.align	2
 477              		.type	thread, %function
 478              	thread:
 479              	.LFB7:
 480              		.loc 1 60 0
 481              		.cfi_startproc
 482              		@ args = 0, pretend = 0, frame = 0
 483              		@ frame_needed = 0, uses_anonymous_args = 0
 484              	.LVL36:
 485 0000 08402DE9 		stmfd	sp!, {r3, lr}
 486              	.LCFI5:
 487              		.cfi_def_cfa_offset 8
 488              		.cfi_offset 3, -8
 489              		.cfi_offset 14, -4
 490              		.loc 1 62 0
 491 0004 0000D0E5 		ldrb	r0, [r0, #0]	@ zero_extendqisi2
 492              	.LVL37:
 493 0008 FEFFFFEB 		bl	test_emit_token
 494              	.LVL38:
 495              		.loc 1 64 0
 496 000c 0000A0E3 		mov	r0, #0
 497 0010 0880BDE8 		ldmfd	sp!, {r3, pc}
 498              		.cfi_endproc
 499              	.LFE7:
 500              		.size	thread, .-thread
 501              		.section	.text.thd4_execute,"ax",%progbits
 502              		.align	2
 503              		.type	thd4_execute, %function
 504              	thd4_execute:
 505              	.LFB11:
 506              		.loc 1 189 0
 507              		.cfi_startproc
 508              		@ args = 0, pretend = 0, frame = 0
 509              		@ frame_needed = 0, uses_anonymous_args = 0
 510 0000 38402DE9 		stmfd	sp!, {r3, r4, r5, lr}
 511              	.LCFI6:
 512              		.cfi_def_cfa_offset 16
 513              		.cfi_offset 3, -16
ARM GAS  C:\Users\NICOMA~1\AppData\Local\Temp\ccAPMnF6.s 			page 10


 514              		.cfi_offset 4, -12
 515              		.cfi_offset 5, -8
 516              		.cfi_offset 14, -4
 517              		.loc 1 195 0
 518 0004 90509FE5 		ldr	r5, .L19
 519              		.loc 1 192 0
 520 0008 FEFFFFEB 		bl	test_wait_tick
 521              	.LVL39:
 522              		.loc 1 195 0
 523 000c 0C4095E5 		ldr	r4, [r5, #12]
 524              	.LVL40:
 525              		.loc 1 196 0
 526 0010 6400A0E3 		mov	r0, #100
 527 0014 FEFFFFEB 		bl	chThdSleep
 528              	.LVL41:
 529              		.loc 1 197 0
 530 0018 0100A0E3 		mov	r0, #1
 531 001c 641084E2 		add	r1, r4, #100
 532 0020 652084E2 		add	r2, r4, #101
 533 0024 FEFFFFEB 		bl	_test_assert_time_window
 534              	.LVL42:
 535 0028 000050E3 		cmp	r0, #0
 536 002c 3880BD18 		ldmnefd	sp!, {r3, r4, r5, pc}
 537              		.loc 1 200 0
 538 0030 0C4095E5 		ldr	r4, [r5, #12]
 539              	.LVL43:
 540              		.loc 1 201 0
 541 0034 6400A0E3 		mov	r0, #100
 542 0038 FEFFFFEB 		bl	chThdSleep
 543              	.LVL44:
 544              		.loc 1 202 0
 545 003c 0200A0E3 		mov	r0, #2
 546 0040 641084E2 		add	r1, r4, #100
 547 0044 652084E2 		add	r2, r4, #101
 548 0048 FEFFFFEB 		bl	_test_assert_time_window
 549              	.LVL45:
 550 004c 000050E3 		cmp	r0, #0
 551 0050 3880BD18 		ldmnefd	sp!, {r3, r4, r5, pc}
 552              	.LBB4:
 553              	.LBB5:
 554              		.loc 1 205 0
 555 0054 0C4095E5 		ldr	r4, [r5, #12]
 556              	.LVL46:
 557              		.loc 1 206 0
 558 0058 FA0FA0E3 		mov	r0, #1000
 559 005c FEFFFFEB 		bl	chThdSleep
 560              	.LVL47:
 561              		.loc 1 207 0
 562 0060 FA1F84E2 		add	r1, r4, #1000
 563 0064 0300A0E3 		mov	r0, #3
 564 0068 012081E2 		add	r2, r1, #1
 565 006c FEFFFFEB 		bl	_test_assert_time_window
 566              	.LVL48:
 567 0070 000050E3 		cmp	r0, #0
 568 0074 3880BD18 		ldmnefd	sp!, {r3, r4, r5, pc}
 569              		.loc 1 210 0
 570 0078 0C4095E5 		ldr	r4, [r5, #12]
ARM GAS  C:\Users\NICOMA~1\AppData\Local\Temp\ccAPMnF6.s 			page 11


 571              	.LVL49:
 572 007c 645084E2 		add	r5, r4, #100
 573              	.LVL50:
 574              		.loc 1 211 0
 575 0080 0500A0E1 		mov	r0, r5
 576 0084 FEFFFFEB 		bl	chThdSleepUntil
 577              	.LVL51:
 578              		.loc 1 212 0
 579 0088 0400A0E3 		mov	r0, #4
 580 008c 0510A0E1 		mov	r1, r5
 581 0090 652084E2 		add	r2, r4, #101
 582              	.LBE5:
 583              	.LBE4:
 584              		.loc 1 213 0
 585 0094 3840BDE8 		ldmfd	sp!, {r3, r4, r5, lr}
 586              	.LBB7:
 587              	.LBB6:
 588              		.loc 1 212 0
 589 0098 FEFFFFEA 		b	_test_assert_time_window
 590              	.LVL52:
 591              	.L20:
 592              		.align	2
 593              	.L19:
 594 009c 00000000 		.word	vtlist
 595              	.LBE6:
 596              	.LBE7:
 597              		.cfi_endproc
 598              	.LFE11:
 599              		.size	thd4_execute, .-thd4_execute
 600              		.global	patternthd
 601              		.global	testthd4
 602              		.global	testthd3
 603              		.global	testthd2
 604              		.global	testthd1
 605              		.section	.rodata.testthd1,"a",%progbits
 606              		.align	2
 607              		.type	testthd1, %object
 608              		.size	testthd1, 16
 609              	testthd1:
 610 0000 64000000 		.word	.LC9
 611 0004 00000000 		.word	0
 612 0008 00000000 		.word	0
 613 000c 00000000 		.word	thd1_execute
 614              		.section	.rodata.testthd2,"a",%progbits
 615              		.align	2
 616              		.type	testthd2, %object
 617              		.size	testthd2, 16
 618              	testthd2:
 619 0000 48000000 		.word	.LC8
 620 0004 00000000 		.word	0
 621 0008 00000000 		.word	0
 622 000c 00000000 		.word	thd2_execute
 623              		.section	.rodata.testthd3,"a",%progbits
 624              		.align	2
 625              		.type	testthd3, %object
 626              		.size	testthd3, 16
 627              	testthd3:
ARM GAS  C:\Users\NICOMA~1\AppData\Local\Temp\ccAPMnF6.s 			page 12


 628 0000 2C000000 		.word	.LC7
 629 0004 00000000 		.word	0
 630 0008 00000000 		.word	0
 631 000c 00000000 		.word	thd3_execute
 632              		.section	.rodata.testthd4,"a",%progbits
 633              		.align	2
 634              		.type	testthd4, %object
 635              		.size	testthd4, 16
 636              	testthd4:
 637 0000 1C000000 		.word	.LC6
 638 0004 00000000 		.word	0
 639 0008 00000000 		.word	0
 640 000c 00000000 		.word	thd4_execute
 641              		.section	.rodata.patternthd,"a",%progbits
 642              		.align	2
 643              		.type	patternthd, %object
 644              		.size	patternthd, 20
 645              	patternthd:
 646 0000 00000000 		.word	testthd1
 647 0004 00000000 		.word	testthd2
 648 0008 00000000 		.word	testthd3
 649 000c 00000000 		.word	testthd4
 650 0010 00000000 		.word	0
 651              		.section	.rodata.str1.4,"aMS",%progbits,1
 652              		.align	2
 653              	.LC0:
 654 0000 4400     		.ascii	"D\000"
 655 0002 0000     		.space	2
 656              	.LC1:
 657 0004 4500     		.ascii	"E\000"
 658 0006 0000     		.space	2
 659              	.LC2:
 660 0008 4100     		.ascii	"A\000"
 661 000a 0000     		.space	2
 662              	.LC3:
 663 000c 4200     		.ascii	"B\000"
 664 000e 0000     		.space	2
 665              	.LC4:
 666 0010 4300     		.ascii	"C\000"
 667 0012 0000     		.space	2
 668              	.LC5:
 669 0014 41424344 		.ascii	"ABCDE\000"
 669      4500
 670 001a 0000     		.space	2
 671              	.LC6:
 672 001c 54687265 		.ascii	"Threads, delays\000"
 672      6164732C 
 672      2064656C 
 672      61797300 
 673              	.LC7:
 674 002c 54687265 		.ascii	"Threads, priority change\000"
 674      6164732C 
 674      20707269 
 674      6F726974 
 674      79206368 
 675 0045 000000   		.space	3
 676              	.LC8:
ARM GAS  C:\Users\NICOMA~1\AppData\Local\Temp\ccAPMnF6.s 			page 13


 677 0048 54687265 		.ascii	"Threads, enqueuing test #2\000"
 677      6164732C 
 677      20656E71 
 677      75657569 
 677      6E672074 
 678 0063 00       		.space	1
 679              	.LC9:
 680 0064 54687265 		.ascii	"Threads, enqueuing test #1\000"
 680      6164732C 
 680      20656E71 
 680      75657569 
 680      6E672074 
 681 007f 00       		.text
 682              	.Letext0:
 683              		.file 2 "c:\\yagarto-20121222\\bin\\../lib/gcc/arm-none-eabi/4.7.2/include/stddef.h"
 684              		.file 3 "c:/yagarto-20121222/lib/gcc/../../arm-none-eabi/sys-include/stdint.h"
 685              		.file 4 "../../os/ports/GCC/ARM/chtypes.h"
 686              		.file 5 "../../os/kernel/include/chlists.h"
 687              		.file 6 "../../os/kernel/include/chthreads.h"
 688              		.file 7 "../../os/ports/GCC/ARM/chcore.h"
 689              		.file 8 "../../os/kernel/include/chvt.h"
 690              		.file 9 "../../os/kernel/include/chschd.h"
 691              		.file 10 "../../os/kernel/include/chmtx.h"
 692              		.file 11 "../../test/test.h"