ARM GAS  C:\Users\NICOMA~1\AppData\Local\Temp\ccO3Bz3q.s 			page 1


   1              		.cpu arm1176jz-s
   2              		.fpu softvfp
   3              		.eabi_attribute 20, 1
   4              		.eabi_attribute 21, 1
   5              		.eabi_attribute 23, 3
   6              		.eabi_attribute 24, 1
   7              		.eabi_attribute 25, 1
   8              		.eabi_attribute 26, 1
   9              		.eabi_attribute 30, 2
  10              		.eabi_attribute 34, 1
  11              		.eabi_attribute 18, 4
  12              		.file	"testmbox.c"
  13              		.text
  14              	.Ltext0:
  15              		.cfi_sections	.debug_frame
  16              		.section	.text.mbox1_execute,"ax",%progbits
  17              		.align	2
  18              		.type	mbox1_execute, %function
  19              	mbox1_execute:
  20              	.LFB8:
  21              		.file 1 "../../test/testmbox.c"
  22              		.loc 1 76 0
  23              		.cfi_startproc
  24              		@ args = 0, pretend = 0, frame = 8
  25              		@ frame_needed = 0, uses_anonymous_args = 0
  26 0000 70402DE9 		stmfd	sp!, {r4, r5, r6, lr}
  27              	.LCFI0:
  28              		.cfi_def_cfa_offset 16
  29              		.cfi_offset 4, -16
  30              		.cfi_offset 5, -12
  31              		.cfi_offset 6, -8
  32              		.cfi_offset 14, -4
  33              		.loc 1 83 0
  34 0004 A0679FE5 		ldr	r6, .L31
  35              		.loc 1 76 0
  36 0008 08D04DE2 		sub	sp, sp, #8
  37              	.LCFI1:
  38              		.cfi_def_cfa_offset 24
  39              		.loc 1 83 0
  40 000c 241096E5 		ldr	r1, [r6, #36]
  41 0010 0100A0E3 		mov	r0, #1
  42 0014 05E051E2 		subs	lr, r1, #5
  43 0018 00107EE2 		rsbs	r1, lr, #0
  44 001c 0E10B1E0 		adcs	r1, r1, lr
  45 0020 FEFFFFEB 		bl	_test_assert
  46              	.LVL0:
  47 0024 000050E3 		cmp	r0, #0
  48 0028 1800001A 		bne	.L1
  49 002c 4240A0E3 		mov	r4, #66
  50              	.L3:
  51              		.loc 1 89 0
  52 0030 74579FE5 		ldr	r5, .L31
  53 0034 0410A0E1 		mov	r1, r4
  54 0038 0020E0E3 		mvn	r2, #0
  55 003c 0500A0E1 		mov	r0, r5
  56 0040 FEFFFFEB 		bl	chMBPost
  57              	.LVL1:
ARM GAS  C:\Users\NICOMA~1\AppData\Local\Temp\ccO3Bz3q.s 			page 2


  58              		.loc 1 90 0
  59 0044 011070E2 		rsbs	r1, r0, #1
  60 0048 0010A033 		movcc	r1, #0
  61 004c 0200A0E3 		mov	r0, #2
  62              	.LVL2:
  63 0050 FEFFFFEB 		bl	_test_assert
  64              	.LVL3:
  65 0054 000050E3 		cmp	r0, #0
  66 0058 014084E2 		add	r4, r4, #1
  67 005c 0B00001A 		bne	.L1
  68              		.loc 1 88 0
  69 0060 460054E3 		cmp	r4, #70
  70 0064 F1FFFF1A 		bne	.L3
  71              		.loc 1 92 0
  72 0068 4110A0E3 		mov	r1, #65
  73 006c 0020E0E3 		mvn	r2, #0
  74 0070 0500A0E1 		mov	r0, r5
  75 0074 FEFFFFEB 		bl	chMBPostAhead
  76              	.LVL4:
  77              		.loc 1 93 0
  78 0078 011070E2 		rsbs	r1, r0, #1
  79 007c 0010A033 		movcc	r1, #0
  80 0080 0300A0E3 		mov	r0, #3
  81              	.LVL5:
  82 0084 FEFFFFEB 		bl	_test_assert
  83              	.LVL6:
  84 0088 000050E3 		cmp	r0, #0
  85 008c 0100000A 		beq	.L28
  86              	.LVL7:
  87              	.L1:
  88              		.loc 1 220 0
  89 0090 08D08DE2 		add	sp, sp, #8
  90 0094 7080BDE8 		ldmfd	sp!, {r4, r5, r6, pc}
  91              	.L28:
  92              		.loc 1 98 0
  93 0098 5810A0E3 		mov	r1, #88
  94 009c 0120A0E3 		mov	r2, #1
  95 00a0 0500A0E1 		mov	r0, r5
  96 00a4 FEFFFFEB 		bl	chMBPost
  97              	.LVL8:
  98              		.loc 1 99 0
  99 00a8 010070E3 		cmn	r0, #1
 100 00ac 0010A013 		movne	r1, #0
 101 00b0 0110A003 		moveq	r1, #1
 102 00b4 0400A0E3 		mov	r0, #4
 103              	.LVL9:
 104 00b8 FEFFFFEB 		bl	_test_assert
 105              	.LVL10:
 106 00bc 000050E3 		cmp	r0, #0
 107 00c0 F2FFFF1A 		bne	.L1
 108              		.loc 1 100 0
 109              	@ 100 "../../test/testmbox.c" 1
 110 00c4 9FF021E3 		msr     CPSR_c, #0x9F
 111              	@ 0 "" 2
 112              		.loc 1 101 0
 113 00c8 5810A0E3 		mov	r1, #88
 114 00cc 0500A0E1 		mov	r0, r5
ARM GAS  C:\Users\NICOMA~1\AppData\Local\Temp\ccO3Bz3q.s 			page 3


 115 00d0 FEFFFFEB 		bl	chMBPostI
 116              	.LVL11:
 117 00d4 0010A0E1 		mov	r1, r0
 118              	.LVL12:
 119              		.loc 1 102 0
 120              	@ 102 "../../test/testmbox.c" 1
 121 00d8 1FF021E3 		msr     CPSR_c, #0x1F
 122              	@ 0 "" 2
 123              		.loc 1 103 0
 124 00dc 010071E3 		cmn	r1, #1
 125 00e0 0010A013 		movne	r1, #0
 126 00e4 0110A003 		moveq	r1, #1
 127 00e8 0500A0E3 		mov	r0, #5
 128              	.LVL13:
 129 00ec FEFFFFEB 		bl	_test_assert
 130              	.LVL14:
 131 00f0 000050E3 		cmp	r0, #0
 132 00f4 E5FFFF1A 		bne	.L1
 133              		.loc 1 104 0
 134 00f8 5810A0E3 		mov	r1, #88
 135 00fc 0120A0E3 		mov	r2, #1
 136 0100 0500A0E1 		mov	r0, r5
 137 0104 FEFFFFEB 		bl	chMBPostAhead
 138              	.LVL15:
 139              		.loc 1 105 0
 140 0108 010070E3 		cmn	r0, #1
 141 010c 0010A013 		movne	r1, #0
 142 0110 0110A003 		moveq	r1, #1
 143 0114 0600A0E3 		mov	r0, #6
 144              	.LVL16:
 145 0118 FEFFFFEB 		bl	_test_assert
 146              	.LVL17:
 147 011c 000050E3 		cmp	r0, #0
 148 0120 DAFFFF1A 		bne	.L1
 149              		.loc 1 106 0
 150              	@ 106 "../../test/testmbox.c" 1
 151 0124 9FF021E3 		msr     CPSR_c, #0x9F
 152              	@ 0 "" 2
 153              		.loc 1 107 0
 154 0128 5810A0E3 		mov	r1, #88
 155 012c 0500A0E1 		mov	r0, r5
 156 0130 FEFFFFEB 		bl	chMBPostAheadI
 157              	.LVL18:
 158 0134 0010A0E1 		mov	r1, r0
 159              	.LVL19:
 160              		.loc 1 108 0
 161              	@ 108 "../../test/testmbox.c" 1
 162 0138 1FF021E3 		msr     CPSR_c, #0x1F
 163              	@ 0 "" 2
 164              		.loc 1 109 0
 165 013c 010071E3 		cmn	r1, #1
 166 0140 0010A013 		movne	r1, #0
 167 0144 0110A003 		moveq	r1, #1
 168 0148 0700A0E3 		mov	r0, #7
 169              	.LVL20:
 170 014c FEFFFFEB 		bl	_test_assert
 171              	.LVL21:
ARM GAS  C:\Users\NICOMA~1\AppData\Local\Temp\ccO3Bz3q.s 			page 4


 172 0150 000050E3 		cmp	r0, #0
 173 0154 CDFFFF1A 		bne	.L1
 174              		.loc 1 114 0
 175              	@ 114 "../../test/testmbox.c" 1
 176 0158 9FF021E3 		msr     CPSR_c, #0x9F
 177              	@ 0 "" 2
 178 015c 241095E5 		ldr	r1, [r5, #36]
 179 0160 0800A0E3 		mov	r0, #8
 180 0164 011071E2 		rsbs	r1, r1, #1
 181 0168 0010A033 		movcc	r1, #0
 182 016c FEFFFFEB 		bl	_test_assert
 183              	.LVL22:
 184              	@ 114 "../../test/testmbox.c" 1
 185 0170 1FF021E3 		msr     CPSR_c, #0x1F
 186              	@ 0 "" 2
 187 0174 000050E3 		cmp	r0, #0
 188 0178 C4FFFF1A 		bne	.L1
 189              		.loc 1 115 0 discriminator 2
 190              	@ 115 "../../test/testmbox.c" 1
 191 017c 9FF021E3 		msr     CPSR_c, #0x9F
 192              	@ 0 "" 2
 193 0180 181095E5 		ldr	r1, [r5, #24]
 194 0184 0900A0E3 		mov	r0, #9
 195 0188 05C051E2 		subs	ip, r1, #5
 196 018c 00107CE2 		rsbs	r1, ip, #0
 197 0190 0C10B1E0 		adcs	r1, r1, ip
 198 0194 FEFFFFEB 		bl	_test_assert
 199              	.LVL23:
 200              	@ 115 "../../test/testmbox.c" 1
 201 0198 1FF021E3 		msr     CPSR_c, #0x1F
 202              	@ 0 "" 2
 203 019c 000050E3 		cmp	r0, #0
 204 01a0 BAFFFF1A 		bne	.L1
 205              		.loc 1 116 0 discriminator 2
 206              	@ 116 "../../test/testmbox.c" 1
 207 01a4 9FF021E3 		msr     CPSR_c, #0x9F
 208              	@ 0 "" 2
 209 01a8 0C1095E5 		ldr	r1, [r5, #12]
 210 01ac 083095E5 		ldr	r3, [r5, #8]
 211 01b0 0A00A0E3 		mov	r0, #10
 212 01b4 032051E0 		subs	r2, r1, r3
 213 01b8 001072E2 		rsbs	r1, r2, #0
 214 01bc 0210B1E0 		adcs	r1, r1, r2
 215 01c0 FEFFFFEB 		bl	_test_assert
 216              	.LVL24:
 217              	@ 116 "../../test/testmbox.c" 1
 218 01c4 1FF021E3 		msr     CPSR_c, #0x1F
 219              	@ 0 "" 2
 220 01c8 000050E3 		cmp	r0, #0
 221 01cc AFFFFF1A 		bne	.L1
 222              	.LVL25:
 223 01d0 0550A0E3 		mov	r5, #5
 224 01d4 030000EA 		b	.L8
 225              	.LVL26:
 226              	.L30:
 227              		.loc 1 124 0
 228 01d8 0400DDE5 		ldrb	r0, [sp, #4]	@ zero_extendqisi2
ARM GAS  C:\Users\NICOMA~1\AppData\Local\Temp\ccO3Bz3q.s 			page 5


 229 01dc FEFFFFEB 		bl	test_emit_token
 230              	.LVL27:
 231              		.loc 1 121 0
 232 01e0 015055E2 		subs	r5, r5, #1
 233 01e4 0B00000A 		beq	.L29
 234              	.L8:
 235              		.loc 1 122 0
 236 01e8 BC459FE5 		ldr	r4, .L31
 237 01ec 0020E0E3 		mvn	r2, #0
 238 01f0 04108DE2 		add	r1, sp, #4
 239 01f4 0400A0E1 		mov	r0, r4
 240 01f8 FEFFFFEB 		bl	chMBFetch
 241              	.LVL28:
 242              		.loc 1 123 0
 243 01fc 011070E2 		rsbs	r1, r0, #1
 244 0200 0010A033 		movcc	r1, #0
 245 0204 0B00A0E3 		mov	r0, #11
 246              	.LVL29:
 247 0208 FEFFFFEB 		bl	_test_assert
 248              	.LVL30:
 249 020c 000050E3 		cmp	r0, #0
 250 0210 F0FFFF0A 		beq	.L30
 251 0214 9DFFFFEA 		b	.L1
 252              	.L29:
 253              		.loc 1 126 0
 254 0218 0C00A0E3 		mov	r0, #12
 255 021c 8C159FE5 		ldr	r1, .L31+4
 256 0220 FEFFFFEB 		bl	_test_assert_sequence
 257              	.LVL31:
 258 0224 000050E3 		cmp	r0, #0
 259 0228 98FFFF1A 		bne	.L1
 260              		.loc 1 131 0
 261 022c 4710A0E3 		mov	r1, #71
 262 0230 0020E0E3 		mvn	r2, #0
 263 0234 0400A0E1 		mov	r0, r4
 264 0238 FEFFFFEB 		bl	chMBPost
 265              	.LVL32:
 266              		.loc 1 132 0
 267 023c 011070E2 		rsbs	r1, r0, #1
 268 0240 0010A033 		movcc	r1, #0
 269 0244 0D00A0E3 		mov	r0, #13
 270              	.LVL33:
 271 0248 FEFFFFEB 		bl	_test_assert
 272              	.LVL34:
 273 024c 000050E3 		cmp	r0, #0
 274 0250 8EFFFF1A 		bne	.L1
 275              		.loc 1 133 0
 276 0254 04108DE2 		add	r1, sp, #4
 277 0258 0020E0E3 		mvn	r2, #0
 278 025c 0400A0E1 		mov	r0, r4
 279 0260 FEFFFFEB 		bl	chMBFetch
 280              	.LVL35:
 281              		.loc 1 134 0
 282 0264 011070E2 		rsbs	r1, r0, #1
 283 0268 0010A033 		movcc	r1, #0
 284 026c 0E00A0E3 		mov	r0, #14
 285              	.LVL36:
ARM GAS  C:\Users\NICOMA~1\AppData\Local\Temp\ccO3Bz3q.s 			page 6


 286 0270 FEFFFFEB 		bl	_test_assert
 287              	.LVL37:
 288 0274 000050E3 		cmp	r0, #0
 289 0278 84FFFF1A 		bne	.L1
 290              		.loc 1 135 0
 291 027c 001094E5 		ldr	r1, [r4, #0]
 292 0280 083094E5 		ldr	r3, [r4, #8]
 293 0284 0F00A0E3 		mov	r0, #15
 294 0288 033051E0 		subs	r3, r1, r3
 295 028c 001073E2 		rsbs	r1, r3, #0
 296 0290 0310B1E0 		adcs	r1, r1, r3
 297 0294 FEFFFFEB 		bl	_test_assert
 298              	.LVL38:
 299 0298 000050E3 		cmp	r0, #0
 300 029c 7BFFFF1A 		bne	.L1
 301              		.loc 1 136 0
 302 02a0 001094E5 		ldr	r1, [r4, #0]
 303 02a4 0C3094E5 		ldr	r3, [r4, #12]
 304 02a8 1000A0E3 		mov	r0, #16
 305 02ac 03E051E0 		subs	lr, r1, r3
 306 02b0 00107EE2 		rsbs	r1, lr, #0
 307 02b4 0E10B1E0 		adcs	r1, r1, lr
 308 02b8 FEFFFFEB 		bl	_test_assert
 309              	.LVL39:
 310 02bc 000050E3 		cmp	r0, #0
 311 02c0 72FFFF1A 		bne	.L1
 312              		.loc 1 141 0
 313 02c4 04108DE2 		add	r1, sp, #4
 314 02c8 0120A0E3 		mov	r2, #1
 315 02cc 0400A0E1 		mov	r0, r4
 316 02d0 FEFFFFEB 		bl	chMBFetch
 317              	.LVL40:
 318              		.loc 1 142 0
 319 02d4 010070E3 		cmn	r0, #1
 320 02d8 0010A013 		movne	r1, #0
 321 02dc 0110A003 		moveq	r1, #1
 322 02e0 1100A0E3 		mov	r0, #17
 323              	.LVL41:
 324 02e4 FEFFFFEB 		bl	_test_assert
 325              	.LVL42:
 326 02e8 000050E3 		cmp	r0, #0
 327 02ec 67FFFF1A 		bne	.L1
 328              		.loc 1 143 0
 329              	@ 143 "../../test/testmbox.c" 1
 330 02f0 9FF021E3 		msr     CPSR_c, #0x9F
 331              	@ 0 "" 2
 332              		.loc 1 144 0
 333 02f4 04108DE2 		add	r1, sp, #4
 334 02f8 0400A0E1 		mov	r0, r4
 335 02fc FEFFFFEB 		bl	chMBFetchI
 336              	.LVL43:
 337 0300 0010A0E1 		mov	r1, r0
 338              	.LVL44:
 339              		.loc 1 145 0
 340              	@ 145 "../../test/testmbox.c" 1
 341 0304 1FF021E3 		msr     CPSR_c, #0x1F
 342              	@ 0 "" 2
ARM GAS  C:\Users\NICOMA~1\AppData\Local\Temp\ccO3Bz3q.s 			page 7


 343              		.loc 1 146 0
 344 0308 010071E3 		cmn	r1, #1
 345 030c 0010A013 		movne	r1, #0
 346 0310 0110A003 		moveq	r1, #1
 347 0314 1200A0E3 		mov	r0, #18
 348              	.LVL45:
 349 0318 FEFFFFEB 		bl	_test_assert
 350              	.LVL46:
 351 031c 000050E3 		cmp	r0, #0
 352 0320 5AFFFF1A 		bne	.L1
 353              		.loc 1 151 0
 354              	@ 151 "../../test/testmbox.c" 1
 355 0324 9FF021E3 		msr     CPSR_c, #0x9F
 356              	@ 0 "" 2
 357 0328 241094E5 		ldr	r1, [r4, #36]
 358 032c 1300A0E3 		mov	r0, #19
 359 0330 05C051E2 		subs	ip, r1, #5
 360 0334 00107CE2 		rsbs	r1, ip, #0
 361 0338 0C10B1E0 		adcs	r1, r1, ip
 362 033c FEFFFFEB 		bl	_test_assert
 363              	.LVL47:
 364              	@ 151 "../../test/testmbox.c" 1
 365 0340 1FF021E3 		msr     CPSR_c, #0x1F
 366              	@ 0 "" 2
 367 0344 000050E3 		cmp	r0, #0
 368 0348 50FFFF1A 		bne	.L1
 369              		.loc 1 152 0 discriminator 2
 370              	@ 152 "../../test/testmbox.c" 1
 371 034c 9FF021E3 		msr     CPSR_c, #0x9F
 372              	@ 0 "" 2
 373 0350 181096E5 		ldr	r1, [r6, #24]
 374 0354 1400A0E3 		mov	r0, #20
 375 0358 011071E2 		rsbs	r1, r1, #1
 376 035c 0010A033 		movcc	r1, #0
 377 0360 FEFFFFEB 		bl	_test_assert
 378              	.LVL48:
 379              	@ 152 "../../test/testmbox.c" 1
 380 0364 1FF021E3 		msr     CPSR_c, #0x1F
 381              	@ 0 "" 2
 382 0368 000050E3 		cmp	r0, #0
 383 036c 38449FE5 		ldr	r4, .L31
 384 0370 46FFFF1A 		bne	.L1
 385              		.loc 1 153 0 discriminator 2
 386              	@ 153 "../../test/testmbox.c" 1
 387 0374 9FF021E3 		msr     CPSR_c, #0x9F
 388              	@ 0 "" 2
 389 0378 0C1094E5 		ldr	r1, [r4, #12]
 390 037c 083094E5 		ldr	r3, [r4, #8]
 391 0380 1500A0E3 		mov	r0, #21
 392 0384 032051E0 		subs	r2, r1, r3
 393 0388 001072E2 		rsbs	r1, r2, #0
 394 038c 0210B1E0 		adcs	r1, r1, r2
 395 0390 FEFFFFEB 		bl	_test_assert
 396              	.LVL49:
 397              	@ 153 "../../test/testmbox.c" 1
 398 0394 1FF021E3 		msr     CPSR_c, #0x1F
 399              	@ 0 "" 2
ARM GAS  C:\Users\NICOMA~1\AppData\Local\Temp\ccO3Bz3q.s 			page 8


 400 0398 000050E3 		cmp	r0, #0
 401 039c 3BFFFF1A 		bne	.L1
 402              		.loc 1 158 0 discriminator 2
 403              	@ 158 "../../test/testmbox.c" 1
 404 03a0 9FF021E3 		msr     CPSR_c, #0x9F
 405              	@ 0 "" 2
 406              		.loc 1 159 0 discriminator 2
 407 03a4 4110A0E3 		mov	r1, #65
 408 03a8 0400A0E1 		mov	r0, r4
 409 03ac FEFFFFEB 		bl	chMBPostI
 410              	.LVL50:
 411              		.loc 1 160 0 discriminator 2
 412 03b0 011070E2 		rsbs	r1, r0, #1
 413 03b4 0010A033 		movcc	r1, #0
 414 03b8 1600A0E3 		mov	r0, #22
 415              	.LVL51:
 416 03bc FEFFFFEB 		bl	_test_assert
 417              	.LVL52:
 418 03c0 000050E3 		cmp	r0, #0
 419 03c4 31FFFF1A 		bne	.L1
 420              		.loc 1 161 0
 421 03c8 4210A0E3 		mov	r1, #66
 422 03cc 0400A0E1 		mov	r0, r4
 423 03d0 FEFFFFEB 		bl	chMBPostI
 424              	.LVL53:
 425              		.loc 1 162 0
 426 03d4 011070E2 		rsbs	r1, r0, #1
 427 03d8 0010A033 		movcc	r1, #0
 428 03dc 1700A0E3 		mov	r0, #23
 429              	.LVL54:
 430 03e0 FEFFFFEB 		bl	_test_assert
 431              	.LVL55:
 432 03e4 000050E3 		cmp	r0, #0
 433 03e8 28FFFF1A 		bne	.L1
 434              		.loc 1 163 0
 435 03ec 4310A0E3 		mov	r1, #67
 436 03f0 0400A0E1 		mov	r0, r4
 437 03f4 FEFFFFEB 		bl	chMBPostI
 438              	.LVL56:
 439              		.loc 1 164 0
 440 03f8 011070E2 		rsbs	r1, r0, #1
 441 03fc 0010A033 		movcc	r1, #0
 442 0400 1800A0E3 		mov	r0, #24
 443              	.LVL57:
 444 0404 FEFFFFEB 		bl	_test_assert
 445              	.LVL58:
 446 0408 000050E3 		cmp	r0, #0
 447 040c 1FFFFF1A 		bne	.L1
 448              		.loc 1 165 0
 449 0410 4410A0E3 		mov	r1, #68
 450 0414 0400A0E1 		mov	r0, r4
 451 0418 FEFFFFEB 		bl	chMBPostI
 452              	.LVL59:
 453              		.loc 1 166 0
 454 041c 011070E2 		rsbs	r1, r0, #1
 455 0420 0010A033 		movcc	r1, #0
 456 0424 1900A0E3 		mov	r0, #25
ARM GAS  C:\Users\NICOMA~1\AppData\Local\Temp\ccO3Bz3q.s 			page 9


 457              	.LVL60:
 458 0428 FEFFFFEB 		bl	_test_assert
 459              	.LVL61:
 460 042c 000050E3 		cmp	r0, #0
 461 0430 16FFFF1A 		bne	.L1
 462              		.loc 1 167 0
 463 0434 0400A0E1 		mov	r0, r4
 464 0438 4510A0E3 		mov	r1, #69
 465 043c FEFFFFEB 		bl	chMBPostI
 466              	.LVL62:
 467 0440 0010A0E1 		mov	r1, r0
 468              	.LVL63:
 469              		.loc 1 168 0
 470              	@ 168 "../../test/testmbox.c" 1
 471 0444 1FF021E3 		msr     CPSR_c, #0x1F
 472              	@ 0 "" 2
 473              		.loc 1 169 0
 474 0448 011071E2 		rsbs	r1, r1, #1
 475 044c 0010A033 		movcc	r1, #0
 476 0450 1A00A0E3 		mov	r0, #26
 477              	.LVL64:
 478 0454 FEFFFFEB 		bl	_test_assert
 479              	.LVL65:
 480 0458 000050E3 		cmp	r0, #0
 481 045c 0BFFFF1A 		bne	.L1
 482              		.loc 1 170 0
 483 0460 0C1094E5 		ldr	r1, [r4, #12]
 484 0464 083094E5 		ldr	r3, [r4, #8]
 485 0468 1B00A0E3 		mov	r0, #27
 486 046c 033051E0 		subs	r3, r1, r3
 487 0470 001073E2 		rsbs	r1, r3, #0
 488 0474 0310B1E0 		adcs	r1, r1, r3
 489 0478 FEFFFFEB 		bl	_test_assert
 490              	.LVL66:
 491 047c 000050E3 		cmp	r0, #0
 492 0480 02FFFF1A 		bne	.L1
 493 0484 0550A0E3 		mov	r5, #5
 494              	.L12:
 495              		.loc 1 172 0
 496              	@ 172 "../../test/testmbox.c" 1
 497 0488 9FF021E3 		msr     CPSR_c, #0x9F
 498              	@ 0 "" 2
 499              		.loc 1 173 0
 500 048c 18439FE5 		ldr	r4, .L31
 501 0490 04108DE2 		add	r1, sp, #4
 502 0494 0400A0E1 		mov	r0, r4
 503 0498 FEFFFFEB 		bl	chMBFetchI
 504              	.LVL67:
 505 049c 0010A0E1 		mov	r1, r0
 506              	.LVL68:
 507              		.loc 1 174 0
 508              	@ 174 "../../test/testmbox.c" 1
 509 04a0 1FF021E3 		msr     CPSR_c, #0x1F
 510              	@ 0 "" 2
 511              		.loc 1 175 0
 512 04a4 011071E2 		rsbs	r1, r1, #1
 513 04a8 0010A033 		movcc	r1, #0
ARM GAS  C:\Users\NICOMA~1\AppData\Local\Temp\ccO3Bz3q.s 			page 10


 514 04ac 1C00A0E3 		mov	r0, #28
 515              	.LVL69:
 516 04b0 FEFFFFEB 		bl	_test_assert
 517              	.LVL70:
 518 04b4 000050E3 		cmp	r0, #0
 519 04b8 F4FEFF1A 		bne	.L1
 520              		.loc 1 176 0
 521 04bc 0400DDE5 		ldrb	r0, [sp, #4]	@ zero_extendqisi2
 522 04c0 FEFFFFEB 		bl	test_emit_token
 523              	.LVL71:
 524              		.loc 1 171 0
 525 04c4 015055E2 		subs	r5, r5, #1
 526 04c8 EEFFFF1A 		bne	.L12
 527              		.loc 1 178 0
 528 04cc 1D00A0E3 		mov	r0, #29
 529 04d0 D8129FE5 		ldr	r1, .L31+4
 530 04d4 FEFFFFEB 		bl	_test_assert_sequence
 531              	.LVL72:
 532 04d8 000050E3 		cmp	r0, #0
 533 04dc EBFEFF1A 		bne	.L1
 534              		.loc 1 179 0
 535              	@ 179 "../../test/testmbox.c" 1
 536 04e0 9FF021E3 		msr     CPSR_c, #0x9F
 537              	@ 0 "" 2
 538 04e4 241094E5 		ldr	r1, [r4, #36]
 539 04e8 1E00A0E3 		mov	r0, #30
 540 04ec 05E051E2 		subs	lr, r1, #5
 541 04f0 00107EE2 		rsbs	r1, lr, #0
 542 04f4 0E10B1E0 		adcs	r1, r1, lr
 543 04f8 FEFFFFEB 		bl	_test_assert
 544              	.LVL73:
 545              	@ 179 "../../test/testmbox.c" 1
 546 04fc 1FF021E3 		msr     CPSR_c, #0x1F
 547              	@ 0 "" 2
 548 0500 000050E3 		cmp	r0, #0
 549 0504 E1FEFF1A 		bne	.L1
 550              		.loc 1 180 0 discriminator 2
 551              	@ 180 "../../test/testmbox.c" 1
 552 0508 9FF021E3 		msr     CPSR_c, #0x9F
 553              	@ 0 "" 2
 554 050c 181094E5 		ldr	r1, [r4, #24]
 555 0510 1F00A0E3 		mov	r0, #31
 556 0514 011071E2 		rsbs	r1, r1, #1
 557 0518 0010A033 		movcc	r1, #0
 558 051c FEFFFFEB 		bl	_test_assert
 559              	.LVL74:
 560              	@ 180 "../../test/testmbox.c" 1
 561 0520 1FF021E3 		msr     CPSR_c, #0x1F
 562              	@ 0 "" 2
 563 0524 000050E3 		cmp	r0, #0
 564 0528 D8FEFF1A 		bne	.L1
 565              		.loc 1 181 0 discriminator 2
 566 052c 0C1094E5 		ldr	r1, [r4, #12]
 567 0530 083094E5 		ldr	r3, [r4, #8]
 568 0534 2000A0E3 		mov	r0, #32
 569 0538 03C051E0 		subs	ip, r1, r3
 570 053c 00107CE2 		rsbs	r1, ip, #0
ARM GAS  C:\Users\NICOMA~1\AppData\Local\Temp\ccO3Bz3q.s 			page 11


 571 0540 0C10B1E0 		adcs	r1, r1, ip
 572 0544 FEFFFFEB 		bl	_test_assert
 573              	.LVL75:
 574 0548 000050E3 		cmp	r0, #0
 575 054c CFFEFF1A 		bne	.L1
 576              		.loc 1 183 0
 577              	@ 183 "../../test/testmbox.c" 1
 578 0550 9FF021E3 		msr     CPSR_c, #0x9F
 579              	@ 0 "" 2
 580              		.loc 1 184 0
 581 0554 4510A0E3 		mov	r1, #69
 582 0558 0400A0E1 		mov	r0, r4
 583 055c FEFFFFEB 		bl	chMBPostAheadI
 584              	.LVL76:
 585              		.loc 1 185 0
 586 0560 011070E2 		rsbs	r1, r0, #1
 587 0564 0010A033 		movcc	r1, #0
 588 0568 2100A0E3 		mov	r0, #33
 589              	.LVL77:
 590 056c FEFFFFEB 		bl	_test_assert
 591              	.LVL78:
 592 0570 000050E3 		cmp	r0, #0
 593 0574 C5FEFF1A 		bne	.L1
 594              		.loc 1 186 0
 595 0578 4410A0E3 		mov	r1, #68
 596 057c 0400A0E1 		mov	r0, r4
 597 0580 FEFFFFEB 		bl	chMBPostAheadI
 598              	.LVL79:
 599              		.loc 1 187 0
 600 0584 011070E2 		rsbs	r1, r0, #1
 601 0588 0010A033 		movcc	r1, #0
 602 058c 2200A0E3 		mov	r0, #34
 603              	.LVL80:
 604 0590 FEFFFFEB 		bl	_test_assert
 605              	.LVL81:
 606 0594 000050E3 		cmp	r0, #0
 607 0598 BCFEFF1A 		bne	.L1
 608              		.loc 1 188 0
 609 059c 4310A0E3 		mov	r1, #67
 610 05a0 0400A0E1 		mov	r0, r4
 611 05a4 FEFFFFEB 		bl	chMBPostAheadI
 612              	.LVL82:
 613              		.loc 1 189 0
 614 05a8 011070E2 		rsbs	r1, r0, #1
 615 05ac 0010A033 		movcc	r1, #0
 616 05b0 2300A0E3 		mov	r0, #35
 617              	.LVL83:
 618 05b4 FEFFFFEB 		bl	_test_assert
 619              	.LVL84:
 620 05b8 000050E3 		cmp	r0, #0
 621 05bc B3FEFF1A 		bne	.L1
 622              		.loc 1 190 0
 623 05c0 4210A0E3 		mov	r1, #66
 624 05c4 0400A0E1 		mov	r0, r4
 625 05c8 FEFFFFEB 		bl	chMBPostAheadI
 626              	.LVL85:
 627              		.loc 1 191 0
ARM GAS  C:\Users\NICOMA~1\AppData\Local\Temp\ccO3Bz3q.s 			page 12


 628 05cc 011070E2 		rsbs	r1, r0, #1
 629 05d0 0010A033 		movcc	r1, #0
 630 05d4 2400A0E3 		mov	r0, #36
 631              	.LVL86:
 632 05d8 FEFFFFEB 		bl	_test_assert
 633              	.LVL87:
 634 05dc 000050E3 		cmp	r0, #0
 635 05e0 AAFEFF1A 		bne	.L1
 636              		.loc 1 192 0
 637 05e4 C0419FE5 		ldr	r4, .L31
 638 05e8 4110A0E3 		mov	r1, #65
 639 05ec 0400A0E1 		mov	r0, r4
 640 05f0 FEFFFFEB 		bl	chMBPostAheadI
 641              	.LVL88:
 642 05f4 0010A0E1 		mov	r1, r0
 643              	.LVL89:
 644              		.loc 1 193 0
 645              	@ 193 "../../test/testmbox.c" 1
 646 05f8 1FF021E3 		msr     CPSR_c, #0x1F
 647              	@ 0 "" 2
 648              		.loc 1 194 0
 649 05fc 011071E2 		rsbs	r1, r1, #1
 650 0600 0010A033 		movcc	r1, #0
 651 0604 2500A0E3 		mov	r0, #37
 652              	.LVL90:
 653 0608 FEFFFFEB 		bl	_test_assert
 654              	.LVL91:
 655 060c 000050E3 		cmp	r0, #0
 656 0610 9EFEFF1A 		bne	.L1
 657              		.loc 1 195 0
 658 0614 0C1094E5 		ldr	r1, [r4, #12]
 659 0618 083094E5 		ldr	r3, [r4, #8]
 660 061c 2600A0E3 		mov	r0, #38
 661 0620 032051E0 		subs	r2, r1, r3
 662 0624 001072E2 		rsbs	r1, r2, #0
 663 0628 0210B1E0 		adcs	r1, r1, r2
 664 062c FEFFFFEB 		bl	_test_assert
 665              	.LVL92:
 666 0630 000050E3 		cmp	r0, #0
 667 0634 95FEFF1A 		bne	.L1
 668 0638 0550A0E3 		mov	r5, #5
 669              	.L15:
 670              		.loc 1 197 0
 671              	@ 197 "../../test/testmbox.c" 1
 672 063c 9FF021E3 		msr     CPSR_c, #0x9F
 673              	@ 0 "" 2
 674              		.loc 1 198 0
 675 0640 64419FE5 		ldr	r4, .L31
 676 0644 04108DE2 		add	r1, sp, #4
 677 0648 0400A0E1 		mov	r0, r4
 678 064c FEFFFFEB 		bl	chMBFetchI
 679              	.LVL93:
 680 0650 0010A0E1 		mov	r1, r0
 681              	.LVL94:
 682              		.loc 1 199 0
 683              	@ 199 "../../test/testmbox.c" 1
 684 0654 1FF021E3 		msr     CPSR_c, #0x1F
ARM GAS  C:\Users\NICOMA~1\AppData\Local\Temp\ccO3Bz3q.s 			page 13


 685              	@ 0 "" 2
 686              		.loc 1 200 0
 687 0658 011071E2 		rsbs	r1, r1, #1
 688 065c 0010A033 		movcc	r1, #0
 689 0660 2700A0E3 		mov	r0, #39
 690              	.LVL95:
 691 0664 FEFFFFEB 		bl	_test_assert
 692              	.LVL96:
 693 0668 000050E3 		cmp	r0, #0
 694 066c 87FEFF1A 		bne	.L1
 695              		.loc 1 201 0
 696 0670 0400DDE5 		ldrb	r0, [sp, #4]	@ zero_extendqisi2
 697 0674 FEFFFFEB 		bl	test_emit_token
 698              	.LVL97:
 699              		.loc 1 196 0
 700 0678 015055E2 		subs	r5, r5, #1
 701 067c EEFFFF1A 		bne	.L15
 702              		.loc 1 203 0
 703 0680 2800A0E3 		mov	r0, #40
 704 0684 24119FE5 		ldr	r1, .L31+4
 705 0688 FEFFFFEB 		bl	_test_assert_sequence
 706              	.LVL98:
 707 068c 000050E3 		cmp	r0, #0
 708 0690 7EFEFF1A 		bne	.L1
 709              		.loc 1 204 0
 710              	@ 204 "../../test/testmbox.c" 1
 711 0694 9FF021E3 		msr     CPSR_c, #0x9F
 712              	@ 0 "" 2
 713 0698 241094E5 		ldr	r1, [r4, #36]
 714 069c 2900A0E3 		mov	r0, #41
 715 06a0 053051E2 		subs	r3, r1, #5
 716 06a4 001073E2 		rsbs	r1, r3, #0
 717 06a8 0310B1E0 		adcs	r1, r1, r3
 718 06ac FEFFFFEB 		bl	_test_assert
 719              	.LVL99:
 720              	@ 204 "../../test/testmbox.c" 1
 721 06b0 1FF021E3 		msr     CPSR_c, #0x1F
 722              	@ 0 "" 2
 723 06b4 000050E3 		cmp	r0, #0
 724 06b8 74FEFF1A 		bne	.L1
 725              		.loc 1 205 0 discriminator 2
 726              	@ 205 "../../test/testmbox.c" 1
 727 06bc 9FF021E3 		msr     CPSR_c, #0x9F
 728              	@ 0 "" 2
 729 06c0 181094E5 		ldr	r1, [r4, #24]
 730 06c4 2A00A0E3 		mov	r0, #42
 731 06c8 011071E2 		rsbs	r1, r1, #1
 732 06cc 0010A033 		movcc	r1, #0
 733 06d0 FEFFFFEB 		bl	_test_assert
 734              	.LVL100:
 735              	@ 205 "../../test/testmbox.c" 1
 736 06d4 1FF021E3 		msr     CPSR_c, #0x1F
 737              	@ 0 "" 2
 738 06d8 000050E3 		cmp	r0, #0
 739 06dc 6BFEFF1A 		bne	.L1
 740              		.loc 1 206 0 discriminator 2
 741 06e0 0C1094E5 		ldr	r1, [r4, #12]
ARM GAS  C:\Users\NICOMA~1\AppData\Local\Temp\ccO3Bz3q.s 			page 14


 742 06e4 083094E5 		ldr	r3, [r4, #8]
 743 06e8 2B00A0E3 		mov	r0, #43
 744 06ec 03E051E0 		subs	lr, r1, r3
 745 06f0 00107EE2 		rsbs	r1, lr, #0
 746 06f4 0E10B1E0 		adcs	r1, r1, lr
 747 06f8 FEFFFFEB 		bl	_test_assert
 748              	.LVL101:
 749 06fc 000050E3 		cmp	r0, #0
 750 0700 62FEFF1A 		bne	.L1
 751              		.loc 1 211 0
 752 0704 0400A0E1 		mov	r0, r4
 753 0708 FEFFFFEB 		bl	chMBReset
 754              	.LVL102:
 755              		.loc 1 216 0
 756              	@ 216 "../../test/testmbox.c" 1
 757 070c 9FF021E3 		msr     CPSR_c, #0x9F
 758              	@ 0 "" 2
 759 0710 241094E5 		ldr	r1, [r4, #36]
 760 0714 2C00A0E3 		mov	r0, #44
 761 0718 05C051E2 		subs	ip, r1, #5
 762 071c 00107CE2 		rsbs	r1, ip, #0
 763 0720 0C10B1E0 		adcs	r1, r1, ip
 764 0724 FEFFFFEB 		bl	_test_assert
 765              	.LVL103:
 766              	@ 216 "../../test/testmbox.c" 1
 767 0728 1FF021E3 		msr     CPSR_c, #0x1F
 768              	@ 0 "" 2
 769 072c 000050E3 		cmp	r0, #0
 770 0730 56FEFF1A 		bne	.L1
 771              		.loc 1 217 0 discriminator 2
 772              	@ 217 "../../test/testmbox.c" 1
 773 0734 9FF021E3 		msr     CPSR_c, #0x9F
 774              	@ 0 "" 2
 775 0738 181094E5 		ldr	r1, [r4, #24]
 776 073c 2D00A0E3 		mov	r0, #45
 777 0740 011071E2 		rsbs	r1, r1, #1
 778 0744 0010A033 		movcc	r1, #0
 779 0748 FEFFFFEB 		bl	_test_assert
 780              	.LVL104:
 781              	@ 217 "../../test/testmbox.c" 1
 782 074c 1FF021E3 		msr     CPSR_c, #0x1F
 783              	@ 0 "" 2
 784 0750 000050E3 		cmp	r0, #0
 785 0754 4DFEFF1A 		bne	.L1
 786              		.loc 1 218 0 discriminator 2
 787              	@ 218 "../../test/testmbox.c" 1
 788 0758 9FF021E3 		msr     CPSR_c, #0x9F
 789              	@ 0 "" 2
 790 075c 001094E5 		ldr	r1, [r4, #0]
 791 0760 083094E5 		ldr	r3, [r4, #8]
 792 0764 2E00A0E3 		mov	r0, #46
 793 0768 032051E0 		subs	r2, r1, r3
 794 076c 001072E2 		rsbs	r1, r2, #0
 795 0770 0210B1E0 		adcs	r1, r1, r2
 796 0774 FEFFFFEB 		bl	_test_assert
 797              	.LVL105:
 798              	@ 218 "../../test/testmbox.c" 1
ARM GAS  C:\Users\NICOMA~1\AppData\Local\Temp\ccO3Bz3q.s 			page 15


 799 0778 1FF021E3 		msr     CPSR_c, #0x1F
 800              	@ 0 "" 2
 801 077c 000050E3 		cmp	r0, #0
 802 0780 42FEFF1A 		bne	.L1
 803              		.loc 1 219 0 discriminator 2
 804              	@ 219 "../../test/testmbox.c" 1
 805 0784 9FF021E3 		msr     CPSR_c, #0x9F
 806              	@ 0 "" 2
 807 0788 001094E5 		ldr	r1, [r4, #0]
 808 078c 0C3094E5 		ldr	r3, [r4, #12]
 809 0790 2F00A0E3 		mov	r0, #47
 810 0794 033051E0 		subs	r3, r1, r3
 811 0798 001073E2 		rsbs	r1, r3, #0
 812 079c 0310B1E0 		adcs	r1, r1, r3
 813 07a0 FEFFFFEB 		bl	_test_assert
 814              	.LVL106:
 815              	@ 219 "../../test/testmbox.c" 1
 816 07a4 1FF021E3 		msr     CPSR_c, #0x1F
 817              	@ 0 "" 2
 818 07a8 38FEFFEA 		b	.L1
 819              	.L32:
 820              		.align	2
 821              	.L31:
 822 07ac 00000000 		.word	.LANCHOR0
 823 07b0 00000000 		.word	.LC0
 824              		.cfi_endproc
 825              	.LFE8:
 826              		.size	mbox1_execute, .-mbox1_execute
 827              		.section	.text.mbox1_setup,"ax",%progbits
 828              		.align	2
 829              		.type	mbox1_setup, %function
 830              	mbox1_setup:
 831              	.LFB7:
 832              		.loc 1 71 0
 833              		.cfi_startproc
 834              		@ args = 0, pretend = 0, frame = 0
 835              		@ frame_needed = 0, uses_anonymous_args = 0
 836              		@ link register save eliminated.
 837              		.loc 1 73 0
 838 0000 08009FE5 		ldr	r0, .L34
 839 0004 08109FE5 		ldr	r1, .L34+4
 840 0008 0520A0E3 		mov	r2, #5
 841              		.loc 1 74 0
 842              		.loc 1 73 0
 843 000c FEFFFFEA 		b	chMBInit
 844              	.LVL107:
 845              	.L35:
 846              		.align	2
 847              	.L34:
 848 0010 00000000 		.word	.LANCHOR0
 849 0014 00000000 		.word	test
 850              		.cfi_endproc
 851              	.LFE7:
 852              		.size	mbox1_setup, .-mbox1_setup
 853              		.global	patternmbox
 854              		.global	testmbox1
 855              		.section	.data.mb1,"aw",%progbits
ARM GAS  C:\Users\NICOMA~1\AppData\Local\Temp\ccO3Bz3q.s 			page 16


 856              		.align	2
 857              		.set	.LANCHOR0,. + 0
 858              		.type	mb1, %object
 859              		.size	mb1, 40
 860              	mb1:
 861 0000 00000000 		.word	test
 862 0004 14000000 		.word	test+20
 863 0008 00000000 		.word	test
 864 000c 00000000 		.word	test
 865 0010 10000000 		.word	mb1+16
 866 0014 10000000 		.word	mb1+16
 867 0018 00000000 		.word	0
 868 001c 1C000000 		.word	mb1+28
 869 0020 1C000000 		.word	mb1+28
 870 0024 05000000 		.word	5
 871              		.section	.rodata.patternmbox,"a",%progbits
 872              		.align	2
 873              		.type	patternmbox, %object
 874              		.size	patternmbox, 8
 875              	patternmbox:
 876 0000 00000000 		.word	testmbox1
 877 0004 00000000 		.word	0
 878              		.section	.rodata.str1.4,"aMS",%progbits,1
 879              		.align	2
 880              	.LC0:
 881 0000 41424344 		.ascii	"ABCDE\000"
 881      4500
 882 0006 0000     		.space	2
 883              	.LC1:
 884 0008 4D61696C 		.ascii	"Mailboxes, queuing and timeouts\000"
 884      626F7865 
 884      732C2071 
 884      75657569 
 884      6E672061 
 885              		.section	.rodata.testmbox1,"a",%progbits
 886              		.align	2
 887              		.type	testmbox1, %object
 888              		.size	testmbox1, 16
 889              	testmbox1:
 890 0000 08000000 		.word	.LC1
 891 0004 00000000 		.word	mbox1_setup
 892 0008 00000000 		.word	0
 893 000c 00000000 		.word	mbox1_execute
 894              		.text
 895              	.Letext0:
 896              		.file 2 "c:/yagarto-20121222/lib/gcc/../../arm-none-eabi/sys-include/stdint.h"
 897              		.file 3 "../../os/ports/GCC/ARM/chtypes.h"
 898              		.file 4 "../../os/kernel/include/chlists.h"
 899              		.file 5 "../../os/kernel/include/chthreads.h"
 900              		.file 6 "../../os/ports/GCC/ARM/chcore.h"
 901              		.file 7 "../../os/kernel/include/chsem.h"
 902              		.file 8 "../../os/kernel/include/chmtx.h"
 903              		.file 9 "../../os/kernel/include/chmboxes.h"
 904              		.file 10 "../../test/test.h"
 905              		.section	.debug_info,"",%progbits
 906              	.Ldebug_info0:
 907 0000 CC0D0000 		.4byte	0xdcc
ARM GAS  C:\Users\NICOMA~1\AppData\Local\Temp\ccO3Bz3q.s 			page 17


 908 0004 0200     		.2byte	0x2
 909 0006 00000000 		.4byte	.Ldebug_abbrev0
 910 000a 04       		.byte	0x4
 911 000b 01       		.uleb128 0x1
 912 000c 51020000 		.4byte	.LASF90
 913 0010 01       		.byte	0x1
 914 0011 BB020000 		.4byte	.LASF91
 915 0015 DD000000 		.4byte	.LASF92
 916 0019 00000000 		.4byte	.Ldebug_ranges0+0
 917 001d 00000000 		.4byte	0
 918 0021 00000000 		.4byte	0
 919 0025 00000000 		.4byte	.Ldebug_line0
 920 0029 02       		.uleb128 0x2
 921 002a 04       		.byte	0x4
 922 002b 05       		.byte	0x5
 923 002c 696E7400 		.ascii	"int\000"
 924 0030 03       		.uleb128 0x3
 925 0031 04       		.byte	0x4
 926 0032 07       		.byte	0x7
 927 0033 27010000 		.4byte	.LASF0
 928 0037 03       		.uleb128 0x3
 929 0038 01       		.byte	0x1
 930 0039 06       		.byte	0x6
 931 003a 7D000000 		.4byte	.LASF1
 932 003e 04       		.uleb128 0x4
 933 003f 97030000 		.4byte	.LASF5
 934 0043 02       		.byte	0x2
 935 0044 2A       		.byte	0x2a
 936 0045 49000000 		.4byte	0x49
 937 0049 03       		.uleb128 0x3
 938 004a 01       		.byte	0x1
 939 004b 08       		.byte	0x8
 940 004c 8A020000 		.4byte	.LASF2
 941 0050 03       		.uleb128 0x3
 942 0051 02       		.byte	0x2
 943 0052 05       		.byte	0x5
 944 0053 B1020000 		.4byte	.LASF3
 945 0057 03       		.uleb128 0x3
 946 0058 02       		.byte	0x2
 947 0059 07       		.byte	0x7
 948 005a 8F010000 		.4byte	.LASF4
 949 005e 04       		.uleb128 0x4
 950 005f 82020000 		.4byte	.LASF6
 951 0063 02       		.byte	0x2
 952 0064 4F       		.byte	0x4f
 953 0065 69000000 		.4byte	0x69
 954 0069 03       		.uleb128 0x3
 955 006a 04       		.byte	0x4
 956 006b 05       		.byte	0x5
 957 006c BB000000 		.4byte	.LASF7
 958 0070 04       		.uleb128 0x4
 959 0071 0C030000 		.4byte	.LASF8
 960 0075 02       		.byte	0x2
 961 0076 50       		.byte	0x50
 962 0077 7B000000 		.4byte	0x7b
 963 007b 03       		.uleb128 0x3
 964 007c 04       		.byte	0x4
ARM GAS  C:\Users\NICOMA~1\AppData\Local\Temp\ccO3Bz3q.s 			page 18


 965 007d 07       		.byte	0x7
 966 007e 47010000 		.4byte	.LASF9
 967 0082 03       		.uleb128 0x3
 968 0083 08       		.byte	0x8
 969 0084 05       		.byte	0x5
 970 0085 6F000000 		.4byte	.LASF10
 971 0089 03       		.uleb128 0x3
 972 008a 08       		.byte	0x8
 973 008b 07       		.byte	0x7
 974 008c 2E000000 		.4byte	.LASF11
 975 0090 04       		.uleb128 0x4
 976 0091 89000000 		.4byte	.LASF12
 977 0095 03       		.byte	0x3
 978 0096 2B       		.byte	0x2b
 979 0097 9B000000 		.4byte	0x9b
 980 009b 03       		.uleb128 0x3
 981 009c 01       		.byte	0x1
 982 009d 02       		.byte	0x2
 983 009e 7C020000 		.4byte	.LASF13
 984 00a2 04       		.uleb128 0x4
 985 00a3 B3010000 		.4byte	.LASF14
 986 00a7 03       		.byte	0x3
 987 00a8 2C       		.byte	0x2c
 988 00a9 3E000000 		.4byte	0x3e
 989 00ad 04       		.uleb128 0x4
 990 00ae C4000000 		.4byte	.LASF15
 991 00b2 03       		.byte	0x3
 992 00b3 2D       		.byte	0x2d
 993 00b4 3E000000 		.4byte	0x3e
 994 00b8 04       		.uleb128 0x4
 995 00b9 5D020000 		.4byte	.LASF16
 996 00bd 03       		.byte	0x3
 997 00be 2E       		.byte	0x2e
 998 00bf 3E000000 		.4byte	0x3e
 999 00c3 04       		.uleb128 0x4
 1000 00c4 A8000000 		.4byte	.LASF17
 1001 00c8 03       		.byte	0x3
 1002 00c9 2F       		.byte	0x2f
 1003 00ca 3E000000 		.4byte	0x3e
 1004 00ce 04       		.uleb128 0x4
 1005 00cf 74020000 		.4byte	.LASF18
 1006 00d3 03       		.byte	0x3
 1007 00d4 30       		.byte	0x30
 1008 00d5 70000000 		.4byte	0x70
 1009 00d9 04       		.uleb128 0x4
 1010 00da AD010000 		.4byte	.LASF19
 1011 00de 03       		.byte	0x3
 1012 00df 31       		.byte	0x31
 1013 00e0 5E000000 		.4byte	0x5e
 1014 00e4 04       		.uleb128 0x4
 1015 00e5 D3010000 		.4byte	.LASF20
 1016 00e9 03       		.byte	0x3
 1017 00ea 33       		.byte	0x33
 1018 00eb 70000000 		.4byte	0x70
 1019 00ef 04       		.uleb128 0x4
 1020 00f0 21030000 		.4byte	.LASF21
 1021 00f4 03       		.byte	0x3
ARM GAS  C:\Users\NICOMA~1\AppData\Local\Temp\ccO3Bz3q.s 			page 19


 1022 00f5 35       		.byte	0x35
 1023 00f6 70000000 		.4byte	0x70
 1024 00fa 04       		.uleb128 0x4
 1025 00fb 21010000 		.4byte	.LASF22
 1026 00ff 03       		.byte	0x3
 1027 0100 36       		.byte	0x36
 1028 0101 5E000000 		.4byte	0x5e
 1029 0105 04       		.uleb128 0x4
 1030 0106 F1020000 		.4byte	.LASF23
 1031 010a 04       		.byte	0x4
 1032 010b 2A       		.byte	0x2a
 1033 010c 10010000 		.4byte	0x110
 1034 0110 05       		.uleb128 0x5
 1035 0111 F1020000 		.4byte	.LASF23
 1036 0115 44       		.byte	0x44
 1037 0116 05       		.byte	0x5
 1038 0117 5E       		.byte	0x5e
 1039 0118 27020000 		.4byte	0x227
 1040 011c 06       		.uleb128 0x6
 1041 011d E2020000 		.4byte	.LASF24
 1042 0121 05       		.byte	0x5
 1043 0122 5F       		.byte	0x5f
 1044 0123 4C020000 		.4byte	0x24c
 1045 0127 02       		.byte	0x2
 1046 0128 23       		.byte	0x23
 1047 0129 00       		.uleb128 0
 1048 012a 06       		.uleb128 0x6
 1049 012b 65020000 		.4byte	.LASF25
 1050 012f 05       		.byte	0x5
 1051 0130 61       		.byte	0x61
 1052 0131 4C020000 		.4byte	0x24c
 1053 0135 02       		.byte	0x2
 1054 0136 23       		.byte	0x23
 1055 0137 04       		.uleb128 0x4
 1056 0138 06       		.uleb128 0x6
 1057 0139 68000000 		.4byte	.LASF26
 1058 013d 05       		.byte	0x5
 1059 013e 63       		.byte	0x63
 1060 013f CE000000 		.4byte	0xce
 1061 0143 02       		.byte	0x2
 1062 0144 23       		.byte	0x23
 1063 0145 08       		.uleb128 0x8
 1064 0146 06       		.uleb128 0x6
 1065 0147 C2030000 		.4byte	.LASF27
 1066 014b 05       		.byte	0x5
 1067 014c 64       		.byte	0x64
 1068 014d 1B030000 		.4byte	0x31b
 1069 0151 02       		.byte	0x2
 1070 0152 23       		.byte	0x23
 1071 0153 0C       		.uleb128 0xc
 1072 0154 06       		.uleb128 0x6
 1073 0155 CD000000 		.4byte	.LASF28
 1074 0159 05       		.byte	0x5
 1075 015a 66       		.byte	0x66
 1076 015b 4C020000 		.4byte	0x24c
 1077 015f 02       		.byte	0x2
 1078 0160 23       		.byte	0x23
ARM GAS  C:\Users\NICOMA~1\AppData\Local\Temp\ccO3Bz3q.s 			page 20


 1079 0161 10       		.uleb128 0x10
 1080 0162 06       		.uleb128 0x6
 1081 0163 16020000 		.4byte	.LASF29
 1082 0167 05       		.byte	0x5
 1083 0168 67       		.byte	0x67
 1084 0169 4C020000 		.4byte	0x24c
 1085 016d 02       		.byte	0x2
 1086 016e 23       		.byte	0x23
 1087 016f 14       		.uleb128 0x14
 1088 0170 06       		.uleb128 0x6
 1089 0171 A6030000 		.4byte	.LASF30
 1090 0175 05       		.byte	0x5
 1091 0176 6E       		.byte	0x6e
 1092 0177 60040000 		.4byte	0x460
 1093 017b 02       		.byte	0x2
 1094 017c 23       		.byte	0x23
 1095 017d 18       		.uleb128 0x18
 1096 017e 06       		.uleb128 0x6
 1097 017f 90000000 		.4byte	.LASF31
 1098 0183 05       		.byte	0x5
 1099 0184 79       		.byte	0x79
 1100 0185 AD000000 		.4byte	0xad
 1101 0189 02       		.byte	0x2
 1102 018a 23       		.byte	0x23
 1103 018b 1C       		.uleb128 0x1c
 1104 018c 06       		.uleb128 0x6
 1105 018d E9020000 		.4byte	.LASF32
 1106 0191 05       		.byte	0x5
 1107 0192 7D       		.byte	0x7d
 1108 0193 A2000000 		.4byte	0xa2
 1109 0197 02       		.byte	0x2
 1110 0198 23       		.byte	0x23
 1111 0199 1D       		.uleb128 0x1d
 1112 019a 06       		.uleb128 0x6
 1113 019b 90030000 		.4byte	.LASF33
 1114 019f 05       		.byte	0x5
 1115 01a0 82       		.byte	0x82
 1116 01a1 B8000000 		.4byte	0xb8
 1117 01a5 02       		.byte	0x2
 1118 01a6 23       		.byte	0x23
 1119 01a7 1E       		.uleb128 0x1e
 1120 01a8 06       		.uleb128 0x6
 1121 01a9 D1020000 		.4byte	.LASF34
 1122 01ad 05       		.byte	0x5
 1123 01ae 88       		.byte	0x88
 1124 01af C3000000 		.4byte	0xc3
 1125 01b3 02       		.byte	0x2
 1126 01b4 23       		.byte	0x23
 1127 01b5 1F       		.uleb128 0x1f
 1128 01b6 06       		.uleb128 0x6
 1129 01b7 3D030000 		.4byte	.LASF35
 1130 01bb 05       		.byte	0x5
 1131 01bc 8F       		.byte	0x8f
 1132 01bd 3C030000 		.4byte	0x33c
 1133 01c1 02       		.byte	0x2
 1134 01c2 23       		.byte	0x23
 1135 01c3 20       		.uleb128 0x20
ARM GAS  C:\Users\NICOMA~1\AppData\Local\Temp\ccO3Bz3q.s 			page 21


 1136 01c4 07       		.uleb128 0x7
 1137 01c5 705F7500 		.ascii	"p_u\000"
 1138 01c9 05       		.byte	0x5
 1139 01ca B4       		.byte	0xb4
 1140 01cb 2B040000 		.4byte	0x42b
 1141 01cf 02       		.byte	0x2
 1142 01d0 23       		.byte	0x23
 1143 01d1 24       		.uleb128 0x24
 1144 01d2 06       		.uleb128 0x6
 1145 01d3 C8030000 		.4byte	.LASF36
 1146 01d7 05       		.byte	0x5
 1147 01d8 B9       		.byte	0xb9
 1148 01d9 74020000 		.4byte	0x274
 1149 01dd 02       		.byte	0x2
 1150 01de 23       		.byte	0x23
 1151 01df 28       		.uleb128 0x28
 1152 01e0 06       		.uleb128 0x6
 1153 01e1 59030000 		.4byte	.LASF37
 1154 01e5 05       		.byte	0x5
 1155 01e6 BF       		.byte	0xbf
 1156 01e7 52020000 		.4byte	0x252
 1157 01eb 02       		.byte	0x2
 1158 01ec 23       		.byte	0x23
 1159 01ed 2C       		.uleb128 0x2c
 1160 01ee 06       		.uleb128 0x6
 1161 01ef 00000000 		.4byte	.LASF38
 1162 01f3 05       		.byte	0x5
 1163 01f4 C3       		.byte	0xc3
 1164 01f5 D9000000 		.4byte	0xd9
 1165 01f9 02       		.byte	0x2
 1166 01fa 23       		.byte	0x23
 1167 01fb 34       		.uleb128 0x34
 1168 01fc 06       		.uleb128 0x6
 1169 01fd 01030000 		.4byte	.LASF39
 1170 0201 05       		.byte	0x5
 1171 0202 C9       		.byte	0xc9
 1172 0203 E4000000 		.4byte	0xe4
 1173 0207 02       		.byte	0x2
 1174 0208 23       		.byte	0x23
 1175 0209 38       		.uleb128 0x38
 1176 020a 06       		.uleb128 0x6
 1177 020b A7020000 		.4byte	.LASF40
 1178 020f 05       		.byte	0x5
 1179 0210 D0       		.byte	0xd0
 1180 0211 72040000 		.4byte	0x472
 1181 0215 02       		.byte	0x2
 1182 0216 23       		.byte	0x23
 1183 0217 3C       		.uleb128 0x3c
 1184 0218 06       		.uleb128 0x6
 1185 0219 2B030000 		.4byte	.LASF41
 1186 021d 05       		.byte	0x5
 1187 021e D4       		.byte	0xd4
 1188 021f CE000000 		.4byte	0xce
 1189 0223 02       		.byte	0x2
 1190 0224 23       		.byte	0x23
 1191 0225 40       		.uleb128 0x40
 1192 0226 00       		.byte	0
ARM GAS  C:\Users\NICOMA~1\AppData\Local\Temp\ccO3Bz3q.s 			page 22


 1193 0227 08       		.uleb128 0x8
 1194 0228 08       		.byte	0x8
 1195 0229 04       		.byte	0x4
 1196 022a 61       		.byte	0x61
 1197 022b 4C020000 		.4byte	0x24c
 1198 022f 06       		.uleb128 0x6
 1199 0230 E2020000 		.4byte	.LASF24
 1200 0234 04       		.byte	0x4
 1201 0235 62       		.byte	0x62
 1202 0236 4C020000 		.4byte	0x24c
 1203 023a 02       		.byte	0x2
 1204 023b 23       		.byte	0x23
 1205 023c 00       		.uleb128 0
 1206 023d 06       		.uleb128 0x6
 1207 023e 65020000 		.4byte	.LASF25
 1208 0242 04       		.byte	0x4
 1209 0243 64       		.byte	0x64
 1210 0244 4C020000 		.4byte	0x24c
 1211 0248 02       		.byte	0x2
 1212 0249 23       		.byte	0x23
 1213 024a 04       		.uleb128 0x4
 1214 024b 00       		.byte	0
 1215 024c 09       		.uleb128 0x9
 1216 024d 04       		.byte	0x4
 1217 024e 05010000 		.4byte	0x105
 1218 0252 04       		.uleb128 0x4
 1219 0253 1E020000 		.4byte	.LASF42
 1220 0257 04       		.byte	0x4
 1221 0258 66       		.byte	0x66
 1222 0259 27020000 		.4byte	0x227
 1223 025d 08       		.uleb128 0x8
 1224 025e 04       		.byte	0x4
 1225 025f 04       		.byte	0x4
 1226 0260 6B       		.byte	0x6b
 1227 0261 74020000 		.4byte	0x274
 1228 0265 06       		.uleb128 0x6
 1229 0266 E2020000 		.4byte	.LASF24
 1230 026a 04       		.byte	0x4
 1231 026b 6D       		.byte	0x6d
 1232 026c 4C020000 		.4byte	0x24c
 1233 0270 02       		.byte	0x2
 1234 0271 23       		.byte	0x23
 1235 0272 00       		.uleb128 0
 1236 0273 00       		.byte	0
 1237 0274 04       		.uleb128 0x4
 1238 0275 C7010000 		.4byte	.LASF43
 1239 0279 04       		.byte	0x4
 1240 027a 70       		.byte	0x70
 1241 027b 5D020000 		.4byte	0x25d
 1242 027f 04       		.uleb128 0x4
 1243 0280 EF010000 		.4byte	.LASF44
 1244 0284 06       		.byte	0x6
 1245 0285 A4       		.byte	0xa4
 1246 0286 70000000 		.4byte	0x70
 1247 028a 04       		.uleb128 0x4
 1248 028b 18010000 		.4byte	.LASF45
 1249 028f 06       		.byte	0x6
ARM GAS  C:\Users\NICOMA~1\AppData\Local\Temp\ccO3Bz3q.s 			page 23


 1250 0290 A9       		.byte	0xa9
 1251 0291 95020000 		.4byte	0x295
 1252 0295 0A       		.uleb128 0xa
 1253 0296 04       		.byte	0x4
 1254 0297 05       		.uleb128 0x5
 1255 0298 52030000 		.4byte	.LASF46
 1256 029c 24       		.byte	0x24
 1257 029d 06       		.byte	0x6
 1258 029e C0       		.byte	0xc0
 1259 029f 1B030000 		.4byte	0x31b
 1260 02a3 07       		.uleb128 0x7
 1261 02a4 723400   		.ascii	"r4\000"
 1262 02a7 06       		.byte	0x6
 1263 02a8 C1       		.byte	0xc1
 1264 02a9 8A020000 		.4byte	0x28a
 1265 02ad 02       		.byte	0x2
 1266 02ae 23       		.byte	0x23
 1267 02af 00       		.uleb128 0
 1268 02b0 07       		.uleb128 0x7
 1269 02b1 723500   		.ascii	"r5\000"
 1270 02b4 06       		.byte	0x6
 1271 02b5 C2       		.byte	0xc2
 1272 02b6 8A020000 		.4byte	0x28a
 1273 02ba 02       		.byte	0x2
 1274 02bb 23       		.byte	0x23
 1275 02bc 04       		.uleb128 0x4
 1276 02bd 07       		.uleb128 0x7
 1277 02be 723600   		.ascii	"r6\000"
 1278 02c1 06       		.byte	0x6
 1279 02c2 C3       		.byte	0xc3
 1280 02c3 8A020000 		.4byte	0x28a
 1281 02c7 02       		.byte	0x2
 1282 02c8 23       		.byte	0x23
 1283 02c9 08       		.uleb128 0x8
 1284 02ca 07       		.uleb128 0x7
 1285 02cb 723700   		.ascii	"r7\000"
 1286 02ce 06       		.byte	0x6
 1287 02cf C4       		.byte	0xc4
 1288 02d0 8A020000 		.4byte	0x28a
 1289 02d4 02       		.byte	0x2
 1290 02d5 23       		.byte	0x23
 1291 02d6 0C       		.uleb128 0xc
 1292 02d7 07       		.uleb128 0x7
 1293 02d8 723800   		.ascii	"r8\000"
 1294 02db 06       		.byte	0x6
 1295 02dc C5       		.byte	0xc5
 1296 02dd 8A020000 		.4byte	0x28a
 1297 02e1 02       		.byte	0x2
 1298 02e2 23       		.byte	0x23
 1299 02e3 10       		.uleb128 0x10
 1300 02e4 07       		.uleb128 0x7
 1301 02e5 723900   		.ascii	"r9\000"
 1302 02e8 06       		.byte	0x6
 1303 02e9 C6       		.byte	0xc6
 1304 02ea 8A020000 		.4byte	0x28a
 1305 02ee 02       		.byte	0x2
 1306 02ef 23       		.byte	0x23
ARM GAS  C:\Users\NICOMA~1\AppData\Local\Temp\ccO3Bz3q.s 			page 24


 1307 02f0 14       		.uleb128 0x14
 1308 02f1 07       		.uleb128 0x7
 1309 02f2 72313000 		.ascii	"r10\000"
 1310 02f6 06       		.byte	0x6
 1311 02f7 C7       		.byte	0xc7
 1312 02f8 8A020000 		.4byte	0x28a
 1313 02fc 02       		.byte	0x2
 1314 02fd 23       		.byte	0x23
 1315 02fe 18       		.uleb128 0x18
 1316 02ff 07       		.uleb128 0x7
 1317 0300 72313100 		.ascii	"r11\000"
 1318 0304 06       		.byte	0x6
 1319 0305 C8       		.byte	0xc8
 1320 0306 8A020000 		.4byte	0x28a
 1321 030a 02       		.byte	0x2
 1322 030b 23       		.byte	0x23
 1323 030c 1C       		.uleb128 0x1c
 1324 030d 07       		.uleb128 0x7
 1325 030e 6C7200   		.ascii	"lr\000"
 1326 0311 06       		.byte	0x6
 1327 0312 C9       		.byte	0xc9
 1328 0313 8A020000 		.4byte	0x28a
 1329 0317 02       		.byte	0x2
 1330 0318 23       		.byte	0x23
 1331 0319 20       		.uleb128 0x20
 1332 031a 00       		.byte	0
 1333 031b 05       		.uleb128 0x5
 1334 031c 87010000 		.4byte	.LASF47
 1335 0320 04       		.byte	0x4
 1336 0321 06       		.byte	0x6
 1337 0322 D1       		.byte	0xd1
 1338 0323 36030000 		.4byte	0x336
 1339 0327 07       		.uleb128 0x7
 1340 0328 72313300 		.ascii	"r13\000"
 1341 032c 06       		.byte	0x6
 1342 032d D2       		.byte	0xd2
 1343 032e 36030000 		.4byte	0x336
 1344 0332 02       		.byte	0x2
 1345 0333 23       		.byte	0x23
 1346 0334 00       		.uleb128 0
 1347 0335 00       		.byte	0
 1348 0336 09       		.uleb128 0x9
 1349 0337 04       		.byte	0x4
 1350 0338 97020000 		.4byte	0x297
 1351 033c 0B       		.uleb128 0xb
 1352 033d EF000000 		.4byte	0xef
 1353 0341 05       		.uleb128 0x5
 1354 0342 6E030000 		.4byte	.LASF48
 1355 0346 0C       		.byte	0xc
 1356 0347 07       		.byte	0x7
 1357 0348 2C       		.byte	0x2c
 1358 0349 6A030000 		.4byte	0x36a
 1359 034d 06       		.uleb128 0x6
 1360 034e D5000000 		.4byte	.LASF49
 1361 0352 07       		.byte	0x7
 1362 0353 2D       		.byte	0x2d
 1363 0354 52020000 		.4byte	0x252
ARM GAS  C:\Users\NICOMA~1\AppData\Local\Temp\ccO3Bz3q.s 			page 25


 1364 0358 02       		.byte	0x2
 1365 0359 23       		.byte	0x23
 1366 035a 00       		.uleb128 0
 1367 035b 06       		.uleb128 0x6
 1368 035c 81010000 		.4byte	.LASF50
 1369 0360 07       		.byte	0x7
 1370 0361 2F       		.byte	0x2f
 1371 0362 FA000000 		.4byte	0xfa
 1372 0366 02       		.byte	0x2
 1373 0367 23       		.byte	0x23
 1374 0368 08       		.uleb128 0x8
 1375 0369 00       		.byte	0
 1376 036a 04       		.uleb128 0x4
 1377 036b 6E030000 		.4byte	.LASF48
 1378 036f 07       		.byte	0x7
 1379 0370 30       		.byte	0x30
 1380 0371 41030000 		.4byte	0x341
 1381 0375 05       		.uleb128 0x5
 1382 0376 DF010000 		.4byte	.LASF51
 1383 037a 10       		.byte	0x10
 1384 037b 08       		.byte	0x8
 1385 037c 2C       		.byte	0x2c
 1386 037d AC030000 		.4byte	0x3ac
 1387 0381 06       		.uleb128 0x6
 1388 0382 98020000 		.4byte	.LASF52
 1389 0386 08       		.byte	0x8
 1390 0387 2D       		.byte	0x2d
 1391 0388 52020000 		.4byte	0x252
 1392 038c 02       		.byte	0x2
 1393 038d 23       		.byte	0x23
 1394 038e 00       		.uleb128 0
 1395 038f 06       		.uleb128 0x6
 1396 0390 BA030000 		.4byte	.LASF53
 1397 0394 08       		.byte	0x8
 1398 0395 2F       		.byte	0x2f
 1399 0396 4C020000 		.4byte	0x24c
 1400 039a 02       		.byte	0x2
 1401 039b 23       		.byte	0x23
 1402 039c 08       		.uleb128 0x8
 1403 039d 06       		.uleb128 0x6
 1404 039e 1A030000 		.4byte	.LASF54
 1405 03a2 08       		.byte	0x8
 1406 03a3 31       		.byte	0x31
 1407 03a4 AC030000 		.4byte	0x3ac
 1408 03a8 02       		.byte	0x2
 1409 03a9 23       		.byte	0x23
 1410 03aa 0C       		.uleb128 0xc
 1411 03ab 00       		.byte	0
 1412 03ac 09       		.uleb128 0x9
 1413 03ad 04       		.byte	0x4
 1414 03ae 75030000 		.4byte	0x375
 1415 03b2 04       		.uleb128 0x4
 1416 03b3 DF010000 		.4byte	.LASF51
 1417 03b7 08       		.byte	0x8
 1418 03b8 33       		.byte	0x33
 1419 03b9 75030000 		.4byte	0x375
 1420 03bd 08       		.uleb128 0x8
ARM GAS  C:\Users\NICOMA~1\AppData\Local\Temp\ccO3Bz3q.s 			page 26


 1421 03be 28       		.byte	0x28
 1422 03bf 09       		.byte	0x9
 1423 03c0 33       		.byte	0x33
 1424 03c1 1A040000 		.4byte	0x41a
 1425 03c5 06       		.uleb128 0x6
 1426 03c6 47020000 		.4byte	.LASF55
 1427 03ca 09       		.byte	0x9
 1428 03cb 34       		.byte	0x34
 1429 03cc 1A040000 		.4byte	0x41a
 1430 03d0 02       		.byte	0x2
 1431 03d1 23       		.byte	0x23
 1432 03d2 00       		.uleb128 0
 1433 03d3 06       		.uleb128 0x6
 1434 03d4 A0020000 		.4byte	.LASF56
 1435 03d8 09       		.byte	0x9
 1436 03d9 36       		.byte	0x36
 1437 03da 1A040000 		.4byte	0x41a
 1438 03de 02       		.byte	0x2
 1439 03df 23       		.byte	0x23
 1440 03e0 04       		.uleb128 0x4
 1441 03e1 06       		.uleb128 0x6
 1442 03e2 5F000000 		.4byte	.LASF57
 1443 03e6 09       		.byte	0x9
 1444 03e7 38       		.byte	0x38
 1445 03e8 1A040000 		.4byte	0x41a
 1446 03ec 02       		.byte	0x2
 1447 03ed 23       		.byte	0x23
 1448 03ee 08       		.uleb128 0x8
 1449 03ef 06       		.uleb128 0x6
 1450 03f0 03020000 		.4byte	.LASF58
 1451 03f4 09       		.byte	0x9
 1452 03f5 39       		.byte	0x39
 1453 03f6 1A040000 		.4byte	0x41a
 1454 03fa 02       		.byte	0x2
 1455 03fb 23       		.byte	0x23
 1456 03fc 0C       		.uleb128 0xc
 1457 03fd 06       		.uleb128 0x6
 1458 03fe 78030000 		.4byte	.LASF59
 1459 0402 09       		.byte	0x9
 1460 0403 3A       		.byte	0x3a
 1461 0404 6A030000 		.4byte	0x36a
 1462 0408 02       		.byte	0x2
 1463 0409 23       		.byte	0x23
 1464 040a 10       		.uleb128 0x10
 1465 040b 06       		.uleb128 0x6
 1466 040c 70010000 		.4byte	.LASF60
 1467 0410 09       		.byte	0x9
 1468 0411 3C       		.byte	0x3c
 1469 0412 6A030000 		.4byte	0x36a
 1470 0416 02       		.byte	0x2
 1471 0417 23       		.byte	0x23
 1472 0418 1C       		.uleb128 0x1c
 1473 0419 00       		.byte	0
 1474 041a 09       		.uleb128 0x9
 1475 041b 04       		.byte	0x4
 1476 041c D9000000 		.4byte	0xd9
 1477 0420 04       		.uleb128 0x4
ARM GAS  C:\Users\NICOMA~1\AppData\Local\Temp\ccO3Bz3q.s 			page 27


 1478 0421 17000000 		.4byte	.LASF61
 1479 0425 09       		.byte	0x9
 1480 0426 3E       		.byte	0x3e
 1481 0427 BD030000 		.4byte	0x3bd
 1482 042b 0C       		.uleb128 0xc
 1483 042c 04       		.byte	0x4
 1484 042d 05       		.byte	0x5
 1485 042e 96       		.byte	0x96
 1486 042f 60040000 		.4byte	0x460
 1487 0433 0D       		.uleb128 0xd
 1488 0434 06000000 		.4byte	.LASF62
 1489 0438 05       		.byte	0x5
 1490 0439 9D       		.byte	0x9d
 1491 043a D9000000 		.4byte	0xd9
 1492 043e 0D       		.uleb128 0xd
 1493 043f 51000000 		.4byte	.LASF63
 1494 0443 05       		.byte	0x5
 1495 0444 A4       		.byte	0xa4
 1496 0445 D9000000 		.4byte	0xd9
 1497 0449 0D       		.uleb128 0xd
 1498 044a 9F030000 		.4byte	.LASF64
 1499 044e 05       		.byte	0x5
 1500 044f AB       		.byte	0xab
 1501 0450 95020000 		.4byte	0x295
 1502 0454 0D       		.uleb128 0xd
 1503 0455 DB020000 		.4byte	.LASF65
 1504 0459 05       		.byte	0x5
 1505 045a B2       		.byte	0xb2
 1506 045b E4000000 		.4byte	0xe4
 1507 045f 00       		.byte	0
 1508 0460 09       		.uleb128 0x9
 1509 0461 04       		.byte	0x4
 1510 0462 66040000 		.4byte	0x466
 1511 0466 0E       		.uleb128 0xe
 1512 0467 6B040000 		.4byte	0x46b
 1513 046b 03       		.uleb128 0x3
 1514 046c 01       		.byte	0x1
 1515 046d 08       		.byte	0x8
 1516 046e 15030000 		.4byte	.LASF66
 1517 0472 09       		.uleb128 0x9
 1518 0473 04       		.byte	0x4
 1519 0474 B2030000 		.4byte	0x3b2
 1520 0478 03       		.uleb128 0x3
 1521 0479 04       		.byte	0x4
 1522 047a 07       		.byte	0x7
 1523 047b FA010000 		.4byte	.LASF67
 1524 047f 05       		.uleb128 0x5
 1525 0480 F8020000 		.4byte	.LASF68
 1526 0484 10       		.byte	0x10
 1527 0485 0A       		.byte	0xa
 1528 0486 3B       		.byte	0x3b
 1529 0487 C4040000 		.4byte	0x4c4
 1530 048b 06       		.uleb128 0x6
 1531 048c 7C010000 		.4byte	.LASF69
 1532 0490 0A       		.byte	0xa
 1533 0491 3C       		.byte	0x3c
 1534 0492 60040000 		.4byte	0x460
ARM GAS  C:\Users\NICOMA~1\AppData\Local\Temp\ccO3Bz3q.s 			page 28


 1535 0496 02       		.byte	0x2
 1536 0497 23       		.byte	0x23
 1537 0498 00       		.uleb128 0
 1538 0499 06       		.uleb128 0x6
 1539 049a 2B020000 		.4byte	.LASF70
 1540 049e 0A       		.byte	0xa
 1541 049f 3D       		.byte	0x3d
 1542 04a0 C6040000 		.4byte	0x4c6
 1543 04a4 02       		.byte	0x2
 1544 04a5 23       		.byte	0x23
 1545 04a6 04       		.uleb128 0x4
 1546 04a7 06       		.uleb128 0x6
 1547 04a8 67010000 		.4byte	.LASF71
 1548 04ac 0A       		.byte	0xa
 1549 04ad 3E       		.byte	0x3e
 1550 04ae C6040000 		.4byte	0x4c6
 1551 04b2 02       		.byte	0x2
 1552 04b3 23       		.byte	0x23
 1553 04b4 08       		.uleb128 0x8
 1554 04b5 06       		.uleb128 0x6
 1555 04b6 6C020000 		.4byte	.LASF72
 1556 04ba 0A       		.byte	0xa
 1557 04bb 3F       		.byte	0x3f
 1558 04bc C6040000 		.4byte	0x4c6
 1559 04c0 02       		.byte	0x2
 1560 04c1 23       		.byte	0x23
 1561 04c2 0C       		.uleb128 0xc
 1562 04c3 00       		.byte	0
 1563 04c4 0F       		.uleb128 0xf
 1564 04c5 01       		.byte	0x1
 1565 04c6 09       		.uleb128 0x9
 1566 04c7 04       		.byte	0x4
 1567 04c8 C4040000 		.4byte	0x4c4
 1568 04cc 10       		.uleb128 0x10
 1569 04cd 7805     		.2byte	0x578
 1570 04cf 0A       		.byte	0xa
 1571 04d0 44       		.byte	0x44
 1572 04d1 1B050000 		.4byte	0x51b
 1573 04d5 07       		.uleb128 0x7
 1574 04d6 543000   		.ascii	"T0\000"
 1575 04d9 0A       		.byte	0xa
 1576 04da 45       		.byte	0x45
 1577 04db 1B050000 		.4byte	0x51b
 1578 04df 02       		.byte	0x2
 1579 04e0 23       		.byte	0x23
 1580 04e1 00       		.uleb128 0
 1581 04e2 07       		.uleb128 0x7
 1582 04e3 543100   		.ascii	"T1\000"
 1583 04e6 0A       		.byte	0xa
 1584 04e7 46       		.byte	0x46
 1585 04e8 1B050000 		.4byte	0x51b
 1586 04ec 03       		.byte	0x3
 1587 04ed 23       		.byte	0x23
 1588 04ee 9802     		.uleb128 0x118
 1589 04f0 07       		.uleb128 0x7
 1590 04f1 543200   		.ascii	"T2\000"
 1591 04f4 0A       		.byte	0xa
ARM GAS  C:\Users\NICOMA~1\AppData\Local\Temp\ccO3Bz3q.s 			page 29


 1592 04f5 47       		.byte	0x47
 1593 04f6 1B050000 		.4byte	0x51b
 1594 04fa 03       		.byte	0x3
 1595 04fb 23       		.byte	0x23
 1596 04fc B004     		.uleb128 0x230
 1597 04fe 07       		.uleb128 0x7
 1598 04ff 543300   		.ascii	"T3\000"
 1599 0502 0A       		.byte	0xa
 1600 0503 48       		.byte	0x48
 1601 0504 1B050000 		.4byte	0x51b
 1602 0508 03       		.byte	0x3
 1603 0509 23       		.byte	0x23
 1604 050a C806     		.uleb128 0x348
 1605 050c 07       		.uleb128 0x7
 1606 050d 543400   		.ascii	"T4\000"
 1607 0510 0A       		.byte	0xa
 1608 0511 49       		.byte	0x49
 1609 0512 1B050000 		.4byte	0x51b
 1610 0516 03       		.byte	0x3
 1611 0517 23       		.byte	0x23
 1612 0518 E008     		.uleb128 0x460
 1613 051a 00       		.byte	0
 1614 051b 11       		.uleb128 0x11
 1615 051c 7F020000 		.4byte	0x27f
 1616 0520 2B050000 		.4byte	0x52b
 1617 0524 12       		.uleb128 0x12
 1618 0525 78040000 		.4byte	0x478
 1619 0529 45       		.byte	0x45
 1620 052a 00       		.byte	0
 1621 052b 13       		.uleb128 0x13
 1622 052c 83030000 		.4byte	.LASF93
 1623 0530 7805     		.2byte	0x578
 1624 0532 0A       		.byte	0xa
 1625 0533 43       		.byte	0x43
 1626 0534 4E050000 		.4byte	0x54e
 1627 0538 14       		.uleb128 0x14
 1628 0539 776100   		.ascii	"wa\000"
 1629 053c 0A       		.byte	0xa
 1630 053d 4A       		.byte	0x4a
 1631 053e CC040000 		.4byte	0x4cc
 1632 0542 0D       		.uleb128 0xd
 1633 0543 36030000 		.4byte	.LASF73
 1634 0547 0A       		.byte	0xa
 1635 0548 4B       		.byte	0x4b
 1636 0549 4E050000 		.4byte	0x54e
 1637 054d 00       		.byte	0
 1638 054e 11       		.uleb128 0x11
 1639 054f 3E000000 		.4byte	0x3e
 1640 0553 5F050000 		.4byte	0x55f
 1641 0557 15       		.uleb128 0x15
 1642 0558 78040000 		.4byte	0x478
 1643 055c 7705     		.2byte	0x577
 1644 055e 00       		.byte	0
 1645 055f 16       		.uleb128 0x16
 1646 0560 59010000 		.4byte	.LASF75
 1647 0564 01       		.byte	0x1
 1648 0565 4C       		.byte	0x4c
ARM GAS  C:\Users\NICOMA~1\AppData\Local\Temp\ccO3Bz3q.s 			page 30


 1649 0566 01       		.byte	0x1
 1650 0567 00000000 		.4byte	.LFB8
 1651 056b B4070000 		.4byte	.LFE8
 1652 056f 00000000 		.4byte	.LLST0
 1653 0573 01       		.byte	0x1
 1654 0574 F60B0000 		.4byte	0xbf6
 1655 0578 17       		.uleb128 0x17
 1656 0579 3D010000 		.4byte	.LASF74
 1657 057d 01       		.byte	0x1
 1658 057e 4D       		.byte	0x4d
 1659 057f D9000000 		.4byte	0xd9
 1660 0583 2C000000 		.4byte	.LLST1
 1661 0587 18       		.uleb128 0x18
 1662 0588 42010000 		.4byte	.LASF94
 1663 058c 01       		.byte	0x1
 1664 058d 4D       		.byte	0x4d
 1665 058e D9000000 		.4byte	0xd9
 1666 0592 19       		.uleb128 0x19
 1667 0593 6900     		.ascii	"i\000"
 1668 0595 01       		.byte	0x1
 1669 0596 4E       		.byte	0x4e
 1670 0597 30000000 		.4byte	0x30
 1671 059b 31010000 		.4byte	.LLST2
 1672 059f 1A       		.uleb128 0x1a
 1673 05a0 24000000 		.4byte	.LVL0
 1674 05a4 8A0C0000 		.4byte	0xc8a
 1675 05a8 B2050000 		.4byte	0x5b2
 1676 05ac 1B       		.uleb128 0x1b
 1677 05ad 01       		.byte	0x1
 1678 05ae 50       		.byte	0x50
 1679 05af 01       		.byte	0x1
 1680 05b0 31       		.byte	0x31
 1681 05b1 00       		.byte	0
 1682 05b2 1A       		.uleb128 0x1a
 1683 05b3 44000000 		.4byte	.LVL1
 1684 05b7 A70C0000 		.4byte	0xca7
 1685 05bb D2050000 		.4byte	0x5d2
 1686 05bf 1B       		.uleb128 0x1b
 1687 05c0 01       		.byte	0x1
 1688 05c1 52       		.byte	0x52
 1689 05c2 02       		.byte	0x2
 1690 05c3 09       		.byte	0x9
 1691 05c4 FF       		.byte	0xff
 1692 05c5 1B       		.uleb128 0x1b
 1693 05c6 01       		.byte	0x1
 1694 05c7 51       		.byte	0x51
 1695 05c8 02       		.byte	0x2
 1696 05c9 74       		.byte	0x74
 1697 05ca 00       		.sleb128 0
 1698 05cb 1B       		.uleb128 0x1b
 1699 05cc 01       		.byte	0x1
 1700 05cd 50       		.byte	0x50
 1701 05ce 02       		.byte	0x2
 1702 05cf 75       		.byte	0x75
 1703 05d0 00       		.sleb128 0
 1704 05d1 00       		.byte	0
 1705 05d2 1A       		.uleb128 0x1a
ARM GAS  C:\Users\NICOMA~1\AppData\Local\Temp\ccO3Bz3q.s 			page 31


 1706 05d3 54000000 		.4byte	.LVL3
 1707 05d7 8A0C0000 		.4byte	0xc8a
 1708 05db E5050000 		.4byte	0x5e5
 1709 05df 1B       		.uleb128 0x1b
 1710 05e0 01       		.byte	0x1
 1711 05e1 50       		.byte	0x50
 1712 05e2 01       		.byte	0x1
 1713 05e3 32       		.byte	0x32
 1714 05e4 00       		.byte	0
 1715 05e5 1A       		.uleb128 0x1a
 1716 05e6 78000000 		.4byte	.LVL4
 1717 05ea CF0C0000 		.4byte	0xccf
 1718 05ee 05060000 		.4byte	0x605
 1719 05f2 1B       		.uleb128 0x1b
 1720 05f3 01       		.byte	0x1
 1721 05f4 52       		.byte	0x52
 1722 05f5 02       		.byte	0x2
 1723 05f6 09       		.byte	0x9
 1724 05f7 FF       		.byte	0xff
 1725 05f8 1B       		.uleb128 0x1b
 1726 05f9 01       		.byte	0x1
 1727 05fa 51       		.byte	0x51
 1728 05fb 02       		.byte	0x2
 1729 05fc 08       		.byte	0x8
 1730 05fd 41       		.byte	0x41
 1731 05fe 1B       		.uleb128 0x1b
 1732 05ff 01       		.byte	0x1
 1733 0600 50       		.byte	0x50
 1734 0601 02       		.byte	0x2
 1735 0602 75       		.byte	0x75
 1736 0603 00       		.sleb128 0
 1737 0604 00       		.byte	0
 1738 0605 1A       		.uleb128 0x1a
 1739 0606 88000000 		.4byte	.LVL6
 1740 060a 8A0C0000 		.4byte	0xc8a
 1741 060e 18060000 		.4byte	0x618
 1742 0612 1B       		.uleb128 0x1b
 1743 0613 01       		.byte	0x1
 1744 0614 50       		.byte	0x50
 1745 0615 01       		.byte	0x1
 1746 0616 33       		.byte	0x33
 1747 0617 00       		.byte	0
 1748 0618 1A       		.uleb128 0x1a
 1749 0619 A8000000 		.4byte	.LVL8
 1750 061d A70C0000 		.4byte	0xca7
 1751 0621 37060000 		.4byte	0x637
 1752 0625 1B       		.uleb128 0x1b
 1753 0626 01       		.byte	0x1
 1754 0627 52       		.byte	0x52
 1755 0628 01       		.byte	0x1
 1756 0629 31       		.byte	0x31
 1757 062a 1B       		.uleb128 0x1b
 1758 062b 01       		.byte	0x1
 1759 062c 51       		.byte	0x51
 1760 062d 02       		.byte	0x2
 1761 062e 08       		.byte	0x8
 1762 062f 58       		.byte	0x58
ARM GAS  C:\Users\NICOMA~1\AppData\Local\Temp\ccO3Bz3q.s 			page 32


 1763 0630 1B       		.uleb128 0x1b
 1764 0631 01       		.byte	0x1
 1765 0632 50       		.byte	0x50
 1766 0633 02       		.byte	0x2
 1767 0634 75       		.byte	0x75
 1768 0635 00       		.sleb128 0
 1769 0636 00       		.byte	0
 1770 0637 1A       		.uleb128 0x1a
 1771 0638 BC000000 		.4byte	.LVL10
 1772 063c 8A0C0000 		.4byte	0xc8a
 1773 0640 4A060000 		.4byte	0x64a
 1774 0644 1B       		.uleb128 0x1b
 1775 0645 01       		.byte	0x1
 1776 0646 50       		.byte	0x50
 1777 0647 01       		.byte	0x1
 1778 0648 34       		.byte	0x34
 1779 0649 00       		.byte	0
 1780 064a 1A       		.uleb128 0x1a
 1781 064b D4000000 		.4byte	.LVL11
 1782 064f F10C0000 		.4byte	0xcf1
 1783 0653 64060000 		.4byte	0x664
 1784 0657 1B       		.uleb128 0x1b
 1785 0658 01       		.byte	0x1
 1786 0659 51       		.byte	0x51
 1787 065a 02       		.byte	0x2
 1788 065b 08       		.byte	0x8
 1789 065c 58       		.byte	0x58
 1790 065d 1B       		.uleb128 0x1b
 1791 065e 01       		.byte	0x1
 1792 065f 50       		.byte	0x50
 1793 0660 02       		.byte	0x2
 1794 0661 75       		.byte	0x75
 1795 0662 00       		.sleb128 0
 1796 0663 00       		.byte	0
 1797 0664 1A       		.uleb128 0x1a
 1798 0665 F0000000 		.4byte	.LVL14
 1799 0669 8A0C0000 		.4byte	0xc8a
 1800 066d 77060000 		.4byte	0x677
 1801 0671 1B       		.uleb128 0x1b
 1802 0672 01       		.byte	0x1
 1803 0673 50       		.byte	0x50
 1804 0674 01       		.byte	0x1
 1805 0675 35       		.byte	0x35
 1806 0676 00       		.byte	0
 1807 0677 1A       		.uleb128 0x1a
 1808 0678 08010000 		.4byte	.LVL15
 1809 067c CF0C0000 		.4byte	0xccf
 1810 0680 96060000 		.4byte	0x696
 1811 0684 1B       		.uleb128 0x1b
 1812 0685 01       		.byte	0x1
 1813 0686 52       		.byte	0x52
 1814 0687 01       		.byte	0x1
 1815 0688 31       		.byte	0x31
 1816 0689 1B       		.uleb128 0x1b
 1817 068a 01       		.byte	0x1
 1818 068b 51       		.byte	0x51
 1819 068c 02       		.byte	0x2
ARM GAS  C:\Users\NICOMA~1\AppData\Local\Temp\ccO3Bz3q.s 			page 33


 1820 068d 08       		.byte	0x8
 1821 068e 58       		.byte	0x58
 1822 068f 1B       		.uleb128 0x1b
 1823 0690 01       		.byte	0x1
 1824 0691 50       		.byte	0x50
 1825 0692 02       		.byte	0x2
 1826 0693 75       		.byte	0x75
 1827 0694 00       		.sleb128 0
 1828 0695 00       		.byte	0
 1829 0696 1A       		.uleb128 0x1a
 1830 0697 1C010000 		.4byte	.LVL17
 1831 069b 8A0C0000 		.4byte	0xc8a
 1832 069f A9060000 		.4byte	0x6a9
 1833 06a3 1B       		.uleb128 0x1b
 1834 06a4 01       		.byte	0x1
 1835 06a5 50       		.byte	0x50
 1836 06a6 01       		.byte	0x1
 1837 06a7 36       		.byte	0x36
 1838 06a8 00       		.byte	0
 1839 06a9 1A       		.uleb128 0x1a
 1840 06aa 34010000 		.4byte	.LVL18
 1841 06ae 0E0D0000 		.4byte	0xd0e
 1842 06b2 C3060000 		.4byte	0x6c3
 1843 06b6 1B       		.uleb128 0x1b
 1844 06b7 01       		.byte	0x1
 1845 06b8 51       		.byte	0x51
 1846 06b9 02       		.byte	0x2
 1847 06ba 08       		.byte	0x8
 1848 06bb 58       		.byte	0x58
 1849 06bc 1B       		.uleb128 0x1b
 1850 06bd 01       		.byte	0x1
 1851 06be 50       		.byte	0x50
 1852 06bf 02       		.byte	0x2
 1853 06c0 75       		.byte	0x75
 1854 06c1 00       		.sleb128 0
 1855 06c2 00       		.byte	0
 1856 06c3 1A       		.uleb128 0x1a
 1857 06c4 50010000 		.4byte	.LVL21
 1858 06c8 8A0C0000 		.4byte	0xc8a
 1859 06cc D6060000 		.4byte	0x6d6
 1860 06d0 1B       		.uleb128 0x1b
 1861 06d1 01       		.byte	0x1
 1862 06d2 50       		.byte	0x50
 1863 06d3 01       		.byte	0x1
 1864 06d4 37       		.byte	0x37
 1865 06d5 00       		.byte	0
 1866 06d6 1A       		.uleb128 0x1a
 1867 06d7 70010000 		.4byte	.LVL22
 1868 06db 8A0C0000 		.4byte	0xc8a
 1869 06df E9060000 		.4byte	0x6e9
 1870 06e3 1B       		.uleb128 0x1b
 1871 06e4 01       		.byte	0x1
 1872 06e5 50       		.byte	0x50
 1873 06e6 01       		.byte	0x1
 1874 06e7 38       		.byte	0x38
 1875 06e8 00       		.byte	0
 1876 06e9 1A       		.uleb128 0x1a
ARM GAS  C:\Users\NICOMA~1\AppData\Local\Temp\ccO3Bz3q.s 			page 34


 1877 06ea 98010000 		.4byte	.LVL23
 1878 06ee 8A0C0000 		.4byte	0xc8a
 1879 06f2 FC060000 		.4byte	0x6fc
 1880 06f6 1B       		.uleb128 0x1b
 1881 06f7 01       		.byte	0x1
 1882 06f8 50       		.byte	0x50
 1883 06f9 01       		.byte	0x1
 1884 06fa 39       		.byte	0x39
 1885 06fb 00       		.byte	0
 1886 06fc 1A       		.uleb128 0x1a
 1887 06fd C4010000 		.4byte	.LVL24
 1888 0701 8A0C0000 		.4byte	0xc8a
 1889 0705 0F070000 		.4byte	0x70f
 1890 0709 1B       		.uleb128 0x1b
 1891 070a 01       		.byte	0x1
 1892 070b 50       		.byte	0x50
 1893 070c 01       		.byte	0x1
 1894 070d 3A       		.byte	0x3a
 1895 070e 00       		.byte	0
 1896 070f 1C       		.uleb128 0x1c
 1897 0710 E0010000 		.4byte	.LVL27
 1898 0714 2B0D0000 		.4byte	0xd2b
 1899 0718 1A       		.uleb128 0x1a
 1900 0719 FC010000 		.4byte	.LVL28
 1901 071d 3F0D0000 		.4byte	0xd3f
 1902 0721 38070000 		.4byte	0x738
 1903 0725 1B       		.uleb128 0x1b
 1904 0726 01       		.byte	0x1
 1905 0727 52       		.byte	0x52
 1906 0728 02       		.byte	0x2
 1907 0729 09       		.byte	0x9
 1908 072a FF       		.byte	0xff
 1909 072b 1B       		.uleb128 0x1b
 1910 072c 01       		.byte	0x1
 1911 072d 51       		.byte	0x51
 1912 072e 02       		.byte	0x2
 1913 072f 91       		.byte	0x91
 1914 0730 64       		.sleb128 -28
 1915 0731 1B       		.uleb128 0x1b
 1916 0732 01       		.byte	0x1
 1917 0733 50       		.byte	0x50
 1918 0734 02       		.byte	0x2
 1919 0735 74       		.byte	0x74
 1920 0736 00       		.sleb128 0
 1921 0737 00       		.byte	0
 1922 0738 1A       		.uleb128 0x1a
 1923 0739 0C020000 		.4byte	.LVL30
 1924 073d 8A0C0000 		.4byte	0xc8a
 1925 0741 4B070000 		.4byte	0x74b
 1926 0745 1B       		.uleb128 0x1b
 1927 0746 01       		.byte	0x1
 1928 0747 50       		.byte	0x50
 1929 0748 01       		.byte	0x1
 1930 0749 3B       		.byte	0x3b
 1931 074a 00       		.byte	0
 1932 074b 1A       		.uleb128 0x1a
 1933 074c 24020000 		.4byte	.LVL31
ARM GAS  C:\Users\NICOMA~1\AppData\Local\Temp\ccO3Bz3q.s 			page 35


 1934 0750 610D0000 		.4byte	0xd61
 1935 0754 67070000 		.4byte	0x767
 1936 0758 1B       		.uleb128 0x1b
 1937 0759 01       		.byte	0x1
 1938 075a 51       		.byte	0x51
 1939 075b 05       		.byte	0x5
 1940 075c 03       		.byte	0x3
 1941 075d 00000000 		.4byte	.LC0
 1942 0761 1B       		.uleb128 0x1b
 1943 0762 01       		.byte	0x1
 1944 0763 50       		.byte	0x50
 1945 0764 01       		.byte	0x1
 1946 0765 3C       		.byte	0x3c
 1947 0766 00       		.byte	0
 1948 0767 1A       		.uleb128 0x1a
 1949 0768 3C020000 		.4byte	.LVL32
 1950 076c A70C0000 		.4byte	0xca7
 1951 0770 87070000 		.4byte	0x787
 1952 0774 1B       		.uleb128 0x1b
 1953 0775 01       		.byte	0x1
 1954 0776 52       		.byte	0x52
 1955 0777 02       		.byte	0x2
 1956 0778 09       		.byte	0x9
 1957 0779 FF       		.byte	0xff
 1958 077a 1B       		.uleb128 0x1b
 1959 077b 01       		.byte	0x1
 1960 077c 51       		.byte	0x51
 1961 077d 02       		.byte	0x2
 1962 077e 08       		.byte	0x8
 1963 077f 47       		.byte	0x47
 1964 0780 1B       		.uleb128 0x1b
 1965 0781 01       		.byte	0x1
 1966 0782 50       		.byte	0x50
 1967 0783 02       		.byte	0x2
 1968 0784 74       		.byte	0x74
 1969 0785 00       		.sleb128 0
 1970 0786 00       		.byte	0
 1971 0787 1A       		.uleb128 0x1a
 1972 0788 4C020000 		.4byte	.LVL34
 1973 078c 8A0C0000 		.4byte	0xc8a
 1974 0790 9A070000 		.4byte	0x79a
 1975 0794 1B       		.uleb128 0x1b
 1976 0795 01       		.byte	0x1
 1977 0796 50       		.byte	0x50
 1978 0797 01       		.byte	0x1
 1979 0798 3D       		.byte	0x3d
 1980 0799 00       		.byte	0
 1981 079a 1A       		.uleb128 0x1a
 1982 079b 64020000 		.4byte	.LVL35
 1983 079f 3F0D0000 		.4byte	0xd3f
 1984 07a3 BA070000 		.4byte	0x7ba
 1985 07a7 1B       		.uleb128 0x1b
 1986 07a8 01       		.byte	0x1
 1987 07a9 52       		.byte	0x52
 1988 07aa 02       		.byte	0x2
 1989 07ab 09       		.byte	0x9
 1990 07ac FF       		.byte	0xff
ARM GAS  C:\Users\NICOMA~1\AppData\Local\Temp\ccO3Bz3q.s 			page 36


 1991 07ad 1B       		.uleb128 0x1b
 1992 07ae 01       		.byte	0x1
 1993 07af 51       		.byte	0x51
 1994 07b0 02       		.byte	0x2
 1995 07b1 91       		.byte	0x91
 1996 07b2 64       		.sleb128 -28
 1997 07b3 1B       		.uleb128 0x1b
 1998 07b4 01       		.byte	0x1
 1999 07b5 50       		.byte	0x50
 2000 07b6 02       		.byte	0x2
 2001 07b7 74       		.byte	0x74
 2002 07b8 00       		.sleb128 0
 2003 07b9 00       		.byte	0
 2004 07ba 1A       		.uleb128 0x1a
 2005 07bb 74020000 		.4byte	.LVL37
 2006 07bf 8A0C0000 		.4byte	0xc8a
 2007 07c3 CD070000 		.4byte	0x7cd
 2008 07c7 1B       		.uleb128 0x1b
 2009 07c8 01       		.byte	0x1
 2010 07c9 50       		.byte	0x50
 2011 07ca 01       		.byte	0x1
 2012 07cb 3E       		.byte	0x3e
 2013 07cc 00       		.byte	0
 2014 07cd 1A       		.uleb128 0x1a
 2015 07ce 98020000 		.4byte	.LVL38
 2016 07d2 8A0C0000 		.4byte	0xc8a
 2017 07d6 E0070000 		.4byte	0x7e0
 2018 07da 1B       		.uleb128 0x1b
 2019 07db 01       		.byte	0x1
 2020 07dc 50       		.byte	0x50
 2021 07dd 01       		.byte	0x1
 2022 07de 3F       		.byte	0x3f
 2023 07df 00       		.byte	0
 2024 07e0 1A       		.uleb128 0x1a
 2025 07e1 BC020000 		.4byte	.LVL39
 2026 07e5 8A0C0000 		.4byte	0xc8a
 2027 07e9 F3070000 		.4byte	0x7f3
 2028 07ed 1B       		.uleb128 0x1b
 2029 07ee 01       		.byte	0x1
 2030 07ef 50       		.byte	0x50
 2031 07f0 01       		.byte	0x1
 2032 07f1 40       		.byte	0x40
 2033 07f2 00       		.byte	0
 2034 07f3 1A       		.uleb128 0x1a
 2035 07f4 D4020000 		.4byte	.LVL40
 2036 07f8 3F0D0000 		.4byte	0xd3f
 2037 07fc 12080000 		.4byte	0x812
 2038 0800 1B       		.uleb128 0x1b
 2039 0801 01       		.byte	0x1
 2040 0802 52       		.byte	0x52
 2041 0803 01       		.byte	0x1
 2042 0804 31       		.byte	0x31
 2043 0805 1B       		.uleb128 0x1b
 2044 0806 01       		.byte	0x1
 2045 0807 51       		.byte	0x51
 2046 0808 02       		.byte	0x2
 2047 0809 91       		.byte	0x91
ARM GAS  C:\Users\NICOMA~1\AppData\Local\Temp\ccO3Bz3q.s 			page 37


 2048 080a 64       		.sleb128 -28
 2049 080b 1B       		.uleb128 0x1b
 2050 080c 01       		.byte	0x1
 2051 080d 50       		.byte	0x50
 2052 080e 02       		.byte	0x2
 2053 080f 74       		.byte	0x74
 2054 0810 00       		.sleb128 0
 2055 0811 00       		.byte	0
 2056 0812 1A       		.uleb128 0x1a
 2057 0813 E8020000 		.4byte	.LVL42
 2058 0817 8A0C0000 		.4byte	0xc8a
 2059 081b 25080000 		.4byte	0x825
 2060 081f 1B       		.uleb128 0x1b
 2061 0820 01       		.byte	0x1
 2062 0821 50       		.byte	0x50
 2063 0822 01       		.byte	0x1
 2064 0823 41       		.byte	0x41
 2065 0824 00       		.byte	0
 2066 0825 1A       		.uleb128 0x1a
 2067 0826 00030000 		.4byte	.LVL43
 2068 082a 840D0000 		.4byte	0xd84
 2069 082e 3F080000 		.4byte	0x83f
 2070 0832 1B       		.uleb128 0x1b
 2071 0833 01       		.byte	0x1
 2072 0834 51       		.byte	0x51
 2073 0835 02       		.byte	0x2
 2074 0836 91       		.byte	0x91
 2075 0837 64       		.sleb128 -28
 2076 0838 1B       		.uleb128 0x1b
 2077 0839 01       		.byte	0x1
 2078 083a 50       		.byte	0x50
 2079 083b 02       		.byte	0x2
 2080 083c 74       		.byte	0x74
 2081 083d 00       		.sleb128 0
 2082 083e 00       		.byte	0
 2083 083f 1A       		.uleb128 0x1a
 2084 0840 1C030000 		.4byte	.LVL46
 2085 0844 8A0C0000 		.4byte	0xc8a
 2086 0848 52080000 		.4byte	0x852
 2087 084c 1B       		.uleb128 0x1b
 2088 084d 01       		.byte	0x1
 2089 084e 50       		.byte	0x50
 2090 084f 01       		.byte	0x1
 2091 0850 42       		.byte	0x42
 2092 0851 00       		.byte	0
 2093 0852 1A       		.uleb128 0x1a
 2094 0853 40030000 		.4byte	.LVL47
 2095 0857 8A0C0000 		.4byte	0xc8a
 2096 085b 65080000 		.4byte	0x865
 2097 085f 1B       		.uleb128 0x1b
 2098 0860 01       		.byte	0x1
 2099 0861 50       		.byte	0x50
 2100 0862 01       		.byte	0x1
 2101 0863 43       		.byte	0x43
 2102 0864 00       		.byte	0
 2103 0865 1A       		.uleb128 0x1a
 2104 0866 64030000 		.4byte	.LVL48
ARM GAS  C:\Users\NICOMA~1\AppData\Local\Temp\ccO3Bz3q.s 			page 38


 2105 086a 8A0C0000 		.4byte	0xc8a
 2106 086e 78080000 		.4byte	0x878
 2107 0872 1B       		.uleb128 0x1b
 2108 0873 01       		.byte	0x1
 2109 0874 50       		.byte	0x50
 2110 0875 01       		.byte	0x1
 2111 0876 44       		.byte	0x44
 2112 0877 00       		.byte	0
 2113 0878 1A       		.uleb128 0x1a
 2114 0879 94030000 		.4byte	.LVL49
 2115 087d 8A0C0000 		.4byte	0xc8a
 2116 0881 8B080000 		.4byte	0x88b
 2117 0885 1B       		.uleb128 0x1b
 2118 0886 01       		.byte	0x1
 2119 0887 50       		.byte	0x50
 2120 0888 01       		.byte	0x1
 2121 0889 45       		.byte	0x45
 2122 088a 00       		.byte	0
 2123 088b 1A       		.uleb128 0x1a
 2124 088c B0030000 		.4byte	.LVL50
 2125 0890 F10C0000 		.4byte	0xcf1
 2126 0894 A5080000 		.4byte	0x8a5
 2127 0898 1B       		.uleb128 0x1b
 2128 0899 01       		.byte	0x1
 2129 089a 51       		.byte	0x51
 2130 089b 02       		.byte	0x2
 2131 089c 08       		.byte	0x8
 2132 089d 41       		.byte	0x41
 2133 089e 1B       		.uleb128 0x1b
 2134 089f 01       		.byte	0x1
 2135 08a0 50       		.byte	0x50
 2136 08a1 02       		.byte	0x2
 2137 08a2 74       		.byte	0x74
 2138 08a3 00       		.sleb128 0
 2139 08a4 00       		.byte	0
 2140 08a5 1A       		.uleb128 0x1a
 2141 08a6 C0030000 		.4byte	.LVL52
 2142 08aa 8A0C0000 		.4byte	0xc8a
 2143 08ae B8080000 		.4byte	0x8b8
 2144 08b2 1B       		.uleb128 0x1b
 2145 08b3 01       		.byte	0x1
 2146 08b4 50       		.byte	0x50
 2147 08b5 01       		.byte	0x1
 2148 08b6 46       		.byte	0x46
 2149 08b7 00       		.byte	0
 2150 08b8 1A       		.uleb128 0x1a
 2151 08b9 D4030000 		.4byte	.LVL53
 2152 08bd F10C0000 		.4byte	0xcf1
 2153 08c1 D2080000 		.4byte	0x8d2
 2154 08c5 1B       		.uleb128 0x1b
 2155 08c6 01       		.byte	0x1
 2156 08c7 51       		.byte	0x51
 2157 08c8 02       		.byte	0x2
 2158 08c9 08       		.byte	0x8
 2159 08ca 42       		.byte	0x42
 2160 08cb 1B       		.uleb128 0x1b
 2161 08cc 01       		.byte	0x1
ARM GAS  C:\Users\NICOMA~1\AppData\Local\Temp\ccO3Bz3q.s 			page 39


 2162 08cd 50       		.byte	0x50
 2163 08ce 02       		.byte	0x2
 2164 08cf 74       		.byte	0x74
 2165 08d0 00       		.sleb128 0
 2166 08d1 00       		.byte	0
 2167 08d2 1A       		.uleb128 0x1a
 2168 08d3 E4030000 		.4byte	.LVL55
 2169 08d7 8A0C0000 		.4byte	0xc8a
 2170 08db E5080000 		.4byte	0x8e5
 2171 08df 1B       		.uleb128 0x1b
 2172 08e0 01       		.byte	0x1
 2173 08e1 50       		.byte	0x50
 2174 08e2 01       		.byte	0x1
 2175 08e3 47       		.byte	0x47
 2176 08e4 00       		.byte	0
 2177 08e5 1A       		.uleb128 0x1a
 2178 08e6 F8030000 		.4byte	.LVL56
 2179 08ea F10C0000 		.4byte	0xcf1
 2180 08ee FF080000 		.4byte	0x8ff
 2181 08f2 1B       		.uleb128 0x1b
 2182 08f3 01       		.byte	0x1
 2183 08f4 51       		.byte	0x51
 2184 08f5 02       		.byte	0x2
 2185 08f6 08       		.byte	0x8
 2186 08f7 43       		.byte	0x43
 2187 08f8 1B       		.uleb128 0x1b
 2188 08f9 01       		.byte	0x1
 2189 08fa 50       		.byte	0x50
 2190 08fb 02       		.byte	0x2
 2191 08fc 74       		.byte	0x74
 2192 08fd 00       		.sleb128 0
 2193 08fe 00       		.byte	0
 2194 08ff 1A       		.uleb128 0x1a
 2195 0900 08040000 		.4byte	.LVL58
 2196 0904 8A0C0000 		.4byte	0xc8a
 2197 0908 12090000 		.4byte	0x912
 2198 090c 1B       		.uleb128 0x1b
 2199 090d 01       		.byte	0x1
 2200 090e 50       		.byte	0x50
 2201 090f 01       		.byte	0x1
 2202 0910 48       		.byte	0x48
 2203 0911 00       		.byte	0
 2204 0912 1A       		.uleb128 0x1a
 2205 0913 1C040000 		.4byte	.LVL59
 2206 0917 F10C0000 		.4byte	0xcf1
 2207 091b 2C090000 		.4byte	0x92c
 2208 091f 1B       		.uleb128 0x1b
 2209 0920 01       		.byte	0x1
 2210 0921 51       		.byte	0x51
 2211 0922 02       		.byte	0x2
 2212 0923 08       		.byte	0x8
 2213 0924 44       		.byte	0x44
 2214 0925 1B       		.uleb128 0x1b
 2215 0926 01       		.byte	0x1
 2216 0927 50       		.byte	0x50
 2217 0928 02       		.byte	0x2
 2218 0929 74       		.byte	0x74
ARM GAS  C:\Users\NICOMA~1\AppData\Local\Temp\ccO3Bz3q.s 			page 40


 2219 092a 00       		.sleb128 0
 2220 092b 00       		.byte	0
 2221 092c 1A       		.uleb128 0x1a
 2222 092d 2C040000 		.4byte	.LVL61
 2223 0931 8A0C0000 		.4byte	0xc8a
 2224 0935 3F090000 		.4byte	0x93f
 2225 0939 1B       		.uleb128 0x1b
 2226 093a 01       		.byte	0x1
 2227 093b 50       		.byte	0x50
 2228 093c 01       		.byte	0x1
 2229 093d 49       		.byte	0x49
 2230 093e 00       		.byte	0
 2231 093f 1A       		.uleb128 0x1a
 2232 0940 40040000 		.4byte	.LVL62
 2233 0944 F10C0000 		.4byte	0xcf1
 2234 0948 59090000 		.4byte	0x959
 2235 094c 1B       		.uleb128 0x1b
 2236 094d 01       		.byte	0x1
 2237 094e 51       		.byte	0x51
 2238 094f 02       		.byte	0x2
 2239 0950 08       		.byte	0x8
 2240 0951 45       		.byte	0x45
 2241 0952 1B       		.uleb128 0x1b
 2242 0953 01       		.byte	0x1
 2243 0954 50       		.byte	0x50
 2244 0955 02       		.byte	0x2
 2245 0956 74       		.byte	0x74
 2246 0957 00       		.sleb128 0
 2247 0958 00       		.byte	0
 2248 0959 1A       		.uleb128 0x1a
 2249 095a 58040000 		.4byte	.LVL65
 2250 095e 8A0C0000 		.4byte	0xc8a
 2251 0962 6C090000 		.4byte	0x96c
 2252 0966 1B       		.uleb128 0x1b
 2253 0967 01       		.byte	0x1
 2254 0968 50       		.byte	0x50
 2255 0969 01       		.byte	0x1
 2256 096a 4A       		.byte	0x4a
 2257 096b 00       		.byte	0
 2258 096c 1A       		.uleb128 0x1a
 2259 096d 7C040000 		.4byte	.LVL66
 2260 0971 8A0C0000 		.4byte	0xc8a
 2261 0975 7F090000 		.4byte	0x97f
 2262 0979 1B       		.uleb128 0x1b
 2263 097a 01       		.byte	0x1
 2264 097b 50       		.byte	0x50
 2265 097c 01       		.byte	0x1
 2266 097d 4B       		.byte	0x4b
 2267 097e 00       		.byte	0
 2268 097f 1A       		.uleb128 0x1a
 2269 0980 9C040000 		.4byte	.LVL67
 2270 0984 840D0000 		.4byte	0xd84
 2271 0988 99090000 		.4byte	0x999
 2272 098c 1B       		.uleb128 0x1b
 2273 098d 01       		.byte	0x1
 2274 098e 51       		.byte	0x51
 2275 098f 02       		.byte	0x2
ARM GAS  C:\Users\NICOMA~1\AppData\Local\Temp\ccO3Bz3q.s 			page 41


 2276 0990 91       		.byte	0x91
 2277 0991 64       		.sleb128 -28
 2278 0992 1B       		.uleb128 0x1b
 2279 0993 01       		.byte	0x1
 2280 0994 50       		.byte	0x50
 2281 0995 02       		.byte	0x2
 2282 0996 74       		.byte	0x74
 2283 0997 00       		.sleb128 0
 2284 0998 00       		.byte	0
 2285 0999 1A       		.uleb128 0x1a
 2286 099a B4040000 		.4byte	.LVL70
 2287 099e 8A0C0000 		.4byte	0xc8a
 2288 09a2 AC090000 		.4byte	0x9ac
 2289 09a6 1B       		.uleb128 0x1b
 2290 09a7 01       		.byte	0x1
 2291 09a8 50       		.byte	0x50
 2292 09a9 01       		.byte	0x1
 2293 09aa 4C       		.byte	0x4c
 2294 09ab 00       		.byte	0
 2295 09ac 1C       		.uleb128 0x1c
 2296 09ad C4040000 		.4byte	.LVL71
 2297 09b1 2B0D0000 		.4byte	0xd2b
 2298 09b5 1A       		.uleb128 0x1a
 2299 09b6 D8040000 		.4byte	.LVL72
 2300 09ba 610D0000 		.4byte	0xd61
 2301 09be D1090000 		.4byte	0x9d1
 2302 09c2 1B       		.uleb128 0x1b
 2303 09c3 01       		.byte	0x1
 2304 09c4 51       		.byte	0x51
 2305 09c5 05       		.byte	0x5
 2306 09c6 03       		.byte	0x3
 2307 09c7 00000000 		.4byte	.LC0
 2308 09cb 1B       		.uleb128 0x1b
 2309 09cc 01       		.byte	0x1
 2310 09cd 50       		.byte	0x50
 2311 09ce 01       		.byte	0x1
 2312 09cf 4D       		.byte	0x4d
 2313 09d0 00       		.byte	0
 2314 09d1 1A       		.uleb128 0x1a
 2315 09d2 FC040000 		.4byte	.LVL73
 2316 09d6 8A0C0000 		.4byte	0xc8a
 2317 09da E4090000 		.4byte	0x9e4
 2318 09de 1B       		.uleb128 0x1b
 2319 09df 01       		.byte	0x1
 2320 09e0 50       		.byte	0x50
 2321 09e1 01       		.byte	0x1
 2322 09e2 4E       		.byte	0x4e
 2323 09e3 00       		.byte	0
 2324 09e4 1A       		.uleb128 0x1a
 2325 09e5 20050000 		.4byte	.LVL74
 2326 09e9 8A0C0000 		.4byte	0xc8a
 2327 09ed F7090000 		.4byte	0x9f7
 2328 09f1 1B       		.uleb128 0x1b
 2329 09f2 01       		.byte	0x1
 2330 09f3 50       		.byte	0x50
 2331 09f4 01       		.byte	0x1
 2332 09f5 4F       		.byte	0x4f
ARM GAS  C:\Users\NICOMA~1\AppData\Local\Temp\ccO3Bz3q.s 			page 42


 2333 09f6 00       		.byte	0
 2334 09f7 1A       		.uleb128 0x1a
 2335 09f8 48050000 		.4byte	.LVL75
 2336 09fc 8A0C0000 		.4byte	0xc8a
 2337 0a00 0B0A0000 		.4byte	0xa0b
 2338 0a04 1B       		.uleb128 0x1b
 2339 0a05 01       		.byte	0x1
 2340 0a06 50       		.byte	0x50
 2341 0a07 02       		.byte	0x2
 2342 0a08 08       		.byte	0x8
 2343 0a09 20       		.byte	0x20
 2344 0a0a 00       		.byte	0
 2345 0a0b 1A       		.uleb128 0x1a
 2346 0a0c 60050000 		.4byte	.LVL76
 2347 0a10 0E0D0000 		.4byte	0xd0e
 2348 0a14 250A0000 		.4byte	0xa25
 2349 0a18 1B       		.uleb128 0x1b
 2350 0a19 01       		.byte	0x1
 2351 0a1a 51       		.byte	0x51
 2352 0a1b 02       		.byte	0x2
 2353 0a1c 08       		.byte	0x8
 2354 0a1d 45       		.byte	0x45
 2355 0a1e 1B       		.uleb128 0x1b
 2356 0a1f 01       		.byte	0x1
 2357 0a20 50       		.byte	0x50
 2358 0a21 02       		.byte	0x2
 2359 0a22 74       		.byte	0x74
 2360 0a23 00       		.sleb128 0
 2361 0a24 00       		.byte	0
 2362 0a25 1A       		.uleb128 0x1a
 2363 0a26 70050000 		.4byte	.LVL78
 2364 0a2a 8A0C0000 		.4byte	0xc8a
 2365 0a2e 390A0000 		.4byte	0xa39
 2366 0a32 1B       		.uleb128 0x1b
 2367 0a33 01       		.byte	0x1
 2368 0a34 50       		.byte	0x50
 2369 0a35 02       		.byte	0x2
 2370 0a36 08       		.byte	0x8
 2371 0a37 21       		.byte	0x21
 2372 0a38 00       		.byte	0
 2373 0a39 1A       		.uleb128 0x1a
 2374 0a3a 84050000 		.4byte	.LVL79
 2375 0a3e 0E0D0000 		.4byte	0xd0e
 2376 0a42 530A0000 		.4byte	0xa53
 2377 0a46 1B       		.uleb128 0x1b
 2378 0a47 01       		.byte	0x1
 2379 0a48 51       		.byte	0x51
 2380 0a49 02       		.byte	0x2
 2381 0a4a 08       		.byte	0x8
 2382 0a4b 44       		.byte	0x44
 2383 0a4c 1B       		.uleb128 0x1b
 2384 0a4d 01       		.byte	0x1
 2385 0a4e 50       		.byte	0x50
 2386 0a4f 02       		.byte	0x2
 2387 0a50 74       		.byte	0x74
 2388 0a51 00       		.sleb128 0
 2389 0a52 00       		.byte	0
ARM GAS  C:\Users\NICOMA~1\AppData\Local\Temp\ccO3Bz3q.s 			page 43


 2390 0a53 1A       		.uleb128 0x1a
 2391 0a54 94050000 		.4byte	.LVL81
 2392 0a58 8A0C0000 		.4byte	0xc8a
 2393 0a5c 670A0000 		.4byte	0xa67
 2394 0a60 1B       		.uleb128 0x1b
 2395 0a61 01       		.byte	0x1
 2396 0a62 50       		.byte	0x50
 2397 0a63 02       		.byte	0x2
 2398 0a64 08       		.byte	0x8
 2399 0a65 22       		.byte	0x22
 2400 0a66 00       		.byte	0
 2401 0a67 1A       		.uleb128 0x1a
 2402 0a68 A8050000 		.4byte	.LVL82
 2403 0a6c 0E0D0000 		.4byte	0xd0e
 2404 0a70 810A0000 		.4byte	0xa81
 2405 0a74 1B       		.uleb128 0x1b
 2406 0a75 01       		.byte	0x1
 2407 0a76 51       		.byte	0x51
 2408 0a77 02       		.byte	0x2
 2409 0a78 08       		.byte	0x8
 2410 0a79 43       		.byte	0x43
 2411 0a7a 1B       		.uleb128 0x1b
 2412 0a7b 01       		.byte	0x1
 2413 0a7c 50       		.byte	0x50
 2414 0a7d 02       		.byte	0x2
 2415 0a7e 74       		.byte	0x74
 2416 0a7f 00       		.sleb128 0
 2417 0a80 00       		.byte	0
 2418 0a81 1A       		.uleb128 0x1a
 2419 0a82 B8050000 		.4byte	.LVL84
 2420 0a86 8A0C0000 		.4byte	0xc8a
 2421 0a8a 950A0000 		.4byte	0xa95
 2422 0a8e 1B       		.uleb128 0x1b
 2423 0a8f 01       		.byte	0x1
 2424 0a90 50       		.byte	0x50
 2425 0a91 02       		.byte	0x2
 2426 0a92 08       		.byte	0x8
 2427 0a93 23       		.byte	0x23
 2428 0a94 00       		.byte	0
 2429 0a95 1A       		.uleb128 0x1a
 2430 0a96 CC050000 		.4byte	.LVL85
 2431 0a9a 0E0D0000 		.4byte	0xd0e
 2432 0a9e AF0A0000 		.4byte	0xaaf
 2433 0aa2 1B       		.uleb128 0x1b
 2434 0aa3 01       		.byte	0x1
 2435 0aa4 51       		.byte	0x51
 2436 0aa5 02       		.byte	0x2
 2437 0aa6 08       		.byte	0x8
 2438 0aa7 42       		.byte	0x42
 2439 0aa8 1B       		.uleb128 0x1b
 2440 0aa9 01       		.byte	0x1
 2441 0aaa 50       		.byte	0x50
 2442 0aab 02       		.byte	0x2
 2443 0aac 74       		.byte	0x74
 2444 0aad 00       		.sleb128 0
 2445 0aae 00       		.byte	0
 2446 0aaf 1A       		.uleb128 0x1a
ARM GAS  C:\Users\NICOMA~1\AppData\Local\Temp\ccO3Bz3q.s 			page 44


 2447 0ab0 DC050000 		.4byte	.LVL87
 2448 0ab4 8A0C0000 		.4byte	0xc8a
 2449 0ab8 C30A0000 		.4byte	0xac3
 2450 0abc 1B       		.uleb128 0x1b
 2451 0abd 01       		.byte	0x1
 2452 0abe 50       		.byte	0x50
 2453 0abf 02       		.byte	0x2
 2454 0ac0 08       		.byte	0x8
 2455 0ac1 24       		.byte	0x24
 2456 0ac2 00       		.byte	0
 2457 0ac3 1A       		.uleb128 0x1a
 2458 0ac4 F4050000 		.4byte	.LVL88
 2459 0ac8 0E0D0000 		.4byte	0xd0e
 2460 0acc DD0A0000 		.4byte	0xadd
 2461 0ad0 1B       		.uleb128 0x1b
 2462 0ad1 01       		.byte	0x1
 2463 0ad2 51       		.byte	0x51
 2464 0ad3 02       		.byte	0x2
 2465 0ad4 08       		.byte	0x8
 2466 0ad5 41       		.byte	0x41
 2467 0ad6 1B       		.uleb128 0x1b
 2468 0ad7 01       		.byte	0x1
 2469 0ad8 50       		.byte	0x50
 2470 0ad9 02       		.byte	0x2
 2471 0ada 74       		.byte	0x74
 2472 0adb 00       		.sleb128 0
 2473 0adc 00       		.byte	0
 2474 0add 1A       		.uleb128 0x1a
 2475 0ade 0C060000 		.4byte	.LVL91
 2476 0ae2 8A0C0000 		.4byte	0xc8a
 2477 0ae6 F10A0000 		.4byte	0xaf1
 2478 0aea 1B       		.uleb128 0x1b
 2479 0aeb 01       		.byte	0x1
 2480 0aec 50       		.byte	0x50
 2481 0aed 02       		.byte	0x2
 2482 0aee 08       		.byte	0x8
 2483 0aef 25       		.byte	0x25
 2484 0af0 00       		.byte	0
 2485 0af1 1A       		.uleb128 0x1a
 2486 0af2 30060000 		.4byte	.LVL92
 2487 0af6 8A0C0000 		.4byte	0xc8a
 2488 0afa 050B0000 		.4byte	0xb05
 2489 0afe 1B       		.uleb128 0x1b
 2490 0aff 01       		.byte	0x1
 2491 0b00 50       		.byte	0x50
 2492 0b01 02       		.byte	0x2
 2493 0b02 08       		.byte	0x8
 2494 0b03 26       		.byte	0x26
 2495 0b04 00       		.byte	0
 2496 0b05 1A       		.uleb128 0x1a
 2497 0b06 50060000 		.4byte	.LVL93
 2498 0b0a 840D0000 		.4byte	0xd84
 2499 0b0e 1F0B0000 		.4byte	0xb1f
 2500 0b12 1B       		.uleb128 0x1b
 2501 0b13 01       		.byte	0x1
 2502 0b14 51       		.byte	0x51
 2503 0b15 02       		.byte	0x2
ARM GAS  C:\Users\NICOMA~1\AppData\Local\Temp\ccO3Bz3q.s 			page 45


 2504 0b16 91       		.byte	0x91
 2505 0b17 64       		.sleb128 -28
 2506 0b18 1B       		.uleb128 0x1b
 2507 0b19 01       		.byte	0x1
 2508 0b1a 50       		.byte	0x50
 2509 0b1b 02       		.byte	0x2
 2510 0b1c 74       		.byte	0x74
 2511 0b1d 00       		.sleb128 0
 2512 0b1e 00       		.byte	0
 2513 0b1f 1A       		.uleb128 0x1a
 2514 0b20 68060000 		.4byte	.LVL96
 2515 0b24 8A0C0000 		.4byte	0xc8a
 2516 0b28 330B0000 		.4byte	0xb33
 2517 0b2c 1B       		.uleb128 0x1b
 2518 0b2d 01       		.byte	0x1
 2519 0b2e 50       		.byte	0x50
 2520 0b2f 02       		.byte	0x2
 2521 0b30 08       		.byte	0x8
 2522 0b31 27       		.byte	0x27
 2523 0b32 00       		.byte	0
 2524 0b33 1C       		.uleb128 0x1c
 2525 0b34 78060000 		.4byte	.LVL97
 2526 0b38 2B0D0000 		.4byte	0xd2b
 2527 0b3c 1A       		.uleb128 0x1a
 2528 0b3d 8C060000 		.4byte	.LVL98
 2529 0b41 610D0000 		.4byte	0xd61
 2530 0b45 590B0000 		.4byte	0xb59
 2531 0b49 1B       		.uleb128 0x1b
 2532 0b4a 01       		.byte	0x1
 2533 0b4b 51       		.byte	0x51
 2534 0b4c 05       		.byte	0x5
 2535 0b4d 03       		.byte	0x3
 2536 0b4e 00000000 		.4byte	.LC0
 2537 0b52 1B       		.uleb128 0x1b
 2538 0b53 01       		.byte	0x1
 2539 0b54 50       		.byte	0x50
 2540 0b55 02       		.byte	0x2
 2541 0b56 08       		.byte	0x8
 2542 0b57 28       		.byte	0x28
 2543 0b58 00       		.byte	0
 2544 0b59 1A       		.uleb128 0x1a
 2545 0b5a B0060000 		.4byte	.LVL99
 2546 0b5e 8A0C0000 		.4byte	0xc8a
 2547 0b62 6D0B0000 		.4byte	0xb6d
 2548 0b66 1B       		.uleb128 0x1b
 2549 0b67 01       		.byte	0x1
 2550 0b68 50       		.byte	0x50
 2551 0b69 02       		.byte	0x2
 2552 0b6a 08       		.byte	0x8
 2553 0b6b 29       		.byte	0x29
 2554 0b6c 00       		.byte	0
 2555 0b6d 1A       		.uleb128 0x1a
 2556 0b6e D4060000 		.4byte	.LVL100
 2557 0b72 8A0C0000 		.4byte	0xc8a
 2558 0b76 810B0000 		.4byte	0xb81
 2559 0b7a 1B       		.uleb128 0x1b
 2560 0b7b 01       		.byte	0x1
ARM GAS  C:\Users\NICOMA~1\AppData\Local\Temp\ccO3Bz3q.s 			page 46


 2561 0b7c 50       		.byte	0x50
 2562 0b7d 02       		.byte	0x2
 2563 0b7e 08       		.byte	0x8
 2564 0b7f 2A       		.byte	0x2a
 2565 0b80 00       		.byte	0
 2566 0b81 1A       		.uleb128 0x1a
 2567 0b82 FC060000 		.4byte	.LVL101
 2568 0b86 8A0C0000 		.4byte	0xc8a
 2569 0b8a 950B0000 		.4byte	0xb95
 2570 0b8e 1B       		.uleb128 0x1b
 2571 0b8f 01       		.byte	0x1
 2572 0b90 50       		.byte	0x50
 2573 0b91 02       		.byte	0x2
 2574 0b92 08       		.byte	0x8
 2575 0b93 2B       		.byte	0x2b
 2576 0b94 00       		.byte	0
 2577 0b95 1A       		.uleb128 0x1a
 2578 0b96 0C070000 		.4byte	.LVL102
 2579 0b9a A10D0000 		.4byte	0xda1
 2580 0b9e A90B0000 		.4byte	0xba9
 2581 0ba2 1B       		.uleb128 0x1b
 2582 0ba3 01       		.byte	0x1
 2583 0ba4 50       		.byte	0x50
 2584 0ba5 02       		.byte	0x2
 2585 0ba6 74       		.byte	0x74
 2586 0ba7 00       		.sleb128 0
 2587 0ba8 00       		.byte	0
 2588 0ba9 1A       		.uleb128 0x1a
 2589 0baa 28070000 		.4byte	.LVL103
 2590 0bae 8A0C0000 		.4byte	0xc8a
 2591 0bb2 BD0B0000 		.4byte	0xbbd
 2592 0bb6 1B       		.uleb128 0x1b
 2593 0bb7 01       		.byte	0x1
 2594 0bb8 50       		.byte	0x50
 2595 0bb9 02       		.byte	0x2
 2596 0bba 08       		.byte	0x8
 2597 0bbb 2C       		.byte	0x2c
 2598 0bbc 00       		.byte	0
 2599 0bbd 1A       		.uleb128 0x1a
 2600 0bbe 4C070000 		.4byte	.LVL104
 2601 0bc2 8A0C0000 		.4byte	0xc8a
 2602 0bc6 D10B0000 		.4byte	0xbd1
 2603 0bca 1B       		.uleb128 0x1b
 2604 0bcb 01       		.byte	0x1
 2605 0bcc 50       		.byte	0x50
 2606 0bcd 02       		.byte	0x2
 2607 0bce 08       		.byte	0x8
 2608 0bcf 2D       		.byte	0x2d
 2609 0bd0 00       		.byte	0
 2610 0bd1 1A       		.uleb128 0x1a
 2611 0bd2 78070000 		.4byte	.LVL105
 2612 0bd6 8A0C0000 		.4byte	0xc8a
 2613 0bda E50B0000 		.4byte	0xbe5
 2614 0bde 1B       		.uleb128 0x1b
 2615 0bdf 01       		.byte	0x1
 2616 0be0 50       		.byte	0x50
 2617 0be1 02       		.byte	0x2
ARM GAS  C:\Users\NICOMA~1\AppData\Local\Temp\ccO3Bz3q.s 			page 47


 2618 0be2 08       		.byte	0x8
 2619 0be3 2E       		.byte	0x2e
 2620 0be4 00       		.byte	0
 2621 0be5 1D       		.uleb128 0x1d
 2622 0be6 A4070000 		.4byte	.LVL106
 2623 0bea 8A0C0000 		.4byte	0xc8a
 2624 0bee 1B       		.uleb128 0x1b
 2625 0bef 01       		.byte	0x1
 2626 0bf0 50       		.byte	0x50
 2627 0bf1 02       		.byte	0x2
 2628 0bf2 08       		.byte	0x8
 2629 0bf3 2F       		.byte	0x2f
 2630 0bf4 00       		.byte	0
 2631 0bf5 00       		.byte	0
 2632 0bf6 1E       		.uleb128 0x1e
 2633 0bf7 BB010000 		.4byte	.LASF76
 2634 0bfb 01       		.byte	0x1
 2635 0bfc 47       		.byte	0x47
 2636 0bfd 01       		.byte	0x1
 2637 0bfe 00000000 		.4byte	.LFB7
 2638 0c02 18000000 		.4byte	.LFE7
 2639 0c06 02       		.byte	0x2
 2640 0c07 7D       		.byte	0x7d
 2641 0c08 00       		.sleb128 0
 2642 0c09 01       		.byte	0x1
 2643 0c0a 280C0000 		.4byte	0xc28
 2644 0c0e 1F       		.uleb128 0x1f
 2645 0c0f 10000000 		.4byte	.LVL107
 2646 0c13 01       		.byte	0x1
 2647 0c14 B50D0000 		.4byte	0xdb5
 2648 0c18 1B       		.uleb128 0x1b
 2649 0c19 01       		.byte	0x1
 2650 0c1a 52       		.byte	0x52
 2651 0c1b 01       		.byte	0x1
 2652 0c1c 35       		.byte	0x35
 2653 0c1d 1B       		.uleb128 0x1b
 2654 0c1e 01       		.byte	0x1
 2655 0c1f 50       		.byte	0x50
 2656 0c20 05       		.byte	0x5
 2657 0c21 03       		.byte	0x3
 2658 0c22 00000000 		.4byte	.LANCHOR0
 2659 0c26 00       		.byte	0
 2660 0c27 00       		.byte	0
 2661 0c28 20       		.uleb128 0x20
 2662 0c29 6D623100 		.ascii	"mb1\000"
 2663 0c2d 01       		.byte	0x1
 2664 0c2e 3C       		.byte	0x3c
 2665 0c2f 20040000 		.4byte	0x420
 2666 0c33 05       		.byte	0x5
 2667 0c34 03       		.byte	0x3
 2668 0c35 00000000 		.4byte	mb1
 2669 0c39 21       		.uleb128 0x21
 2670 0c3a 5A000000 		.4byte	.LASF77
 2671 0c3e 0A       		.byte	0xa
 2672 0c3f A6       		.byte	0xa6
 2673 0c40 2B050000 		.4byte	0x52b
 2674 0c44 01       		.byte	0x1
ARM GAS  C:\Users\NICOMA~1\AppData\Local\Temp\ccO3Bz3q.s 			page 48


 2675 0c45 01       		.byte	0x1
 2676 0c46 22       		.uleb128 0x22
 2677 0c47 E5010000 		.4byte	.LASF78
 2678 0c4b 01       		.byte	0x1
 2679 0c4c DE       		.byte	0xde
 2680 0c4d 580C0000 		.4byte	0xc58
 2681 0c51 01       		.byte	0x1
 2682 0c52 05       		.byte	0x5
 2683 0c53 03       		.byte	0x3
 2684 0c54 00000000 		.4byte	testmbox1
 2685 0c58 0E       		.uleb128 0xe
 2686 0c59 7F040000 		.4byte	0x47f
 2687 0c5d 11       		.uleb128 0x11
 2688 0c5e 6D0C0000 		.4byte	0xc6d
 2689 0c62 6D0C0000 		.4byte	0xc6d
 2690 0c66 12       		.uleb128 0x12
 2691 0c67 78040000 		.4byte	0x478
 2692 0c6b 01       		.byte	0x1
 2693 0c6c 00       		.byte	0
 2694 0c6d 09       		.uleb128 0x9
 2695 0c6e 04       		.byte	0x4
 2696 0c6f 580C0000 		.4byte	0xc58
 2697 0c73 22       		.uleb128 0x22
 2698 0c74 45000000 		.4byte	.LASF79
 2699 0c78 01       		.byte	0x1
 2700 0c79 EA       		.byte	0xea
 2701 0c7a 850C0000 		.4byte	0xc85
 2702 0c7e 01       		.byte	0x1
 2703 0c7f 05       		.byte	0x5
 2704 0c80 03       		.byte	0x3
 2705 0c81 00000000 		.4byte	patternmbox
 2706 0c85 0E       		.uleb128 0xe
 2707 0c86 5D0C0000 		.4byte	0xc5d
 2708 0c8a 23       		.uleb128 0x23
 2709 0c8b 01       		.byte	0x1
 2710 0c8c AD030000 		.4byte	.LASF80
 2711 0c90 0A       		.byte	0xa
 2712 0c91 58       		.byte	0x58
 2713 0c92 01       		.byte	0x1
 2714 0c93 90000000 		.4byte	0x90
 2715 0c97 01       		.byte	0x1
 2716 0c98 A70C0000 		.4byte	0xca7
 2717 0c9c 24       		.uleb128 0x24
 2718 0c9d 30000000 		.4byte	0x30
 2719 0ca1 24       		.uleb128 0x24
 2720 0ca2 90000000 		.4byte	0x90
 2721 0ca6 00       		.byte	0
 2722 0ca7 23       		.uleb128 0x23
 2723 0ca8 01       		.byte	0x1
 2724 0ca9 B2000000 		.4byte	.LASF81
 2725 0cad 09       		.byte	0x9
 2726 0cae 45       		.byte	0x45
 2727 0caf 01       		.byte	0x1
 2728 0cb0 D9000000 		.4byte	0xd9
 2729 0cb4 01       		.byte	0x1
 2730 0cb5 C90C0000 		.4byte	0xcc9
 2731 0cb9 24       		.uleb128 0x24
ARM GAS  C:\Users\NICOMA~1\AppData\Local\Temp\ccO3Bz3q.s 			page 49


 2732 0cba C90C0000 		.4byte	0xcc9
 2733 0cbe 24       		.uleb128 0x24
 2734 0cbf D9000000 		.4byte	0xd9
 2735 0cc3 24       		.uleb128 0x24
 2736 0cc4 EF000000 		.4byte	0xef
 2737 0cc8 00       		.byte	0
 2738 0cc9 09       		.uleb128 0x9
 2739 0cca 04       		.byte	0x4
 2740 0ccb 20040000 		.4byte	0x420
 2741 0ccf 23       		.uleb128 0x23
 2742 0cd0 01       		.byte	0x1
 2743 0cd1 44030000 		.4byte	.LASF82
 2744 0cd5 09       		.byte	0x9
 2745 0cd6 48       		.byte	0x48
 2746 0cd7 01       		.byte	0x1
 2747 0cd8 D9000000 		.4byte	0xd9
 2748 0cdc 01       		.byte	0x1
 2749 0cdd F10C0000 		.4byte	0xcf1
 2750 0ce1 24       		.uleb128 0x24
 2751 0ce2 C90C0000 		.4byte	0xcc9
 2752 0ce6 24       		.uleb128 0x24
 2753 0ce7 D9000000 		.4byte	0xd9
 2754 0ceb 24       		.uleb128 0x24
 2755 0cec EF000000 		.4byte	0xef
 2756 0cf0 00       		.byte	0
 2757 0cf1 23       		.uleb128 0x23
 2758 0cf2 01       		.byte	0x1
 2759 0cf3 0D000000 		.4byte	.LASF83
 2760 0cf7 09       		.byte	0x9
 2761 0cf8 47       		.byte	0x47
 2762 0cf9 01       		.byte	0x1
 2763 0cfa D9000000 		.4byte	0xd9
 2764 0cfe 01       		.byte	0x1
 2765 0cff 0E0D0000 		.4byte	0xd0e
 2766 0d03 24       		.uleb128 0x24
 2767 0d04 C90C0000 		.4byte	0xcc9
 2768 0d08 24       		.uleb128 0x24
 2769 0d09 D9000000 		.4byte	0xd9
 2770 0d0d 00       		.byte	0
 2771 0d0e 23       		.uleb128 0x23
 2772 0d0f 01       		.byte	0x1
 2773 0d10 1F000000 		.4byte	.LASF84
 2774 0d14 09       		.byte	0x9
 2775 0d15 4A       		.byte	0x4a
 2776 0d16 01       		.byte	0x1
 2777 0d17 D9000000 		.4byte	0xd9
 2778 0d1b 01       		.byte	0x1
 2779 0d1c 2B0D0000 		.4byte	0xd2b
 2780 0d20 24       		.uleb128 0x24
 2781 0d21 C90C0000 		.4byte	0xcc9
 2782 0d25 24       		.uleb128 0x24
 2783 0d26 D9000000 		.4byte	0xd9
 2784 0d2a 00       		.byte	0
 2785 0d2b 25       		.uleb128 0x25
 2786 0d2c 01       		.byte	0x1
 2787 0d2d 98000000 		.4byte	.LASF88
 2788 0d31 0A       		.byte	0xa
ARM GAS  C:\Users\NICOMA~1\AppData\Local\Temp\ccO3Bz3q.s 			page 50


 2789 0d32 56       		.byte	0x56
 2790 0d33 01       		.byte	0x1
 2791 0d34 01       		.byte	0x1
 2792 0d35 3F0D0000 		.4byte	0xd3f
 2793 0d39 24       		.uleb128 0x24
 2794 0d3a 6B040000 		.4byte	0x46b
 2795 0d3e 00       		.byte	0
 2796 0d3f 23       		.uleb128 0x23
 2797 0d40 01       		.byte	0x1
 2798 0d41 64030000 		.4byte	.LASF85
 2799 0d45 09       		.byte	0x9
 2800 0d46 4B       		.byte	0x4b
 2801 0d47 01       		.byte	0x1
 2802 0d48 D9000000 		.4byte	0xd9
 2803 0d4c 01       		.byte	0x1
 2804 0d4d 610D0000 		.4byte	0xd61
 2805 0d51 24       		.uleb128 0x24
 2806 0d52 C90C0000 		.4byte	0xcc9
 2807 0d56 24       		.uleb128 0x24
 2808 0d57 1A040000 		.4byte	0x41a
 2809 0d5b 24       		.uleb128 0x24
 2810 0d5c EF000000 		.4byte	0xef
 2811 0d60 00       		.byte	0
 2812 0d61 23       		.uleb128 0x23
 2813 0d62 01       		.byte	0x1
 2814 0d63 31020000 		.4byte	.LASF86
 2815 0d67 0A       		.byte	0xa
 2816 0d68 59       		.byte	0x59
 2817 0d69 01       		.byte	0x1
 2818 0d6a 90000000 		.4byte	0x90
 2819 0d6e 01       		.byte	0x1
 2820 0d6f 7E0D0000 		.4byte	0xd7e
 2821 0d73 24       		.uleb128 0x24
 2822 0d74 30000000 		.4byte	0x30
 2823 0d78 24       		.uleb128 0x24
 2824 0d79 7E0D0000 		.4byte	0xd7e
 2825 0d7d 00       		.byte	0
 2826 0d7e 09       		.uleb128 0x9
 2827 0d7f 04       		.byte	0x4
 2828 0d80 6B040000 		.4byte	0x46b
 2829 0d84 23       		.uleb128 0x23
 2830 0d85 01       		.byte	0x1
 2831 0d86 A2010000 		.4byte	.LASF87
 2832 0d8a 09       		.byte	0x9
 2833 0d8b 4D       		.byte	0x4d
 2834 0d8c 01       		.byte	0x1
 2835 0d8d D9000000 		.4byte	0xd9
 2836 0d91 01       		.byte	0x1
 2837 0d92 A10D0000 		.4byte	0xda1
 2838 0d96 24       		.uleb128 0x24
 2839 0d97 C90C0000 		.4byte	0xcc9
 2840 0d9b 24       		.uleb128 0x24
 2841 0d9c 1A040000 		.4byte	0x41a
 2842 0da0 00       		.byte	0
 2843 0da1 25       		.uleb128 0x25
 2844 0da2 01       		.byte	0x1
 2845 0da3 0C020000 		.4byte	.LASF89
ARM GAS  C:\Users\NICOMA~1\AppData\Local\Temp\ccO3Bz3q.s 			page 51


 2846 0da7 09       		.byte	0x9
 2847 0da8 44       		.byte	0x44
 2848 0da9 01       		.byte	0x1
 2849 0daa 01       		.byte	0x1
 2850 0dab B50D0000 		.4byte	0xdb5
 2851 0daf 24       		.uleb128 0x24
 2852 0db0 C90C0000 		.4byte	0xcc9
 2853 0db4 00       		.byte	0
 2854 0db5 26       		.uleb128 0x26
 2855 0db6 01       		.byte	0x1
 2856 0db7 34010000 		.4byte	.LASF95
 2857 0dbb 09       		.byte	0x9
 2858 0dbc 43       		.byte	0x43
 2859 0dbd 01       		.byte	0x1
 2860 0dbe 01       		.byte	0x1
 2861 0dbf 24       		.uleb128 0x24
 2862 0dc0 C90C0000 		.4byte	0xcc9
 2863 0dc4 24       		.uleb128 0x24
 2864 0dc5 1A040000 		.4byte	0x41a
 2865 0dc9 24       		.uleb128 0x24
 2866 0dca FA000000 		.4byte	0xfa
 2867 0dce 00       		.byte	0
 2868 0dcf 00       		.byte	0
 2869              		.section	.debug_abbrev,"",%progbits
 2870              	.Ldebug_abbrev0:
 2871 0000 01       		.uleb128 0x1
 2872 0001 11       		.uleb128 0x11
 2873 0002 01       		.byte	0x1
 2874 0003 25       		.uleb128 0x25
 2875 0004 0E       		.uleb128 0xe
 2876 0005 13       		.uleb128 0x13
 2877 0006 0B       		.uleb128 0xb
 2878 0007 03       		.uleb128 0x3
 2879 0008 0E       		.uleb128 0xe
 2880 0009 1B       		.uleb128 0x1b
 2881 000a 0E       		.uleb128 0xe
 2882 000b 55       		.uleb128 0x55
 2883 000c 06       		.uleb128 0x6
 2884 000d 11       		.uleb128 0x11
 2885 000e 01       		.uleb128 0x1
 2886 000f 52       		.uleb128 0x52
 2887 0010 01       		.uleb128 0x1
 2888 0011 10       		.uleb128 0x10
 2889 0012 06       		.uleb128 0x6
 2890 0013 00       		.byte	0
 2891 0014 00       		.byte	0
 2892 0015 02       		.uleb128 0x2
 2893 0016 24       		.uleb128 0x24
 2894 0017 00       		.byte	0
 2895 0018 0B       		.uleb128 0xb
 2896 0019 0B       		.uleb128 0xb
 2897 001a 3E       		.uleb128 0x3e
 2898 001b 0B       		.uleb128 0xb
 2899 001c 03       		.uleb128 0x3
 2900 001d 08       		.uleb128 0x8
 2901 001e 00       		.byte	0
 2902 001f 00       		.byte	0
ARM GAS  C:\Users\NICOMA~1\AppData\Local\Temp\ccO3Bz3q.s 			page 52


 2903 0020 03       		.uleb128 0x3
 2904 0021 24       		.uleb128 0x24
 2905 0022 00       		.byte	0
 2906 0023 0B       		.uleb128 0xb
 2907 0024 0B       		.uleb128 0xb
 2908 0025 3E       		.uleb128 0x3e
 2909 0026 0B       		.uleb128 0xb
 2910 0027 03       		.uleb128 0x3
 2911 0028 0E       		.uleb128 0xe
 2912 0029 00       		.byte	0
 2913 002a 00       		.byte	0
 2914 002b 04       		.uleb128 0x4
 2915 002c 16       		.uleb128 0x16
 2916 002d 00       		.byte	0
 2917 002e 03       		.uleb128 0x3
 2918 002f 0E       		.uleb128 0xe
 2919 0030 3A       		.uleb128 0x3a
 2920 0031 0B       		.uleb128 0xb
 2921 0032 3B       		.uleb128 0x3b
 2922 0033 0B       		.uleb128 0xb
 2923 0034 49       		.uleb128 0x49
 2924 0035 13       		.uleb128 0x13
 2925 0036 00       		.byte	0
 2926 0037 00       		.byte	0
 2927 0038 05       		.uleb128 0x5
 2928 0039 13       		.uleb128 0x13
 2929 003a 01       		.byte	0x1
 2930 003b 03       		.uleb128 0x3
 2931 003c 0E       		.uleb128 0xe
 2932 003d 0B       		.uleb128 0xb
 2933 003e 0B       		.uleb128 0xb
 2934 003f 3A       		.uleb128 0x3a
 2935 0040 0B       		.uleb128 0xb
 2936 0041 3B       		.uleb128 0x3b
 2937 0042 0B       		.uleb128 0xb
 2938 0043 01       		.uleb128 0x1
 2939 0044 13       		.uleb128 0x13
 2940 0045 00       		.byte	0
 2941 0046 00       		.byte	0
 2942 0047 06       		.uleb128 0x6
 2943 0048 0D       		.uleb128 0xd
 2944 0049 00       		.byte	0
 2945 004a 03       		.uleb128 0x3
 2946 004b 0E       		.uleb128 0xe
 2947 004c 3A       		.uleb128 0x3a
 2948 004d 0B       		.uleb128 0xb
 2949 004e 3B       		.uleb128 0x3b
 2950 004f 0B       		.uleb128 0xb
 2951 0050 49       		.uleb128 0x49
 2952 0051 13       		.uleb128 0x13
 2953 0052 38       		.uleb128 0x38
 2954 0053 0A       		.uleb128 0xa
 2955 0054 00       		.byte	0
 2956 0055 00       		.byte	0
 2957 0056 07       		.uleb128 0x7
 2958 0057 0D       		.uleb128 0xd
 2959 0058 00       		.byte	0
ARM GAS  C:\Users\NICOMA~1\AppData\Local\Temp\ccO3Bz3q.s 			page 53


 2960 0059 03       		.uleb128 0x3
 2961 005a 08       		.uleb128 0x8
 2962 005b 3A       		.uleb128 0x3a
 2963 005c 0B       		.uleb128 0xb
 2964 005d 3B       		.uleb128 0x3b
 2965 005e 0B       		.uleb128 0xb
 2966 005f 49       		.uleb128 0x49
 2967 0060 13       		.uleb128 0x13
 2968 0061 38       		.uleb128 0x38
 2969 0062 0A       		.uleb128 0xa
 2970 0063 00       		.byte	0
 2971 0064 00       		.byte	0
 2972 0065 08       		.uleb128 0x8
 2973 0066 13       		.uleb128 0x13
 2974 0067 01       		.byte	0x1
 2975 0068 0B       		.uleb128 0xb
 2976 0069 0B       		.uleb128 0xb
 2977 006a 3A       		.uleb128 0x3a
 2978 006b 0B       		.uleb128 0xb
 2979 006c 3B       		.uleb128 0x3b
 2980 006d 0B       		.uleb128 0xb
 2981 006e 01       		.uleb128 0x1
 2982 006f 13       		.uleb128 0x13
 2983 0070 00       		.byte	0
 2984 0071 00       		.byte	0
 2985 0072 09       		.uleb128 0x9
 2986 0073 0F       		.uleb128 0xf
 2987 0074 00       		.byte	0
 2988 0075 0B       		.uleb128 0xb
 2989 0076 0B       		.uleb128 0xb
 2990 0077 49       		.uleb128 0x49
 2991 0078 13       		.uleb128 0x13
 2992 0079 00       		.byte	0
 2993 007a 00       		.byte	0
 2994 007b 0A       		.uleb128 0xa
 2995 007c 0F       		.uleb128 0xf
 2996 007d 00       		.byte	0
 2997 007e 0B       		.uleb128 0xb
 2998 007f 0B       		.uleb128 0xb
 2999 0080 00       		.byte	0
 3000 0081 00       		.byte	0
 3001 0082 0B       		.uleb128 0xb
 3002 0083 35       		.uleb128 0x35
 3003 0084 00       		.byte	0
 3004 0085 49       		.uleb128 0x49
 3005 0086 13       		.uleb128 0x13
 3006 0087 00       		.byte	0
 3007 0088 00       		.byte	0
 3008 0089 0C       		.uleb128 0xc
 3009 008a 17       		.uleb128 0x17
 3010 008b 01       		.byte	0x1
 3011 008c 0B       		.uleb128 0xb
 3012 008d 0B       		.uleb128 0xb
 3013 008e 3A       		.uleb128 0x3a
 3014 008f 0B       		.uleb128 0xb
 3015 0090 3B       		.uleb128 0x3b
 3016 0091 0B       		.uleb128 0xb
ARM GAS  C:\Users\NICOMA~1\AppData\Local\Temp\ccO3Bz3q.s 			page 54


 3017 0092 01       		.uleb128 0x1
 3018 0093 13       		.uleb128 0x13
 3019 0094 00       		.byte	0
 3020 0095 00       		.byte	0
 3021 0096 0D       		.uleb128 0xd
 3022 0097 0D       		.uleb128 0xd
 3023 0098 00       		.byte	0
 3024 0099 03       		.uleb128 0x3
 3025 009a 0E       		.uleb128 0xe
 3026 009b 3A       		.uleb128 0x3a
 3027 009c 0B       		.uleb128 0xb
 3028 009d 3B       		.uleb128 0x3b
 3029 009e 0B       		.uleb128 0xb
 3030 009f 49       		.uleb128 0x49
 3031 00a0 13       		.uleb128 0x13
 3032 00a1 00       		.byte	0
 3033 00a2 00       		.byte	0
 3034 00a3 0E       		.uleb128 0xe
 3035 00a4 26       		.uleb128 0x26
 3036 00a5 00       		.byte	0
 3037 00a6 49       		.uleb128 0x49
 3038 00a7 13       		.uleb128 0x13
 3039 00a8 00       		.byte	0
 3040 00a9 00       		.byte	0
 3041 00aa 0F       		.uleb128 0xf
 3042 00ab 15       		.uleb128 0x15
 3043 00ac 00       		.byte	0
 3044 00ad 27       		.uleb128 0x27
 3045 00ae 0C       		.uleb128 0xc
 3046 00af 00       		.byte	0
 3047 00b0 00       		.byte	0
 3048 00b1 10       		.uleb128 0x10
 3049 00b2 13       		.uleb128 0x13
 3050 00b3 01       		.byte	0x1
 3051 00b4 0B       		.uleb128 0xb
 3052 00b5 05       		.uleb128 0x5
 3053 00b6 3A       		.uleb128 0x3a
 3054 00b7 0B       		.uleb128 0xb
 3055 00b8 3B       		.uleb128 0x3b
 3056 00b9 0B       		.uleb128 0xb
 3057 00ba 01       		.uleb128 0x1
 3058 00bb 13       		.uleb128 0x13
 3059 00bc 00       		.byte	0
 3060 00bd 00       		.byte	0
 3061 00be 11       		.uleb128 0x11
 3062 00bf 01       		.uleb128 0x1
 3063 00c0 01       		.byte	0x1
 3064 00c1 49       		.uleb128 0x49
 3065 00c2 13       		.uleb128 0x13
 3066 00c3 01       		.uleb128 0x1
 3067 00c4 13       		.uleb128 0x13
 3068 00c5 00       		.byte	0
 3069 00c6 00       		.byte	0
 3070 00c7 12       		.uleb128 0x12
 3071 00c8 21       		.uleb128 0x21
 3072 00c9 00       		.byte	0
 3073 00ca 49       		.uleb128 0x49
ARM GAS  C:\Users\NICOMA~1\AppData\Local\Temp\ccO3Bz3q.s 			page 55


 3074 00cb 13       		.uleb128 0x13
 3075 00cc 2F       		.uleb128 0x2f
 3076 00cd 0B       		.uleb128 0xb
 3077 00ce 00       		.byte	0
 3078 00cf 00       		.byte	0
 3079 00d0 13       		.uleb128 0x13
 3080 00d1 17       		.uleb128 0x17
 3081 00d2 01       		.byte	0x1
 3082 00d3 03       		.uleb128 0x3
 3083 00d4 0E       		.uleb128 0xe
 3084 00d5 0B       		.uleb128 0xb
 3085 00d6 05       		.uleb128 0x5
 3086 00d7 3A       		.uleb128 0x3a
 3087 00d8 0B       		.uleb128 0xb
 3088 00d9 3B       		.uleb128 0x3b
 3089 00da 0B       		.uleb128 0xb
 3090 00db 01       		.uleb128 0x1
 3091 00dc 13       		.uleb128 0x13
 3092 00dd 00       		.byte	0
 3093 00de 00       		.byte	0
 3094 00df 14       		.uleb128 0x14
 3095 00e0 0D       		.uleb128 0xd
 3096 00e1 00       		.byte	0
 3097 00e2 03       		.uleb128 0x3
 3098 00e3 08       		.uleb128 0x8
 3099 00e4 3A       		.uleb128 0x3a
 3100 00e5 0B       		.uleb128 0xb
 3101 00e6 3B       		.uleb128 0x3b
 3102 00e7 0B       		.uleb128 0xb
 3103 00e8 49       		.uleb128 0x49
 3104 00e9 13       		.uleb128 0x13
 3105 00ea 00       		.byte	0
 3106 00eb 00       		.byte	0
 3107 00ec 15       		.uleb128 0x15
 3108 00ed 21       		.uleb128 0x21
 3109 00ee 00       		.byte	0
 3110 00ef 49       		.uleb128 0x49
 3111 00f0 13       		.uleb128 0x13
 3112 00f1 2F       		.uleb128 0x2f
 3113 00f2 05       		.uleb128 0x5
 3114 00f3 00       		.byte	0
 3115 00f4 00       		.byte	0
 3116 00f5 16       		.uleb128 0x16
 3117 00f6 2E       		.uleb128 0x2e
 3118 00f7 01       		.byte	0x1
 3119 00f8 03       		.uleb128 0x3
 3120 00f9 0E       		.uleb128 0xe
 3121 00fa 3A       		.uleb128 0x3a
 3122 00fb 0B       		.uleb128 0xb
 3123 00fc 3B       		.uleb128 0x3b
 3124 00fd 0B       		.uleb128 0xb
 3125 00fe 27       		.uleb128 0x27
 3126 00ff 0C       		.uleb128 0xc
 3127 0100 11       		.uleb128 0x11
 3128 0101 01       		.uleb128 0x1
 3129 0102 12       		.uleb128 0x12
 3130 0103 01       		.uleb128 0x1
ARM GAS  C:\Users\NICOMA~1\AppData\Local\Temp\ccO3Bz3q.s 			page 56


 3131 0104 40       		.uleb128 0x40
 3132 0105 06       		.uleb128 0x6
 3133 0106 9742     		.uleb128 0x2117
 3134 0108 0C       		.uleb128 0xc
 3135 0109 01       		.uleb128 0x1
 3136 010a 13       		.uleb128 0x13
 3137 010b 00       		.byte	0
 3138 010c 00       		.byte	0
 3139 010d 17       		.uleb128 0x17
 3140 010e 34       		.uleb128 0x34
 3141 010f 00       		.byte	0
 3142 0110 03       		.uleb128 0x3
 3143 0111 0E       		.uleb128 0xe
 3144 0112 3A       		.uleb128 0x3a
 3145 0113 0B       		.uleb128 0xb
 3146 0114 3B       		.uleb128 0x3b
 3147 0115 0B       		.uleb128 0xb
 3148 0116 49       		.uleb128 0x49
 3149 0117 13       		.uleb128 0x13
 3150 0118 02       		.uleb128 0x2
 3151 0119 06       		.uleb128 0x6
 3152 011a 00       		.byte	0
 3153 011b 00       		.byte	0
 3154 011c 18       		.uleb128 0x18
 3155 011d 34       		.uleb128 0x34
 3156 011e 00       		.byte	0
 3157 011f 03       		.uleb128 0x3
 3158 0120 0E       		.uleb128 0xe
 3159 0121 3A       		.uleb128 0x3a
 3160 0122 0B       		.uleb128 0xb
 3161 0123 3B       		.uleb128 0x3b
 3162 0124 0B       		.uleb128 0xb
 3163 0125 49       		.uleb128 0x49
 3164 0126 13       		.uleb128 0x13
 3165 0127 00       		.byte	0
 3166 0128 00       		.byte	0
 3167 0129 19       		.uleb128 0x19
 3168 012a 34       		.uleb128 0x34
 3169 012b 00       		.byte	0
 3170 012c 03       		.uleb128 0x3
 3171 012d 08       		.uleb128 0x8
 3172 012e 3A       		.uleb128 0x3a
 3173 012f 0B       		.uleb128 0xb
 3174 0130 3B       		.uleb128 0x3b
 3175 0131 0B       		.uleb128 0xb
 3176 0132 49       		.uleb128 0x49
 3177 0133 13       		.uleb128 0x13
 3178 0134 02       		.uleb128 0x2
 3179 0135 06       		.uleb128 0x6
 3180 0136 00       		.byte	0
 3181 0137 00       		.byte	0
 3182 0138 1A       		.uleb128 0x1a
 3183 0139 898201   		.uleb128 0x4109
 3184 013c 01       		.byte	0x1
 3185 013d 11       		.uleb128 0x11
 3186 013e 01       		.uleb128 0x1
 3187 013f 31       		.uleb128 0x31
ARM GAS  C:\Users\NICOMA~1\AppData\Local\Temp\ccO3Bz3q.s 			page 57


 3188 0140 13       		.uleb128 0x13
 3189 0141 01       		.uleb128 0x1
 3190 0142 13       		.uleb128 0x13
 3191 0143 00       		.byte	0
 3192 0144 00       		.byte	0
 3193 0145 1B       		.uleb128 0x1b
 3194 0146 8A8201   		.uleb128 0x410a
 3195 0149 00       		.byte	0
 3196 014a 02       		.uleb128 0x2
 3197 014b 0A       		.uleb128 0xa
 3198 014c 9142     		.uleb128 0x2111
 3199 014e 0A       		.uleb128 0xa
 3200 014f 00       		.byte	0
 3201 0150 00       		.byte	0
 3202 0151 1C       		.uleb128 0x1c
 3203 0152 898201   		.uleb128 0x4109
 3204 0155 00       		.byte	0
 3205 0156 11       		.uleb128 0x11
 3206 0157 01       		.uleb128 0x1
 3207 0158 31       		.uleb128 0x31
 3208 0159 13       		.uleb128 0x13
 3209 015a 00       		.byte	0
 3210 015b 00       		.byte	0
 3211 015c 1D       		.uleb128 0x1d
 3212 015d 898201   		.uleb128 0x4109
 3213 0160 01       		.byte	0x1
 3214 0161 11       		.uleb128 0x11
 3215 0162 01       		.uleb128 0x1
 3216 0163 31       		.uleb128 0x31
 3217 0164 13       		.uleb128 0x13
 3218 0165 00       		.byte	0
 3219 0166 00       		.byte	0
 3220 0167 1E       		.uleb128 0x1e
 3221 0168 2E       		.uleb128 0x2e
 3222 0169 01       		.byte	0x1
 3223 016a 03       		.uleb128 0x3
 3224 016b 0E       		.uleb128 0xe
 3225 016c 3A       		.uleb128 0x3a
 3226 016d 0B       		.uleb128 0xb
 3227 016e 3B       		.uleb128 0x3b
 3228 016f 0B       		.uleb128 0xb
 3229 0170 27       		.uleb128 0x27
 3230 0171 0C       		.uleb128 0xc
 3231 0172 11       		.uleb128 0x11
 3232 0173 01       		.uleb128 0x1
 3233 0174 12       		.uleb128 0x12
 3234 0175 01       		.uleb128 0x1
 3235 0176 40       		.uleb128 0x40
 3236 0177 0A       		.uleb128 0xa
 3237 0178 9742     		.uleb128 0x2117
 3238 017a 0C       		.uleb128 0xc
 3239 017b 01       		.uleb128 0x1
 3240 017c 13       		.uleb128 0x13
 3241 017d 00       		.byte	0
 3242 017e 00       		.byte	0
 3243 017f 1F       		.uleb128 0x1f
 3244 0180 898201   		.uleb128 0x4109
ARM GAS  C:\Users\NICOMA~1\AppData\Local\Temp\ccO3Bz3q.s 			page 58


 3245 0183 01       		.byte	0x1
 3246 0184 11       		.uleb128 0x11
 3247 0185 01       		.uleb128 0x1
 3248 0186 9542     		.uleb128 0x2115
 3249 0188 0C       		.uleb128 0xc
 3250 0189 31       		.uleb128 0x31
 3251 018a 13       		.uleb128 0x13
 3252 018b 00       		.byte	0
 3253 018c 00       		.byte	0
 3254 018d 20       		.uleb128 0x20
 3255 018e 34       		.uleb128 0x34
 3256 018f 00       		.byte	0
 3257 0190 03       		.uleb128 0x3
 3258 0191 08       		.uleb128 0x8
 3259 0192 3A       		.uleb128 0x3a
 3260 0193 0B       		.uleb128 0xb
 3261 0194 3B       		.uleb128 0x3b
 3262 0195 0B       		.uleb128 0xb
 3263 0196 49       		.uleb128 0x49
 3264 0197 13       		.uleb128 0x13
 3265 0198 02       		.uleb128 0x2
 3266 0199 0A       		.uleb128 0xa
 3267 019a 00       		.byte	0
 3268 019b 00       		.byte	0
 3269 019c 21       		.uleb128 0x21
 3270 019d 34       		.uleb128 0x34
 3271 019e 00       		.byte	0
 3272 019f 03       		.uleb128 0x3
 3273 01a0 0E       		.uleb128 0xe
 3274 01a1 3A       		.uleb128 0x3a
 3275 01a2 0B       		.uleb128 0xb
 3276 01a3 3B       		.uleb128 0x3b
 3277 01a4 0B       		.uleb128 0xb
 3278 01a5 49       		.uleb128 0x49
 3279 01a6 13       		.uleb128 0x13
 3280 01a7 3F       		.uleb128 0x3f
 3281 01a8 0C       		.uleb128 0xc
 3282 01a9 3C       		.uleb128 0x3c
 3283 01aa 0C       		.uleb128 0xc
 3284 01ab 00       		.byte	0
 3285 01ac 00       		.byte	0
 3286 01ad 22       		.uleb128 0x22
 3287 01ae 34       		.uleb128 0x34
 3288 01af 00       		.byte	0
 3289 01b0 03       		.uleb128 0x3
 3290 01b1 0E       		.uleb128 0xe
 3291 01b2 3A       		.uleb128 0x3a
 3292 01b3 0B       		.uleb128 0xb
 3293 01b4 3B       		.uleb128 0x3b
 3294 01b5 0B       		.uleb128 0xb
 3295 01b6 49       		.uleb128 0x49
 3296 01b7 13       		.uleb128 0x13
 3297 01b8 3F       		.uleb128 0x3f
 3298 01b9 0C       		.uleb128 0xc
 3299 01ba 02       		.uleb128 0x2
 3300 01bb 0A       		.uleb128 0xa
 3301 01bc 00       		.byte	0
ARM GAS  C:\Users\NICOMA~1\AppData\Local\Temp\ccO3Bz3q.s 			page 59


 3302 01bd 00       		.byte	0
 3303 01be 23       		.uleb128 0x23
 3304 01bf 2E       		.uleb128 0x2e
 3305 01c0 01       		.byte	0x1
 3306 01c1 3F       		.uleb128 0x3f
 3307 01c2 0C       		.uleb128 0xc
 3308 01c3 03       		.uleb128 0x3
 3309 01c4 0E       		.uleb128 0xe
 3310 01c5 3A       		.uleb128 0x3a
 3311 01c6 0B       		.uleb128 0xb
 3312 01c7 3B       		.uleb128 0x3b
 3313 01c8 0B       		.uleb128 0xb
 3314 01c9 27       		.uleb128 0x27
 3315 01ca 0C       		.uleb128 0xc
 3316 01cb 49       		.uleb128 0x49
 3317 01cc 13       		.uleb128 0x13
 3318 01cd 3C       		.uleb128 0x3c
 3319 01ce 0C       		.uleb128 0xc
 3320 01cf 01       		.uleb128 0x1
 3321 01d0 13       		.uleb128 0x13
 3322 01d1 00       		.byte	0
 3323 01d2 00       		.byte	0
 3324 01d3 24       		.uleb128 0x24
 3325 01d4 05       		.uleb128 0x5
 3326 01d5 00       		.byte	0
 3327 01d6 49       		.uleb128 0x49
 3328 01d7 13       		.uleb128 0x13
 3329 01d8 00       		.byte	0
 3330 01d9 00       		.byte	0
 3331 01da 25       		.uleb128 0x25
 3332 01db 2E       		.uleb128 0x2e
 3333 01dc 01       		.byte	0x1
 3334 01dd 3F       		.uleb128 0x3f
 3335 01de 0C       		.uleb128 0xc
 3336 01df 03       		.uleb128 0x3
 3337 01e0 0E       		.uleb128 0xe
 3338 01e1 3A       		.uleb128 0x3a
 3339 01e2 0B       		.uleb128 0xb
 3340 01e3 3B       		.uleb128 0x3b
 3341 01e4 0B       		.uleb128 0xb
 3342 01e5 27       		.uleb128 0x27
 3343 01e6 0C       		.uleb128 0xc
 3344 01e7 3C       		.uleb128 0x3c
 3345 01e8 0C       		.uleb128 0xc
 3346 01e9 01       		.uleb128 0x1
 3347 01ea 13       		.uleb128 0x13
 3348 01eb 00       		.byte	0
 3349 01ec 00       		.byte	0
 3350 01ed 26       		.uleb128 0x26
 3351 01ee 2E       		.uleb128 0x2e
 3352 01ef 01       		.byte	0x1
 3353 01f0 3F       		.uleb128 0x3f
 3354 01f1 0C       		.uleb128 0xc
 3355 01f2 03       		.uleb128 0x3
 3356 01f3 0E       		.uleb128 0xe
 3357 01f4 3A       		.uleb128 0x3a
 3358 01f5 0B       		.uleb128 0xb
ARM GAS  C:\Users\NICOMA~1\AppData\Local\Temp\ccO3Bz3q.s 			page 60


 3359 01f6 3B       		.uleb128 0x3b
 3360 01f7 0B       		.uleb128 0xb
 3361 01f8 27       		.uleb128 0x27
 3362 01f9 0C       		.uleb128 0xc
 3363 01fa 3C       		.uleb128 0x3c
 3364 01fb 0C       		.uleb128 0xc
 3365 01fc 00       		.byte	0
 3366 01fd 00       		.byte	0
 3367 01fe 00       		.byte	0
 3368              		.section	.debug_loc,"",%progbits
 3369              	.Ldebug_loc0:
 3370              	.LLST0:
 3371 0000 00000000 		.4byte	.LFB8
 3372 0004 04000000 		.4byte	.LCFI0
 3373 0008 0200     		.2byte	0x2
 3374 000a 7D       		.byte	0x7d
 3375 000b 00       		.sleb128 0
 3376 000c 04000000 		.4byte	.LCFI0
 3377 0010 0C000000 		.4byte	.LCFI1
 3378 0014 0200     		.2byte	0x2
 3379 0016 7D       		.byte	0x7d
 3380 0017 10       		.sleb128 16
 3381 0018 0C000000 		.4byte	.LCFI1
 3382 001c B4070000 		.4byte	.LFE8
 3383 0020 0200     		.2byte	0x2
 3384 0022 7D       		.byte	0x7d
 3385 0023 18       		.sleb128 24
 3386 0024 00000000 		.4byte	0
 3387 0028 00000000 		.4byte	0
 3388              	.LLST1:
 3389 002c 44000000 		.4byte	.LVL1
 3390 0030 50000000 		.4byte	.LVL2
 3391 0034 0100     		.2byte	0x1
 3392 0036 50       		.byte	0x50
 3393 0037 78000000 		.4byte	.LVL4
 3394 003b 84000000 		.4byte	.LVL5
 3395 003f 0100     		.2byte	0x1
 3396 0041 50       		.byte	0x50
 3397 0042 A8000000 		.4byte	.LVL8
 3398 0046 B8000000 		.4byte	.LVL9
 3399 004a 0100     		.2byte	0x1
 3400 004c 50       		.byte	0x50
 3401 004d D8000000 		.4byte	.LVL12
 3402 0051 EC000000 		.4byte	.LVL13
 3403 0055 0100     		.2byte	0x1
 3404 0057 50       		.byte	0x50
 3405 0058 08010000 		.4byte	.LVL15
 3406 005c 18010000 		.4byte	.LVL16
 3407 0060 0100     		.2byte	0x1
 3408 0062 50       		.byte	0x50
 3409 0063 38010000 		.4byte	.LVL19
 3410 0067 4C010000 		.4byte	.LVL20
 3411 006b 0100     		.2byte	0x1
 3412 006d 50       		.byte	0x50
 3413 006e FC010000 		.4byte	.LVL28
 3414 0072 08020000 		.4byte	.LVL29
 3415 0076 0100     		.2byte	0x1
ARM GAS  C:\Users\NICOMA~1\AppData\Local\Temp\ccO3Bz3q.s 			page 61


 3416 0078 50       		.byte	0x50
 3417 0079 3C020000 		.4byte	.LVL32
 3418 007d 48020000 		.4byte	.LVL33
 3419 0081 0100     		.2byte	0x1
 3420 0083 50       		.byte	0x50
 3421 0084 64020000 		.4byte	.LVL35
 3422 0088 70020000 		.4byte	.LVL36
 3423 008c 0100     		.2byte	0x1
 3424 008e 50       		.byte	0x50
 3425 008f D4020000 		.4byte	.LVL40
 3426 0093 E4020000 		.4byte	.LVL41
 3427 0097 0100     		.2byte	0x1
 3428 0099 50       		.byte	0x50
 3429 009a 04030000 		.4byte	.LVL44
 3430 009e 18030000 		.4byte	.LVL45
 3431 00a2 0100     		.2byte	0x1
 3432 00a4 50       		.byte	0x50
 3433 00a5 B0030000 		.4byte	.LVL50
 3434 00a9 BC030000 		.4byte	.LVL51
 3435 00ad 0100     		.2byte	0x1
 3436 00af 50       		.byte	0x50
 3437 00b0 D4030000 		.4byte	.LVL53
 3438 00b4 E0030000 		.4byte	.LVL54
 3439 00b8 0100     		.2byte	0x1
 3440 00ba 50       		.byte	0x50
 3441 00bb F8030000 		.4byte	.LVL56
 3442 00bf 04040000 		.4byte	.LVL57
 3443 00c3 0100     		.2byte	0x1
 3444 00c5 50       		.byte	0x50
 3445 00c6 1C040000 		.4byte	.LVL59
 3446 00ca 28040000 		.4byte	.LVL60
 3447 00ce 0100     		.2byte	0x1
 3448 00d0 50       		.byte	0x50
 3449 00d1 44040000 		.4byte	.LVL63
 3450 00d5 54040000 		.4byte	.LVL64
 3451 00d9 0100     		.2byte	0x1
 3452 00db 50       		.byte	0x50
 3453 00dc A0040000 		.4byte	.LVL68
 3454 00e0 B0040000 		.4byte	.LVL69
 3455 00e4 0100     		.2byte	0x1
 3456 00e6 50       		.byte	0x50
 3457 00e7 60050000 		.4byte	.LVL76
 3458 00eb 6C050000 		.4byte	.LVL77
 3459 00ef 0100     		.2byte	0x1
 3460 00f1 50       		.byte	0x50
 3461 00f2 84050000 		.4byte	.LVL79
 3462 00f6 90050000 		.4byte	.LVL80
 3463 00fa 0100     		.2byte	0x1
 3464 00fc 50       		.byte	0x50
 3465 00fd A8050000 		.4byte	.LVL82
 3466 0101 B4050000 		.4byte	.LVL83
 3467 0105 0100     		.2byte	0x1
 3468 0107 50       		.byte	0x50
 3469 0108 CC050000 		.4byte	.LVL85
 3470 010c D8050000 		.4byte	.LVL86
 3471 0110 0100     		.2byte	0x1
 3472 0112 50       		.byte	0x50
ARM GAS  C:\Users\NICOMA~1\AppData\Local\Temp\ccO3Bz3q.s 			page 62


 3473 0113 F8050000 		.4byte	.LVL89
 3474 0117 08060000 		.4byte	.LVL90
 3475 011b 0100     		.2byte	0x1
 3476 011d 50       		.byte	0x50
 3477 011e 54060000 		.4byte	.LVL94
 3478 0122 64060000 		.4byte	.LVL95
 3479 0126 0100     		.2byte	0x1
 3480 0128 50       		.byte	0x50
 3481 0129 00000000 		.4byte	0
 3482 012d 00000000 		.4byte	0
 3483              	.LLST2:
 3484 0131 D0010000 		.4byte	.LVL25
 3485 0135 D8010000 		.4byte	.LVL26
 3486 0139 0200     		.2byte	0x2
 3487 013b 30       		.byte	0x30
 3488 013c 9F       		.byte	0x9f
 3489 013d 00000000 		.4byte	0
 3490 0141 00000000 		.4byte	0
 3491              		.section	.debug_aranges,"",%progbits
 3492 0000 24000000 		.4byte	0x24
 3493 0004 0200     		.2byte	0x2
 3494 0006 00000000 		.4byte	.Ldebug_info0
 3495 000a 04       		.byte	0x4
 3496 000b 00       		.byte	0
 3497 000c 0000     		.2byte	0
 3498 000e 0000     		.2byte	0
 3499 0010 00000000 		.4byte	.LFB8
 3500 0014 B4070000 		.4byte	.LFE8-.LFB8
 3501 0018 00000000 		.4byte	.LFB7
 3502 001c 18000000 		.4byte	.LFE7-.LFB7
 3503 0020 00000000 		.4byte	0
 3504 0024 00000000 		.4byte	0
 3505              		.section	.debug_ranges,"",%progbits
 3506              	.Ldebug_ranges0:
 3507 0000 00000000 		.4byte	.LFB8
 3508 0004 B4070000 		.4byte	.LFE8
 3509 0008 00000000 		.4byte	.LFB7
 3510 000c 18000000 		.4byte	.LFE7
 3511 0010 00000000 		.4byte	0
 3512 0014 00000000 		.4byte	0
 3513              		.section	.debug_line,"",%progbits
 3514              	.Ldebug_line0:
 3515 0000 E2010000 		.section	.debug_str,"MS",%progbits,1
 3515      02000601 
 3515      00000201 
 3515      FB0E0D00 
 3515      01010101 
 3516              	.LASF38:
 3517 0000 705F6D73 		.ascii	"p_msg\000"
 3517      6700
 3518              	.LASF62:
 3519 0006 7264796D 		.ascii	"rdymsg\000"
 3519      736700
 3520              	.LASF83:
 3521 000d 63684D42 		.ascii	"chMBPostI\000"
 3521      506F7374 
 3521      4900
ARM GAS  C:\Users\NICOMA~1\AppData\Local\Temp\ccO3Bz3q.s 			page 63


 3522              	.LASF61:
 3523 0017 4D61696C 		.ascii	"Mailbox\000"
 3523      626F7800 
 3524              	.LASF84:
 3525 001f 63684D42 		.ascii	"chMBPostAheadI\000"
 3525      506F7374 
 3525      41686561 
 3525      644900
 3526              	.LASF11:
 3527 002e 6C6F6E67 		.ascii	"long long unsigned int\000"
 3527      206C6F6E 
 3527      6720756E 
 3527      7369676E 
 3527      65642069 
 3528              	.LASF79:
 3529 0045 70617474 		.ascii	"patternmbox\000"
 3529      65726E6D 
 3529      626F7800 
 3530              	.LASF63:
 3531 0051 65786974 		.ascii	"exitcode\000"
 3531      636F6465 
 3531      00
 3532              	.LASF77:
 3533 005a 74657374 		.ascii	"test\000"
 3533      00
 3534              	.LASF57:
 3535 005f 6D625F77 		.ascii	"mb_wrptr\000"
 3535      72707472 
 3535      00
 3536              	.LASF26:
 3537 0068 705F7072 		.ascii	"p_prio\000"
 3537      696F00
 3538              	.LASF10:
 3539 006f 6C6F6E67 		.ascii	"long long int\000"
 3539      206C6F6E 
 3539      6720696E 
 3539      7400
 3540              	.LASF1:
 3541 007d 7369676E 		.ascii	"signed char\000"
 3541      65642063 
 3541      68617200 
 3542              	.LASF12:
 3543 0089 626F6F6C 		.ascii	"bool_t\000"
 3543      5F7400
 3544              	.LASF31:
 3545 0090 705F7374 		.ascii	"p_state\000"
 3545      61746500 
 3546              	.LASF88:
 3547 0098 74657374 		.ascii	"test_emit_token\000"
 3547      5F656D69 
 3547      745F746F 
 3547      6B656E00 
 3548              	.LASF17:
 3549 00a8 74736C69 		.ascii	"tslices_t\000"
 3549      6365735F 
 3549      7400
 3550              	.LASF81:
ARM GAS  C:\Users\NICOMA~1\AppData\Local\Temp\ccO3Bz3q.s 			page 64


 3551 00b2 63684D42 		.ascii	"chMBPost\000"
 3551      506F7374 
 3551      00
 3552              	.LASF7:
 3553 00bb 6C6F6E67 		.ascii	"long int\000"
 3553      20696E74 
 3553      00
 3554              	.LASF15:
 3555 00c4 74737461 		.ascii	"tstate_t\000"
 3555      74655F74 
 3555      00
 3556              	.LASF28:
 3557 00cd 705F6E65 		.ascii	"p_newer\000"
 3557      77657200 
 3558              	.LASF49:
 3559 00d5 735F7175 		.ascii	"s_queue\000"
 3559      65756500 
 3560              	.LASF92:
 3561 00dd 433A5C55 		.ascii	"C:\\Users\\Nico Maas\\Desktop\\ChibiOS\\demos\\ARM1"
 3561      73657273 
 3561      5C4E6963 
 3561      6F204D61 
 3561      61735C44 
 3562 010a 312D4243 		.ascii	"1-BCM2835-GCC\000"
 3562      4D323833 
 3562      352D4743 
 3562      4300
 3563              	.LASF45:
 3564 0118 72656761 		.ascii	"regarm_t\000"
 3564      726D5F74 
 3564      00
 3565              	.LASF22:
 3566 0121 636E745F 		.ascii	"cnt_t\000"
 3566      7400
 3567              	.LASF0:
 3568 0127 756E7369 		.ascii	"unsigned int\000"
 3568      676E6564 
 3568      20696E74 
 3568      00
 3569              	.LASF95:
 3570 0134 63684D42 		.ascii	"chMBInit\000"
 3570      496E6974 
 3570      00
 3571              	.LASF74:
 3572 013d 6D736731 		.ascii	"msg1\000"
 3572      00
 3573              	.LASF94:
 3574 0142 6D736732 		.ascii	"msg2\000"
 3574      00
 3575              	.LASF9:
 3576 0147 6C6F6E67 		.ascii	"long unsigned int\000"
 3576      20756E73 
 3576      69676E65 
 3576      6420696E 
 3576      7400
 3577              	.LASF75:
 3578 0159 6D626F78 		.ascii	"mbox1_execute\000"
ARM GAS  C:\Users\NICOMA~1\AppData\Local\Temp\ccO3Bz3q.s 			page 65


 3578      315F6578 
 3578      65637574 
 3578      6500
 3579              	.LASF71:
 3580 0167 74656172 		.ascii	"teardown\000"
 3580      646F776E 
 3580      00
 3581              	.LASF60:
 3582 0170 6D625F65 		.ascii	"mb_emptysem\000"
 3582      6D707479 
 3582      73656D00 
 3583              	.LASF69:
 3584 017c 6E616D65 		.ascii	"name\000"
 3584      00
 3585              	.LASF50:
 3586 0181 735F636E 		.ascii	"s_cnt\000"
 3586      7400
 3587              	.LASF47:
 3588 0187 636F6E74 		.ascii	"context\000"
 3588      65787400 
 3589              	.LASF4:
 3590 018f 73686F72 		.ascii	"short unsigned int\000"
 3590      7420756E 
 3590      7369676E 
 3590      65642069 
 3590      6E7400
 3591              	.LASF87:
 3592 01a2 63684D42 		.ascii	"chMBFetchI\000"
 3592      46657463 
 3592      684900
 3593              	.LASF19:
 3594 01ad 6D73675F 		.ascii	"msg_t\000"
 3594      7400
 3595              	.LASF14:
 3596 01b3 746D6F64 		.ascii	"tmode_t\000"
 3596      655F7400 
 3597              	.LASF76:
 3598 01bb 6D626F78 		.ascii	"mbox1_setup\000"
 3598      315F7365 
 3598      74757000 
 3599              	.LASF43:
 3600 01c7 54687265 		.ascii	"ThreadsList\000"
 3600      6164734C 
 3600      69737400 
 3601              	.LASF20:
 3602 01d3 6576656E 		.ascii	"eventmask_t\000"
 3602      746D6173 
 3602      6B5F7400 
 3603              	.LASF51:
 3604 01df 4D757465 		.ascii	"Mutex\000"
 3604      7800
 3605              	.LASF78:
 3606 01e5 74657374 		.ascii	"testmbox1\000"
 3606      6D626F78 
 3606      3100
 3607              	.LASF44:
 3608 01ef 73746B61 		.ascii	"stkalign_t\000"
ARM GAS  C:\Users\NICOMA~1\AppData\Local\Temp\ccO3Bz3q.s 			page 66


 3608      6C69676E 
 3608      5F7400
 3609              	.LASF67:
 3610 01fa 73697A65 		.ascii	"sizetype\000"
 3610      74797065 
 3610      00
 3611              	.LASF58:
 3612 0203 6D625F72 		.ascii	"mb_rdptr\000"
 3612      64707472 
 3612      00
 3613              	.LASF89:
 3614 020c 63684D42 		.ascii	"chMBReset\000"
 3614      52657365 
 3614      7400
 3615              	.LASF29:
 3616 0216 705F6F6C 		.ascii	"p_older\000"
 3616      64657200 
 3617              	.LASF42:
 3618 021e 54687265 		.ascii	"ThreadsQueue\000"
 3618      61647351 
 3618      75657565 
 3618      00
 3619              	.LASF70:
 3620 022b 73657475 		.ascii	"setup\000"
 3620      7000
 3621              	.LASF86:
 3622 0231 5F746573 		.ascii	"_test_assert_sequence\000"
 3622      745F6173 
 3622      73657274 
 3622      5F736571 
 3622      75656E63 
 3623              	.LASF55:
 3624 0247 6D625F62 		.ascii	"mb_buffer\000"
 3624      75666665 
 3624      7200
 3625              	.LASF90:
 3626 0251 474E5520 		.ascii	"GNU C 4.7.2\000"
 3626      4320342E 
 3626      372E3200 
 3627              	.LASF16:
 3628 025d 74726566 		.ascii	"trefs_t\000"
 3628      735F7400 
 3629              	.LASF25:
 3630 0265 705F7072 		.ascii	"p_prev\000"
 3630      657600
 3631              	.LASF72:
 3632 026c 65786563 		.ascii	"execute\000"
 3632      75746500 
 3633              	.LASF18:
 3634 0274 74707269 		.ascii	"tprio_t\000"
 3634      6F5F7400 
 3635              	.LASF13:
 3636 027c 5F426F6F 		.ascii	"_Bool\000"
 3636      6C00
 3637              	.LASF6:
 3638 0282 696E7433 		.ascii	"int32_t\000"
 3638      325F7400 
ARM GAS  C:\Users\NICOMA~1\AppData\Local\Temp\ccO3Bz3q.s 			page 67


 3639              	.LASF2:
 3640 028a 756E7369 		.ascii	"unsigned char\000"
 3640      676E6564 
 3640      20636861 
 3640      7200
 3641              	.LASF52:
 3642 0298 6D5F7175 		.ascii	"m_queue\000"
 3642      65756500 
 3643              	.LASF56:
 3644 02a0 6D625F74 		.ascii	"mb_top\000"
 3644      6F7000
 3645              	.LASF40:
 3646 02a7 705F6D74 		.ascii	"p_mtxlist\000"
 3646      786C6973 
 3646      7400
 3647              	.LASF3:
 3648 02b1 73686F72 		.ascii	"short int\000"
 3648      7420696E 
 3648      7400
 3649              	.LASF91:
 3650 02bb 2E2E2F2E 		.ascii	"../../test/testmbox.c\000"
 3650      2E2F7465 
 3650      73742F74 
 3650      6573746D 
 3650      626F782E 
 3651              	.LASF34:
 3652 02d1 705F7072 		.ascii	"p_preempt\000"
 3652      65656D70 
 3652      7400
 3653              	.LASF65:
 3654 02db 65776D61 		.ascii	"ewmask\000"
 3654      736B00
 3655              	.LASF24:
 3656 02e2 705F6E65 		.ascii	"p_next\000"
 3656      787400
 3657              	.LASF32:
 3658 02e9 705F666C 		.ascii	"p_flags\000"
 3658      61677300 
 3659              	.LASF23:
 3660 02f1 54687265 		.ascii	"Thread\000"
 3660      616400
 3661              	.LASF68:
 3662 02f8 74657374 		.ascii	"testcase\000"
 3662      63617365 
 3662      00
 3663              	.LASF39:
 3664 0301 705F6570 		.ascii	"p_epending\000"
 3664      656E6469 
 3664      6E6700
 3665              	.LASF8:
 3666 030c 75696E74 		.ascii	"uint32_t\000"
 3666      33325F74 
 3666      00
 3667              	.LASF66:
 3668 0315 63686172 		.ascii	"char\000"
 3668      00
 3669              	.LASF54:
ARM GAS  C:\Users\NICOMA~1\AppData\Local\Temp\ccO3Bz3q.s 			page 68


 3670 031a 6D5F6E65 		.ascii	"m_next\000"
 3670      787400
 3671              	.LASF21:
 3672 0321 73797374 		.ascii	"systime_t\000"
 3672      696D655F 
 3672      7400
 3673              	.LASF41:
 3674 032b 705F7265 		.ascii	"p_realprio\000"
 3674      616C7072 
 3674      696F00
 3675              	.LASF73:
 3676 0336 62756666 		.ascii	"buffer\000"
 3676      657200
 3677              	.LASF35:
 3678 033d 705F7469 		.ascii	"p_time\000"
 3678      6D6500
 3679              	.LASF82:
 3680 0344 63684D42 		.ascii	"chMBPostAhead\000"
 3680      506F7374 
 3680      41686561 
 3680      6400
 3681              	.LASF46:
 3682 0352 696E7463 		.ascii	"intctx\000"
 3682      747800
 3683              	.LASF37:
 3684 0359 705F6D73 		.ascii	"p_msgqueue\000"
 3684      67717565 
 3684      756500
 3685              	.LASF85:
 3686 0364 63684D42 		.ascii	"chMBFetch\000"
 3686      46657463 
 3686      6800
 3687              	.LASF48:
 3688 036e 53656D61 		.ascii	"Semaphore\000"
 3688      70686F72 
 3688      6500
 3689              	.LASF59:
 3690 0378 6D625F66 		.ascii	"mb_fullsem\000"
 3690      756C6C73 
 3690      656D00
 3691              	.LASF93:
 3692 0383 74657374 		.ascii	"test_buffers\000"
 3692      5F627566 
 3692      66657273 
 3692      00
 3693              	.LASF33:
 3694 0390 705F7265 		.ascii	"p_refs\000"
 3694      667300
 3695              	.LASF5:
 3696 0397 75696E74 		.ascii	"uint8_t\000"
 3696      385F7400 
 3697              	.LASF64:
 3698 039f 77746F62 		.ascii	"wtobjp\000"
 3698      6A7000
 3699              	.LASF30:
 3700 03a6 705F6E61 		.ascii	"p_name\000"
 3700      6D6500
ARM GAS  C:\Users\NICOMA~1\AppData\Local\Temp\ccO3Bz3q.s 			page 69


 3701              	.LASF80:
 3702 03ad 5F746573 		.ascii	"_test_assert\000"
 3702      745F6173 
 3702      73657274 
 3702      00
 3703              	.LASF53:
 3704 03ba 6D5F6F77 		.ascii	"m_owner\000"
 3704      6E657200 
 3705              	.LASF27:
 3706 03c2 705F6374 		.ascii	"p_ctx\000"
 3706      7800
 3707              	.LASF36:
 3708 03c8 705F7761 		.ascii	"p_waiting\000"
 3708      6974696E 
 3708      6700
 3709              		.ident	"GCC: (GNU) 4.7.2"
ARM GAS  C:\Users\NICOMA~1\AppData\Local\Temp\ccO3Bz3q.s 			page 70


DEFINED SYMBOLS
                            *ABS*:00000000 testmbox.c
C:\Users\NICOMA~1\AppData\Local\Temp\ccO3Bz3q.s:17     .text.mbox1_execute:00000000 $a
C:\Users\NICOMA~1\AppData\Local\Temp\ccO3Bz3q.s:19     .text.mbox1_execute:00000000 mbox1_execute
C:\Users\NICOMA~1\AppData\Local\Temp\ccO3Bz3q.s:822    .text.mbox1_execute:000007ac $d
C:\Users\NICOMA~1\AppData\Local\Temp\ccO3Bz3q.s:828    .text.mbox1_setup:00000000 $a
C:\Users\NICOMA~1\AppData\Local\Temp\ccO3Bz3q.s:830    .text.mbox1_setup:00000000 mbox1_setup
C:\Users\NICOMA~1\AppData\Local\Temp\ccO3Bz3q.s:848    .text.mbox1_setup:00000010 $d
C:\Users\NICOMA~1\AppData\Local\Temp\ccO3Bz3q.s:875    .rodata.patternmbox:00000000 patternmbox
C:\Users\NICOMA~1\AppData\Local\Temp\ccO3Bz3q.s:889    .rodata.testmbox1:00000000 testmbox1
C:\Users\NICOMA~1\AppData\Local\Temp\ccO3Bz3q.s:856    .data.mb1:00000000 $d
C:\Users\NICOMA~1\AppData\Local\Temp\ccO3Bz3q.s:860    .data.mb1:00000000 mb1
C:\Users\NICOMA~1\AppData\Local\Temp\ccO3Bz3q.s:872    .rodata.patternmbox:00000000 $d
C:\Users\NICOMA~1\AppData\Local\Temp\ccO3Bz3q.s:879    .rodata.str1.4:00000000 $d
C:\Users\NICOMA~1\AppData\Local\Temp\ccO3Bz3q.s:886    .rodata.testmbox1:00000000 $d
                     .debug_frame:00000010 $d

UNDEFINED SYMBOLS
_test_assert
chMBPost
chMBPostAhead
chMBPostI
chMBPostAheadI
test_emit_token
chMBFetch
_test_assert_sequence
chMBFetchI
chMBReset
chMBInit
test
