ARM GAS  C:\Users\NICOMA~1\AppData\Local\Temp\ccUWW1id.s 			page 1


   1              		.cpu arm1176jz-s
   2              		.fpu softvfp
   3              		.eabi_attribute 20, 1
   4              		.eabi_attribute 21, 1
   5              		.eabi_attribute 23, 3
   6              		.eabi_attribute 24, 1
   7              		.eabi_attribute 25, 1
   8              		.eabi_attribute 26, 1
   9              		.eabi_attribute 30, 2
  10              		.eabi_attribute 34, 1
  11              		.eabi_attribute 18, 4
  12              		.file	"testmsg.c"
  13              		.text
  14              	.Ltext0:
  15              		.cfi_sections	.debug_frame
  16              		.section	.text.msg1_execute,"ax",%progbits
  17              		.align	2
  18              		.type	msg1_execute, %function
  19              	msg1_execute:
  20              	.LFB8:
  21              		.file 1 "../../test/testmsg.c"
  22              		.loc 1 67 0
  23              		.cfi_startproc
  24              		@ args = 0, pretend = 0, frame = 0
  25              		@ frame_needed = 0, uses_anonymous_args = 0
  26 0000 10402DE9 		stmfd	sp!, {r4, lr}
  27              	.LCFI0:
  28              		.cfi_def_cfa_offset 8
  29              		.cfi_offset 4, -8
  30              		.cfi_offset 14, -4
  31              		.loc 1 74 0
  32 0004 88309FE5 		ldr	r3, .L2
  33              		.loc 1 67 0
  34 0008 08D04DE2 		sub	sp, sp, #8
  35              	.LCFI1:
  36              		.cfi_def_cfa_offset 16
  37              		.loc 1 74 0
  38 000c 18C093E5 		ldr	ip, [r3, #24]
  39 0010 80309FE5 		ldr	r3, .L2+4
  40 0014 08209CE5 		ldr	r2, [ip, #8]
  41 0018 461FA0E3 		mov	r1, #280
  42 001c 012082E2 		add	r2, r2, #1
  43 0020 00C08DE5 		str	ip, [sp, #0]
  44 0024 000093E5 		ldr	r0, [r3, #0]
  45 0028 6C309FE5 		ldr	r3, .L2+8
  46 002c FEFFFFEB 		bl	chThdCreateStatic
  47              	.LVL0:
  48 0030 68309FE5 		ldr	r3, .L2+12
  49 0034 000083E5 		str	r0, [r3, #0]
  50              		.loc 1 76 0
  51 0038 FEFFFFEB 		bl	chMsgWait
  52              	.LVL1:
  53              		.loc 1 77 0
  54 003c 344090E5 		ldr	r4, [r0, #52]
  55              	.LVL2:
  56              		.loc 1 78 0
  57 0040 0410A0E1 		mov	r1, r4
ARM GAS  C:\Users\NICOMA~1\AppData\Local\Temp\ccUWW1id.s 			page 2


  58 0044 FEFFFFEB 		bl	chMsgRelease
  59              	.LVL3:
  60              		.loc 1 79 0
  61 0048 7400EFE6 		uxtb	r0, r4
  62 004c FEFFFFEB 		bl	test_emit_token
  63              	.LVL4:
  64              		.loc 1 80 0
  65 0050 FEFFFFEB 		bl	chMsgWait
  66              	.LVL5:
  67              		.loc 1 81 0
  68 0054 344090E5 		ldr	r4, [r0, #52]
  69              	.LVL6:
  70              		.loc 1 82 0
  71 0058 0410A0E1 		mov	r1, r4
  72 005c FEFFFFEB 		bl	chMsgRelease
  73              	.LVL7:
  74              		.loc 1 83 0
  75 0060 7400EFE6 		uxtb	r0, r4
  76 0064 FEFFFFEB 		bl	test_emit_token
  77              	.LVL8:
  78              		.loc 1 84 0
  79 0068 FEFFFFEB 		bl	chMsgWait
  80              	.LVL9:
  81              		.loc 1 85 0
  82 006c 344090E5 		ldr	r4, [r0, #52]
  83              	.LVL10:
  84              		.loc 1 86 0
  85 0070 0410A0E1 		mov	r1, r4
  86 0074 FEFFFFEB 		bl	chMsgRelease
  87              	.LVL11:
  88              		.loc 1 87 0
  89 0078 7400EFE6 		uxtb	r0, r4
  90 007c FEFFFFEB 		bl	test_emit_token
  91              	.LVL12:
  92              		.loc 1 88 0
  93 0080 1C109FE5 		ldr	r1, .L2+16
  94 0084 0100A0E3 		mov	r0, #1
  95              		.loc 1 89 0
  96 0088 08D08DE2 		add	sp, sp, #8
  97 008c 1040BDE8 		ldmfd	sp!, {r4, lr}
  98              		.loc 1 88 0
  99 0090 FEFFFFEA 		b	_test_assert_sequence
 100              	.LVL13:
 101              	.L3:
 102              		.align	2
 103              	.L2:
 104 0094 00000000 		.word	rlist
 105 0098 00000000 		.word	wa
 106 009c 00000000 		.word	thread
 107 00a0 00000000 		.word	threads
 108 00a4 00000000 		.word	.LC0
 109              		.cfi_endproc
 110              	.LFE8:
 111              		.size	msg1_execute, .-msg1_execute
 112              		.section	.text.thread,"ax",%progbits
 113              		.align	2
 114              		.type	thread, %function
ARM GAS  C:\Users\NICOMA~1\AppData\Local\Temp\ccUWW1id.s 			page 3


 115              	thread:
 116              	.LFB7:
 117              		.loc 1 59 0
 118              		.cfi_startproc
 119              		@ args = 0, pretend = 0, frame = 0
 120              		@ frame_needed = 0, uses_anonymous_args = 0
 121              	.LVL14:
 122 0000 10402DE9 		stmfd	sp!, {r4, lr}
 123              	.LCFI2:
 124              		.cfi_def_cfa_offset 8
 125              		.cfi_offset 4, -8
 126              		.cfi_offset 14, -4
 127              		.loc 1 61 0
 128 0004 4110A0E3 		mov	r1, #65
 129              		.loc 1 59 0
 130 0008 0040A0E1 		mov	r4, r0
 131              		.loc 1 61 0
 132 000c FEFFFFEB 		bl	chMsgSend
 133              	.LVL15:
 134              		.loc 1 62 0
 135 0010 0400A0E1 		mov	r0, r4
 136 0014 4210A0E3 		mov	r1, #66
 137 0018 FEFFFFEB 		bl	chMsgSend
 138              	.LVL16:
 139              		.loc 1 63 0
 140 001c 0400A0E1 		mov	r0, r4
 141 0020 4310A0E3 		mov	r1, #67
 142 0024 FEFFFFEB 		bl	chMsgSend
 143              	.LVL17:
 144              		.loc 1 65 0
 145 0028 0000A0E3 		mov	r0, #0
 146 002c 1080BDE8 		ldmfd	sp!, {r4, pc}
 147              		.cfi_endproc
 148              	.LFE7:
 149              		.size	thread, .-thread
 150              		.global	patternmsg
 151              		.global	testmsg1
 152              		.section	.rodata.testmsg1,"a",%progbits
 153              		.align	2
 154              		.type	testmsg1, %object
 155              		.size	testmsg1, 16
 156              	testmsg1:
 157 0000 04000000 		.word	.LC1
 158 0004 00000000 		.word	0
 159 0008 00000000 		.word	0
 160 000c 00000000 		.word	msg1_execute
 161              		.section	.rodata.str1.4,"aMS",%progbits,1
 162              		.align	2
 163              	.LC0:
 164 0000 41424300 		.ascii	"ABC\000"
 165              	.LC1:
 166 0004 4D657373 		.ascii	"Messages, loop\000"
 166      61676573 
 166      2C206C6F 
 166      6F7000
 167 0013 00       		.section	.rodata.patternmsg,"a",%progbits
 168              		.align	2
ARM GAS  C:\Users\NICOMA~1\AppData\Local\Temp\ccUWW1id.s 			page 4


 169              		.type	patternmsg, %object
 170              		.size	patternmsg, 8
 171              	patternmsg:
 172 0000 00000000 		.word	testmsg1
 173 0004 00000000 		.word	0
 174              		.text
 175              	.Letext0:
 176              		.file 2 "c:\\yagarto-20121222\\bin\\../lib/gcc/arm-none-eabi/4.7.2/include/stddef.h"
 177              		.file 3 "c:/yagarto-20121222/lib/gcc/../../arm-none-eabi/sys-include/stdint.h"
 178              		.file 4 "../../os/ports/GCC/ARM/chtypes.h"
 179              		.file 5 "../../os/kernel/include/chlists.h"
 180              		.file 6 "../../os/kernel/include/chthreads.h"
 181              		.file 7 "../../os/ports/GCC/ARM/chcore.h"
 182              		.file 8 "../../os/kernel/include/chschd.h"
 183              		.file 9 "../../os/kernel/include/chmtx.h"
 184              		.file 10 "../../test/test.h"
 185              		.file 11 "../../os/kernel/include/chmsg.h"