ARM GAS  C:\Users\NICOMA~1\AppData\Local\Temp\ccGQ8C5t.s 			page 1


   1              		.cpu arm1176jz-s
   2              		.fpu softvfp
   3              		.eabi_attribute 20, 1
   4              		.eabi_attribute 21, 1
   5              		.eabi_attribute 23, 3
   6              		.eabi_attribute 24, 1
   7              		.eabi_attribute 25, 1
   8              		.eabi_attribute 26, 1
   9              		.eabi_attribute 30, 2
  10              		.eabi_attribute 34, 1
  11              		.eabi_attribute 18, 4
  12              		.file	"test.c"
  13              		.text
  14              	.Ltext0:
  15              		.cfi_sections	.debug_frame
  16              		.section	.text.tmr,"ax",%progbits
  17              		.align	2
  18              		.type	tmr, %function
  19              	tmr:
  20              	.LFB21:
  21              		.file 1 "../../test/test.c"
  22              		.loc 1 261 0
  23              		.cfi_startproc
  24              		@ args = 0, pretend = 0, frame = 0
  25              		@ frame_needed = 0, uses_anonymous_args = 0
  26              		@ link register save eliminated.
  27              	.LVL0:
  28              		.loc 1 264 0
  29 0000 08309FE5 		ldr	r3, .L2
  30 0004 0120A0E3 		mov	r2, #1
  31 0008 0020C3E5 		strb	r2, [r3, #0]
  32 000c 1EFF2FE1 		bx	lr
  33              	.L3:
  34              		.align	2
  35              	.L2:
  36 0010 00000000 		.word	test_timer_done
  37              		.cfi_endproc
  38              	.LFE21:
  39              		.size	tmr, .-tmr
  40              		.section	.text.print_line,"ax",%progbits
  41              		.align	2
  42              		.type	print_line, %function
  43              	print_line:
  44              	.LFB24:
  45              		.loc 1 300 0
  46              		.cfi_startproc
  47              		@ args = 0, pretend = 0, frame = 0
  48              		@ frame_needed = 0, uses_anonymous_args = 0
  49              	.LVL1:
  50 0000 38402DE9 		stmfd	sp!, {r3, r4, r5, lr}
  51              	.LCFI0:
  52              		.cfi_def_cfa_offset 16
  53              		.cfi_offset 3, -16
  54              		.cfi_offset 4, -12
  55              		.cfi_offset 5, -8
  56              		.cfi_offset 14, -4
  57 0004 3C509FE5 		ldr	r5, .L8
ARM GAS  C:\Users\NICOMA~1\AppData\Local\Temp\ccGQ8C5t.s 			page 2


  58              		.loc 1 300 0
  59 0008 4C40A0E3 		mov	r4, #76
  60              	.LVL2:
  61              	.L5:
  62              		.loc 1 304 0 discriminator 2
  63 000c 000095E5 		ldr	r0, [r5, #0]
  64 0010 2D10A0E3 		mov	r1, #45
  65 0014 003090E5 		ldr	r3, [r0, #0]
  66 0018 083093E5 		ldr	r3, [r3, #8]
  67 001c 33FF2FE1 		blx	r3
  68              	.LVL3:
  69              		.loc 1 303 0 discriminator 2
  70 0020 014054E2 		subs	r4, r4, #1
  71 0024 F8FFFF1A 		bne	.L5
  72              		.loc 1 305 0
  73 0028 18309FE5 		ldr	r3, .L8
  74 002c 18109FE5 		ldr	r1, .L8+4
  75 0030 000093E5 		ldr	r0, [r3, #0]
  76 0034 0220A0E3 		mov	r2, #2
  77 0038 003090E5 		ldr	r3, [r0, #0]
  78 003c 003093E5 		ldr	r3, [r3, #0]
  79 0040 33FF2FE1 		blx	r3
  80              	.LVL4:
  81 0044 3880BDE8 		ldmfd	sp!, {r3, r4, r5, pc}
  82              	.L9:
  83              		.align	2
  84              	.L8:
  85 0048 00000000 		.word	.LANCHOR0
  86 004c 00000000 		.word	.LC0
  87              		.cfi_endproc
  88              	.LFE24:
  89              		.size	print_line, .-print_line
  90              		.section	.text.test_printn,"ax",%progbits
  91              		.align	2
  92              		.global	test_printn
  93              		.type	test_printn, %function
  94              	test_printn:
  95              	.LFB7:
  96              		.loc 1 91 0
  97              		.cfi_startproc
  98              		@ args = 0, pretend = 0, frame = 16
  99              		@ frame_needed = 0, uses_anonymous_args = 0
 100              	.LVL5:
 101 0000 70402DE9 		stmfd	sp!, {r4, r5, r6, lr}
 102              	.LCFI1:
 103              		.cfi_def_cfa_offset 16
 104              		.cfi_offset 4, -16
 105              		.cfi_offset 5, -12
 106              		.cfi_offset 6, -8
 107              		.cfi_offset 14, -4
 108              		.loc 1 94 0
 109 0004 000050E3 		cmp	r0, #0
 110              		.loc 1 91 0
 111 0008 10D04DE2 		sub	sp, sp, #16
 112              	.LCFI2:
 113              		.cfi_def_cfa_offset 32
 114              		.loc 1 94 0
ARM GAS  C:\Users\NICOMA~1\AppData\Local\Temp\ccGQ8C5t.s 			page 3


 115 000c 1C00000A 		beq	.L18
 116              	.LBB48:
 117              	.LBB49:
 118              		.loc 1 91 0
 119 0010 01508DE2 		add	r5, sp, #1
 120              	.LBE49:
 121              	.LBE48:
 122              		.loc 1 99 0
 123 0014 84C09FE5 		ldr	ip, .L20
 124              	.LBB52:
 125              	.LBB50:
 126              		.loc 1 91 0
 127 0018 0520A0E1 		mov	r2, r5
 128              	.LVL6:
 129              	.L13:
 130              	.LBE50:
 131              	.LBE52:
 132              		.loc 1 99 0
 133 001c 9C1083E0 		umull	r1, r3, ip, r0
 134 0020 A331A0E1 		mov	r3, r3, lsr #3
 135 0024 031183E0 		add	r1, r3, r3, asl #2
 136 0028 811040E0 		sub	r1, r0, r1, asl #1
 137 002c 301081E2 		add	r1, r1, #48
 138 0030 7110EFE6 		uxtb	r1, r1
 139              		.loc 1 98 0
 140 0034 000053E2 		subs	r0, r3, #0
 141              		.loc 1 91 0
 142 0038 0240A0E1 		mov	r4, r2
 143              		.loc 1 99 0
 144 003c 011042E5 		strb	r1, [r2, #-1]
 145              	.LVL7:
 146 0040 012082E2 		add	r2, r2, #1
 147              	.LVL8:
 148              		.loc 1 98 0
 149 0044 F4FFFF1A 		bne	.L13
 150              		.loc 1 100 0 discriminator 1
 151 0048 0D30A0E1 		mov	r3, sp
 152 004c 030054E1 		cmp	r4, r3
 153 0050 0900009A 		bls	.L10
 154 0054 48609FE5 		ldr	r6, .L20+4
 155 0058 010000EA 		b	.L16
 156              	.LVL9:
 157              	.L19:
 158 005c 021054E5 		ldrb	r1, [r4, #-2]	@ zero_extendqisi2
 159 0060 014044E2 		sub	r4, r4, #1
 160              	.L16:
 161              		.loc 1 101 0
 162 0064 000096E5 		ldr	r0, [r6, #0]
 163 0068 003090E5 		ldr	r3, [r0, #0]
 164 006c 083093E5 		ldr	r3, [r3, #8]
 165 0070 33FF2FE1 		blx	r3
 166              	.LVL10:
 167              		.loc 1 100 0
 168 0074 050054E1 		cmp	r4, r5
 169 0078 F7FFFF1A 		bne	.L19
 170              	.L10:
 171              		.loc 1 103 0
ARM GAS  C:\Users\NICOMA~1\AppData\Local\Temp\ccGQ8C5t.s 			page 4


 172 007c 10D08DE2 		add	sp, sp, #16
 173 0080 7080BDE8 		ldmfd	sp!, {r4, r5, r6, pc}
 174              	.LVL11:
 175              	.L18:
 176              	.LBB53:
 177              	.LBB51:
 178              		.loc 1 95 0
 179 0084 18309FE5 		ldr	r3, .L20+4
 180 0088 3010A0E3 		mov	r1, #48
 181 008c 000093E5 		ldr	r0, [r3, #0]
 182              	.LVL12:
 183 0090 003090E5 		ldr	r3, [r0, #0]
 184 0094 083093E5 		ldr	r3, [r3, #8]
 185 0098 33FF2FE1 		blx	r3
 186              	.LVL13:
 187 009c F6FFFFEA 		b	.L10
 188              	.L21:
 189              		.align	2
 190              	.L20:
 191 00a0 CDCCCCCC 		.word	-858993459
 192 00a4 00000000 		.word	.LANCHOR0
 193              	.LBE51:
 194              	.LBE53:
 195              		.cfi_endproc
 196              	.LFE7:
 197              		.size	test_printn, .-test_printn
 198              		.section	.text.test_print,"ax",%progbits
 199              		.align	2
 200              		.global	test_print
 201              		.type	test_print, %function
 202              	test_print:
 203              	.LFB8:
 204              		.loc 1 110 0
 205              		.cfi_startproc
 206              		@ args = 0, pretend = 0, frame = 0
 207              		@ frame_needed = 0, uses_anonymous_args = 0
 208              	.LVL14:
 209 0000 38402DE9 		stmfd	sp!, {r3, r4, r5, lr}
 210              	.LCFI3:
 211              		.cfi_def_cfa_offset 16
 212              		.cfi_offset 3, -16
 213              		.cfi_offset 4, -12
 214              		.cfi_offset 5, -8
 215              		.cfi_offset 14, -4
 216              		.loc 1 112 0
 217 0004 0010D0E5 		ldrb	r1, [r0, #0]	@ zero_extendqisi2
 218 0008 000051E3 		cmp	r1, #0
 219 000c 3880BD08 		ldmeqfd	sp!, {r3, r4, r5, pc}
 220 0010 20509FE5 		ldr	r5, .L27
 221 0014 0040A0E1 		mov	r4, r0
 222              	.LVL15:
 223              	.L24:
 224              		.loc 1 113 0
 225 0018 000095E5 		ldr	r0, [r5, #0]
 226 001c 003090E5 		ldr	r3, [r0, #0]
 227 0020 083093E5 		ldr	r3, [r3, #8]
 228 0024 33FF2FE1 		blx	r3
ARM GAS  C:\Users\NICOMA~1\AppData\Local\Temp\ccGQ8C5t.s 			page 5


 229              	.LVL16:
 230              		.loc 1 112 0
 231 0028 0110F4E5 		ldrb	r1, [r4, #1]!	@ zero_extendqisi2
 232 002c 000051E3 		cmp	r1, #0
 233 0030 F8FFFF1A 		bne	.L24
 234 0034 3880BDE8 		ldmfd	sp!, {r3, r4, r5, pc}
 235              	.L28:
 236              		.align	2
 237              	.L27:
 238 0038 00000000 		.word	.LANCHOR0
 239              		.cfi_endproc
 240              	.LFE8:
 241              		.size	test_print, .-test_print
 242              		.section	.text.test_println,"ax",%progbits
 243              		.align	2
 244              		.global	test_println
 245              		.type	test_println, %function
 246              	test_println:
 247              	.LFB9:
 248              		.loc 1 121 0
 249              		.cfi_startproc
 250              		@ args = 0, pretend = 0, frame = 0
 251              		@ frame_needed = 0, uses_anonymous_args = 0
 252              	.LVL17:
 253 0000 38402DE9 		stmfd	sp!, {r3, r4, r5, lr}
 254              	.LCFI4:
 255              		.cfi_def_cfa_offset 16
 256              		.cfi_offset 3, -16
 257              		.cfi_offset 4, -12
 258              		.cfi_offset 5, -8
 259              		.cfi_offset 14, -4
 260              	.LBB54:
 261              	.LBB55:
 262              		.loc 1 112 0
 263 0004 0010D0E5 		ldrb	r1, [r0, #0]	@ zero_extendqisi2
 264 0008 40509FE5 		ldr	r5, .L35
 265 000c 000051E3 		cmp	r1, #0
 266 0010 0040A011 		movne	r4, r0
 267 0014 0600000A 		beq	.L32
 268              	.LVL18:
 269              	.L31:
 270              		.loc 1 113 0
 271 0018 000095E5 		ldr	r0, [r5, #0]
 272 001c 003090E5 		ldr	r3, [r0, #0]
 273 0020 083093E5 		ldr	r3, [r3, #8]
 274 0024 33FF2FE1 		blx	r3
 275              	.LVL19:
 276              		.loc 1 112 0
 277 0028 0110F4E5 		ldrb	r1, [r4, #1]!	@ zero_extendqisi2
 278 002c 000051E3 		cmp	r1, #0
 279 0030 F8FFFF1A 		bne	.L31
 280              	.L32:
 281              	.LBE55:
 282              	.LBE54:
 283              		.loc 1 124 0
 284 0034 000095E5 		ldr	r0, [r5, #0]
 285 0038 14109FE5 		ldr	r1, .L35+4
ARM GAS  C:\Users\NICOMA~1\AppData\Local\Temp\ccGQ8C5t.s 			page 6


 286 003c 003090E5 		ldr	r3, [r0, #0]
 287 0040 0220A0E3 		mov	r2, #2
 288 0044 003093E5 		ldr	r3, [r3, #0]
 289 0048 33FF2FE1 		blx	r3
 290              	.LVL20:
 291 004c 3880BDE8 		ldmfd	sp!, {r3, r4, r5, pc}
 292              	.L36:
 293              		.align	2
 294              	.L35:
 295 0050 00000000 		.word	.LANCHOR0
 296 0054 00000000 		.word	.LC0
 297              		.cfi_endproc
 298              	.LFE9:
 299              		.size	test_println, .-test_println
 300              		.section	.text.test_emit_token,"ax",%progbits
 301              		.align	2
 302              		.global	test_emit_token
 303              		.type	test_emit_token, %function
 304              	test_emit_token:
 305              	.LFB12:
 306              		.loc 1 147 0
 307              		.cfi_startproc
 308              		@ args = 0, pretend = 0, frame = 0
 309              		@ frame_needed = 0, uses_anonymous_args = 0
 310              		@ link register save eliminated.
 311              	.LVL21:
 312              		.loc 1 149 0
 313              	@ 149 "../../test/test.c" 1
 314 0000 9FF021E3 		msr     CPSR_c, #0x9F
 315              	@ 0 "" 2
 316              		.loc 1 150 0
 317 0004 10209FE5 		ldr	r2, .L38
 318 0008 003092E5 		ldr	r3, [r2, #0]
 319 000c 0100C3E4 		strb	r0, [r3], #1
 320 0010 003082E5 		str	r3, [r2, #0]
 321              		.loc 1 151 0
 322              	@ 151 "../../test/test.c" 1
 323 0014 1FF021E3 		msr     CPSR_c, #0x1F
 324              	@ 0 "" 2
 325 0018 1EFF2FE1 		bx	lr
 326              	.L39:
 327              		.align	2
 328              	.L38:
 329 001c 00000000 		.word	.LANCHOR1
 330              		.cfi_endproc
 331              	.LFE12:
 332              		.size	test_emit_token, .-test_emit_token
 333              		.section	.text._test_fail,"ax",%progbits
 334              		.align	2
 335              		.global	_test_fail
 336              		.type	_test_fail, %function
 337              	_test_fail:
 338              	.LFB13:
 339              		.loc 1 157 0
 340              		.cfi_startproc
 341              		@ args = 0, pretend = 0, frame = 0
 342              		@ frame_needed = 0, uses_anonymous_args = 0
ARM GAS  C:\Users\NICOMA~1\AppData\Local\Temp\ccGQ8C5t.s 			page 7


 343              		@ link register save eliminated.
 344              	.LVL22:
 345              		.loc 1 161 0
 346 0000 1C209FE5 		ldr	r2, .L41
 347              		.loc 1 159 0
 348 0004 0130A0E3 		mov	r3, #1
 349              		.loc 1 161 0
 350 0008 000082E5 		str	r0, [r2, #0]
 351              		.loc 1 159 0
 352 000c 14209FE5 		ldr	r2, .L41+4
 353              		.loc 1 163 0
 354 0010 0300A0E1 		mov	r0, r3
 355              	.LVL23:
 356              		.loc 1 159 0
 357 0014 0030C2E5 		strb	r3, [r2, #0]
 358              		.loc 1 160 0
 359 0018 0C209FE5 		ldr	r2, .L41+8
 360 001c 0030C2E5 		strb	r3, [r2, #0]
 361              		.loc 1 163 0
 362 0020 1EFF2FE1 		bx	lr
 363              	.L42:
 364              		.align	2
 365              	.L41:
 366 0024 00000000 		.word	.LANCHOR4
 367 0028 00000000 		.word	.LANCHOR2
 368 002c 00000000 		.word	.LANCHOR3
 369              		.cfi_endproc
 370              	.LFE13:
 371              		.size	_test_fail, .-_test_fail
 372              		.section	.text._test_assert,"ax",%progbits
 373              		.align	2
 374              		.global	_test_assert
 375              		.type	_test_assert, %function
 376              	_test_assert:
 377              	.LFB14:
 378              		.loc 1 165 0
 379              		.cfi_startproc
 380              		@ args = 0, pretend = 0, frame = 0
 381              		@ frame_needed = 0, uses_anonymous_args = 0
 382              		@ link register save eliminated.
 383              	.LVL24:
 384              		.loc 1 167 0
 385 0000 000051E3 		cmp	r1, #0
 386 0004 0800001A 		bne	.L45
 387              	.LVL25:
 388              	.LBB56:
 389              	.LBB57:
 390              		.loc 1 159 0
 391 0008 24209FE5 		ldr	r2, .L46
 392 000c 0130A0E3 		mov	r3, #1
 393 0010 0030C2E5 		strb	r3, [r2, #0]
 394              		.loc 1 160 0
 395 0014 1C209FE5 		ldr	r2, .L46+4
 396 0018 0030C2E5 		strb	r3, [r2, #0]
 397              		.loc 1 161 0
 398 001c 18209FE5 		ldr	r2, .L46+8
 399 0020 000082E5 		str	r0, [r2, #0]
ARM GAS  C:\Users\NICOMA~1\AppData\Local\Temp\ccGQ8C5t.s 			page 8


 400              	.LBE57:
 401              	.LBE56:
 402              		.loc 1 168 0
 403 0024 0300A0E1 		mov	r0, r3
 404              	.LVL26:
 405 0028 1EFF2FE1 		bx	lr
 406              	.LVL27:
 407              	.L45:
 408              		.loc 1 169 0
 409 002c 0000A0E3 		mov	r0, #0
 410              	.LVL28:
 411              		.loc 1 170 0
 412 0030 1EFF2FE1 		bx	lr
 413              	.L47:
 414              		.align	2
 415              	.L46:
 416 0034 00000000 		.word	.LANCHOR2
 417 0038 00000000 		.word	.LANCHOR3
 418 003c 00000000 		.word	.LANCHOR4
 419              		.cfi_endproc
 420              	.LFE14:
 421              		.size	_test_assert, .-_test_assert
 422              		.section	.text._test_assert_sequence,"ax",%progbits
 423              		.align	2
 424              		.global	_test_assert_sequence
 425              		.type	_test_assert_sequence, %function
 426              	_test_assert_sequence:
 427              	.LFB15:
 428              		.loc 1 172 0
 429              		.cfi_startproc
 430              		@ args = 0, pretend = 0, frame = 0
 431              		@ frame_needed = 0, uses_anonymous_args = 0
 432              		@ link register save eliminated.
 433              	.LVL29:
 434 0000 70002DE9 		stmfd	sp!, {r4, r5, r6}
 435              	.LCFI5:
 436              		.cfi_def_cfa_offset 12
 437              		.cfi_offset 4, -12
 438              		.cfi_offset 5, -8
 439              		.cfi_offset 6, -4
 440 0004 6C509FE5 		ldr	r5, .L55
 441              		.loc 1 173 0
 442 0008 6C609FE5 		ldr	r6, .L55+4
 443 000c 004095E5 		ldr	r4, [r5, #0]
 444 0010 0630A0E1 		mov	r3, r6
 445              		.loc 1 174 0
 446 0014 040000EA 		b	.L49
 447              	.LVL30:
 448              	.L51:
 449              		.loc 1 175 0
 450 0018 01C0D1E4 		ldrb	ip, [r1], #1	@ zero_extendqisi2
 451              	.LVL31:
 452 001c 0020D2E5 		ldrb	r2, [r2, #0]	@ zero_extendqisi2
 453 0020 013083E2 		add	r3, r3, #1
 454 0024 0C0052E1 		cmp	r2, ip
 455 0028 0900001A 		bne	.L54
 456              	.L49:
ARM GAS  C:\Users\NICOMA~1\AppData\Local\Temp\ccGQ8C5t.s 			page 9


 457              		.loc 1 174 0 discriminator 1
 458 002c 030054E1 		cmp	r4, r3
 459 0030 0320A0E1 		mov	r2, r3
 460 0034 F7FFFF8A 		bhi	.L51
 461              		.loc 1 178 0
 462 0038 0030D1E5 		ldrb	r3, [r1, #0]	@ zero_extendqisi2
 463 003c 000053E3 		cmp	r3, #0
 464              	.LBB58:
 465              	.LBB59:
 466              		.loc 1 132 0
 467 0040 00608505 		streq	r6, [r5, #0]
 468              	.LBE59:
 469              	.LBE58:
 470              		.loc 1 181 0
 471 0044 0300A001 		moveq	r0, r3
 472              	.LVL32:
 473              		.loc 1 178 0
 474 0048 0100001A 		bne	.L54
 475              	.L50:
 476              		.loc 1 182 0
 477 004c 7000BDE8 		ldmfd	sp!, {r4, r5, r6}
 478 0050 1EFF2FE1 		bx	lr
 479              	.L54:
 480              	.LVL33:
 481              	.LBB60:
 482              	.LBB61:
 483              		.loc 1 159 0
 484 0054 24209FE5 		ldr	r2, .L55+8
 485 0058 0130A0E3 		mov	r3, #1
 486 005c 0030C2E5 		strb	r3, [r2, #0]
 487              		.loc 1 160 0
 488 0060 1C209FE5 		ldr	r2, .L55+12
 489 0064 0030C2E5 		strb	r3, [r2, #0]
 490              		.loc 1 161 0
 491 0068 18209FE5 		ldr	r2, .L55+16
 492 006c 000082E5 		str	r0, [r2, #0]
 493              	.LBE61:
 494              	.LBE60:
 495              		.loc 1 179 0
 496 0070 0300A0E1 		mov	r0, r3
 497              	.LVL34:
 498 0074 F4FFFFEA 		b	.L50
 499              	.L56:
 500              		.align	2
 501              	.L55:
 502 0078 00000000 		.word	.LANCHOR1
 503 007c 00000000 		.word	.LANCHOR5
 504 0080 00000000 		.word	.LANCHOR2
 505 0084 00000000 		.word	.LANCHOR3
 506 0088 00000000 		.word	.LANCHOR4
 507              		.cfi_endproc
 508              	.LFE15:
 509              		.size	_test_assert_sequence, .-_test_assert_sequence
 510              		.section	.text._test_assert_time_window,"ax",%progbits
 511              		.align	2
 512              		.global	_test_assert_time_window
 513              		.type	_test_assert_time_window, %function
ARM GAS  C:\Users\NICOMA~1\AppData\Local\Temp\ccGQ8C5t.s 			page 10


 514              	_test_assert_time_window:
 515              	.LFB16:
 516              		.loc 1 184 0
 517              		.cfi_startproc
 518              		@ args = 0, pretend = 0, frame = 0
 519              		@ frame_needed = 0, uses_anonymous_args = 0
 520              		@ link register save eliminated.
 521              	.LVL35:
 522              		.loc 1 186 0
 523 0000 3C309FE5 		ldr	r3, .L60
 524 0004 022061E0 		rsb	r2, r1, r2
 525              	.LVL36:
 526 0008 0C3093E5 		ldr	r3, [r3, #12]
 527 000c 031061E0 		rsb	r1, r1, r3
 528              	.LVL37:
 529              	.LBB62:
 530              	.LBB63:
 531              		.loc 1 167 0
 532 0010 020051E1 		cmp	r1, r2
 533              	.LVL38:
 534 0014 0800003A 		bcc	.L59
 535              	.LVL39:
 536              	.LBB64:
 537              	.LBB65:
 538              		.loc 1 159 0
 539 0018 28209FE5 		ldr	r2, .L60+4
 540 001c 0130A0E3 		mov	r3, #1
 541 0020 0030C2E5 		strb	r3, [r2, #0]
 542              		.loc 1 160 0
 543 0024 20209FE5 		ldr	r2, .L60+8
 544 0028 0030C2E5 		strb	r3, [r2, #0]
 545              		.loc 1 161 0
 546 002c 1C209FE5 		ldr	r2, .L60+12
 547 0030 000082E5 		str	r0, [r2, #0]
 548              		.loc 1 168 0
 549 0034 0300A0E1 		mov	r0, r3
 550              	.LVL40:
 551 0038 1EFF2FE1 		bx	lr
 552              	.LVL41:
 553              	.L59:
 554              	.LBE65:
 555              	.LBE64:
 556              		.loc 1 169 0
 557 003c 0000A0E3 		mov	r0, #0
 558              	.LVL42:
 559              	.LBE63:
 560              	.LBE62:
 561              		.loc 1 187 0
 562 0040 1EFF2FE1 		bx	lr
 563              	.L61:
 564              		.align	2
 565              	.L60:
 566 0044 00000000 		.word	vtlist
 567 0048 00000000 		.word	.LANCHOR2
 568 004c 00000000 		.word	.LANCHOR3
 569 0050 00000000 		.word	.LANCHOR4
 570              		.cfi_endproc
ARM GAS  C:\Users\NICOMA~1\AppData\Local\Temp\ccGQ8C5t.s 			page 11


 571              	.LFE16:
 572              		.size	_test_assert_time_window, .-_test_assert_time_window
 573              		.section	.text.test_terminate_threads,"ax",%progbits
 574              		.align	2
 575              		.global	test_terminate_threads
 576              		.type	test_terminate_threads, %function
 577              	test_terminate_threads:
 578              	.LFB17:
 579              		.loc 1 196 0
 580              		.cfi_startproc
 581              		@ args = 0, pretend = 0, frame = 0
 582              		@ frame_needed = 0, uses_anonymous_args = 0
 583              	.LVL43:
 584 0000 38402DE9 		stmfd	sp!, {r3, r4, r5, lr}
 585              	.LCFI6:
 586              		.cfi_def_cfa_offset 16
 587              		.cfi_offset 3, -16
 588              		.cfi_offset 4, -12
 589              		.cfi_offset 5, -8
 590              		.cfi_offset 14, -4
 591 0004 1C409FE5 		ldr	r4, .L69
 592              		.loc 1 196 0
 593 0008 145084E2 		add	r5, r4, #20
 594              	.LVL44:
 595              	.L64:
 596              		.loc 1 200 0
 597 000c 0400B4E5 		ldr	r0, [r4, #4]!
 598 0010 000050E3 		cmp	r0, #0
 599 0014 0000000A 		beq	.L63
 600              		.loc 1 201 0
 601 0018 FEFFFFEB 		bl	chThdTerminate
 602              	.LVL45:
 603              	.L63:
 604              		.loc 1 199 0
 605 001c 050054E1 		cmp	r4, r5
 606 0020 F9FFFF1A 		bne	.L64
 607              		.loc 1 202 0
 608 0024 3880BDE8 		ldmfd	sp!, {r3, r4, r5, pc}
 609              	.L70:
 610              		.align	2
 611              	.L69:
 612 0028 FCFFFFFF 		.word	threads-4
 613              		.cfi_endproc
 614              	.LFE17:
 615              		.size	test_terminate_threads, .-test_terminate_threads
 616              		.section	.text.test_wait_threads,"ax",%progbits
 617              		.align	2
 618              		.global	test_wait_threads
 619              		.type	test_wait_threads, %function
 620              	test_wait_threads:
 621              	.LFB18:
 622              		.loc 1 207 0
 623              		.cfi_startproc
 624              		@ args = 0, pretend = 0, frame = 0
 625              		@ frame_needed = 0, uses_anonymous_args = 0
 626              	.LVL46:
 627 0000 70402DE9 		stmfd	sp!, {r4, r5, r6, lr}
ARM GAS  C:\Users\NICOMA~1\AppData\Local\Temp\ccGQ8C5t.s 			page 12


 628              	.LCFI7:
 629              		.cfi_def_cfa_offset 16
 630              		.cfi_offset 4, -16
 631              		.cfi_offset 5, -12
 632              		.cfi_offset 6, -8
 633              		.cfi_offset 14, -4
 634 0004 24409FE5 		ldr	r4, .L78
 635              		.loc 1 213 0
 636 0008 0060A0E3 		mov	r6, #0
 637              		.loc 1 207 0
 638 000c 145084E2 		add	r5, r4, #20
 639              	.LVL47:
 640              	.L73:
 641              		.loc 1 211 0
 642 0010 040094E4 		ldr	r0, [r4], #4
 643 0014 000050E3 		cmp	r0, #0
 644 0018 0100000A 		beq	.L72
 645              		.loc 1 212 0
 646 001c FEFFFFEB 		bl	chThdWait
 647              	.LVL48:
 648              		.loc 1 213 0
 649 0020 046004E5 		str	r6, [r4, #-4]
 650              	.L72:
 651              		.loc 1 210 0
 652 0024 050054E1 		cmp	r4, r5
 653 0028 F8FFFF1A 		bne	.L73
 654              		.loc 1 215 0
 655 002c 7080BDE8 		ldmfd	sp!, {r4, r5, r6, pc}
 656              	.L79:
 657              		.align	2
 658              	.L78:
 659 0030 00000000 		.word	threads
 660              		.cfi_endproc
 661              	.LFE18:
 662              		.size	test_wait_threads, .-test_wait_threads
 663              		.section	.text.test_cpu_pulse,"ax",%progbits
 664              		.align	2
 665              		.global	test_cpu_pulse
 666              		.type	test_cpu_pulse, %function
 667              	test_cpu_pulse:
 668              	.LFB19:
 669              		.loc 1 224 0
 670              		.cfi_startproc
 671              		@ args = 0, pretend = 0, frame = 0
 672              		@ frame_needed = 0, uses_anonymous_args = 0
 673              		@ link register save eliminated.
 674              	.LVL49:
 675              		.loc 1 228 0
 676 0000 FA3FA0E3 		mov	r3, #1000
 677 0004 930000E0 		mul	r0, r3, r0
 678              	.LVL50:
 679              		.loc 1 227 0
 680 0008 64309FE5 		ldr	r3, .L87
 681              		.loc 1 228 0
 682 000c 64209FE5 		ldr	r2, .L87+4
 683              		.loc 1 227 0
 684 0010 18C093E5 		ldr	ip, [r3, #24]
ARM GAS  C:\Users\NICOMA~1\AppData\Local\Temp\ccGQ8C5t.s 			page 13


 685              		.loc 1 228 0
 686 0014 011040E2 		sub	r1, r0, #1
 687 0018 923181E0 		umull	r3, r1, r2, r1
 688              		.loc 1 227 0
 689 001c 20209CE5 		ldr	r2, [ip, #32]
 690              	.LVL51:
 691              		.loc 1 228 0
 692 0020 010082E2 		add	r0, r2, #1
 693 0024 211380E0 		add	r1, r0, r1, lsr #6
 694              	.LVL52:
 695 0028 060000EA 		b	.L83
 696              	.LVL53:
 697              	.L86:
 698              		.loc 1 235 0 discriminator 1
 699 002c 010053E1 		cmp	r3, r1
 700 0030 0000A023 		movcs	r0, #0
 701 0034 0100A033 		movcc	r0, #1
 702 0038 020053E1 		cmp	r3, r2
 703 003c 0000A033 		movcc	r0, #0
 704              		.loc 1 236 0 discriminator 1
 705 0040 000050E3 		cmp	r0, #0
 706 0044 0900000A 		beq	.L85
 707              	.LVL54:
 708              	.L83:
 709              		.loc 1 235 0
 710 0048 010052E1 		cmp	r2, r1
 711              		.loc 1 230 0
 712 004c 20309CE5 		ldr	r3, [ip, #32]
 713              	.LVL55:
 714              		.loc 1 235 0
 715 0050 F5FFFF3A 		bcc	.L86
 716              		.loc 1 236 0 discriminator 2
 717 0054 020053E1 		cmp	r3, r2
 718 0058 0000A033 		movcc	r0, #0
 719 005c 0100A023 		movcs	r0, #1
 720 0060 010053E1 		cmp	r3, r1
 721 0064 01008033 		orrcc	r0, r0, #1
 722 0068 000050E3 		cmp	r0, #0
 723 006c F5FFFF1A 		bne	.L83
 724              	.L85:
 725              		.loc 1 237 0
 726 0070 1EFF2FE1 		bx	lr
 727              	.L88:
 728              		.align	2
 729              	.L87:
 730 0074 00000000 		.word	rlist
 731 0078 D34D6210 		.word	274877907
 732              		.cfi_endproc
 733              	.LFE19:
 734              		.size	test_cpu_pulse, .-test_cpu_pulse
 735              		.section	.text.test_wait_tick,"ax",%progbits
 736              		.align	2
 737              		.global	test_wait_tick
 738              		.type	test_wait_tick, %function
 739              	test_wait_tick:
 740              	.LFB20:
 741              		.loc 1 245 0
ARM GAS  C:\Users\NICOMA~1\AppData\Local\Temp\ccGQ8C5t.s 			page 14


 742              		.cfi_startproc
 743              		@ args = 0, pretend = 0, frame = 0
 744              		@ frame_needed = 0, uses_anonymous_args = 0
 745 0000 08402DE9 		stmfd	sp!, {r3, lr}
 746              	.LCFI8:
 747              		.cfi_def_cfa_offset 8
 748              		.cfi_offset 3, -8
 749              		.cfi_offset 14, -4
 750              		.loc 1 247 0
 751 0004 0100A0E3 		mov	r0, #1
 752 0008 FEFFFFEB 		bl	chThdSleep
 753              	.LVL56:
 754              		.loc 1 248 0
 755 000c 04309FE5 		ldr	r3, .L90
 756 0010 0C0093E5 		ldr	r0, [r3, #12]
 757              		.loc 1 249 0
 758 0014 0880BDE8 		ldmfd	sp!, {r3, pc}
 759              	.L91:
 760              		.align	2
 761              	.L90:
 762 0018 00000000 		.word	vtlist
 763              		.cfi_endproc
 764              	.LFE20:
 765              		.size	test_wait_tick, .-test_wait_tick
 766              		.section	.text.test_start_timer,"ax",%progbits
 767              		.align	2
 768              		.global	test_start_timer
 769              		.type	test_start_timer, %function
 770              	test_start_timer:
 771              	.LFB22:
 772              		.loc 1 272 0
 773              		.cfi_startproc
 774              		@ args = 0, pretend = 0, frame = 0
 775              		@ frame_needed = 0, uses_anonymous_args = 0
 776              	.LVL57:
 777              		.loc 1 275 0
 778 0000 3C209FE5 		ldr	r2, .L93
 779              		.loc 1 272 0
 780 0004 08402DE9 		stmfd	sp!, {r3, lr}
 781              	.LCFI9:
 782              		.cfi_def_cfa_offset 8
 783              		.cfi_offset 3, -8
 784              		.cfi_offset 14, -4
 785              		.loc 1 275 0
 786 0008 0030A0E3 		mov	r3, #0
 787 000c 0030C2E5 		strb	r3, [r2, #0]
 788              	.LVL58:
 789              		.loc 1 276 0
 790              	@ 276 "../../test/test.c" 1
 791 0010 9FF021E3 		msr     CPSR_c, #0x9F
 792              	@ 0 "" 2
 793              		.loc 1 274 0
 794 0014 FA1FA0E3 		mov	r1, #1000
 795 0018 910001E0 		mul	r1, r1, r0
 796 001c 24209FE5 		ldr	r2, .L93+4
 797 0020 011041E2 		sub	r1, r1, #1
 798 0024 920181E0 		umull	r0, r1, r2, r1
ARM GAS  C:\Users\NICOMA~1\AppData\Local\Temp\ccGQ8C5t.s 			page 15


 799              	.LVL59:
 800 0028 2113A0E1 		mov	r1, r1, lsr #6
 801              		.loc 1 276 0
 802 002c 18009FE5 		ldr	r0, .L93+8
 803 0030 011081E2 		add	r1, r1, #1
 804 0034 14209FE5 		ldr	r2, .L93+12
 805 0038 FEFFFFEB 		bl	chVTSetI
 806              	.LVL60:
 807              	@ 276 "../../test/test.c" 1
 808 003c 1FF021E3 		msr     CPSR_c, #0x1F
 809              	@ 0 "" 2
 810 0040 0880BDE8 		ldmfd	sp!, {r3, pc}
 811              	.L94:
 812              		.align	2
 813              	.L93:
 814 0044 00000000 		.word	test_timer_done
 815 0048 D34D6210 		.word	274877907
 816 004c 00000000 		.word	.LANCHOR6
 817 0050 00000000 		.word	tmr
 818              		.cfi_endproc
 819              	.LFE22:
 820              		.size	test_start_timer, .-test_start_timer
 821              		.section	.text.TestThread,"ax",%progbits
 822              		.align	2
 823              		.global	TestThread
 824              		.type	TestThread, %function
 825              	TestThread:
 826              	.LFB25:
 827              		.loc 1 314 0
 828              		.cfi_startproc
 829              		@ args = 0, pretend = 0, frame = 8
 830              		@ frame_needed = 0, uses_anonymous_args = 0
 831              	.LVL61:
 832 0000 F04F2DE9 		stmfd	sp!, {r4, r5, r6, r7, r8, r9, sl, fp, lr}
 833              	.LCFI10:
 834              		.cfi_def_cfa_offset 36
 835              		.cfi_offset 4, -36
 836              		.cfi_offset 5, -32
 837              		.cfi_offset 6, -28
 838              		.cfi_offset 7, -24
 839              		.cfi_offset 8, -20
 840              		.cfi_offset 9, -16
 841              		.cfi_offset 10, -12
 842              		.cfi_offset 11, -8
 843              		.cfi_offset 14, -4
 844              		.loc 1 317 0
 845 0004 C4439FE5 		ldr	r4, .L163
 846              		.loc 1 314 0
 847 0008 0CD04DE2 		sub	sp, sp, #12
 848              	.LCFI11:
 849              		.cfi_def_cfa_offset 48
 850              		.loc 1 317 0
 851 000c 000084E5 		str	r0, [r4, #0]
 852              		.loc 1 318 0
 853 0010 BC039FE5 		ldr	r0, .L163+4
 854              	.LVL62:
 855 0014 FEFFFFEB 		bl	test_println
ARM GAS  C:\Users\NICOMA~1\AppData\Local\Temp\ccGQ8C5t.s 			page 16


 856              	.LVL63:
 857              		.loc 1 319 0
 858 0018 B8039FE5 		ldr	r0, .L163+8
 859 001c FEFFFFEB 		bl	test_println
 860              	.LVL64:
 861 0020 B4539FE5 		ldr	r5, .L163+12
 862              		.loc 1 320 0
 863 0024 B4039FE5 		ldr	r0, .L163+16
 864 0028 FEFFFFEB 		bl	test_println
 865              	.LVL65:
 866              		.loc 1 112 0
 867 002c 2A10A0E3 		mov	r1, #42
 868              	.LVL66:
 869              	.L96:
 870              	.LBB100:
 871              	.LBB101:
 872              		.loc 1 113 0
 873 0030 000094E5 		ldr	r0, [r4, #0]
 874 0034 003090E5 		ldr	r3, [r0, #0]
 875 0038 083093E5 		ldr	r3, [r3, #8]
 876 003c 33FF2FE1 		blx	r3
 877              	.LVL67:
 878              		.loc 1 112 0
 879 0040 0110F5E5 		ldrb	r1, [r5, #1]!	@ zero_extendqisi2
 880 0044 000051E3 		cmp	r1, #0
 881 0048 F8FFFF1A 		bne	.L96
 882              	.LBE101:
 883              	.LBE100:
 884              		.loc 1 322 0
 885 004c 90039FE5 		ldr	r0, .L163+20
 886 0050 90539FE5 		ldr	r5, .L163+24
 887 0054 FEFFFFEB 		bl	test_println
 888              	.LVL68:
 889              		.loc 1 112 0
 890 0058 2A10A0E3 		mov	r1, #42
 891              	.LVL69:
 892              	.L98:
 893              	.LBB102:
 894              	.LBB103:
 895              		.loc 1 113 0
 896 005c 000094E5 		ldr	r0, [r4, #0]
 897 0060 003090E5 		ldr	r3, [r0, #0]
 898 0064 083093E5 		ldr	r3, [r3, #8]
 899 0068 33FF2FE1 		blx	r3
 900              	.LVL70:
 901              		.loc 1 112 0
 902 006c 0110F5E5 		ldrb	r1, [r5, #1]!	@ zero_extendqisi2
 903 0070 000051E3 		cmp	r1, #0
 904 0074 F8FFFF1A 		bne	.L98
 905              	.LBE103:
 906              	.LBE102:
 907              		.loc 1 324 0
 908 0078 6C039FE5 		ldr	r0, .L163+28
 909 007c 6C539FE5 		ldr	r5, .L163+32
 910 0080 FEFFFFEB 		bl	test_println
 911              	.LVL71:
 912              		.loc 1 112 0
ARM GAS  C:\Users\NICOMA~1\AppData\Local\Temp\ccGQ8C5t.s 			page 17


 913 0084 2A10A0E3 		mov	r1, #42
 914              	.LVL72:
 915              	.L100:
 916              	.LBB104:
 917              	.LBB105:
 918              		.loc 1 113 0
 919 0088 000094E5 		ldr	r0, [r4, #0]
 920 008c 003090E5 		ldr	r3, [r0, #0]
 921 0090 083093E5 		ldr	r3, [r3, #8]
 922 0094 33FF2FE1 		blx	r3
 923              	.LVL73:
 924              		.loc 1 112 0
 925 0098 0110F5E5 		ldrb	r1, [r5, #1]!	@ zero_extendqisi2
 926 009c 000051E3 		cmp	r1, #0
 927 00a0 F8FFFF1A 		bne	.L100
 928              	.LBE105:
 929              	.LBE104:
 930              		.loc 1 327 0
 931 00a4 48039FE5 		ldr	r0, .L163+36
 932 00a8 48539FE5 		ldr	r5, .L163+40
 933 00ac FEFFFFEB 		bl	test_println
 934              	.LVL74:
 935              		.loc 1 112 0
 936 00b0 2A10A0E3 		mov	r1, #42
 937              	.LVL75:
 938              	.L102:
 939              	.LBB106:
 940              	.LBB107:
 941              		.loc 1 113 0
 942 00b4 000094E5 		ldr	r0, [r4, #0]
 943 00b8 003090E5 		ldr	r3, [r0, #0]
 944 00bc 083093E5 		ldr	r3, [r3, #8]
 945 00c0 33FF2FE1 		blx	r3
 946              	.LVL76:
 947              		.loc 1 112 0
 948 00c4 0110F5E5 		ldrb	r1, [r5, #1]!	@ zero_extendqisi2
 949 00c8 000051E3 		cmp	r1, #0
 950 00cc F8FFFF1A 		bne	.L102
 951              	.LBE107:
 952              	.LBE106:
 953              		.loc 1 330 0
 954 00d0 24039FE5 		ldr	r0, .L163+44
 955 00d4 24539FE5 		ldr	r5, .L163+48
 956 00d8 FEFFFFEB 		bl	test_println
 957              	.LVL77:
 958              		.loc 1 112 0
 959 00dc 2A10A0E3 		mov	r1, #42
 960              	.LVL78:
 961              	.L104:
 962              	.LBB108:
 963              	.LBB109:
 964              		.loc 1 113 0
 965 00e0 000094E5 		ldr	r0, [r4, #0]
 966 00e4 003090E5 		ldr	r3, [r0, #0]
 967 00e8 083093E5 		ldr	r3, [r3, #8]
 968 00ec 33FF2FE1 		blx	r3
 969              	.LVL79:
ARM GAS  C:\Users\NICOMA~1\AppData\Local\Temp\ccGQ8C5t.s 			page 18


 970              		.loc 1 112 0
 971 00f0 0110F5E5 		ldrb	r1, [r5, #1]!	@ zero_extendqisi2
 972 00f4 000051E3 		cmp	r1, #0
 973 00f8 F8FFFF1A 		bne	.L104
 974              	.LBE109:
 975              	.LBE108:
 976              		.loc 1 333 0
 977 00fc 00039FE5 		ldr	r0, .L163+52
 978 0100 00539FE5 		ldr	r5, .L163+56
 979 0104 FEFFFFEB 		bl	test_println
 980              	.LVL80:
 981              		.loc 1 112 0
 982 0108 2A10A0E3 		mov	r1, #42
 983              	.LVL81:
 984              	.L106:
 985              	.LBB110:
 986              	.LBB111:
 987              		.loc 1 113 0
 988 010c 000094E5 		ldr	r0, [r4, #0]
 989 0110 003090E5 		ldr	r3, [r0, #0]
 990 0114 083093E5 		ldr	r3, [r3, #8]
 991 0118 33FF2FE1 		blx	r3
 992              	.LVL82:
 993              		.loc 1 112 0
 994 011c 0110F5E5 		ldrb	r1, [r5, #1]!	@ zero_extendqisi2
 995 0120 000051E3 		cmp	r1, #0
 996 0124 F8FFFF1A 		bne	.L106
 997              	.LBE111:
 998              	.LBE110:
 999              		.loc 1 337 0
 1000 0128 DC029FE5 		ldr	r0, .L163+60
 1001 012c DC529FE5 		ldr	r5, .L163+64
 1002 0130 FEFFFFEB 		bl	test_println
 1003              	.LVL83:
 1004              		.loc 1 112 0
 1005 0134 2A10A0E3 		mov	r1, #42
 1006              	.LVL84:
 1007              	.L108:
 1008              	.LBB112:
 1009              	.LBB113:
 1010              		.loc 1 113 0
 1011 0138 000094E5 		ldr	r0, [r4, #0]
 1012 013c 003090E5 		ldr	r3, [r0, #0]
 1013 0140 083093E5 		ldr	r3, [r3, #8]
 1014 0144 33FF2FE1 		blx	r3
 1015              	.LVL85:
 1016              		.loc 1 112 0
 1017 0148 0110F5E5 		ldrb	r1, [r5, #1]!	@ zero_extendqisi2
 1018 014c 000051E3 		cmp	r1, #0
 1019 0150 F8FFFF1A 		bne	.L108
 1020              	.LBE113:
 1021              	.LBE112:
 1022              		.loc 1 341 0
 1023 0154 B8029FE5 		ldr	r0, .L163+68
 1024 0158 00108DE5 		str	r1, [sp, #0]
 1025 015c FEFFFFEB 		bl	test_println
 1026              	.LVL86:
ARM GAS  C:\Users\NICOMA~1\AppData\Local\Temp\ccGQ8C5t.s 			page 19


 1027              		.loc 1 347 0
 1028 0160 6C029FE5 		ldr	r0, .L163+4
 1029 0164 FEFFFFEB 		bl	test_println
 1030              	.LVL87:
 1031              		.loc 1 349 0
 1032 0168 00109DE5 		ldr	r1, [sp, #0]
 1033 016c A4229FE5 		ldr	r2, .L163+72
 1034 0170 A4329FE5 		ldr	r3, .L163+76
 1035 0174 A4729FE5 		ldr	r7, .L163+80
 1036              	.LBB114:
 1037              	.LBB115:
 1038              	.LBB116:
 1039              	.LBB117:
 1040              		.loc 1 132 0
 1041 0178 A4629FE5 		ldr	r6, .L163+84
 1042 017c A4A29FE5 		ldr	sl, .L163+88
 1043 0180 04208DE5 		str	r2, [sp, #4]
 1044              	.LBE117:
 1045              	.LBE116:
 1046              	.LBE115:
 1047              	.LBE114:
 1048              		.loc 1 349 0
 1049 0184 0010C3E5 		strb	r1, [r3, #0]
 1050              	.LVL88:
 1051              		.loc 1 350 0
 1052 0188 0190A0E1 		mov	r9, r1
 1053              	.LVL89:
 1054              	.L133:
 1055 018c 019089E2 		add	r9, r9, #1
 1056              		.loc 1 112 0 discriminator 1
 1057 0190 0080A0E3 		mov	r8, #0
 1058              	.L160:
 1059              	.LVL90:
 1060              		.loc 1 353 0 discriminator 1
 1061 0194 043097E4 		ldr	r3, [r7], #4
 1062 0198 000053E3 		cmp	r3, #0
 1063 019c 6D00000A 		beq	.L162
 1064              	.L127:
 1065 01a0 84529FE5 		ldr	r5, .L163+92
 1066              		.loc 1 354 0
 1067 01a4 FEFFFFEB 		bl	print_line
 1068              	.LVL91:
 1069              		.loc 1 112 0
 1070 01a8 2D10A0E3 		mov	r1, #45
 1071              	.LVL92:
 1072              	.L110:
 1073              	.LBB122:
 1074              	.LBB123:
 1075              		.loc 1 113 0
 1076 01ac 000094E5 		ldr	r0, [r4, #0]
 1077 01b0 003090E5 		ldr	r3, [r0, #0]
 1078 01b4 083093E5 		ldr	r3, [r3, #8]
 1079 01b8 33FF2FE1 		blx	r3
 1080              	.LVL93:
 1081              		.loc 1 112 0
 1082 01bc 0110F5E5 		ldrb	r1, [r5, #1]!	@ zero_extendqisi2
 1083 01c0 000051E3 		cmp	r1, #0
ARM GAS  C:\Users\NICOMA~1\AppData\Local\Temp\ccGQ8C5t.s 			page 20


 1084 01c4 F8FFFF1A 		bne	.L110
 1085              	.LBE123:
 1086              	.LBE122:
 1087              		.loc 1 356 0
 1088 01c8 0900A0E1 		mov	r0, r9
 1089 01cc FEFFFFEB 		bl	test_printn
 1090              	.LVL94:
 1091              	.LBB124:
 1092              	.LBB125:
 1093              		.loc 1 113 0
 1094 01d0 F8319FE5 		ldr	r3, .L163
 1095 01d4 2E10A0E3 		mov	r1, #46
 1096 01d8 000093E5 		ldr	r0, [r3, #0]
 1097              	.LVL95:
 1098              	.LBE125:
 1099              	.LBE124:
 1100              		.loc 1 358 0
 1101 01dc 018088E2 		add	r8, r8, #1
 1102              	.LVL96:
 1103              	.LBB127:
 1104              	.LBB126:
 1105              		.loc 1 113 0
 1106 01e0 003090E5 		ldr	r3, [r0, #0]
 1107 01e4 44529FE5 		ldr	r5, .L163+96
 1108 01e8 083093E5 		ldr	r3, [r3, #8]
 1109 01ec 33FF2FE1 		blx	r3
 1110              	.LVL97:
 1111              	.LBE126:
 1112              	.LBE127:
 1113              		.loc 1 358 0
 1114 01f0 0800A0E1 		mov	r0, r8
 1115 01f4 FEFFFFEB 		bl	test_printn
 1116              	.LVL98:
 1117              		.loc 1 112 0
 1118 01f8 2010A0E3 		mov	r1, #32
 1119              	.LVL99:
 1120              	.L112:
 1121              	.LBB128:
 1122              	.LBB129:
 1123              		.loc 1 113 0
 1124 01fc 000094E5 		ldr	r0, [r4, #0]
 1125 0200 003090E5 		ldr	r3, [r0, #0]
 1126 0204 083093E5 		ldr	r3, [r3, #8]
 1127 0208 33FF2FE1 		blx	r3
 1128              	.LVL100:
 1129              		.loc 1 112 0
 1130 020c 0110F5E5 		ldrb	r1, [r5, #1]!	@ zero_extendqisi2
 1131 0210 000051E3 		cmp	r1, #0
 1132 0214 F8FFFF1A 		bne	.L112
 1133              	.LBE129:
 1134              	.LBE128:
 1135              		.loc 1 360 0
 1136 0218 043017E5 		ldr	r3, [r7, #-4]
 1137 021c 005093E5 		ldr	r5, [r3, #0]
 1138              	.LVL101:
 1139              	.LBB130:
 1140              	.LBB131:
ARM GAS  C:\Users\NICOMA~1\AppData\Local\Temp\ccGQ8C5t.s 			page 21


 1141              		.loc 1 112 0
 1142 0220 0010D5E5 		ldrb	r1, [r5, #0]	@ zero_extendqisi2
 1143 0224 000051E3 		cmp	r1, #0
 1144 0228 0600000A 		beq	.L117
 1145              	.LVL102:
 1146              	.L116:
 1147              		.loc 1 113 0
 1148 022c 000094E5 		ldr	r0, [r4, #0]
 1149 0230 003090E5 		ldr	r3, [r0, #0]
 1150 0234 083093E5 		ldr	r3, [r3, #8]
 1151 0238 33FF2FE1 		blx	r3
 1152              	.LVL103:
 1153              		.loc 1 112 0
 1154 023c 0110F5E5 		ldrb	r1, [r5, #1]!	@ zero_extendqisi2
 1155 0240 000051E3 		cmp	r1, #0
 1156 0244 F8FFFF1A 		bne	.L116
 1157              	.L117:
 1158              	.LBE131:
 1159              	.LBE130:
 1160              		.loc 1 361 0
 1161 0248 E4019FE5 		ldr	r0, .L163+100
 1162 024c FEFFFFEB 		bl	test_println
 1163              	.LVL104:
 1164              		.loc 1 363 0
 1165 0250 C800A0E3 		mov	r0, #200
 1166 0254 FEFFFFEB 		bl	chThdSleep
 1167              	.LVL105:
 1168              	.LBB132:
 1169              	.LBB120:
 1170              		.loc 1 289 0
 1171 0258 D8219FE5 		ldr	r2, .L163+104
 1172              		.loc 1 287 0
 1173 025c 0030A0E3 		mov	r3, #0
 1174              	.LBE120:
 1175              	.LBE132:
 1176              		.loc 1 365 0
 1177 0260 04B017E5 		ldr	fp, [r7, #-4]
 1178              	.LVL106:
 1179              	.LBB133:
 1180              	.LBB121:
 1181              		.loc 1 289 0
 1182 0264 003082E5 		str	r3, [r2, #0]
 1183 0268 043082E5 		str	r3, [r2, #4]
 1184 026c 083082E5 		str	r3, [r2, #8]
 1185 0270 0C3082E5 		str	r3, [r2, #12]
 1186 0274 103082E5 		str	r3, [r2, #16]
 1187              		.loc 1 291 0
 1188 0278 04209BE5 		ldr	r2, [fp, #4]
 1189              		.loc 1 287 0
 1190 027c B8519FE5 		ldr	r5, .L163+108
 1191              		.loc 1 291 0
 1192 0280 030052E1 		cmp	r2, r3
 1193              	.LBB119:
 1194              	.LBB118:
 1195              		.loc 1 132 0
 1196 0284 00A086E5 		str	sl, [r6, #0]
 1197              	.LBE118:
ARM GAS  C:\Users\NICOMA~1\AppData\Local\Temp\ccGQ8C5t.s 			page 22


 1198              	.LBE119:
 1199              		.loc 1 287 0
 1200 0288 0030C5E5 		strb	r3, [r5, #0]
 1201              	.LVL107:
 1202              		.loc 1 291 0
 1203 028c 0000000A 		beq	.L115
 1204              		.loc 1 292 0
 1205 0290 32FF2FE1 		blx	r2
 1206              	.LVL108:
 1207              	.L115:
 1208              		.loc 1 293 0
 1209 0294 0C309BE5 		ldr	r3, [fp, #12]
 1210 0298 33FF2FE1 		blx	r3
 1211              	.LVL109:
 1212              		.loc 1 294 0
 1213 029c 08309BE5 		ldr	r3, [fp, #8]
 1214 02a0 000053E3 		cmp	r3, #0
 1215 02a4 0000000A 		beq	.L118
 1216              		.loc 1 295 0
 1217 02a8 33FF2FE1 		blx	r3
 1218              	.LVL110:
 1219              	.L118:
 1220              		.loc 1 297 0
 1221 02ac FEFFFFEB 		bl	test_wait_threads
 1222              	.LVL111:
 1223              	.LBE121:
 1224              	.LBE133:
 1225              		.loc 1 366 0
 1226 02b0 0030D5E5 		ldrb	r3, [r5, #0]	@ zero_extendqisi2
 1227 02b4 000053E3 		cmp	r3, #0
 1228 02b8 4100000A 		beq	.L119
 1229 02bc 7C519FE5 		ldr	r5, .L163+112
 1230              		.loc 1 112 0
 1231 02c0 2D10A0E3 		mov	r1, #45
 1232              	.L120:
 1233              	.LBB134:
 1234              	.LBB135:
 1235              		.loc 1 113 0
 1236 02c4 000094E5 		ldr	r0, [r4, #0]
 1237              	.LVL112:
 1238 02c8 003090E5 		ldr	r3, [r0, #0]
 1239 02cc 083093E5 		ldr	r3, [r3, #8]
 1240 02d0 33FF2FE1 		blx	r3
 1241              	.LVL113:
 1242              		.loc 1 112 0
 1243 02d4 0110F5E5 		ldrb	r1, [r5, #1]!	@ zero_extendqisi2
 1244 02d8 000051E3 		cmp	r1, #0
 1245 02dc F8FFFF1A 		bne	.L120
 1246              	.LBE135:
 1247              	.LBE134:
 1248              		.loc 1 368 0
 1249 02e0 5C319FE5 		ldr	r3, .L163+116
 1250 02e4 5C519FE5 		ldr	r5, .L163+120
 1251 02e8 000093E5 		ldr	r0, [r3, #0]
 1252 02ec FEFFFFEB 		bl	test_printn
 1253              	.LVL114:
 1254              		.loc 1 112 0
ARM GAS  C:\Users\NICOMA~1\AppData\Local\Temp\ccGQ8C5t.s 			page 23


 1255 02f0 2010A0E3 		mov	r1, #32
 1256              	.LVL115:
 1257              	.L122:
 1258              	.LBB136:
 1259              	.LBB137:
 1260              		.loc 1 113 0
 1261 02f4 000094E5 		ldr	r0, [r4, #0]
 1262 02f8 003090E5 		ldr	r3, [r0, #0]
 1263 02fc 083093E5 		ldr	r3, [r3, #8]
 1264 0300 33FF2FE1 		blx	r3
 1265              	.LVL116:
 1266              		.loc 1 112 0
 1267 0304 0110F5E5 		ldrb	r1, [r5, #1]!	@ zero_extendqisi2
 1268 0308 000051E3 		cmp	r1, #0
 1269 030c F8FFFF1A 		bne	.L122
 1270              	.LVL117:
 1271              	.LBE137:
 1272              	.LBE136:
 1273              	.LBB138:
 1274              	.LBB139:
 1275              		.loc 1 138 0
 1276 0310 003096E5 		ldr	r3, [r6, #0]
 1277 0314 0A0053E1 		cmp	r3, sl
 1278              	.LBE139:
 1279              	.LBE138:
 1280              		.loc 1 314 0
 1281 0318 2C519F85 		ldrhi	r5, .L163+124
 1282              	.LBB141:
 1283              	.LBB140:
 1284              		.loc 1 138 0
 1285 031c 0800009A 		bls	.L126
 1286              	.LVL118:
 1287              	.L125:
 1288              		.loc 1 139 0
 1289 0320 000094E5 		ldr	r0, [r4, #0]
 1290 0324 011055E5 		ldrb	r1, [r5, #-1]	@ zero_extendqisi2
 1291 0328 003090E5 		ldr	r3, [r0, #0]
 1292 032c 083093E5 		ldr	r3, [r3, #8]
 1293 0330 33FF2FE1 		blx	r3
 1294              	.LVL119:
 1295              		.loc 1 138 0
 1296 0334 003096E5 		ldr	r3, [r6, #0]
 1297              	.LVL120:
 1298 0338 030055E1 		cmp	r5, r3
 1299 033c 015085E2 		add	r5, r5, #1
 1300              	.LVL121:
 1301 0340 F6FFFF3A 		bcc	.L125
 1302              	.LVL122:
 1303              	.L126:
 1304              	.LBE140:
 1305              	.LBE141:
 1306              		.loc 1 371 0
 1307 0344 04019FE5 		ldr	r0, .L163+128
 1308 0348 FEFFFFEB 		bl	test_println
 1309              	.LVL123:
 1310              		.loc 1 353 0
 1311 034c 043097E4 		ldr	r3, [r7], #4
ARM GAS  C:\Users\NICOMA~1\AppData\Local\Temp\ccGQ8C5t.s 			page 24


 1312 0350 000053E3 		cmp	r3, #0
 1313 0354 91FFFF1A 		bne	.L127
 1314              	.LVL124:
 1315              	.L162:
 1316              		.loc 1 351 0
 1317 0358 04209DE5 		ldr	r2, [sp, #4]
 1318 035c 0470B2E5 		ldr	r7, [r2, #4]!
 1319 0360 000057E3 		cmp	r7, #0
 1320 0364 04208DE5 		str	r2, [sp, #4]
 1321 0368 87FFFF1A 		bne	.L133
 1322              		.loc 1 379 0
 1323 036c FEFFFFEB 		bl	print_line
 1324              	.LVL125:
 1325 0370 DC509FE5 		ldr	r5, .L163+132
 1326              		.loc 1 380 0
 1327 0374 58009FE5 		ldr	r0, .L163+4
 1328 0378 FEFFFFEB 		bl	test_println
 1329              	.LVL126:
 1330              		.loc 1 112 0
 1331 037c 4610A0E3 		mov	r1, #70
 1332              	.LVL127:
 1333              	.L130:
 1334              	.LBB142:
 1335              	.LBB143:
 1336              		.loc 1 113 0
 1337 0380 000094E5 		ldr	r0, [r4, #0]
 1338 0384 003090E5 		ldr	r3, [r0, #0]
 1339 0388 083093E5 		ldr	r3, [r3, #8]
 1340 038c 33FF2FE1 		blx	r3
 1341              	.LVL128:
 1342              		.loc 1 112 0
 1343 0390 0110F5E5 		ldrb	r1, [r5, #1]!	@ zero_extendqisi2
 1344 0394 000051E3 		cmp	r1, #0
 1345 0398 F8FFFF1A 		bne	.L130
 1346              	.LBE143:
 1347              	.LBE142:
 1348              		.loc 1 382 0
 1349 039c 78209FE5 		ldr	r2, .L163+76
 1350 03a0 0030D2E5 		ldrb	r3, [r2, #0]	@ zero_extendqisi2
 1351 03a4 000053E3 		cmp	r3, #0
 1352              		.loc 1 383 0
 1353 03a8 A8009F15 		ldrne	r0, .L163+136
 1354              		.loc 1 385 0
 1355 03ac A8009F05 		ldreq	r0, .L163+140
 1356 03b0 FEFFFFEB 		bl	test_println
 1357              	.LVL129:
 1358              		.loc 1 387 0
 1359 03b4 60309FE5 		ldr	r3, .L163+76
 1360 03b8 0000D3E5 		ldrb	r0, [r3, #0]	@ zero_extendqisi2
 1361              		.loc 1 388 0
 1362 03bc 0CD08DE2 		add	sp, sp, #12
 1363 03c0 F08FBDE8 		ldmfd	sp!, {r4, r5, r6, r7, r8, r9, sl, fp, pc}
 1364              	.LVL130:
 1365              	.L119:
 1366              		.loc 1 374 0
 1367 03c4 94009FE5 		ldr	r0, .L163+144
 1368 03c8 FEFFFFEB 		bl	test_println
ARM GAS  C:\Users\NICOMA~1\AppData\Local\Temp\ccGQ8C5t.s 			page 25


 1369              	.LVL131:
 1370 03cc 70FFFFEA 		b	.L160
 1371              	.L164:
 1372              		.align	2
 1373              	.L163:
 1374 03d0 00000000 		.word	.LANCHOR0
 1375 03d4 04000000 		.word	.LC1
 1376 03d8 08000000 		.word	.LC2
 1377 03dc 28000000 		.word	.LC4
 1378 03e0 24000000 		.word	.LC3
 1379 03e4 90000000 		.word	.LC12
 1380 03e8 98000000 		.word	.LC13
 1381 03ec AC000000 		.word	.LC14
 1382 03f0 C4000000 		.word	.LC15
 1383 03f4 D8000000 		.word	.LC16
 1384 03f8 E4000000 		.word	.LC17
 1385 03fc F8000000 		.word	.LC18
 1386 0400 00010000 		.word	.LC19
 1387 0404 14010000 		.word	.LC20
 1388 0408 24010000 		.word	.LC21
 1389 040c 38010000 		.word	.LC22
 1390 0410 48010000 		.word	.LC23
 1391 0414 5C010000 		.word	.LC24
 1392 0418 00000000 		.word	.LANCHOR7
 1393 041c 00000000 		.word	.LANCHOR3
 1394 0420 00000000 		.word	patternthd
 1395 0424 00000000 		.word	.LANCHOR1
 1396 0428 00000000 		.word	.LANCHOR5
 1397 042c 3C000000 		.word	.LC5
 1398 0430 64010000 		.word	.LC25
 1399 0434 4C000000 		.word	.LC6
 1400 0438 00000000 		.word	threads
 1401 043c 00000000 		.word	.LANCHOR2
 1402 0440 50000000 		.word	.LC7
 1403 0444 00000000 		.word	.LANCHOR4
 1404 0448 68010000 		.word	.LC26
 1405 044c 01000000 		.word	.LANCHOR5+1
 1406 0450 68000000 		.word	.LC8
 1407 0454 6C010000 		.word	.LC27
 1408 0458 80000000 		.word	.LC10
 1409 045c 88000000 		.word	.LC11
 1410 0460 6C000000 		.word	.LC9
 1411              		.cfi_endproc
 1412              	.LFE25:
 1413              		.size	TestThread, .-TestThread
 1414              		.comm	test_timer_done,1,1
 1415              		.global	wa
 1416              		.comm	threads,20,4
 1417              		.comm	test,1400,4
 1418              		.section	.bss.failpoint,"aw",%nobits
 1419              		.align	2
 1420              		.set	.LANCHOR4,. + 0
 1421              		.type	failpoint, %object
 1422              		.size	failpoint, 4
 1423              	failpoint:
 1424 0000 00000000 		.space	4
 1425              		.section	.bss.local_fail,"aw",%nobits
ARM GAS  C:\Users\NICOMA~1\AppData\Local\Temp\ccGQ8C5t.s 			page 26


 1426              		.set	.LANCHOR2,. + 0
 1427              		.type	local_fail, %object
 1428              		.size	local_fail, 1
 1429              	local_fail:
 1430 0000 00       		.space	1
 1431              		.section	.rodata.wa,"a",%progbits
 1432              		.align	2
 1433              		.type	wa, %object
 1434              		.size	wa, 20
 1435              	wa:
 1436 0000 00000000 		.word	test
 1437 0004 18010000 		.word	test+280
 1438 0008 30020000 		.word	test+560
 1439 000c 48030000 		.word	test+840
 1440 0010 60040000 		.word	test+1120
 1441              		.section	.bss.tokp,"aw",%nobits
 1442              		.align	2
 1443              		.set	.LANCHOR1,. + 0
 1444              		.type	tokp, %object
 1445              		.size	tokp, 4
 1446              	tokp:
 1447 0000 00000000 		.space	4
 1448              		.section	.bss.global_fail,"aw",%nobits
 1449              		.set	.LANCHOR3,. + 0
 1450              		.type	global_fail, %object
 1451              		.size	global_fail, 1
 1452              	global_fail:
 1453 0000 00       		.space	1
 1454              		.section	.rodata.str1.4,"aMS",%progbits,1
 1455              		.align	2
 1456              	.LC0:
 1457 0000 0D0A00   		.ascii	"\015\012\000"
 1458 0003 00       		.space	1
 1459              	.LC1:
 1460 0004 00       		.ascii	"\000"
 1461 0005 000000   		.space	3
 1462              	.LC2:
 1463 0008 2A2A2A20 		.ascii	"*** ChibiOS/RT test suite\000"
 1463      43686962 
 1463      694F532F 
 1463      52542074 
 1463      65737420 
 1464 0022 0000     		.space	2
 1465              	.LC3:
 1466 0024 2A2A2A00 		.ascii	"***\000"
 1467              	.LC4:
 1468 0028 2A2A2A20 		.ascii	"*** Kernel:       \000"
 1468      4B65726E 
 1468      656C3A20 
 1468      20202020 
 1468      202000
 1469 003b 00       		.space	1
 1470              	.LC5:
 1471 003c 2D2D2D20 		.ascii	"--- Test Case \000"
 1471      54657374 
 1471      20436173 
 1471      652000
ARM GAS  C:\Users\NICOMA~1\AppData\Local\Temp\ccGQ8C5t.s 			page 27


 1472 004b 00       		.space	1
 1473              	.LC6:
 1474 004c 2900     		.ascii	")\000"
 1475 004e 0000     		.space	2
 1476              	.LC7:
 1477 0050 2D2D2D20 		.ascii	"--- Result: FAILURE (#\000"
 1477      52657375 
 1477      6C743A20 
 1477      4641494C 
 1477      55524520 
 1478 0067 00       		.space	1
 1479              	.LC8:
 1480 0068 5D2900   		.ascii	"])\000"
 1481 006b 00       		.space	1
 1482              	.LC9:
 1483 006c 2D2D2D20 		.ascii	"--- Result: SUCCESS\000"
 1483      52657375 
 1483      6C743A20 
 1483      53554343 
 1483      45535300 
 1484              	.LC10:
 1485 0080 4641494C 		.ascii	"FAILURE\000"
 1485      55524500 
 1486              	.LC11:
 1487 0088 53554343 		.ascii	"SUCCESS\000"
 1487      45535300 
 1488              	.LC12:
 1489 0090 322E362E 		.ascii	"2.6.6\000"
 1489      3600
 1490 0096 0000     		.space	2
 1491              	.LC13:
 1492 0098 2A2A2A20 		.ascii	"*** Compiled:     \000"
 1492      436F6D70 
 1492      696C6564 
 1492      3A202020 
 1492      202000
 1493 00ab 00       		.space	1
 1494              	.LC14:
 1495 00ac 4F637420 		.ascii	"Oct  1 2014 - 09:50:04\000"
 1495      20312032 
 1495      30313420 
 1495      2D203039 
 1495      3A35303A 
 1496 00c3 00       		.space	1
 1497              	.LC15:
 1498 00c4 2A2A2A20 		.ascii	"*** Compiler:     \000"
 1498      436F6D70 
 1498      696C6572 
 1498      3A202020 
 1498      202000
 1499 00d7 00       		.space	1
 1500              	.LC16:
 1501 00d8 47434320 		.ascii	"GCC 4.7.2\000"
 1501      342E372E 
 1501      3200
 1502 00e2 0000     		.space	2
 1503              	.LC17:
ARM GAS  C:\Users\NICOMA~1\AppData\Local\Temp\ccGQ8C5t.s 			page 28


 1504 00e4 2A2A2A20 		.ascii	"*** Architecture: \000"
 1504      41726368 
 1504      69746563 
 1504      74757265 
 1504      3A2000
 1505 00f7 00       		.space	1
 1506              	.LC18:
 1507 00f8 41524D31 		.ascii	"ARM11\000"
 1507      3100
 1508 00fe 0000     		.space	2
 1509              	.LC19:
 1510 0100 2A2A2A20 		.ascii	"*** Core Variant: \000"
 1510      436F7265 
 1510      20566172 
 1510      69616E74 
 1510      3A2000
 1511 0113 00       		.space	1
 1512              	.LC20:
 1513 0114 41524D31 		.ascii	"ARM1176JZF-S\000"
 1513      3137364A 
 1513      5A462D53 
 1513      00
 1514 0121 000000   		.space	3
 1515              	.LC21:
 1516 0124 2A2A2A20 		.ascii	"*** Port Info:    \000"
 1516      506F7274 
 1516      20496E66 
 1516      6F3A2020 
 1516      202000
 1517 0137 00       		.space	1
 1518              	.LC22:
 1519 0138 50757265 		.ascii	"Pure ARM mode\000"
 1519      2041524D 
 1519      206D6F64 
 1519      6500
 1520 0146 0000     		.space	2
 1521              	.LC23:
 1522 0148 2A2A2A20 		.ascii	"*** Platform:     \000"
 1522      506C6174 
 1522      666F726D 
 1522      3A202020 
 1522      202000
 1523 015b 00       		.space	1
 1524              	.LC24:
 1525 015c 42434D32 		.ascii	"BCM2835\000"
 1525      38333500 
 1526              	.LC25:
 1527 0164 202800   		.ascii	" (\000"
 1528 0167 00       		.space	1
 1529              	.LC26:
 1530 0168 205B00   		.ascii	" [\000"
 1531 016b 00       		.space	1
 1532              	.LC27:
 1533 016c 46696E61 		.ascii	"Final result: \000"
 1533      6C207265 
 1533      73756C74 
 1533      3A2000
ARM GAS  C:\Users\NICOMA~1\AppData\Local\Temp\ccGQ8C5t.s 			page 29


 1534 017b 00       		.section	.rodata.patterns,"a",%progbits
 1535              		.align	2
 1536              		.set	.LANCHOR7,. + 0
 1537              		.type	patterns, %object
 1538              		.size	patterns, 48
 1539              	patterns:
 1540 0000 00000000 		.word	patternthd
 1541 0004 00000000 		.word	patternsem
 1542 0008 00000000 		.word	patternmtx
 1543 000c 00000000 		.word	patternmsg
 1544 0010 00000000 		.word	patternmbox
 1545 0014 00000000 		.word	patternevt
 1546 0018 00000000 		.word	patternheap
 1547 001c 00000000 		.word	patternpools
 1548 0020 00000000 		.word	patterndyn
 1549 0024 00000000 		.word	patternqueues
 1550 0028 00000000 		.word	patternbmk
 1551 002c 00000000 		.word	0
 1552              		.section	.bss.vt,"aw",%nobits
 1553              		.align	2
 1554              		.set	.LANCHOR6,. + 0
 1555              		.type	vt, %object
 1556              		.size	vt, 20
 1557              	vt:
 1558 0000 00000000 		.space	20
 1558      00000000 
 1558      00000000 
 1558      00000000 
 1558      00000000 
 1559              		.section	.bss.chp,"aw",%nobits
 1560              		.align	2
 1561              		.set	.LANCHOR0,. + 0
 1562              		.type	chp, %object
 1563              		.size	chp, 4
 1564              	chp:
 1565 0000 00000000 		.space	4
 1566              		.section	.bss.tokens_buffer,"aw",%nobits
 1567              		.align	2
 1568              		.set	.LANCHOR5,. + 0
 1569              		.type	tokens_buffer, %object
 1570              		.size	tokens_buffer, 16
 1571              	tokens_buffer:
 1572 0000 00000000 		.space	16
 1572      00000000 
 1572      00000000 
 1572      00000000 
 1573              		.text
 1574              	.Letext0:
 1575              		.file 2 "c:\\yagarto-20121222\\bin\\../lib/gcc/arm-none-eabi/4.7.2/include/stddef.h"
 1576              		.file 3 "c:/yagarto-20121222/lib/gcc/../../arm-none-eabi/sys-include/stdint.h"
 1577              		.file 4 "../../os/ports/GCC/ARM/chtypes.h"
 1578              		.file 5 "../../os/kernel/include/chlists.h"
 1579              		.file 6 "../../os/kernel/include/chthreads.h"
 1580              		.file 7 "../../os/ports/GCC/ARM/chcore.h"
 1581              		.file 8 "../../os/kernel/include/chvt.h"
 1582              		.file 9 "../../os/kernel/include/chschd.h"
 1583              		.file 10 "../../os/kernel/include/chmtx.h"
ARM GAS  C:\Users\NICOMA~1\AppData\Local\Temp\ccGQ8C5t.s 			page 30


 1584              		.file 11 "../../os/kernel/include/chstreams.h"
 1585              		.file 12 "../../test/test.h"
 1586              		.file 13 "../../test/testthd.h"
 1587              		.file 14 "../../test/testsem.h"
 1588              		.file 15 "../../test/testmtx.h"
 1589              		.file 16 "../../test/testmsg.h"
 1590              		.file 17 "../../test/testmbox.h"
 1591              		.file 18 "../../test/testevt.h"
 1592              		.file 19 "../../test/testheap.h"
 1593              		.file 20 "../../test/testpools.h"
 1594              		.file 21 "../../test/testdyn.h"
 1595              		.file 22 "../../test/testqueues.h"
 1596              		.file 23 "../../test/testbmk.h"