ARM GAS  C:\Users\NICOMA~1\AppData\Local\Temp\ccD2qZHI.s 			page 1


   1              		.cpu arm1176jz-s
   2              		.fpu softvfp
   3              		.eabi_attribute 20, 1
   4              		.eabi_attribute 21, 1
   5              		.eabi_attribute 23, 3
   6              		.eabi_attribute 24, 1
   7              		.eabi_attribute 25, 1
   8              		.eabi_attribute 26, 1
   9              		.eabi_attribute 30, 2
  10              		.eabi_attribute 34, 1
  11              		.eabi_attribute 18, 4
  12              		.file	"testmtx.c"
  13              		.text
  14              	.Ltext0:
  15              		.cfi_sections	.debug_frame
  16              		.section	.text.mtx8_execute,"ax",%progbits
  17              		.align	2
  18              		.type	mtx8_execute, %function
  19              	mtx8_execute:
  20              	.LFB36:
  21              		.file 1 "../../test/testmtx.c"
  22              		.loc 1 596 0
  23              		.cfi_startproc
  24              		@ args = 0, pretend = 0, frame = 0
  25              		@ frame_needed = 0, uses_anonymous_args = 0
  26 0000 70402DE9 		stmfd	sp!, {r4, r5, r6, lr}
  27              	.LCFI0:
  28              		.cfi_def_cfa_offset 16
  29              		.cfi_offset 4, -16
  30              		.cfi_offset 5, -12
  31              		.cfi_offset 6, -8
  32              		.cfi_offset 14, -4
  33              		.loc 1 598 0
  34 0004 A4309FE5 		ldr	r3, .L2
  35              		.loc 1 599 0
  36 0008 A4609FE5 		ldr	r6, .L2+4
  37              		.loc 1 598 0
  38 000c 183093E5 		ldr	r3, [r3, #24]
  39              		.loc 1 599 0
  40 0010 A0C09FE5 		ldr	ip, .L2+8
  41              		.loc 1 598 0
  42 0014 085093E5 		ldr	r5, [r3, #8]
  43              	.LVL0:
  44              		.loc 1 596 0
  45 0018 08D04DE2 		sub	sp, sp, #8
  46              	.LCFI1:
  47              		.cfi_def_cfa_offset 24
  48              		.loc 1 599 0
  49 001c 012085E2 		add	r2, r5, #1
  50 0020 00C08DE5 		str	ip, [sp, #0]
  51 0024 000096E5 		ldr	r0, [r6, #0]
  52 0028 461FA0E3 		mov	r1, #280
  53 002c 88309FE5 		ldr	r3, .L2+12
  54 0030 FEFFFFEB 		bl	chThdCreateStatic
  55              	.LVL1:
  56 0034 84409FE5 		ldr	r4, .L2+16
  57              		.loc 1 600 0
ARM GAS  C:\Users\NICOMA~1\AppData\Local\Temp\ccD2qZHI.s 			page 2


  58 0038 04C096E5 		ldr	ip, [r6, #4]
  59              		.loc 1 599 0
  60 003c 000084E5 		str	r0, [r4, #0]
  61              		.loc 1 600 0
  62 0040 7C009FE5 		ldr	r0, .L2+20
  63 0044 022085E2 		add	r2, r5, #2
  64 0048 00008DE5 		str	r0, [sp, #0]
  65 004c 461FA0E3 		mov	r1, #280
  66 0050 70309FE5 		ldr	r3, .L2+24
  67 0054 0C00A0E1 		mov	r0, ip
  68 0058 FEFFFFEB 		bl	chThdCreateStatic
  69              	.LVL2:
  70              		.loc 1 601 0
  71 005c 08C096E5 		ldr	ip, [r6, #8]
  72              		.loc 1 600 0
  73 0060 040084E5 		str	r0, [r4, #4]
  74              		.loc 1 601 0
  75 0064 60009FE5 		ldr	r0, .L2+28
  76 0068 032085E2 		add	r2, r5, #3
  77 006c 461FA0E3 		mov	r1, #280
  78 0070 58309FE5 		ldr	r3, .L2+32
  79 0074 00008DE5 		str	r0, [sp, #0]
  80 0078 0C00A0E1 		mov	r0, ip
  81 007c FEFFFFEB 		bl	chThdCreateStatic
  82              	.LVL3:
  83              		.loc 1 602 0
  84 0080 4C509FE5 		ldr	r5, .L2+36
  85              	.LVL4:
  86              		.loc 1 601 0
  87 0084 080084E5 		str	r0, [r4, #8]
  88              		.loc 1 602 0
  89 0088 0500A0E1 		mov	r0, r5
  90 008c FEFFFFEB 		bl	chCondSignal
  91              	.LVL5:
  92              		.loc 1 603 0
  93 0090 0500A0E1 		mov	r0, r5
  94 0094 FEFFFFEB 		bl	chCondSignal
  95              	.LVL6:
  96              		.loc 1 604 0
  97 0098 FEFFFFEB 		bl	test_wait_threads
  98              	.LVL7:
  99              		.loc 1 605 0
 100 009c 34109FE5 		ldr	r1, .L2+40
 101 00a0 0100A0E3 		mov	r0, #1
 102              		.loc 1 606 0
 103 00a4 08D08DE2 		add	sp, sp, #8
 104 00a8 7040BDE8 		ldmfd	sp!, {r4, r5, r6, lr}
 105              		.loc 1 605 0
 106 00ac FEFFFFEA 		b	_test_assert_sequence
 107              	.LVL8:
 108              	.L3:
 109              		.align	2
 110              	.L2:
 111 00b0 00000000 		.word	rlist
 112 00b4 00000000 		.word	wa
 113 00b8 00000000 		.word	.LC0
 114 00bc 00000000 		.word	thread11
ARM GAS  C:\Users\NICOMA~1\AppData\Local\Temp\ccD2qZHI.s 			page 3


 115 00c0 00000000 		.word	threads
 116 00c4 04000000 		.word	.LC1
 117 00c8 00000000 		.word	thread10
 118 00cc 08000000 		.word	.LC2
 119 00d0 00000000 		.word	thread12
 120 00d4 00000000 		.word	.LANCHOR0
 121 00d8 0C000000 		.word	.LC3
 122              		.cfi_endproc
 123              	.LFE36:
 124              		.size	mtx8_execute, .-mtx8_execute
 125              		.section	.text.thread12,"ax",%progbits
 126              		.align	2
 127              		.type	thread12, %function
 128              	thread12:
 129              	.LFB35:
 130              		.loc 1 588 0
 131              		.cfi_startproc
 132              		@ args = 0, pretend = 0, frame = 0
 133              		@ frame_needed = 0, uses_anonymous_args = 0
 134              	.LVL9:
 135 0000 10402DE9 		stmfd	sp!, {r4, lr}
 136              	.LCFI2:
 137              		.cfi_def_cfa_offset 8
 138              		.cfi_offset 4, -8
 139              		.cfi_offset 14, -4
 140              		.loc 1 588 0
 141 0004 0040A0E1 		mov	r4, r0
 142              		.loc 1 590 0
 143 0008 14009FE5 		ldr	r0, .L5
 144              	.LVL10:
 145 000c FEFFFFEB 		bl	chMtxLock
 146              	.LVL11:
 147              		.loc 1 591 0
 148 0010 0000D4E5 		ldrb	r0, [r4, #0]	@ zero_extendqisi2
 149 0014 FEFFFFEB 		bl	test_emit_token
 150              	.LVL12:
 151              		.loc 1 592 0
 152 0018 FEFFFFEB 		bl	chMtxUnlock
 153              	.LVL13:
 154              		.loc 1 594 0
 155 001c 0000A0E3 		mov	r0, #0
 156 0020 1080BDE8 		ldmfd	sp!, {r4, pc}
 157              	.L6:
 158              		.align	2
 159              	.L5:
 160 0024 00000000 		.word	.LANCHOR1
 161              		.cfi_endproc
 162              	.LFE35:
 163              		.size	thread12, .-thread12
 164              		.section	.text.thread1,"ax",%progbits
 165              		.align	2
 166              		.type	thread1, %function
 167              	thread1:
 168              	.LFB8:
 169              		.loc 1 89 0
 170              		.cfi_startproc
 171              		@ args = 0, pretend = 0, frame = 0
ARM GAS  C:\Users\NICOMA~1\AppData\Local\Temp\ccD2qZHI.s 			page 4


 172              		@ frame_needed = 0, uses_anonymous_args = 0
 173              	.LVL14:
 174 0000 10402DE9 		stmfd	sp!, {r4, lr}
 175              	.LCFI3:
 176              		.cfi_def_cfa_offset 8
 177              		.cfi_offset 4, -8
 178              		.cfi_offset 14, -4
 179              		.loc 1 89 0
 180 0004 0040A0E1 		mov	r4, r0
 181              		.loc 1 91 0
 182 0008 14009FE5 		ldr	r0, .L8
 183              	.LVL15:
 184 000c FEFFFFEB 		bl	chMtxLock
 185              	.LVL16:
 186              		.loc 1 92 0
 187 0010 0000D4E5 		ldrb	r0, [r4, #0]	@ zero_extendqisi2
 188 0014 FEFFFFEB 		bl	test_emit_token
 189              	.LVL17:
 190              		.loc 1 93 0
 191 0018 FEFFFFEB 		bl	chMtxUnlock
 192              	.LVL18:
 193              		.loc 1 95 0
 194 001c 0000A0E3 		mov	r0, #0
 195 0020 1080BDE8 		ldmfd	sp!, {r4, pc}
 196              	.L9:
 197              		.align	2
 198              	.L8:
 199 0024 00000000 		.word	.LANCHOR2
 200              		.cfi_endproc
 201              	.LFE8:
 202              		.size	thread1, .-thread1
 203              		.section	.text.thread10,"ax",%progbits
 204              		.align	2
 205              		.type	thread10, %function
 206              	thread10:
 207              	.LFB29:
 208              		.loc 1 485 0
 209              		.cfi_startproc
 210              		@ args = 0, pretend = 0, frame = 0
 211              		@ frame_needed = 0, uses_anonymous_args = 0
 212              	.LVL19:
 213 0000 10402DE9 		stmfd	sp!, {r4, lr}
 214              	.LCFI4:
 215              		.cfi_def_cfa_offset 8
 216              		.cfi_offset 4, -8
 217              		.cfi_offset 14, -4
 218              		.loc 1 485 0
 219 0004 0040A0E1 		mov	r4, r0
 220              		.loc 1 487 0
 221 0008 1C009FE5 		ldr	r0, .L11
 222              	.LVL20:
 223 000c FEFFFFEB 		bl	chMtxLock
 224              	.LVL21:
 225              		.loc 1 488 0
 226 0010 18009FE5 		ldr	r0, .L11+4
 227 0014 FEFFFFEB 		bl	chCondWait
 228              	.LVL22:
ARM GAS  C:\Users\NICOMA~1\AppData\Local\Temp\ccD2qZHI.s 			page 5


 229              		.loc 1 489 0
 230 0018 0000D4E5 		ldrb	r0, [r4, #0]	@ zero_extendqisi2
 231 001c FEFFFFEB 		bl	test_emit_token
 232              	.LVL23:
 233              		.loc 1 490 0
 234 0020 FEFFFFEB 		bl	chMtxUnlock
 235              	.LVL24:
 236              		.loc 1 492 0
 237 0024 0000A0E3 		mov	r0, #0
 238 0028 1080BDE8 		ldmfd	sp!, {r4, pc}
 239              	.L12:
 240              		.align	2
 241              	.L11:
 242 002c 00000000 		.word	.LANCHOR2
 243 0030 00000000 		.word	.LANCHOR0
 244              		.cfi_endproc
 245              	.LFE29:
 246              		.size	thread10, .-thread10
 247              		.section	.text.thread11,"ax",%progbits
 248              		.align	2
 249              		.type	thread11, %function
 250              	thread11:
 251              	.LFB34:
 252              		.loc 1 573 0
 253              		.cfi_startproc
 254              		@ args = 0, pretend = 0, frame = 0
 255              		@ frame_needed = 0, uses_anonymous_args = 0
 256              	.LVL25:
 257 0000 10402DE9 		stmfd	sp!, {r4, lr}
 258              	.LCFI5:
 259              		.cfi_def_cfa_offset 8
 260              		.cfi_offset 4, -8
 261              		.cfi_offset 14, -4
 262              		.loc 1 573 0
 263 0004 0040A0E1 		mov	r4, r0
 264              		.loc 1 575 0
 265 0008 2C009FE5 		ldr	r0, .L14
 266              	.LVL26:
 267 000c FEFFFFEB 		bl	chMtxLock
 268              	.LVL27:
 269              		.loc 1 576 0
 270 0010 28009FE5 		ldr	r0, .L14+4
 271 0014 FEFFFFEB 		bl	chMtxLock
 272              	.LVL28:
 273              		.loc 1 578 0
 274 0018 0010E0E3 		mvn	r1, #0
 275 001c 20009FE5 		ldr	r0, .L14+8
 276 0020 FEFFFFEB 		bl	chCondWaitTimeout
 277              	.LVL29:
 278              		.loc 1 582 0
 279 0024 0000D4E5 		ldrb	r0, [r4, #0]	@ zero_extendqisi2
 280 0028 FEFFFFEB 		bl	test_emit_token
 281              	.LVL30:
 282              		.loc 1 583 0
 283 002c FEFFFFEB 		bl	chMtxUnlock
 284              	.LVL31:
 285              		.loc 1 584 0
ARM GAS  C:\Users\NICOMA~1\AppData\Local\Temp\ccD2qZHI.s 			page 6


 286 0030 FEFFFFEB 		bl	chMtxUnlock
 287              	.LVL32:
 288              		.loc 1 586 0
 289 0034 0000A0E3 		mov	r0, #0
 290 0038 1080BDE8 		ldmfd	sp!, {r4, pc}
 291              	.L15:
 292              		.align	2
 293              	.L14:
 294 003c 00000000 		.word	.LANCHOR1
 295 0040 00000000 		.word	.LANCHOR2
 296 0044 00000000 		.word	.LANCHOR0
 297              		.cfi_endproc
 298              	.LFE34:
 299              		.size	thread11, .-thread11
 300              		.section	.text.mtx8_setup,"ax",%progbits
 301              		.align	2
 302              		.type	mtx8_setup, %function
 303              	mtx8_setup:
 304              	.LFB33:
 305              		.loc 1 566 0
 306              		.cfi_startproc
 307              		@ args = 0, pretend = 0, frame = 0
 308              		@ frame_needed = 0, uses_anonymous_args = 0
 309 0000 08402DE9 		stmfd	sp!, {r3, lr}
 310              	.LCFI6:
 311              		.cfi_def_cfa_offset 8
 312              		.cfi_offset 3, -8
 313              		.cfi_offset 14, -4
 314              		.loc 1 568 0
 315 0004 14009FE5 		ldr	r0, .L17
 316 0008 FEFFFFEB 		bl	chCondInit
 317              	.LVL33:
 318              		.loc 1 569 0
 319 000c 10009FE5 		ldr	r0, .L17+4
 320 0010 FEFFFFEB 		bl	chMtxInit
 321              	.LVL34:
 322              		.loc 1 570 0
 323 0014 0C009FE5 		ldr	r0, .L17+8
 324              		.loc 1 571 0
 325 0018 0840BDE8 		ldmfd	sp!, {r3, lr}
 326              		.loc 1 570 0
 327 001c FEFFFFEA 		b	chMtxInit
 328              	.LVL35:
 329              	.L18:
 330              		.align	2
 331              	.L17:
 332 0020 00000000 		.word	.LANCHOR0
 333 0024 00000000 		.word	.LANCHOR2
 334 0028 00000000 		.word	.LANCHOR1
 335              		.cfi_endproc
 336              	.LFE33:
 337              		.size	mtx8_setup, .-mtx8_setup
 338              		.section	.text.mtx7_setup,"ax",%progbits
 339              		.align	2
 340              		.type	mtx7_setup, %function
 341              	mtx7_setup:
 342              	.LFB31:
ARM GAS  C:\Users\NICOMA~1\AppData\Local\Temp\ccD2qZHI.s 			page 7


 343              		.loc 1 531 0
 344              		.cfi_startproc
 345              		@ args = 0, pretend = 0, frame = 0
 346              		@ frame_needed = 0, uses_anonymous_args = 0
 347 0000 08402DE9 		stmfd	sp!, {r3, lr}
 348              	.LCFI7:
 349              		.cfi_def_cfa_offset 8
 350              		.cfi_offset 3, -8
 351              		.cfi_offset 14, -4
 352              		.loc 1 533 0
 353 0004 0C009FE5 		ldr	r0, .L20
 354 0008 FEFFFFEB 		bl	chCondInit
 355              	.LVL36:
 356              		.loc 1 534 0
 357 000c 08009FE5 		ldr	r0, .L20+4
 358              		.loc 1 535 0
 359 0010 0840BDE8 		ldmfd	sp!, {r3, lr}
 360              		.loc 1 534 0
 361 0014 FEFFFFEA 		b	chMtxInit
 362              	.LVL37:
 363              	.L21:
 364              		.align	2
 365              	.L20:
 366 0018 00000000 		.word	.LANCHOR0
 367 001c 00000000 		.word	.LANCHOR2
 368              		.cfi_endproc
 369              	.LFE31:
 370              		.size	mtx7_setup, .-mtx7_setup
 371              		.section	.text.mtx6_setup,"ax",%progbits
 372              		.align	2
 373              		.type	mtx6_setup, %function
 374              	mtx6_setup:
 375              	.LFB28:
 376              		.loc 1 479 0
 377              		.cfi_startproc
 378              		@ args = 0, pretend = 0, frame = 0
 379              		@ frame_needed = 0, uses_anonymous_args = 0
 380 0000 08402DE9 		stmfd	sp!, {r3, lr}
 381              	.LCFI8:
 382              		.cfi_def_cfa_offset 8
 383              		.cfi_offset 3, -8
 384              		.cfi_offset 14, -4
 385              		.loc 1 481 0
 386 0004 0C009FE5 		ldr	r0, .L23
 387 0008 FEFFFFEB 		bl	chCondInit
 388              	.LVL38:
 389              		.loc 1 482 0
 390 000c 08009FE5 		ldr	r0, .L23+4
 391              		.loc 1 483 0
 392 0010 0840BDE8 		ldmfd	sp!, {r3, lr}
 393              		.loc 1 482 0
 394 0014 FEFFFFEA 		b	chMtxInit
 395              	.LVL39:
 396              	.L24:
 397              		.align	2
 398              	.L23:
 399 0018 00000000 		.word	.LANCHOR0
ARM GAS  C:\Users\NICOMA~1\AppData\Local\Temp\ccD2qZHI.s 			page 8


 400 001c 00000000 		.word	.LANCHOR2
 401              		.cfi_endproc
 402              	.LFE28:
 403              		.size	mtx6_setup, .-mtx6_setup
 404              		.section	.text.mtx5_setup,"ax",%progbits
 405              		.align	2
 406              		.type	mtx5_setup, %function
 407              	mtx5_setup:
 408              	.LFB26:
 409              		.loc 1 429 0
 410              		.cfi_startproc
 411              		@ args = 0, pretend = 0, frame = 0
 412              		@ frame_needed = 0, uses_anonymous_args = 0
 413              		@ link register save eliminated.
 414              		.loc 1 431 0
 415 0000 00009FE5 		ldr	r0, .L26
 416              		.loc 1 432 0
 417              		.loc 1 431 0
 418 0004 FEFFFFEA 		b	chMtxInit
 419              	.LVL40:
 420              	.L27:
 421              		.align	2
 422              	.L26:
 423 0008 00000000 		.word	.LANCHOR2
 424              		.cfi_endproc
 425              	.LFE26:
 426              		.size	mtx5_setup, .-mtx5_setup
 427              		.section	.text.mtx4_setup,"ax",%progbits
 428              		.align	2
 429              		.type	mtx4_setup, %function
 430              	mtx4_setup:
 431              	.LFB22:
 432              		.loc 1 341 0
 433              		.cfi_startproc
 434              		@ args = 0, pretend = 0, frame = 0
 435              		@ frame_needed = 0, uses_anonymous_args = 0
 436 0000 08402DE9 		stmfd	sp!, {r3, lr}
 437              	.LCFI9:
 438              		.cfi_def_cfa_offset 8
 439              		.cfi_offset 3, -8
 440              		.cfi_offset 14, -4
 441              		.loc 1 343 0
 442 0004 0C009FE5 		ldr	r0, .L29
 443 0008 FEFFFFEB 		bl	chMtxInit
 444              	.LVL41:
 445              		.loc 1 344 0
 446 000c 08009FE5 		ldr	r0, .L29+4
 447              		.loc 1 345 0
 448 0010 0840BDE8 		ldmfd	sp!, {r3, lr}
 449              		.loc 1 344 0
 450 0014 FEFFFFEA 		b	chMtxInit
 451              	.LVL42:
 452              	.L30:
 453              		.align	2
 454              	.L29:
 455 0018 00000000 		.word	.LANCHOR2
 456 001c 00000000 		.word	.LANCHOR1
ARM GAS  C:\Users\NICOMA~1\AppData\Local\Temp\ccD2qZHI.s 			page 9


 457              		.cfi_endproc
 458              	.LFE22:
 459              		.size	mtx4_setup, .-mtx4_setup
 460              		.section	.text.mtx3_setup,"ax",%progbits
 461              		.align	2
 462              		.type	mtx3_setup, %function
 463              	mtx3_setup:
 464              	.LFB15:
 465              		.loc 1 241 0
 466              		.cfi_startproc
 467              		@ args = 0, pretend = 0, frame = 0
 468              		@ frame_needed = 0, uses_anonymous_args = 0
 469 0000 08402DE9 		stmfd	sp!, {r3, lr}
 470              	.LCFI10:
 471              		.cfi_def_cfa_offset 8
 472              		.cfi_offset 3, -8
 473              		.cfi_offset 14, -4
 474              		.loc 1 243 0
 475 0004 0C009FE5 		ldr	r0, .L32
 476 0008 FEFFFFEB 		bl	chMtxInit
 477              	.LVL43:
 478              		.loc 1 244 0
 479 000c 08009FE5 		ldr	r0, .L32+4
 480              		.loc 1 245 0
 481 0010 0840BDE8 		ldmfd	sp!, {r3, lr}
 482              		.loc 1 244 0
 483 0014 FEFFFFEA 		b	chMtxInit
 484              	.LVL44:
 485              	.L33:
 486              		.align	2
 487              	.L32:
 488 0018 00000000 		.word	.LANCHOR2
 489 001c 00000000 		.word	.LANCHOR1
 490              		.cfi_endproc
 491              	.LFE15:
 492              		.size	mtx3_setup, .-mtx3_setup
 493              		.section	.text.mtx2_setup,"ax",%progbits
 494              		.align	2
 495              		.type	mtx2_setup, %function
 496              	mtx2_setup:
 497              	.LFB10:
 498              		.loc 1 151 0
 499              		.cfi_startproc
 500              		@ args = 0, pretend = 0, frame = 0
 501              		@ frame_needed = 0, uses_anonymous_args = 0
 502              		@ link register save eliminated.
 503              		.loc 1 153 0
 504 0000 00009FE5 		ldr	r0, .L35
 505              		.loc 1 154 0
 506              		.loc 1 153 0
 507 0004 FEFFFFEA 		b	chMtxInit
 508              	.LVL45:
 509              	.L36:
 510              		.align	2
 511              	.L35:
 512 0008 00000000 		.word	.LANCHOR2
 513              		.cfi_endproc
ARM GAS  C:\Users\NICOMA~1\AppData\Local\Temp\ccD2qZHI.s 			page 10


 514              	.LFE10:
 515              		.size	mtx2_setup, .-mtx2_setup
 516              		.section	.text.mtx1_setup,"ax",%progbits
 517              		.align	2
 518              		.type	mtx1_setup, %function
 519              	mtx1_setup:
 520              	.LFB7:
 521              		.loc 1 84 0
 522              		.cfi_startproc
 523              		@ args = 0, pretend = 0, frame = 0
 524              		@ frame_needed = 0, uses_anonymous_args = 0
 525              		@ link register save eliminated.
 526              		.loc 1 86 0
 527 0000 00009FE5 		ldr	r0, .L38
 528              		.loc 1 87 0
 529              		.loc 1 86 0
 530 0004 FEFFFFEA 		b	chMtxInit
 531              	.LVL46:
 532              	.L39:
 533              		.align	2
 534              	.L38:
 535 0008 00000000 		.word	.LANCHOR2
 536              		.cfi_endproc
 537              	.LFE7:
 538              		.size	mtx1_setup, .-mtx1_setup
 539              		.section	.text.mtx7_execute,"ax",%progbits
 540              		.align	2
 541              		.type	mtx7_execute, %function
 542              	mtx7_execute:
 543              	.LFB32:
 544              		.loc 1 537 0
 545              		.cfi_startproc
 546              		@ args = 0, pretend = 0, frame = 0
 547              		@ frame_needed = 0, uses_anonymous_args = 0
 548 0000 F0402DE9 		stmfd	sp!, {r4, r5, r6, r7, lr}
 549              	.LCFI11:
 550              		.cfi_def_cfa_offset 20
 551              		.cfi_offset 4, -20
 552              		.cfi_offset 5, -16
 553              		.cfi_offset 6, -12
 554              		.cfi_offset 7, -8
 555              		.cfi_offset 14, -4
 556              		.loc 1 539 0
 557 0004 E4309FE5 		ldr	r3, .L41
 558              		.loc 1 540 0
 559 0008 E4709FE5 		ldr	r7, .L41+4
 560              		.loc 1 539 0
 561 000c 183093E5 		ldr	r3, [r3, #24]
 562              		.loc 1 540 0
 563 0010 E0509FE5 		ldr	r5, .L41+8
 564              		.loc 1 539 0
 565 0014 086093E5 		ldr	r6, [r3, #8]
 566              	.LVL47:
 567              		.loc 1 540 0
 568 0018 DCC09FE5 		ldr	ip, .L41+12
 569              		.loc 1 537 0
 570 001c 0CD04DE2 		sub	sp, sp, #12
ARM GAS  C:\Users\NICOMA~1\AppData\Local\Temp\ccD2qZHI.s 			page 11


 571              	.LCFI12:
 572              		.cfi_def_cfa_offset 32
 573              		.loc 1 540 0
 574 0020 012086E2 		add	r2, r6, #1
 575 0024 0530A0E1 		mov	r3, r5
 576 0028 00C08DE5 		str	ip, [sp, #0]
 577 002c 000097E5 		ldr	r0, [r7, #0]
 578 0030 461FA0E3 		mov	r1, #280
 579 0034 FEFFFFEB 		bl	chThdCreateStatic
 580              	.LVL48:
 581 0038 C0409FE5 		ldr	r4, .L41+16
 582              		.loc 1 541 0
 583 003c 04C097E5 		ldr	ip, [r7, #4]
 584              		.loc 1 540 0
 585 0040 000084E5 		str	r0, [r4, #0]
 586              		.loc 1 541 0
 587 0044 B8009FE5 		ldr	r0, .L41+20
 588 0048 022086E2 		add	r2, r6, #2
 589 004c 0530A0E1 		mov	r3, r5
 590 0050 00008DE5 		str	r0, [sp, #0]
 591 0054 461FA0E3 		mov	r1, #280
 592 0058 0C00A0E1 		mov	r0, ip
 593 005c FEFFFFEB 		bl	chThdCreateStatic
 594              	.LVL49:
 595              		.loc 1 542 0
 596 0060 08C097E5 		ldr	ip, [r7, #8]
 597              		.loc 1 541 0
 598 0064 040084E5 		str	r0, [r4, #4]
 599              		.loc 1 542 0
 600 0068 98009FE5 		ldr	r0, .L41+24
 601 006c 032086E2 		add	r2, r6, #3
 602 0070 0530A0E1 		mov	r3, r5
 603 0074 00008DE5 		str	r0, [sp, #0]
 604 0078 461FA0E3 		mov	r1, #280
 605 007c 0C00A0E1 		mov	r0, ip
 606 0080 FEFFFFEB 		bl	chThdCreateStatic
 607              	.LVL50:
 608              		.loc 1 543 0
 609 0084 0CC097E5 		ldr	ip, [r7, #12]
 610              		.loc 1 542 0
 611 0088 080084E5 		str	r0, [r4, #8]
 612              		.loc 1 543 0
 613 008c 78009FE5 		ldr	r0, .L41+28
 614 0090 042086E2 		add	r2, r6, #4
 615 0094 0530A0E1 		mov	r3, r5
 616 0098 00008DE5 		str	r0, [sp, #0]
 617 009c 461FA0E3 		mov	r1, #280
 618 00a0 0C00A0E1 		mov	r0, ip
 619 00a4 FEFFFFEB 		bl	chThdCreateStatic
 620              	.LVL51:
 621              		.loc 1 544 0
 622 00a8 10C097E5 		ldr	ip, [r7, #16]
 623              		.loc 1 543 0
 624 00ac 0C0084E5 		str	r0, [r4, #12]
 625              		.loc 1 544 0
 626 00b0 58009FE5 		ldr	r0, .L41+32
 627 00b4 461FA0E3 		mov	r1, #280
ARM GAS  C:\Users\NICOMA~1\AppData\Local\Temp\ccD2qZHI.s 			page 12


 628 00b8 052086E2 		add	r2, r6, #5
 629 00bc 0530A0E1 		mov	r3, r5
 630 00c0 00008DE5 		str	r0, [sp, #0]
 631 00c4 0C00A0E1 		mov	r0, ip
 632 00c8 FEFFFFEB 		bl	chThdCreateStatic
 633              	.LVL52:
 634 00cc 100084E5 		str	r0, [r4, #16]
 635              		.loc 1 545 0
 636 00d0 3C009FE5 		ldr	r0, .L41+36
 637 00d4 FEFFFFEB 		bl	chCondBroadcast
 638              	.LVL53:
 639              		.loc 1 546 0
 640 00d8 FEFFFFEB 		bl	test_wait_threads
 641              	.LVL54:
 642              		.loc 1 547 0
 643 00dc 34109FE5 		ldr	r1, .L41+40
 644 00e0 0100A0E3 		mov	r0, #1
 645              		.loc 1 548 0
 646 00e4 0CD08DE2 		add	sp, sp, #12
 647 00e8 F040BDE8 		ldmfd	sp!, {r4, r5, r6, r7, lr}
 648              		.loc 1 547 0
 649 00ec FEFFFFEA 		b	_test_assert_sequence
 650              	.LVL55:
 651              	.L42:
 652              		.align	2
 653              	.L41:
 654 00f0 00000000 		.word	rlist
 655 00f4 00000000 		.word	wa
 656 00f8 00000000 		.word	thread10
 657 00fc 10000000 		.word	.LC4
 658 0100 00000000 		.word	threads
 659 0104 14000000 		.word	.LC5
 660 0108 04000000 		.word	.LC1
 661 010c 08000000 		.word	.LC2
 662 0110 00000000 		.word	.LC0
 663 0114 00000000 		.word	.LANCHOR0
 664 0118 18000000 		.word	.LC6
 665              		.cfi_endproc
 666              	.LFE32:
 667              		.size	mtx7_execute, .-mtx7_execute
 668              		.section	.text.mtx6_execute,"ax",%progbits
 669              		.align	2
 670              		.type	mtx6_execute, %function
 671              	mtx6_execute:
 672              	.LFB30:
 673              		.loc 1 494 0
 674              		.cfi_startproc
 675              		@ args = 0, pretend = 0, frame = 0
 676              		@ frame_needed = 0, uses_anonymous_args = 0
 677 0000 F0402DE9 		stmfd	sp!, {r4, r5, r6, r7, lr}
 678              	.LCFI13:
 679              		.cfi_def_cfa_offset 20
 680              		.cfi_offset 4, -20
 681              		.cfi_offset 5, -16
 682              		.cfi_offset 6, -12
 683              		.cfi_offset 7, -8
 684              		.cfi_offset 14, -4
ARM GAS  C:\Users\NICOMA~1\AppData\Local\Temp\ccD2qZHI.s 			page 13


 685              		.loc 1 496 0
 686 0004 14319FE5 		ldr	r3, .L44
 687              		.loc 1 497 0
 688 0008 14719FE5 		ldr	r7, .L44+4
 689              		.loc 1 496 0
 690 000c 183093E5 		ldr	r3, [r3, #24]
 691              		.loc 1 497 0
 692 0010 10519FE5 		ldr	r5, .L44+8
 693              		.loc 1 496 0
 694 0014 086093E5 		ldr	r6, [r3, #8]
 695              	.LVL56:
 696              		.loc 1 497 0
 697 0018 0C119FE5 		ldr	r1, .L44+12
 698              		.loc 1 494 0
 699 001c 0CD04DE2 		sub	sp, sp, #12
 700              	.LCFI14:
 701              		.cfi_def_cfa_offset 32
 702              		.loc 1 497 0
 703 0020 012086E2 		add	r2, r6, #1
 704 0024 0530A0E1 		mov	r3, r5
 705 0028 00108DE5 		str	r1, [sp, #0]
 706 002c 000097E5 		ldr	r0, [r7, #0]
 707 0030 461FA0E3 		mov	r1, #280
 708 0034 FEFFFFEB 		bl	chThdCreateStatic
 709              	.LVL57:
 710 0038 F0409FE5 		ldr	r4, .L44+16
 711              		.loc 1 498 0
 712 003c 041097E5 		ldr	r1, [r7, #4]
 713              		.loc 1 497 0
 714 0040 000084E5 		str	r0, [r4, #0]
 715              		.loc 1 498 0
 716 0044 E8009FE5 		ldr	r0, .L44+20
 717 0048 022086E2 		add	r2, r6, #2
 718 004c 0530A0E1 		mov	r3, r5
 719 0050 00008DE5 		str	r0, [sp, #0]
 720 0054 0100A0E1 		mov	r0, r1
 721 0058 461FA0E3 		mov	r1, #280
 722 005c FEFFFFEB 		bl	chThdCreateStatic
 723              	.LVL58:
 724              		.loc 1 499 0
 725 0060 081097E5 		ldr	r1, [r7, #8]
 726              		.loc 1 498 0
 727 0064 040084E5 		str	r0, [r4, #4]
 728              		.loc 1 499 0
 729 0068 C8009FE5 		ldr	r0, .L44+24
 730 006c 032086E2 		add	r2, r6, #3
 731 0070 0530A0E1 		mov	r3, r5
 732 0074 00008DE5 		str	r0, [sp, #0]
 733 0078 0100A0E1 		mov	r0, r1
 734 007c 461FA0E3 		mov	r1, #280
 735 0080 FEFFFFEB 		bl	chThdCreateStatic
 736              	.LVL59:
 737              		.loc 1 500 0
 738 0084 0C1097E5 		ldr	r1, [r7, #12]
 739              		.loc 1 499 0
 740 0088 080084E5 		str	r0, [r4, #8]
 741              		.loc 1 500 0
ARM GAS  C:\Users\NICOMA~1\AppData\Local\Temp\ccD2qZHI.s 			page 14


 742 008c A8009FE5 		ldr	r0, .L44+28
 743 0090 042086E2 		add	r2, r6, #4
 744 0094 0530A0E1 		mov	r3, r5
 745 0098 00008DE5 		str	r0, [sp, #0]
 746 009c 0100A0E1 		mov	r0, r1
 747 00a0 461FA0E3 		mov	r1, #280
 748 00a4 FEFFFFEB 		bl	chThdCreateStatic
 749              	.LVL60:
 750              		.loc 1 501 0
 751 00a8 103097E5 		ldr	r3, [r7, #16]
 752 00ac 8C209FE5 		ldr	r2, .L44+32
 753              		.loc 1 500 0
 754 00b0 0C0084E5 		str	r0, [r4, #12]
 755              		.loc 1 501 0
 756 00b4 461FA0E3 		mov	r1, #280
 757 00b8 00208DE5 		str	r2, [sp, #0]
 758 00bc 0300A0E1 		mov	r0, r3
 759 00c0 052086E2 		add	r2, r6, #5
 760 00c4 0530A0E1 		mov	r3, r5
 761 00c8 FEFFFFEB 		bl	chThdCreateStatic
 762              	.LVL61:
 763 00cc 100084E5 		str	r0, [r4, #16]
 764              		.loc 1 502 0
 765              	@ 502 "../../test/testmtx.c" 1
 766 00d0 9FF021E3 		msr     CPSR_c, #0x9F
 767              	@ 0 "" 2
 768              		.loc 1 503 0
 769 00d4 68409FE5 		ldr	r4, .L44+36
 770 00d8 0400A0E1 		mov	r0, r4
 771 00dc FEFFFFEB 		bl	chCondSignalI
 772              	.LVL62:
 773              		.loc 1 504 0
 774 00e0 0400A0E1 		mov	r0, r4
 775 00e4 FEFFFFEB 		bl	chCondSignalI
 776              	.LVL63:
 777              		.loc 1 505 0
 778 00e8 0400A0E1 		mov	r0, r4
 779 00ec FEFFFFEB 		bl	chCondSignalI
 780              	.LVL64:
 781              		.loc 1 506 0
 782 00f0 0400A0E1 		mov	r0, r4
 783 00f4 FEFFFFEB 		bl	chCondSignalI
 784              	.LVL65:
 785              		.loc 1 507 0
 786 00f8 0400A0E1 		mov	r0, r4
 787 00fc FEFFFFEB 		bl	chCondSignalI
 788              	.LVL66:
 789              		.loc 1 508 0
 790 0100 FEFFFFEB 		bl	chSchRescheduleS
 791              	.LVL67:
 792              		.loc 1 509 0
 793              	@ 509 "../../test/testmtx.c" 1
 794 0104 1FF021E3 		msr     CPSR_c, #0x1F
 795              	@ 0 "" 2
 796              		.loc 1 510 0
 797 0108 FEFFFFEB 		bl	test_wait_threads
 798              	.LVL68:
ARM GAS  C:\Users\NICOMA~1\AppData\Local\Temp\ccD2qZHI.s 			page 15


 799              		.loc 1 511 0
 800 010c 34109FE5 		ldr	r1, .L44+40
 801 0110 0100A0E3 		mov	r0, #1
 802              		.loc 1 512 0
 803 0114 0CD08DE2 		add	sp, sp, #12
 804 0118 F040BDE8 		ldmfd	sp!, {r4, r5, r6, r7, lr}
 805              		.loc 1 511 0
 806 011c FEFFFFEA 		b	_test_assert_sequence
 807              	.LVL69:
 808              	.L45:
 809              		.align	2
 810              	.L44:
 811 0120 00000000 		.word	rlist
 812 0124 00000000 		.word	wa
 813 0128 00000000 		.word	thread10
 814 012c 10000000 		.word	.LC4
 815 0130 00000000 		.word	threads
 816 0134 14000000 		.word	.LC5
 817 0138 04000000 		.word	.LC1
 818 013c 08000000 		.word	.LC2
 819 0140 00000000 		.word	.LC0
 820 0144 00000000 		.word	.LANCHOR0
 821 0148 18000000 		.word	.LC6
 822              		.cfi_endproc
 823              	.LFE30:
 824              		.size	mtx6_execute, .-mtx6_execute
 825              		.section	.text.mtx1_execute,"ax",%progbits
 826              		.align	2
 827              		.type	mtx1_execute, %function
 828              	mtx1_execute:
 829              	.LFB9:
 830              		.loc 1 97 0
 831              		.cfi_startproc
 832              		@ args = 0, pretend = 0, frame = 0
 833              		@ frame_needed = 0, uses_anonymous_args = 0
 834 0000 F0402DE9 		stmfd	sp!, {r4, r5, r6, r7, lr}
 835              	.LCFI15:
 836              		.cfi_def_cfa_offset 20
 837              		.cfi_offset 4, -20
 838              		.cfi_offset 5, -16
 839              		.cfi_offset 6, -12
 840              		.cfi_offset 7, -8
 841              		.cfi_offset 14, -4
 842              		.loc 1 99 0
 843 0004 10719FE5 		ldr	r7, .L50
 844              		.loc 1 97 0
 845 0008 0CD04DE2 		sub	sp, sp, #12
 846              	.LCFI16:
 847              		.cfi_def_cfa_offset 32
 848              		.loc 1 99 0
 849 000c 183097E5 		ldr	r3, [r7, #24]
 850              		.loc 1 100 0
 851 0010 08019FE5 		ldr	r0, .L50+4
 852              		.loc 1 99 0
 853 0014 084093E5 		ldr	r4, [r3, #8]
 854              	.LVL70:
 855              		.loc 1 101 0
ARM GAS  C:\Users\NICOMA~1\AppData\Local\Temp\ccD2qZHI.s 			page 16


 856 0018 04619FE5 		ldr	r6, .L50+8
 857              		.loc 1 100 0
 858 001c FEFFFFEB 		bl	chMtxLock
 859              	.LVL71:
 860              		.loc 1 101 0
 861 0020 00C19FE5 		ldr	ip, .L50+12
 862 0024 461FA0E3 		mov	r1, #280
 863 0028 012084E2 		add	r2, r4, #1
 864 002c F8309FE5 		ldr	r3, .L50+16
 865 0030 00C08DE5 		str	ip, [sp, #0]
 866 0034 000096E5 		ldr	r0, [r6, #0]
 867 0038 FEFFFFEB 		bl	chThdCreateStatic
 868              	.LVL72:
 869 003c EC509FE5 		ldr	r5, .L50+20
 870              		.loc 1 102 0
 871 0040 04C096E5 		ldr	ip, [r6, #4]
 872              		.loc 1 101 0
 873 0044 000085E5 		str	r0, [r5, #0]
 874              		.loc 1 102 0
 875 0048 E4009FE5 		ldr	r0, .L50+24
 876 004c 461FA0E3 		mov	r1, #280
 877 0050 022084E2 		add	r2, r4, #2
 878 0054 D0309FE5 		ldr	r3, .L50+16
 879 0058 00008DE5 		str	r0, [sp, #0]
 880 005c 0C00A0E1 		mov	r0, ip
 881 0060 FEFFFFEB 		bl	chThdCreateStatic
 882              	.LVL73:
 883              		.loc 1 103 0
 884 0064 08C096E5 		ldr	ip, [r6, #8]
 885              		.loc 1 102 0
 886 0068 040085E5 		str	r0, [r5, #4]
 887              		.loc 1 103 0
 888 006c C4009FE5 		ldr	r0, .L50+28
 889 0070 461FA0E3 		mov	r1, #280
 890 0074 032084E2 		add	r2, r4, #3
 891 0078 AC309FE5 		ldr	r3, .L50+16
 892 007c 00008DE5 		str	r0, [sp, #0]
 893 0080 0C00A0E1 		mov	r0, ip
 894 0084 FEFFFFEB 		bl	chThdCreateStatic
 895              	.LVL74:
 896              		.loc 1 104 0
 897 0088 0CC096E5 		ldr	ip, [r6, #12]
 898              		.loc 1 103 0
 899 008c 080085E5 		str	r0, [r5, #8]
 900              		.loc 1 104 0
 901 0090 A4009FE5 		ldr	r0, .L50+32
 902 0094 461FA0E3 		mov	r1, #280
 903 0098 042084E2 		add	r2, r4, #4
 904 009c 88309FE5 		ldr	r3, .L50+16
 905 00a0 00008DE5 		str	r0, [sp, #0]
 906 00a4 0C00A0E1 		mov	r0, ip
 907 00a8 FEFFFFEB 		bl	chThdCreateStatic
 908              	.LVL75:
 909              		.loc 1 105 0
 910 00ac 10C096E5 		ldr	ip, [r6, #16]
 911              		.loc 1 104 0
 912 00b0 0C0085E5 		str	r0, [r5, #12]
ARM GAS  C:\Users\NICOMA~1\AppData\Local\Temp\ccD2qZHI.s 			page 17


 913              		.loc 1 105 0
 914 00b4 84009FE5 		ldr	r0, .L50+36
 915 00b8 461FA0E3 		mov	r1, #280
 916 00bc 052084E2 		add	r2, r4, #5
 917 00c0 64309FE5 		ldr	r3, .L50+16
 918 00c4 00008DE5 		str	r0, [sp, #0]
 919 00c8 0C00A0E1 		mov	r0, ip
 920 00cc FEFFFFEB 		bl	chThdCreateStatic
 921              	.LVL76:
 922 00d0 100085E5 		str	r0, [r5, #16]
 923              		.loc 1 106 0
 924 00d4 FEFFFFEB 		bl	chMtxUnlock
 925              	.LVL77:
 926              		.loc 1 107 0
 927 00d8 FEFFFFEB 		bl	test_wait_threads
 928              	.LVL78:
 929              		.loc 1 108 0
 930 00dc 183097E5 		ldr	r3, [r7, #24]
 931 00e0 0100A0E3 		mov	r0, #1
 932 00e4 081093E5 		ldr	r1, [r3, #8]
 933 00e8 043051E0 		subs	r3, r1, r4
 934 00ec 001073E2 		rsbs	r1, r3, #0
 935 00f0 0310B1E0 		adcs	r1, r1, r3
 936 00f4 FEFFFFEB 		bl	_test_assert
 937              	.LVL79:
 938 00f8 000050E3 		cmp	r0, #0
 939 00fc 0100000A 		beq	.L49
 940              		.loc 1 110 0
 941 0100 0CD08DE2 		add	sp, sp, #12
 942 0104 F080BDE8 		ldmfd	sp!, {r4, r5, r6, r7, pc}
 943              	.L49:
 944              		.loc 1 109 0
 945 0108 34109FE5 		ldr	r1, .L50+40
 946 010c 0200A0E3 		mov	r0, #2
 947              		.loc 1 110 0
 948 0110 0CD08DE2 		add	sp, sp, #12
 949 0114 F040BDE8 		ldmfd	sp!, {r4, r5, r6, r7, lr}
 950              		.loc 1 109 0
 951 0118 FEFFFFEA 		b	_test_assert_sequence
 952              	.LVL80:
 953              	.L51:
 954              		.align	2
 955              	.L50:
 956 011c 00000000 		.word	rlist
 957 0120 00000000 		.word	.LANCHOR2
 958 0124 00000000 		.word	wa
 959 0128 10000000 		.word	.LC4
 960 012c 00000000 		.word	thread1
 961 0130 00000000 		.word	threads
 962 0134 14000000 		.word	.LC5
 963 0138 04000000 		.word	.LC1
 964 013c 08000000 		.word	.LC2
 965 0140 00000000 		.word	.LC0
 966 0144 18000000 		.word	.LC6
 967              		.cfi_endproc
 968              	.LFE9:
 969              		.size	mtx1_execute, .-mtx1_execute
ARM GAS  C:\Users\NICOMA~1\AppData\Local\Temp\ccD2qZHI.s 			page 18


 970              		.section	.text.mtx5_execute,"ax",%progbits
 971              		.align	2
 972              		.type	mtx5_execute, %function
 973              	mtx5_execute:
 974              	.LFB27:
 975              		.loc 1 434 0
 976              		.cfi_startproc
 977              		@ args = 0, pretend = 0, frame = 0
 978              		@ frame_needed = 0, uses_anonymous_args = 0
 979 0000 70402DE9 		stmfd	sp!, {r4, r5, r6, lr}
 980              	.LCFI17:
 981              		.cfi_def_cfa_offset 16
 982              		.cfi_offset 4, -16
 983              		.cfi_offset 5, -12
 984              		.cfi_offset 6, -8
 985              		.cfi_offset 14, -4
 986              		.loc 1 438 0
 987 0004 F4509FE5 		ldr	r5, .L56
 988              		.loc 1 440 0
 989 0008 F4409FE5 		ldr	r4, .L56+4
 990              		.loc 1 438 0
 991 000c 183095E5 		ldr	r3, [r5, #24]
 992              		.loc 1 440 0
 993 0010 0400A0E1 		mov	r0, r4
 994              		.loc 1 438 0
 995 0014 086093E5 		ldr	r6, [r3, #8]
 996              	.LVL81:
 997              		.loc 1 440 0
 998 0018 FEFFFFEB 		bl	chMtxTryLock
 999              	.LVL82:
 1000              		.loc 1 441 0
 1001 001c 0010A0E1 		mov	r1, r0
 1002 0020 0100A0E3 		mov	r0, #1
 1003              	.LVL83:
 1004 0024 FEFFFFEB 		bl	_test_assert
 1005              	.LVL84:
 1006 0028 000050E3 		cmp	r0, #0
 1007 002c 7080BD18 		ldmnefd	sp!, {r4, r5, r6, pc}
 1008              		.loc 1 443 0
 1009 0030 0400A0E1 		mov	r0, r4
 1010 0034 FEFFFFEB 		bl	chMtxTryLock
 1011              	.LVL85:
 1012              		.loc 1 444 0
 1013 0038 011020E2 		eor	r1, r0, #1
 1014 003c 7110EFE6 		uxtb	r1, r1
 1015 0040 0200A0E3 		mov	r0, #2
 1016              	.LVL86:
 1017 0044 FEFFFFEB 		bl	_test_assert
 1018              	.LVL87:
 1019 0048 000050E3 		cmp	r0, #0
 1020 004c 7080BD18 		ldmnefd	sp!, {r4, r5, r6, pc}
 1021              		.loc 1 446 0
 1022              	@ 446 "../../test/testmtx.c" 1
 1023 0050 9FF021E3 		msr     CPSR_c, #0x9F
 1024              	@ 0 "" 2
 1025              		.loc 1 447 0
 1026 0054 FEFFFFEB 		bl	chMtxUnlockS
ARM GAS  C:\Users\NICOMA~1\AppData\Local\Temp\ccD2qZHI.s 			page 19


 1027              	.LVL88:
 1028              		.loc 1 448 0
 1029              	@ 448 "../../test/testmtx.c" 1
 1030 0058 1FF021E3 		msr     CPSR_c, #0x1F
 1031              	@ 0 "" 2
 1032              		.loc 1 450 0
 1033 005c 001094E5 		ldr	r1, [r4, #0]
 1034 0060 0300A0E3 		mov	r0, #3
 1035 0064 04E051E0 		subs	lr, r1, r4
 1036 0068 00107EE2 		rsbs	r1, lr, #0
 1037 006c 0E10B1E0 		adcs	r1, r1, lr
 1038 0070 FEFFFFEB 		bl	_test_assert
 1039              	.LVL89:
 1040 0074 000050E3 		cmp	r0, #0
 1041 0078 7080BD18 		ldmnefd	sp!, {r4, r5, r6, pc}
 1042              		.loc 1 451 0
 1043 007c 081094E5 		ldr	r1, [r4, #8]
 1044 0080 0400A0E3 		mov	r0, #4
 1045 0084 011071E2 		rsbs	r1, r1, #1
 1046 0088 0010A033 		movcc	r1, #0
 1047 008c FEFFFFEB 		bl	_test_assert
 1048              	.LVL90:
 1049 0090 000050E3 		cmp	r0, #0
 1050 0094 7080BD18 		ldmnefd	sp!, {r4, r5, r6, pc}
 1051              		.loc 1 452 0
 1052 0098 183095E5 		ldr	r3, [r5, #24]
 1053 009c 0500A0E3 		mov	r0, #5
 1054 00a0 081093E5 		ldr	r1, [r3, #8]
 1055 00a4 06C051E0 		subs	ip, r1, r6
 1056 00a8 00107CE2 		rsbs	r1, ip, #0
 1057 00ac 0C10B1E0 		adcs	r1, r1, ip
 1058 00b0 FEFFFFEB 		bl	_test_assert
 1059              	.LVL91:
 1060 00b4 000050E3 		cmp	r0, #0
 1061 00b8 7080BD18 		ldmnefd	sp!, {r4, r5, r6, pc}
 1062              		.loc 1 454 0
 1063 00bc 0400A0E1 		mov	r0, r4
 1064 00c0 FEFFFFEB 		bl	chMtxLock
 1065              	.LVL92:
 1066              		.loc 1 455 0
 1067 00c4 FEFFFFEB 		bl	chMtxUnlockAll
 1068              	.LVL93:
 1069              		.loc 1 456 0
 1070 00c8 001094E5 		ldr	r1, [r4, #0]
 1071 00cc 0600A0E3 		mov	r0, #6
 1072 00d0 042051E0 		subs	r2, r1, r4
 1073 00d4 001072E2 		rsbs	r1, r2, #0
 1074 00d8 0210B1E0 		adcs	r1, r1, r2
 1075 00dc FEFFFFEB 		bl	_test_assert
 1076              	.LVL94:
 1077 00e0 000050E3 		cmp	r0, #0
 1078 00e4 7080BD18 		ldmnefd	sp!, {r4, r5, r6, pc}
 1079              		.loc 1 457 0
 1080 00e8 081094E5 		ldr	r1, [r4, #8]
 1081 00ec 0700A0E3 		mov	r0, #7
 1082 00f0 011071E2 		rsbs	r1, r1, #1
 1083 00f4 0010A033 		movcc	r1, #0
ARM GAS  C:\Users\NICOMA~1\AppData\Local\Temp\ccD2qZHI.s 			page 20


 1084              		.loc 1 458 0
 1085 00f8 7040BDE8 		ldmfd	sp!, {r4, r5, r6, lr}
 1086              		.loc 1 457 0
 1087 00fc FEFFFFEA 		b	_test_assert
 1088              	.LVL95:
 1089              	.L57:
 1090              		.align	2
 1091              	.L56:
 1092 0100 00000000 		.word	rlist
 1093 0104 00000000 		.word	.LANCHOR2
 1094              		.cfi_endproc
 1095              	.LFE27:
 1096              		.size	mtx5_execute, .-mtx5_execute
 1097              		.section	.text.mtx4_execute,"ax",%progbits
 1098              		.align	2
 1099              		.type	mtx4_execute, %function
 1100              	mtx4_execute:
 1101              	.LFB25:
 1102              		.loc 1 365 0
 1103              		.cfi_startproc
 1104              		@ args = 0, pretend = 0, frame = 0
 1105              		@ frame_needed = 0, uses_anonymous_args = 0
 1106 0000 F0472DE9 		stmfd	sp!, {r4, r5, r6, r7, r8, r9, sl, lr}
 1107              	.LCFI18:
 1108              		.cfi_def_cfa_offset 32
 1109              		.cfi_offset 4, -32
 1110              		.cfi_offset 5, -28
 1111              		.cfi_offset 6, -24
 1112              		.cfi_offset 7, -20
 1113              		.cfi_offset 8, -16
 1114              		.cfi_offset 9, -12
 1115              		.cfi_offset 10, -8
 1116              		.cfi_offset 14, -4
 1117              		.loc 1 368 0
 1118 0004 1C539FE5 		ldr	r5, .L63
 1119              		.loc 1 371 0
 1120 0008 1C739FE5 		ldr	r7, .L63+4
 1121              		.loc 1 368 0
 1122 000c 183095E5 		ldr	r3, [r5, #24]
 1123              		.loc 1 371 0
 1124 0010 009097E5 		ldr	r9, [r7, #0]
 1125              		.loc 1 368 0
 1126 0014 084093E5 		ldr	r4, [r3, #8]
 1127              	.LVL96:
 1128              		.loc 1 371 0
 1129 0018 10039FE5 		ldr	r0, .L63+8
 1130              		.loc 1 365 0
 1131 001c 08D04DE2 		sub	sp, sp, #8
 1132              	.LCFI19:
 1133              		.cfi_def_cfa_offset 40
 1134              		.loc 1 369 0
 1135 0020 018084E2 		add	r8, r4, #1
 1136              	.LVL97:
 1137              		.loc 1 371 0
 1138 0024 461FA0E3 		mov	r1, #280
 1139 0028 0820A0E1 		mov	r2, r8
 1140 002c 00339FE5 		ldr	r3, .L63+12
ARM GAS  C:\Users\NICOMA~1\AppData\Local\Temp\ccD2qZHI.s 			page 21


 1141 0030 00008DE5 		str	r0, [sp, #0]
 1142 0034 0900A0E1 		mov	r0, r9
 1143 0038 FEFFFFEB 		bl	chThdCreateStatic
 1144              	.LVL98:
 1145 003c F4629FE5 		ldr	r6, .L63+16
 1146              		.loc 1 372 0
 1147 0040 04A097E5 		ldr	sl, [r7, #4]
 1148              		.loc 1 371 0
 1149 0044 000086E5 		str	r0, [r6, #0]
 1150              		.loc 1 372 0
 1151 0048 EC029FE5 		ldr	r0, .L63+20
 1152              		.loc 1 370 0
 1153 004c 027084E2 		add	r7, r4, #2
 1154              	.LVL99:
 1155              		.loc 1 372 0
 1156 0050 461FA0E3 		mov	r1, #280
 1157 0054 0720A0E1 		mov	r2, r7
 1158 0058 E0329FE5 		ldr	r3, .L63+24
 1159 005c 00008DE5 		str	r0, [sp, #0]
 1160 0060 0A00A0E1 		mov	r0, sl
 1161 0064 FEFFFFEB 		bl	chThdCreateStatic
 1162              	.LVL100:
 1163 0068 040086E5 		str	r0, [r6, #4]
 1164              		.loc 1 373 0
 1165 006c D0029FE5 		ldr	r0, .L63+28
 1166 0070 FEFFFFEB 		bl	chMtxLock
 1167              	.LVL101:
 1168              		.loc 1 374 0
 1169 0074 183095E5 		ldr	r3, [r5, #24]
 1170 0078 0100A0E3 		mov	r0, #1
 1171 007c 081093E5 		ldr	r1, [r3, #8]
 1172 0080 042051E0 		subs	r2, r1, r4
 1173 0084 001072E2 		rsbs	r1, r2, #0
 1174 0088 0210B1E0 		adcs	r1, r1, r2
 1175 008c FEFFFFEB 		bl	_test_assert
 1176              	.LVL102:
 1177 0090 000050E3 		cmp	r0, #0
 1178 0094 0100000A 		beq	.L62
 1179              	.L58:
 1180              		.loc 1 410 0
 1181 0098 08D08DE2 		add	sp, sp, #8
 1182 009c F087BDE8 		ldmfd	sp!, {r4, r5, r6, r7, r8, r9, sl, pc}
 1183              	.L62:
 1184              		.loc 1 375 0
 1185 00a0 6400A0E3 		mov	r0, #100
 1186 00a4 FEFFFFEB 		bl	chThdSleep
 1187              	.LVL103:
 1188              		.loc 1 376 0
 1189 00a8 183095E5 		ldr	r3, [r5, #24]
 1190 00ac 0200A0E3 		mov	r0, #2
 1191 00b0 081093E5 		ldr	r1, [r3, #8]
 1192 00b4 083051E0 		subs	r3, r1, r8
 1193 00b8 001073E2 		rsbs	r1, r3, #0
 1194 00bc 0310B1E0 		adcs	r1, r1, r3
 1195 00c0 FEFFFFEB 		bl	_test_assert
 1196              	.LVL104:
 1197 00c4 000050E3 		cmp	r0, #0
ARM GAS  C:\Users\NICOMA~1\AppData\Local\Temp\ccD2qZHI.s 			page 22


 1198 00c8 F2FFFF1A 		bne	.L58
 1199              		.loc 1 377 0
 1200 00cc 74029FE5 		ldr	r0, .L63+32
 1201 00d0 FEFFFFEB 		bl	chMtxLock
 1202              	.LVL105:
 1203              		.loc 1 378 0
 1204 00d4 183095E5 		ldr	r3, [r5, #24]
 1205 00d8 0300A0E3 		mov	r0, #3
 1206 00dc 081093E5 		ldr	r1, [r3, #8]
 1207 00e0 08E051E0 		subs	lr, r1, r8
 1208 00e4 00107EE2 		rsbs	r1, lr, #0
 1209 00e8 0E10B1E0 		adcs	r1, r1, lr
 1210 00ec FEFFFFEB 		bl	_test_assert
 1211              	.LVL106:
 1212 00f0 000050E3 		cmp	r0, #0
 1213 00f4 E7FFFF1A 		bne	.L58
 1214              		.loc 1 379 0
 1215 00f8 6400A0E3 		mov	r0, #100
 1216 00fc FEFFFFEB 		bl	chThdSleep
 1217              	.LVL107:
 1218              		.loc 1 380 0
 1219 0100 183095E5 		ldr	r3, [r5, #24]
 1220 0104 0400A0E3 		mov	r0, #4
 1221 0108 081093E5 		ldr	r1, [r3, #8]
 1222 010c 07C051E0 		subs	ip, r1, r7
 1223 0110 00107CE2 		rsbs	r1, ip, #0
 1224 0114 0C10B1E0 		adcs	r1, r1, ip
 1225 0118 FEFFFFEB 		bl	_test_assert
 1226              	.LVL108:
 1227 011c 000050E3 		cmp	r0, #0
 1228 0120 DCFFFF1A 		bne	.L58
 1229              		.loc 1 381 0
 1230 0124 FEFFFFEB 		bl	chMtxUnlock
 1231              	.LVL109:
 1232              		.loc 1 382 0
 1233 0128 183095E5 		ldr	r3, [r5, #24]
 1234 012c 0500A0E3 		mov	r0, #5
 1235 0130 081093E5 		ldr	r1, [r3, #8]
 1236 0134 082051E0 		subs	r2, r1, r8
 1237 0138 001072E2 		rsbs	r1, r2, #0
 1238 013c 0210B1E0 		adcs	r1, r1, r2
 1239 0140 FEFFFFEB 		bl	_test_assert
 1240              	.LVL110:
 1241 0144 000050E3 		cmp	r0, #0
 1242 0148 D2FFFF1A 		bne	.L58
 1243              		.loc 1 383 0
 1244 014c 6400A0E3 		mov	r0, #100
 1245 0150 FEFFFFEB 		bl	chThdSleep
 1246              	.LVL111:
 1247              		.loc 1 384 0
 1248 0154 183095E5 		ldr	r3, [r5, #24]
 1249 0158 0600A0E3 		mov	r0, #6
 1250 015c 081093E5 		ldr	r1, [r3, #8]
 1251 0160 083051E0 		subs	r3, r1, r8
 1252 0164 001073E2 		rsbs	r1, r3, #0
 1253 0168 0310B1E0 		adcs	r1, r1, r3
 1254 016c FEFFFFEB 		bl	_test_assert
ARM GAS  C:\Users\NICOMA~1\AppData\Local\Temp\ccD2qZHI.s 			page 23


 1255              	.LVL112:
 1256 0170 000050E3 		cmp	r0, #0
 1257 0174 C7FFFF1A 		bne	.L58
 1258              		.loc 1 385 0
 1259 0178 FEFFFFEB 		bl	chMtxUnlockAll
 1260              	.LVL113:
 1261              		.loc 1 386 0
 1262 017c 183095E5 		ldr	r3, [r5, #24]
 1263 0180 0700A0E3 		mov	r0, #7
 1264 0184 081093E5 		ldr	r1, [r3, #8]
 1265 0188 04E051E0 		subs	lr, r1, r4
 1266 018c 00107EE2 		rsbs	r1, lr, #0
 1267 0190 0E10B1E0 		adcs	r1, r1, lr
 1268 0194 FEFFFFEB 		bl	_test_assert
 1269              	.LVL114:
 1270 0198 000050E3 		cmp	r0, #0
 1271 019c BDFFFF1A 		bne	.L58
 1272              		.loc 1 387 0
 1273 01a0 FEFFFFEB 		bl	test_wait_threads
 1274              	.LVL115:
 1275              		.loc 1 390 0
 1276 01a4 A0019FE5 		ldr	r0, .L63+36
 1277 01a8 461FA0E3 		mov	r1, #280
 1278 01ac 0820A0E1 		mov	r2, r8
 1279 01b0 7C319FE5 		ldr	r3, .L63+12
 1280 01b4 00008DE5 		str	r0, [sp, #0]
 1281 01b8 0900A0E1 		mov	r0, r9
 1282 01bc FEFFFFEB 		bl	chThdCreateStatic
 1283              	.LVL116:
 1284 01c0 000086E5 		str	r0, [r6, #0]
 1285              		.loc 1 391 0
 1286 01c4 84019FE5 		ldr	r0, .L63+40
 1287 01c8 461FA0E3 		mov	r1, #280
 1288 01cc 0720A0E1 		mov	r2, r7
 1289 01d0 68319FE5 		ldr	r3, .L63+24
 1290 01d4 00008DE5 		str	r0, [sp, #0]
 1291 01d8 0A00A0E1 		mov	r0, sl
 1292 01dc FEFFFFEB 		bl	chThdCreateStatic
 1293              	.LVL117:
 1294 01e0 040086E5 		str	r0, [r6, #4]
 1295              		.loc 1 392 0
 1296 01e4 58019FE5 		ldr	r0, .L63+28
 1297 01e8 FEFFFFEB 		bl	chMtxLock
 1298              	.LVL118:
 1299              		.loc 1 393 0
 1300 01ec 183095E5 		ldr	r3, [r5, #24]
 1301 01f0 0800A0E3 		mov	r0, #8
 1302 01f4 081093E5 		ldr	r1, [r3, #8]
 1303 01f8 04C051E0 		subs	ip, r1, r4
 1304 01fc 00107CE2 		rsbs	r1, ip, #0
 1305 0200 0C10B1E0 		adcs	r1, r1, ip
 1306 0204 FEFFFFEB 		bl	_test_assert
 1307              	.LVL119:
 1308 0208 000050E3 		cmp	r0, #0
 1309 020c A1FFFF1A 		bne	.L58
 1310              		.loc 1 394 0
 1311 0210 6400A0E3 		mov	r0, #100
ARM GAS  C:\Users\NICOMA~1\AppData\Local\Temp\ccD2qZHI.s 			page 24


 1312 0214 FEFFFFEB 		bl	chThdSleep
 1313              	.LVL120:
 1314              		.loc 1 395 0
 1315 0218 183095E5 		ldr	r3, [r5, #24]
 1316 021c 0900A0E3 		mov	r0, #9
 1317 0220 081093E5 		ldr	r1, [r3, #8]
 1318 0224 082051E0 		subs	r2, r1, r8
 1319 0228 001072E2 		rsbs	r1, r2, #0
 1320 022c 0210B1E0 		adcs	r1, r1, r2
 1321 0230 FEFFFFEB 		bl	_test_assert
 1322              	.LVL121:
 1323 0234 000050E3 		cmp	r0, #0
 1324 0238 96FFFF1A 		bne	.L58
 1325              		.loc 1 396 0
 1326 023c 04019FE5 		ldr	r0, .L63+32
 1327 0240 FEFFFFEB 		bl	chMtxLock
 1328              	.LVL122:
 1329              		.loc 1 397 0
 1330 0244 183095E5 		ldr	r3, [r5, #24]
 1331 0248 0A00A0E3 		mov	r0, #10
 1332 024c 081093E5 		ldr	r1, [r3, #8]
 1333 0250 083051E0 		subs	r3, r1, r8
 1334 0254 001073E2 		rsbs	r1, r3, #0
 1335 0258 0310B1E0 		adcs	r1, r1, r3
 1336 025c FEFFFFEB 		bl	_test_assert
 1337              	.LVL123:
 1338 0260 000050E3 		cmp	r0, #0
 1339 0264 8BFFFF1A 		bne	.L58
 1340              		.loc 1 398 0
 1341 0268 6400A0E3 		mov	r0, #100
 1342 026c FEFFFFEB 		bl	chThdSleep
 1343              	.LVL124:
 1344              		.loc 1 399 0
 1345 0270 183095E5 		ldr	r3, [r5, #24]
 1346 0274 0B00A0E3 		mov	r0, #11
 1347 0278 081093E5 		ldr	r1, [r3, #8]
 1348 027c 07E051E0 		subs	lr, r1, r7
 1349 0280 00107EE2 		rsbs	r1, lr, #0
 1350 0284 0E10B1E0 		adcs	r1, r1, lr
 1351 0288 FEFFFFEB 		bl	_test_assert
 1352              	.LVL125:
 1353 028c 000050E3 		cmp	r0, #0
 1354 0290 80FFFF1A 		bne	.L58
 1355              		.loc 1 400 0
 1356              	@ 400 "../../test/testmtx.c" 1
 1357 0294 9FF021E3 		msr     CPSR_c, #0x9F
 1358              	@ 0 "" 2
 1359              		.loc 1 401 0
 1360 0298 FEFFFFEB 		bl	chMtxUnlockS
 1361              	.LVL126:
 1362              		.loc 1 402 0
 1363 029c FEFFFFEB 		bl	chSchRescheduleS
 1364              	.LVL127:
 1365              		.loc 1 403 0
 1366              	@ 403 "../../test/testmtx.c" 1
 1367 02a0 1FF021E3 		msr     CPSR_c, #0x1F
 1368              	@ 0 "" 2
ARM GAS  C:\Users\NICOMA~1\AppData\Local\Temp\ccD2qZHI.s 			page 25


 1369              		.loc 1 404 0
 1370 02a4 183095E5 		ldr	r3, [r5, #24]
 1371 02a8 0C00A0E3 		mov	r0, #12
 1372 02ac 081093E5 		ldr	r1, [r3, #8]
 1373 02b0 08C051E0 		subs	ip, r1, r8
 1374 02b4 00107CE2 		rsbs	r1, ip, #0
 1375 02b8 0C10B1E0 		adcs	r1, r1, ip
 1376 02bc FEFFFFEB 		bl	_test_assert
 1377              	.LVL128:
 1378 02c0 000050E3 		cmp	r0, #0
 1379 02c4 73FFFF1A 		bne	.L58
 1380              		.loc 1 405 0
 1381 02c8 6400A0E3 		mov	r0, #100
 1382 02cc FEFFFFEB 		bl	chThdSleep
 1383              	.LVL129:
 1384              		.loc 1 406 0
 1385 02d0 183095E5 		ldr	r3, [r5, #24]
 1386 02d4 0D00A0E3 		mov	r0, #13
 1387 02d8 081093E5 		ldr	r1, [r3, #8]
 1388 02dc 082051E0 		subs	r2, r1, r8
 1389 02e0 001072E2 		rsbs	r1, r2, #0
 1390 02e4 0210B1E0 		adcs	r1, r1, r2
 1391 02e8 FEFFFFEB 		bl	_test_assert
 1392              	.LVL130:
 1393 02ec 000050E3 		cmp	r0, #0
 1394 02f0 68FFFF1A 		bne	.L58
 1395              		.loc 1 407 0
 1396 02f4 FEFFFFEB 		bl	chMtxUnlockAll
 1397              	.LVL131:
 1398              		.loc 1 408 0
 1399 02f8 183095E5 		ldr	r3, [r5, #24]
 1400 02fc 0E00A0E3 		mov	r0, #14
 1401 0300 081093E5 		ldr	r1, [r3, #8]
 1402 0304 043051E0 		subs	r3, r1, r4
 1403 0308 001073E2 		rsbs	r1, r3, #0
 1404 030c 0310B1E0 		adcs	r1, r1, r3
 1405 0310 FEFFFFEB 		bl	_test_assert
 1406              	.LVL132:
 1407 0314 000050E3 		cmp	r0, #0
 1408 0318 5EFFFF1A 		bne	.L58
 1409              		.loc 1 410 0
 1410 031c 08D08DE2 		add	sp, sp, #8
 1411 0320 F047BDE8 		ldmfd	sp!, {r4, r5, r6, r7, r8, r9, sl, lr}
 1412              		.loc 1 409 0
 1413 0324 FEFFFFEA 		b	test_wait_threads
 1414              	.LVL133:
 1415              	.L64:
 1416              		.align	2
 1417              	.L63:
 1418 0328 00000000 		.word	rlist
 1419 032c 00000000 		.word	wa
 1420 0330 08000000 		.word	.LC2
 1421 0334 00000000 		.word	thread4a
 1422 0338 00000000 		.word	threads
 1423 033c 00000000 		.word	.LC0
 1424 0340 00000000 		.word	thread4b
 1425 0344 00000000 		.word	.LANCHOR1
ARM GAS  C:\Users\NICOMA~1\AppData\Local\Temp\ccD2qZHI.s 			page 26


 1426 0348 00000000 		.word	.LANCHOR2
 1427 034c 14000000 		.word	.LC5
 1428 0350 04000000 		.word	.LC1
 1429              		.cfi_endproc
 1430              	.LFE25:
 1431              		.size	mtx4_execute, .-mtx4_execute
 1432              		.section	.text.thread4b,"ax",%progbits
 1433              		.align	2
 1434              		.type	thread4b, %function
 1435              	thread4b:
 1436              	.LFB24:
 1437              		.loc 1 356 0
 1438              		.cfi_startproc
 1439              		@ args = 0, pretend = 0, frame = 0
 1440              		@ frame_needed = 0, uses_anonymous_args = 0
 1441              	.LVL134:
 1442 0000 08402DE9 		stmfd	sp!, {r3, lr}
 1443              	.LCFI20:
 1444              		.cfi_def_cfa_offset 8
 1445              		.cfi_offset 3, -8
 1446              		.cfi_offset 14, -4
 1447              		.loc 1 359 0
 1448 0004 9600A0E3 		mov	r0, #150
 1449              	.LVL135:
 1450 0008 FEFFFFEB 		bl	chThdSleep
 1451              	.LVL136:
 1452              		.loc 1 360 0
 1453 000c 0C009FE5 		ldr	r0, .L66
 1454 0010 FEFFFFEB 		bl	chMtxLock
 1455              	.LVL137:
 1456              		.loc 1 361 0
 1457 0014 FEFFFFEB 		bl	chMtxUnlock
 1458              	.LVL138:
 1459              		.loc 1 363 0
 1460 0018 0000A0E3 		mov	r0, #0
 1461 001c 0880BDE8 		ldmfd	sp!, {r3, pc}
 1462              	.L67:
 1463              		.align	2
 1464              	.L66:
 1465 0020 00000000 		.word	.LANCHOR2
 1466              		.cfi_endproc
 1467              	.LFE24:
 1468              		.size	thread4b, .-thread4b
 1469              		.section	.text.thread4a,"ax",%progbits
 1470              		.align	2
 1471              		.type	thread4a, %function
 1472              	thread4a:
 1473              	.LFB23:
 1474              		.loc 1 347 0
 1475              		.cfi_startproc
 1476              		@ args = 0, pretend = 0, frame = 0
 1477              		@ frame_needed = 0, uses_anonymous_args = 0
 1478              	.LVL139:
 1479 0000 08402DE9 		stmfd	sp!, {r3, lr}
 1480              	.LCFI21:
 1481              		.cfi_def_cfa_offset 8
 1482              		.cfi_offset 3, -8
ARM GAS  C:\Users\NICOMA~1\AppData\Local\Temp\ccD2qZHI.s 			page 27


 1483              		.cfi_offset 14, -4
 1484              		.loc 1 350 0
 1485 0004 3200A0E3 		mov	r0, #50
 1486              	.LVL140:
 1487 0008 FEFFFFEB 		bl	chThdSleep
 1488              	.LVL141:
 1489              		.loc 1 351 0
 1490 000c 0C009FE5 		ldr	r0, .L69
 1491 0010 FEFFFFEB 		bl	chMtxLock
 1492              	.LVL142:
 1493              		.loc 1 352 0
 1494 0014 FEFFFFEB 		bl	chMtxUnlock
 1495              	.LVL143:
 1496              		.loc 1 354 0
 1497 0018 0000A0E3 		mov	r0, #0
 1498 001c 0880BDE8 		ldmfd	sp!, {r3, pc}
 1499              	.L70:
 1500              		.align	2
 1501              	.L69:
 1502 0020 00000000 		.word	.LANCHOR1
 1503              		.cfi_endproc
 1504              	.LFE23:
 1505              		.size	thread4a, .-thread4a
 1506              		.section	.text.mtx3_execute,"ax",%progbits
 1507              		.align	2
 1508              		.type	mtx3_execute, %function
 1509              	mtx3_execute:
 1510              	.LFB21:
 1511              		.loc 1 308 0
 1512              		.cfi_startproc
 1513              		@ args = 0, pretend = 0, frame = 0
 1514              		@ frame_needed = 0, uses_anonymous_args = 0
 1515 0000 F0412DE9 		stmfd	sp!, {r4, r5, r6, r7, r8, lr}
 1516              	.LCFI22:
 1517              		.cfi_def_cfa_offset 24
 1518              		.cfi_offset 4, -24
 1519              		.cfi_offset 5, -20
 1520              		.cfi_offset 6, -16
 1521              		.cfi_offset 7, -12
 1522              		.cfi_offset 8, -8
 1523              		.cfi_offset 14, -4
 1524              		.loc 1 313 0
 1525 0004 14719FE5 		ldr	r7, .L74
 1526              		.loc 1 308 0
 1527 0008 08D04DE2 		sub	sp, sp, #8
 1528              	.LCFI23:
 1529              		.cfi_def_cfa_offset 32
 1530              		.loc 1 311 0
 1531 000c FEFFFFEB 		bl	test_wait_tick
 1532              	.LVL144:
 1533              		.loc 1 313 0
 1534 0010 183097E5 		ldr	r3, [r7, #24]
 1535 0014 08619FE5 		ldr	r6, .L74+4
 1536 0018 082093E5 		ldr	r2, [r3, #8]
 1537 001c 0050A0E3 		mov	r5, #0
 1538              		.loc 1 312 0
 1539 0020 00C19FE5 		ldr	ip, .L74+8
ARM GAS  C:\Users\NICOMA~1\AppData\Local\Temp\ccD2qZHI.s 			page 28


 1540              		.loc 1 313 0
 1541 0024 461FA0E3 		mov	r1, #280
 1542 0028 052042E2 		sub	r2, r2, #5
 1543 002c F8309FE5 		ldr	r3, .L74+12
 1544 0030 00508DE5 		str	r5, [sp, #0]
 1545 0034 000096E5 		ldr	r0, [r6, #0]
 1546              		.loc 1 312 0
 1547 0038 0C809CE5 		ldr	r8, [ip, #12]
 1548              	.LVL145:
 1549              		.loc 1 313 0
 1550 003c FEFFFFEB 		bl	chThdCreateStatic
 1551              	.LVL146:
 1552              		.loc 1 314 0
 1553 0040 183097E5 		ldr	r3, [r7, #24]
 1554              		.loc 1 313 0
 1555 0044 E4409FE5 		ldr	r4, .L74+16
 1556              		.loc 1 314 0
 1557 0048 082093E5 		ldr	r2, [r3, #8]
 1558 004c 04C096E5 		ldr	ip, [r6, #4]
 1559              		.loc 1 313 0
 1560 0050 000084E5 		str	r0, [r4, #0]
 1561              		.loc 1 314 0
 1562 0054 461FA0E3 		mov	r1, #280
 1563 0058 042042E2 		sub	r2, r2, #4
 1564 005c D0309FE5 		ldr	r3, .L74+20
 1565 0060 0C00A0E1 		mov	r0, ip
 1566 0064 00508DE5 		str	r5, [sp, #0]
 1567 0068 FEFFFFEB 		bl	chThdCreateStatic
 1568              	.LVL147:
 1569              		.loc 1 315 0
 1570 006c 183097E5 		ldr	r3, [r7, #24]
 1571 0070 08C096E5 		ldr	ip, [r6, #8]
 1572 0074 082093E5 		ldr	r2, [r3, #8]
 1573 0078 461FA0E3 		mov	r1, #280
 1574              		.loc 1 314 0
 1575 007c 040084E5 		str	r0, [r4, #4]
 1576              		.loc 1 315 0
 1577 0080 032042E2 		sub	r2, r2, #3
 1578 0084 AC309FE5 		ldr	r3, .L74+24
 1579 0088 0C00A0E1 		mov	r0, ip
 1580 008c 00508DE5 		str	r5, [sp, #0]
 1581 0090 FEFFFFEB 		bl	chThdCreateStatic
 1582              	.LVL148:
 1583              		.loc 1 316 0
 1584 0094 183097E5 		ldr	r3, [r7, #24]
 1585 0098 0CC096E5 		ldr	ip, [r6, #12]
 1586 009c 082093E5 		ldr	r2, [r3, #8]
 1587 00a0 461FA0E3 		mov	r1, #280
 1588              		.loc 1 315 0
 1589 00a4 080084E5 		str	r0, [r4, #8]
 1590              		.loc 1 316 0
 1591 00a8 022042E2 		sub	r2, r2, #2
 1592 00ac 88309FE5 		ldr	r3, .L74+28
 1593 00b0 0C00A0E1 		mov	r0, ip
 1594 00b4 00508DE5 		str	r5, [sp, #0]
 1595 00b8 FEFFFFEB 		bl	chThdCreateStatic
 1596              	.LVL149:
ARM GAS  C:\Users\NICOMA~1\AppData\Local\Temp\ccD2qZHI.s 			page 29


 1597              		.loc 1 317 0
 1598 00bc 183097E5 		ldr	r3, [r7, #24]
 1599 00c0 10C096E5 		ldr	ip, [r6, #16]
 1600 00c4 082093E5 		ldr	r2, [r3, #8]
 1601 00c8 461FA0E3 		mov	r1, #280
 1602 00cc 012042E2 		sub	r2, r2, #1
 1603 00d0 68309FE5 		ldr	r3, .L74+32
 1604              		.loc 1 316 0
 1605 00d4 0C0084E5 		str	r0, [r4, #12]
 1606              		.loc 1 317 0
 1607 00d8 00508DE5 		str	r5, [sp, #0]
 1608 00dc 0C00A0E1 		mov	r0, ip
 1609 00e0 FEFFFFEB 		bl	chThdCreateStatic
 1610              	.LVL150:
 1611 00e4 100084E5 		str	r0, [r4, #16]
 1612              		.loc 1 318 0
 1613 00e8 FEFFFFEB 		bl	test_wait_threads
 1614              	.LVL151:
 1615              		.loc 1 319 0
 1616 00ec 0100A0E3 		mov	r0, #1
 1617 00f0 4C109FE5 		ldr	r1, .L74+36
 1618 00f4 FEFFFFEB 		bl	_test_assert_sequence
 1619              	.LVL152:
 1620 00f8 050050E1 		cmp	r0, r5
 1621 00fc 0100000A 		beq	.L73
 1622              		.loc 1 321 0
 1623 0100 08D08DE2 		add	sp, sp, #8
 1624 0104 F081BDE8 		ldmfd	sp!, {r4, r5, r6, r7, r8, pc}
 1625              	.L73:
 1626              		.loc 1 320 0
 1627 0108 0200A0E3 		mov	r0, #2
 1628 010c 6E1088E2 		add	r1, r8, #110
 1629 0110 732088E2 		add	r2, r8, #115
 1630              		.loc 1 321 0
 1631 0114 08D08DE2 		add	sp, sp, #8
 1632 0118 F041BDE8 		ldmfd	sp!, {r4, r5, r6, r7, r8, lr}
 1633              		.loc 1 320 0
 1634 011c FEFFFFEA 		b	_test_assert_time_window
 1635              	.LVL153:
 1636              	.L75:
 1637              		.align	2
 1638              	.L74:
 1639 0120 00000000 		.word	rlist
 1640 0124 00000000 		.word	wa
 1641 0128 00000000 		.word	vtlist
 1642 012c 00000000 		.word	thread3LL
 1643 0130 00000000 		.word	threads
 1644 0134 00000000 		.word	thread3L
 1645 0138 00000000 		.word	thread3M
 1646 013c 00000000 		.word	thread3H
 1647 0140 00000000 		.word	thread3HH
 1648 0144 18000000 		.word	.LC6
 1649              		.cfi_endproc
 1650              	.LFE21:
 1651              		.size	mtx3_execute, .-mtx3_execute
 1652              		.section	.text.mtx2_execute,"ax",%progbits
 1653              		.align	2
ARM GAS  C:\Users\NICOMA~1\AppData\Local\Temp\ccD2qZHI.s 			page 30


 1654              		.type	mtx2_execute, %function
 1655              	mtx2_execute:
 1656              	.LFB14:
 1657              		.loc 1 190 0
 1658              		.cfi_startproc
 1659              		@ args = 0, pretend = 0, frame = 0
 1660              		@ frame_needed = 0, uses_anonymous_args = 0
 1661 0000 F0412DE9 		stmfd	sp!, {r4, r5, r6, r7, r8, lr}
 1662              	.LCFI24:
 1663              		.cfi_def_cfa_offset 24
 1664              		.cfi_offset 4, -24
 1665              		.cfi_offset 5, -20
 1666              		.cfi_offset 6, -16
 1667              		.cfi_offset 7, -12
 1668              		.cfi_offset 8, -8
 1669              		.cfi_offset 14, -4
 1670              		.loc 1 195 0
 1671 0004 C4709FE5 		ldr	r7, .L79
 1672              		.loc 1 190 0
 1673 0008 08D04DE2 		sub	sp, sp, #8
 1674              	.LCFI25:
 1675              		.cfi_def_cfa_offset 32
 1676              		.loc 1 193 0
 1677 000c FEFFFFEB 		bl	test_wait_tick
 1678              	.LVL154:
 1679              		.loc 1 195 0
 1680 0010 183097E5 		ldr	r3, [r7, #24]
 1681 0014 B8609FE5 		ldr	r6, .L79+4
 1682 0018 082093E5 		ldr	r2, [r3, #8]
 1683 001c 0050A0E3 		mov	r5, #0
 1684              		.loc 1 194 0
 1685 0020 B0C09FE5 		ldr	ip, .L79+8
 1686              		.loc 1 195 0
 1687 0024 461FA0E3 		mov	r1, #280
 1688 0028 012042E2 		sub	r2, r2, #1
 1689 002c A8309FE5 		ldr	r3, .L79+12
 1690 0030 00508DE5 		str	r5, [sp, #0]
 1691 0034 000096E5 		ldr	r0, [r6, #0]
 1692              		.loc 1 194 0
 1693 0038 0C809CE5 		ldr	r8, [ip, #12]
 1694              	.LVL155:
 1695              		.loc 1 195 0
 1696 003c FEFFFFEB 		bl	chThdCreateStatic
 1697              	.LVL156:
 1698              		.loc 1 196 0
 1699 0040 183097E5 		ldr	r3, [r7, #24]
 1700              		.loc 1 195 0
 1701 0044 94409FE5 		ldr	r4, .L79+16
 1702              		.loc 1 196 0
 1703 0048 082093E5 		ldr	r2, [r3, #8]
 1704 004c 04C096E5 		ldr	ip, [r6, #4]
 1705              		.loc 1 195 0
 1706 0050 000084E5 		str	r0, [r4, #0]
 1707              		.loc 1 196 0
 1708 0054 461FA0E3 		mov	r1, #280
 1709 0058 022042E2 		sub	r2, r2, #2
 1710 005c 80309FE5 		ldr	r3, .L79+20
ARM GAS  C:\Users\NICOMA~1\AppData\Local\Temp\ccD2qZHI.s 			page 31


 1711 0060 0C00A0E1 		mov	r0, ip
 1712 0064 00508DE5 		str	r5, [sp, #0]
 1713 0068 FEFFFFEB 		bl	chThdCreateStatic
 1714              	.LVL157:
 1715              		.loc 1 197 0
 1716 006c 183097E5 		ldr	r3, [r7, #24]
 1717 0070 08C096E5 		ldr	ip, [r6, #8]
 1718 0074 082093E5 		ldr	r2, [r3, #8]
 1719 0078 461FA0E3 		mov	r1, #280
 1720 007c 032042E2 		sub	r2, r2, #3
 1721 0080 60309FE5 		ldr	r3, .L79+24
 1722              		.loc 1 196 0
 1723 0084 040084E5 		str	r0, [r4, #4]
 1724              		.loc 1 197 0
 1725 0088 00508DE5 		str	r5, [sp, #0]
 1726 008c 0C00A0E1 		mov	r0, ip
 1727 0090 FEFFFFEB 		bl	chThdCreateStatic
 1728              	.LVL158:
 1729 0094 080084E5 		str	r0, [r4, #8]
 1730              		.loc 1 198 0
 1731 0098 FEFFFFEB 		bl	test_wait_threads
 1732              	.LVL159:
 1733              		.loc 1 199 0
 1734 009c 0100A0E3 		mov	r0, #1
 1735 00a0 44109FE5 		ldr	r1, .L79+28
 1736 00a4 FEFFFFEB 		bl	_test_assert_sequence
 1737              	.LVL160:
 1738 00a8 050050E1 		cmp	r0, r5
 1739 00ac 0100000A 		beq	.L78
 1740              		.loc 1 201 0
 1741 00b0 08D08DE2 		add	sp, sp, #8
 1742 00b4 F081BDE8 		ldmfd	sp!, {r4, r5, r6, r7, r8, pc}
 1743              	.L78:
 1744              		.loc 1 200 0
 1745 00b8 0200A0E3 		mov	r0, #2
 1746 00bc 641088E2 		add	r1, r8, #100
 1747 00c0 692088E2 		add	r2, r8, #105
 1748              		.loc 1 201 0
 1749 00c4 08D08DE2 		add	sp, sp, #8
 1750 00c8 F041BDE8 		ldmfd	sp!, {r4, r5, r6, r7, r8, lr}
 1751              		.loc 1 200 0
 1752 00cc FEFFFFEA 		b	_test_assert_time_window
 1753              	.LVL161:
 1754              	.L80:
 1755              		.align	2
 1756              	.L79:
 1757 00d0 00000000 		.word	rlist
 1758 00d4 00000000 		.word	wa
 1759 00d8 00000000 		.word	vtlist
 1760 00dc 00000000 		.word	thread2H
 1761 00e0 00000000 		.word	threads
 1762 00e4 00000000 		.word	thread2M
 1763 00e8 00000000 		.word	thread2L
 1764 00ec 0C000000 		.word	.LC3
 1765              		.cfi_endproc
 1766              	.LFE14:
 1767              		.size	mtx2_execute, .-mtx2_execute
ARM GAS  C:\Users\NICOMA~1\AppData\Local\Temp\ccD2qZHI.s 			page 32


 1768              		.section	.text.thread3HH,"ax",%progbits
 1769              		.align	2
 1770              		.type	thread3HH, %function
 1771              	thread3HH:
 1772              	.LFB20:
 1773              		.loc 1 297 0
 1774              		.cfi_startproc
 1775              		@ args = 0, pretend = 0, frame = 0
 1776              		@ frame_needed = 0, uses_anonymous_args = 0
 1777              	.LVL162:
 1778 0000 08402DE9 		stmfd	sp!, {r3, lr}
 1779              	.LCFI26:
 1780              		.cfi_def_cfa_offset 8
 1781              		.cfi_offset 3, -8
 1782              		.cfi_offset 14, -4
 1783              		.loc 1 300 0
 1784 0004 3200A0E3 		mov	r0, #50
 1785              	.LVL163:
 1786 0008 FEFFFFEB 		bl	chThdSleep
 1787              	.LVL164:
 1788              		.loc 1 301 0
 1789 000c 1C009FE5 		ldr	r0, .L82
 1790 0010 FEFFFFEB 		bl	chMtxLock
 1791              	.LVL165:
 1792              		.loc 1 302 0
 1793 0014 0A00A0E3 		mov	r0, #10
 1794 0018 FEFFFFEB 		bl	test_cpu_pulse
 1795              	.LVL166:
 1796              		.loc 1 303 0
 1797 001c FEFFFFEB 		bl	chMtxUnlock
 1798              	.LVL167:
 1799              		.loc 1 304 0
 1800 0020 4100A0E3 		mov	r0, #65
 1801 0024 FEFFFFEB 		bl	test_emit_token
 1802              	.LVL168:
 1803              		.loc 1 306 0
 1804 0028 0000A0E3 		mov	r0, #0
 1805 002c 0880BDE8 		ldmfd	sp!, {r3, pc}
 1806              	.L83:
 1807              		.align	2
 1808              	.L82:
 1809 0030 00000000 		.word	.LANCHOR1
 1810              		.cfi_endproc
 1811              	.LFE20:
 1812              		.size	thread3HH, .-thread3HH
 1813              		.section	.text.thread3H,"ax",%progbits
 1814              		.align	2
 1815              		.type	thread3H, %function
 1816              	thread3H:
 1817              	.LFB19:
 1818              		.loc 1 287 0
 1819              		.cfi_startproc
 1820              		@ args = 0, pretend = 0, frame = 0
 1821              		@ frame_needed = 0, uses_anonymous_args = 0
 1822              	.LVL169:
 1823 0000 08402DE9 		stmfd	sp!, {r3, lr}
 1824              	.LCFI27:
ARM GAS  C:\Users\NICOMA~1\AppData\Local\Temp\ccD2qZHI.s 			page 33


 1825              		.cfi_def_cfa_offset 8
 1826              		.cfi_offset 3, -8
 1827              		.cfi_offset 14, -4
 1828              		.loc 1 290 0
 1829 0004 2800A0E3 		mov	r0, #40
 1830              	.LVL170:
 1831 0008 FEFFFFEB 		bl	chThdSleep
 1832              	.LVL171:
 1833              		.loc 1 291 0
 1834 000c 1400A0E3 		mov	r0, #20
 1835 0010 FEFFFFEB 		bl	test_cpu_pulse
 1836              	.LVL172:
 1837              		.loc 1 292 0
 1838 0014 4200A0E3 		mov	r0, #66
 1839 0018 FEFFFFEB 		bl	test_emit_token
 1840              	.LVL173:
 1841              		.loc 1 294 0
 1842 001c 0000A0E3 		mov	r0, #0
 1843 0020 0880BDE8 		ldmfd	sp!, {r3, pc}
 1844              		.cfi_endproc
 1845              	.LFE19:
 1846              		.size	thread3H, .-thread3H
 1847              		.section	.text.thread3M,"ax",%progbits
 1848              		.align	2
 1849              		.type	thread3M, %function
 1850              	thread3M:
 1851              	.LFB18:
 1852              		.loc 1 275 0
 1853              		.cfi_startproc
 1854              		@ args = 0, pretend = 0, frame = 0
 1855              		@ frame_needed = 0, uses_anonymous_args = 0
 1856              	.LVL174:
 1857 0000 08402DE9 		stmfd	sp!, {r3, lr}
 1858              	.LCFI28:
 1859              		.cfi_def_cfa_offset 8
 1860              		.cfi_offset 3, -8
 1861              		.cfi_offset 14, -4
 1862              		.loc 1 278 0
 1863 0004 1400A0E3 		mov	r0, #20
 1864              	.LVL175:
 1865 0008 FEFFFFEB 		bl	chThdSleep
 1866              	.LVL176:
 1867              		.loc 1 279 0
 1868 000c 1C009FE5 		ldr	r0, .L86
 1869 0010 FEFFFFEB 		bl	chMtxLock
 1870              	.LVL177:
 1871              		.loc 1 280 0
 1872 0014 0A00A0E3 		mov	r0, #10
 1873 0018 FEFFFFEB 		bl	test_cpu_pulse
 1874              	.LVL178:
 1875              		.loc 1 281 0
 1876 001c FEFFFFEB 		bl	chMtxUnlock
 1877              	.LVL179:
 1878              		.loc 1 282 0
 1879 0020 4300A0E3 		mov	r0, #67
 1880 0024 FEFFFFEB 		bl	test_emit_token
 1881              	.LVL180:
ARM GAS  C:\Users\NICOMA~1\AppData\Local\Temp\ccD2qZHI.s 			page 34


 1882              		.loc 1 284 0
 1883 0028 0000A0E3 		mov	r0, #0
 1884 002c 0880BDE8 		ldmfd	sp!, {r3, pc}
 1885              	.L87:
 1886              		.align	2
 1887              	.L86:
 1888 0030 00000000 		.word	.LANCHOR1
 1889              		.cfi_endproc
 1890              	.LFE18:
 1891              		.size	thread3M, .-thread3M
 1892              		.section	.text.thread3L,"ax",%progbits
 1893              		.align	2
 1894              		.type	thread3L, %function
 1895              	thread3L:
 1896              	.LFB17:
 1897              		.loc 1 259 0
 1898              		.cfi_startproc
 1899              		@ args = 0, pretend = 0, frame = 0
 1900              		@ frame_needed = 0, uses_anonymous_args = 0
 1901              	.LVL181:
 1902 0000 08402DE9 		stmfd	sp!, {r3, lr}
 1903              	.LCFI29:
 1904              		.cfi_def_cfa_offset 8
 1905              		.cfi_offset 3, -8
 1906              		.cfi_offset 14, -4
 1907              		.loc 1 262 0
 1908 0004 0A00A0E3 		mov	r0, #10
 1909              	.LVL182:
 1910 0008 FEFFFFEB 		bl	chThdSleep
 1911              	.LVL183:
 1912              		.loc 1 263 0
 1913 000c 38009FE5 		ldr	r0, .L89
 1914 0010 FEFFFFEB 		bl	chMtxLock
 1915              	.LVL184:
 1916              		.loc 1 264 0
 1917 0014 1400A0E3 		mov	r0, #20
 1918 0018 FEFFFFEB 		bl	test_cpu_pulse
 1919              	.LVL185:
 1920              		.loc 1 265 0
 1921 001c 2C009FE5 		ldr	r0, .L89+4
 1922 0020 FEFFFFEB 		bl	chMtxLock
 1923              	.LVL186:
 1924              		.loc 1 266 0
 1925 0024 0A00A0E3 		mov	r0, #10
 1926 0028 FEFFFFEB 		bl	test_cpu_pulse
 1927              	.LVL187:
 1928              		.loc 1 267 0
 1929 002c FEFFFFEB 		bl	chMtxUnlock
 1930              	.LVL188:
 1931              		.loc 1 268 0
 1932 0030 0A00A0E3 		mov	r0, #10
 1933 0034 FEFFFFEB 		bl	test_cpu_pulse
 1934              	.LVL189:
 1935              		.loc 1 269 0
 1936 0038 FEFFFFEB 		bl	chMtxUnlock
 1937              	.LVL190:
 1938              		.loc 1 270 0
ARM GAS  C:\Users\NICOMA~1\AppData\Local\Temp\ccD2qZHI.s 			page 35


 1939 003c 4400A0E3 		mov	r0, #68
 1940 0040 FEFFFFEB 		bl	test_emit_token
 1941              	.LVL191:
 1942              		.loc 1 272 0
 1943 0044 0000A0E3 		mov	r0, #0
 1944 0048 0880BDE8 		ldmfd	sp!, {r3, pc}
 1945              	.L90:
 1946              		.align	2
 1947              	.L89:
 1948 004c 00000000 		.word	.LANCHOR1
 1949 0050 00000000 		.word	.LANCHOR2
 1950              		.cfi_endproc
 1951              	.LFE17:
 1952              		.size	thread3L, .-thread3L
 1953              		.section	.text.thread3LL,"ax",%progbits
 1954              		.align	2
 1955              		.type	thread3LL, %function
 1956              	thread3LL:
 1957              	.LFB16:
 1958              		.loc 1 248 0
 1959              		.cfi_startproc
 1960              		@ args = 0, pretend = 0, frame = 0
 1961              		@ frame_needed = 0, uses_anonymous_args = 0
 1962              	.LVL192:
 1963 0000 08402DE9 		stmfd	sp!, {r3, lr}
 1964              	.LCFI30:
 1965              		.cfi_def_cfa_offset 8
 1966              		.cfi_offset 3, -8
 1967              		.cfi_offset 14, -4
 1968              		.loc 1 251 0
 1969 0004 1C009FE5 		ldr	r0, .L92
 1970              	.LVL193:
 1971 0008 FEFFFFEB 		bl	chMtxLock
 1972              	.LVL194:
 1973              		.loc 1 252 0
 1974 000c 1E00A0E3 		mov	r0, #30
 1975 0010 FEFFFFEB 		bl	test_cpu_pulse
 1976              	.LVL195:
 1977              		.loc 1 253 0
 1978 0014 FEFFFFEB 		bl	chMtxUnlock
 1979              	.LVL196:
 1980              		.loc 1 254 0
 1981 0018 4500A0E3 		mov	r0, #69
 1982 001c FEFFFFEB 		bl	test_emit_token
 1983              	.LVL197:
 1984              		.loc 1 256 0
 1985 0020 0000A0E3 		mov	r0, #0
 1986 0024 0880BDE8 		ldmfd	sp!, {r3, pc}
 1987              	.L93:
 1988              		.align	2
 1989              	.L92:
 1990 0028 00000000 		.word	.LANCHOR2
 1991              		.cfi_endproc
 1992              	.LFE16:
 1993              		.size	thread3LL, .-thread3LL
 1994              		.section	.text.thread2L,"ax",%progbits
 1995              		.align	2
ARM GAS  C:\Users\NICOMA~1\AppData\Local\Temp\ccD2qZHI.s 			page 36


 1996              		.type	thread2L, %function
 1997              	thread2L:
 1998              	.LFB11:
 1999              		.loc 1 157 0
 2000              		.cfi_startproc
 2001              		@ args = 0, pretend = 0, frame = 0
 2002              		@ frame_needed = 0, uses_anonymous_args = 0
 2003              	.LVL198:
 2004 0000 08402DE9 		stmfd	sp!, {r3, lr}
 2005              	.LCFI31:
 2006              		.cfi_def_cfa_offset 8
 2007              		.cfi_offset 3, -8
 2008              		.cfi_offset 14, -4
 2009              		.loc 1 160 0
 2010 0004 24009FE5 		ldr	r0, .L95
 2011              	.LVL199:
 2012 0008 FEFFFFEB 		bl	chMtxLock
 2013              	.LVL200:
 2014              		.loc 1 161 0
 2015 000c 2800A0E3 		mov	r0, #40
 2016 0010 FEFFFFEB 		bl	test_cpu_pulse
 2017              	.LVL201:
 2018              		.loc 1 162 0
 2019 0014 FEFFFFEB 		bl	chMtxUnlock
 2020              	.LVL202:
 2021              		.loc 1 163 0
 2022 0018 0A00A0E3 		mov	r0, #10
 2023 001c FEFFFFEB 		bl	test_cpu_pulse
 2024              	.LVL203:
 2025              		.loc 1 164 0
 2026 0020 4300A0E3 		mov	r0, #67
 2027 0024 FEFFFFEB 		bl	test_emit_token
 2028              	.LVL204:
 2029              		.loc 1 166 0
 2030 0028 0000A0E3 		mov	r0, #0
 2031 002c 0880BDE8 		ldmfd	sp!, {r3, pc}
 2032              	.L96:
 2033              		.align	2
 2034              	.L95:
 2035 0030 00000000 		.word	.LANCHOR2
 2036              		.cfi_endproc
 2037              	.LFE11:
 2038              		.size	thread2L, .-thread2L
 2039              		.section	.text.thread2M,"ax",%progbits
 2040              		.align	2
 2041              		.type	thread2M, %function
 2042              	thread2M:
 2043              	.LFB12:
 2044              		.loc 1 169 0
 2045              		.cfi_startproc
 2046              		@ args = 0, pretend = 0, frame = 0
 2047              		@ frame_needed = 0, uses_anonymous_args = 0
 2048              	.LVL205:
 2049 0000 08402DE9 		stmfd	sp!, {r3, lr}
 2050              	.LCFI32:
 2051              		.cfi_def_cfa_offset 8
 2052              		.cfi_offset 3, -8
ARM GAS  C:\Users\NICOMA~1\AppData\Local\Temp\ccD2qZHI.s 			page 37


 2053              		.cfi_offset 14, -4
 2054              		.loc 1 172 0
 2055 0004 1400A0E3 		mov	r0, #20
 2056              	.LVL206:
 2057 0008 FEFFFFEB 		bl	chThdSleep
 2058              	.LVL207:
 2059              		.loc 1 173 0
 2060 000c 2800A0E3 		mov	r0, #40
 2061 0010 FEFFFFEB 		bl	test_cpu_pulse
 2062              	.LVL208:
 2063              		.loc 1 174 0
 2064 0014 4200A0E3 		mov	r0, #66
 2065 0018 FEFFFFEB 		bl	test_emit_token
 2066              	.LVL209:
 2067              		.loc 1 176 0
 2068 001c 0000A0E3 		mov	r0, #0
 2069 0020 0880BDE8 		ldmfd	sp!, {r3, pc}
 2070              		.cfi_endproc
 2071              	.LFE12:
 2072              		.size	thread2M, .-thread2M
 2073              		.section	.text.thread2H,"ax",%progbits
 2074              		.align	2
 2075              		.type	thread2H, %function
 2076              	thread2H:
 2077              	.LFB13:
 2078              		.loc 1 179 0
 2079              		.cfi_startproc
 2080              		@ args = 0, pretend = 0, frame = 0
 2081              		@ frame_needed = 0, uses_anonymous_args = 0
 2082              	.LVL210:
 2083 0000 08402DE9 		stmfd	sp!, {r3, lr}
 2084              	.LCFI33:
 2085              		.cfi_def_cfa_offset 8
 2086              		.cfi_offset 3, -8
 2087              		.cfi_offset 14, -4
 2088              		.loc 1 182 0
 2089 0004 2800A0E3 		mov	r0, #40
 2090              	.LVL211:
 2091 0008 FEFFFFEB 		bl	chThdSleep
 2092              	.LVL212:
 2093              		.loc 1 183 0
 2094 000c 1C009FE5 		ldr	r0, .L99
 2095 0010 FEFFFFEB 		bl	chMtxLock
 2096              	.LVL213:
 2097              		.loc 1 184 0
 2098 0014 0A00A0E3 		mov	r0, #10
 2099 0018 FEFFFFEB 		bl	test_cpu_pulse
 2100              	.LVL214:
 2101              		.loc 1 185 0
 2102 001c FEFFFFEB 		bl	chMtxUnlock
 2103              	.LVL215:
 2104              		.loc 1 186 0
 2105 0020 4100A0E3 		mov	r0, #65
 2106 0024 FEFFFFEB 		bl	test_emit_token
 2107              	.LVL216:
 2108              		.loc 1 188 0
 2109 0028 0000A0E3 		mov	r0, #0
ARM GAS  C:\Users\NICOMA~1\AppData\Local\Temp\ccD2qZHI.s 			page 38


 2110 002c 0880BDE8 		ldmfd	sp!, {r3, pc}
 2111              	.L100:
 2112              		.align	2
 2113              	.L99:
 2114 0030 00000000 		.word	.LANCHOR2
 2115              		.cfi_endproc
 2116              	.LFE13:
 2117              		.size	thread2H, .-thread2H
 2118              		.global	patternmtx
 2119              		.global	testmtx8
 2120              		.global	testmtx7
 2121              		.global	testmtx6
 2122              		.global	testmtx5
 2123              		.global	testmtx4
 2124              		.global	testmtx3
 2125              		.global	testmtx2
 2126              		.global	testmtx1
 2127              		.section	.rodata.testmtx5,"a",%progbits
 2128              		.align	2
 2129              		.type	testmtx5, %object
 2130              		.size	testmtx5, 16
 2131              	testmtx5:
 2132 0000 64000000 		.word	.LC10
 2133 0004 00000000 		.word	mtx5_setup
 2134 0008 00000000 		.word	0
 2135 000c 00000000 		.word	mtx5_execute
 2136              		.section	.rodata.testmtx6,"a",%progbits
 2137              		.align	2
 2138              		.type	testmtx6, %object
 2139              		.size	testmtx6, 16
 2140              	testmtx6:
 2141 0000 4C000000 		.word	.LC9
 2142 0004 00000000 		.word	mtx6_setup
 2143 0008 00000000 		.word	0
 2144 000c 00000000 		.word	mtx6_execute
 2145              		.section	.rodata.testmtx7,"a",%progbits
 2146              		.align	2
 2147              		.type	testmtx7, %object
 2148              		.size	testmtx7, 16
 2149              	testmtx7:
 2150 0000 34000000 		.word	.LC8
 2151 0004 00000000 		.word	mtx7_setup
 2152 0008 00000000 		.word	0
 2153 000c 00000000 		.word	mtx7_execute
 2154              		.section	.rodata.testmtx8,"a",%progbits
 2155              		.align	2
 2156              		.type	testmtx8, %object
 2157              		.size	testmtx8, 16
 2158              	testmtx8:
 2159 0000 20000000 		.word	.LC7
 2160 0004 00000000 		.word	mtx8_setup
 2161 0008 00000000 		.word	0
 2162 000c 00000000 		.word	mtx8_execute
 2163              		.section	.data.m1,"aw",%progbits
 2164              		.align	2
 2165              		.set	.LANCHOR2,. + 0
 2166              		.type	m1, %object
ARM GAS  C:\Users\NICOMA~1\AppData\Local\Temp\ccD2qZHI.s 			page 39


 2167              		.size	m1, 16
 2168              	m1:
 2169 0000 00000000 		.word	m1
 2170 0004 00000000 		.word	m1
 2171 0008 00000000 		.word	0
 2172 000c 00000000 		.word	0
 2173              		.section	.data.m2,"aw",%progbits
 2174              		.align	2
 2175              		.set	.LANCHOR1,. + 0
 2176              		.type	m2, %object
 2177              		.size	m2, 16
 2178              	m2:
 2179 0000 00000000 		.word	m2
 2180 0004 00000000 		.word	m2
 2181 0008 00000000 		.word	0
 2182 000c 00000000 		.word	0
 2183              		.section	.rodata.str1.4,"aMS",%progbits,1
 2184              		.align	2
 2185              	.LC0:
 2186 0000 4100     		.ascii	"A\000"
 2187 0002 0000     		.space	2
 2188              	.LC1:
 2189 0004 4300     		.ascii	"C\000"
 2190 0006 0000     		.space	2
 2191              	.LC2:
 2192 0008 4200     		.ascii	"B\000"
 2193 000a 0000     		.space	2
 2194              	.LC3:
 2195 000c 41424300 		.ascii	"ABC\000"
 2196              	.LC4:
 2197 0010 4500     		.ascii	"E\000"
 2198 0012 0000     		.space	2
 2199              	.LC5:
 2200 0014 4400     		.ascii	"D\000"
 2201 0016 0000     		.space	2
 2202              	.LC6:
 2203 0018 41424344 		.ascii	"ABCDE\000"
 2203      4500
 2204 001e 0000     		.space	2
 2205              	.LC7:
 2206 0020 436F6E64 		.ascii	"CondVar, boost test\000"
 2206      5661722C 
 2206      20626F6F 
 2206      73742074 
 2206      65737400 
 2207              	.LC8:
 2208 0034 436F6E64 		.ascii	"CondVar, broadcast test\000"
 2208      5661722C 
 2208      2062726F 
 2208      61646361 
 2208      73742074 
 2209              	.LC9:
 2210 004c 436F6E64 		.ascii	"CondVar, signal test\000"
 2210      5661722C 
 2210      20736967 
 2210      6E616C20 
 2210      74657374 
ARM GAS  C:\Users\NICOMA~1\AppData\Local\Temp\ccD2qZHI.s 			page 40


 2211 0061 000000   		.space	3
 2212              	.LC10:
 2213 0064 4D757465 		.ascii	"Mutexes, status\000"
 2213      7865732C 
 2213      20737461 
 2213      74757300 
 2214              	.LC11:
 2215 0074 4D757465 		.ascii	"Mutexes, priority return\000"
 2215      7865732C 
 2215      20707269 
 2215      6F726974 
 2215      79207265 
 2216 008d 000000   		.space	3
 2217              	.LC12:
 2218 0090 4D757465 		.ascii	"Mutexes, priority inheritance, complex case\000"
 2218      7865732C 
 2218      20707269 
 2218      6F726974 
 2218      7920696E 
 2219              	.LC13:
 2220 00bc 4D757465 		.ascii	"Mutexes, priority inheritance, simple case\000"
 2220      7865732C 
 2220      20707269 
 2220      6F726974 
 2220      7920696E 
 2221 00e7 00       		.space	1
 2222              	.LC14:
 2223 00e8 4D757465 		.ascii	"Mutexes, priority enqueuing test\000"
 2223      7865732C 
 2223      20707269 
 2223      6F726974 
 2223      7920656E 
 2224 0109 000000   		.section	.rodata.patternmtx,"a",%progbits
 2225              		.align	2
 2226              		.type	patternmtx, %object
 2227              		.size	patternmtx, 36
 2228              	patternmtx:
 2229 0000 00000000 		.word	testmtx1
 2230 0004 00000000 		.word	testmtx2
 2231 0008 00000000 		.word	testmtx3
 2232 000c 00000000 		.word	testmtx4
 2233 0010 00000000 		.word	testmtx5
 2234 0014 00000000 		.word	testmtx6
 2235 0018 00000000 		.word	testmtx7
 2236 001c 00000000 		.word	testmtx8
 2237 0020 00000000 		.word	0
 2238              		.section	.data.c1,"aw",%progbits
 2239              		.align	2
 2240              		.set	.LANCHOR0,. + 0
 2241              		.type	c1, %object
 2242              		.size	c1, 8
 2243              	c1:
 2244 0000 00000000 		.word	c1
 2245 0004 00000000 		.word	c1
 2246              		.section	.rodata.testmtx1,"a",%progbits
 2247              		.align	2
 2248              		.type	testmtx1, %object
ARM GAS  C:\Users\NICOMA~1\AppData\Local\Temp\ccD2qZHI.s 			page 41


 2249              		.size	testmtx1, 16
 2250              	testmtx1:
 2251 0000 E8000000 		.word	.LC14
 2252 0004 00000000 		.word	mtx1_setup
 2253 0008 00000000 		.word	0
 2254 000c 00000000 		.word	mtx1_execute
 2255              		.section	.rodata.testmtx2,"a",%progbits
 2256              		.align	2
 2257              		.type	testmtx2, %object
 2258              		.size	testmtx2, 16
 2259              	testmtx2:
 2260 0000 BC000000 		.word	.LC13
 2261 0004 00000000 		.word	mtx2_setup
 2262 0008 00000000 		.word	0
 2263 000c 00000000 		.word	mtx2_execute
 2264              		.section	.rodata.testmtx3,"a",%progbits
 2265              		.align	2
 2266              		.type	testmtx3, %object
 2267              		.size	testmtx3, 16
 2268              	testmtx3:
 2269 0000 90000000 		.word	.LC12
 2270 0004 00000000 		.word	mtx3_setup
 2271 0008 00000000 		.word	0
 2272 000c 00000000 		.word	mtx3_execute
 2273              		.section	.rodata.testmtx4,"a",%progbits
 2274              		.align	2
 2275              		.type	testmtx4, %object
 2276              		.size	testmtx4, 16
 2277              	testmtx4:
 2278 0000 74000000 		.word	.LC11
 2279 0004 00000000 		.word	mtx4_setup
 2280 0008 00000000 		.word	0
 2281 000c 00000000 		.word	mtx4_execute
 2282              		.text
 2283              	.Letext0:
 2284              		.file 2 "c:\\yagarto-20121222\\bin\\../lib/gcc/arm-none-eabi/4.7.2/include/stddef.h"
 2285              		.file 3 "c:/yagarto-20121222/lib/gcc/../../arm-none-eabi/sys-include/stdint.h"
 2286              		.file 4 "../../os/ports/GCC/ARM/chtypes.h"
 2287              		.file 5 "../../os/kernel/include/chlists.h"
 2288              		.file 6 "../../os/kernel/include/chthreads.h"
 2289              		.file 7 "../../os/ports/GCC/ARM/chcore.h"
 2290              		.file 8 "../../os/kernel/include/chvt.h"
 2291              		.file 9 "../../os/kernel/include/chschd.h"
 2292              		.file 10 "../../os/kernel/include/chmtx.h"
 2293              		.file 11 "../../os/kernel/include/chcond.h"
 2294              		.file 12 "../../test/test.h"