ARM GAS  C:\Users\NICOMA~1\AppData\Local\Temp\ccroyi1e.s 			page 1


   1              		.cpu arm1176jz-s
   2              		.fpu softvfp
   3              		.eabi_attribute 20, 1
   4              		.eabi_attribute 21, 1
   5              		.eabi_attribute 23, 3
   6              		.eabi_attribute 24, 1
   7              		.eabi_attribute 25, 1
   8              		.eabi_attribute 26, 1
   9              		.eabi_attribute 30, 2
  10              		.eabi_attribute 34, 1
  11              		.eabi_attribute 18, 4
  12              		.file	"testsem.c"
  13              		.text
  14              	.Ltext0:
  15              		.cfi_sections	.debug_frame
  16              		.section	.text.sem3_setup,"ax",%progbits
  17              		.align	2
  18              		.type	sem3_setup, %function
  19              	sem3_setup:
  20              	.LFB13:
  21              		.file 1 "../../test/testsem.c"
  22              		.loc 1 205 0
  23              		.cfi_startproc
  24              		@ args = 0, pretend = 0, frame = 0
  25              		@ frame_needed = 0, uses_anonymous_args = 0
  26              		@ link register save eliminated.
  27              		.loc 1 207 0
  28 0000 04009FE5 		ldr	r0, .L2
  29 0004 0010A0E3 		mov	r1, #0
  30              		.loc 1 208 0
  31              		.loc 1 207 0
  32 0008 FEFFFFEA 		b	chSemInit
  33              	.LVL0:
  34              	.L3:
  35              		.align	2
  36              	.L2:
  37 000c 00000000 		.word	.LANCHOR0
  38              		.cfi_endproc
  39              	.LFE13:
  40              		.size	sem3_setup, .-sem3_setup
  41              		.section	.text.sem2_setup,"ax",%progbits
  42              		.align	2
  43              		.type	sem2_setup, %function
  44              	sem2_setup:
  45              	.LFB10:
  46              		.loc 1 129 0
  47              		.cfi_startproc
  48              		@ args = 0, pretend = 0, frame = 0
  49              		@ frame_needed = 0, uses_anonymous_args = 0
  50              		@ link register save eliminated.
  51              		.loc 1 131 0
  52 0000 04009FE5 		ldr	r0, .L5
  53 0004 0010A0E3 		mov	r1, #0
  54              		.loc 1 132 0
  55              		.loc 1 131 0
  56 0008 FEFFFFEA 		b	chSemInit
  57              	.LVL1:
ARM GAS  C:\Users\NICOMA~1\AppData\Local\Temp\ccroyi1e.s 			page 2


  58              	.L6:
  59              		.align	2
  60              	.L5:
  61 000c 00000000 		.word	.LANCHOR0
  62              		.cfi_endproc
  63              	.LFE10:
  64              		.size	sem2_setup, .-sem2_setup
  65              		.section	.text.sem1_setup,"ax",%progbits
  66              		.align	2
  67              		.type	sem1_setup, %function
  68              	sem1_setup:
  69              	.LFB7:
  70              		.loc 1 72 0
  71              		.cfi_startproc
  72              		@ args = 0, pretend = 0, frame = 0
  73              		@ frame_needed = 0, uses_anonymous_args = 0
  74              		@ link register save eliminated.
  75              		.loc 1 74 0
  76 0000 04009FE5 		ldr	r0, .L8
  77 0004 0010A0E3 		mov	r1, #0
  78              		.loc 1 75 0
  79              		.loc 1 74 0
  80 0008 FEFFFFEA 		b	chSemInit
  81              	.LVL2:
  82              	.L9:
  83              		.align	2
  84              	.L8:
  85 000c 00000000 		.word	.LANCHOR0
  86              		.cfi_endproc
  87              	.LFE7:
  88              		.size	sem1_setup, .-sem1_setup
  89              		.section	.text.sem4_execute,"ax",%progbits
  90              		.align	2
  91              		.type	sem4_execute, %function
  92              	sem4_execute:
  93              	.LFB17:
  94              		.loc 1 252 0
  95              		.cfi_startproc
  96              		@ args = 0, pretend = 0, frame = 16
  97              		@ frame_needed = 0, uses_anonymous_args = 0
  98 0000 04E02DE5 		str	lr, [sp, #-4]!
  99              	.LCFI0:
 100              		.cfi_def_cfa_offset 4
 101              		.cfi_offset 14, -4
 102 0004 1CD04DE2 		sub	sp, sp, #28
 103              	.LCFI1:
 104              		.cfi_def_cfa_offset 32
 105              		.loc 1 256 0
 106 0008 0010A0E3 		mov	r1, #0
 107 000c 0C008DE2 		add	r0, sp, #12
 108 0010 FEFFFFEB 		bl	chSemInit
 109              	.LVL3:
 110              		.loc 1 257 0
 111 0014 0C008DE2 		add	r0, sp, #12
 112 0018 0010A0E3 		mov	r1, #0
 113 001c FEFFFFEB 		bl	chSemReset
 114              	.LVL4:
ARM GAS  C:\Users\NICOMA~1\AppData\Local\Temp\ccroyi1e.s 			page 3


 115              		.loc 1 258 0
 116 0020 14109DE5 		ldr	r1, [sp, #20]
 117 0024 0100A0E3 		mov	r0, #1
 118 0028 000051E3 		cmp	r1, #0
 119 002c 0010A0C3 		movgt	r1, #0
 120 0030 0110A0D3 		movle	r1, #1
 121 0034 FEFFFFEB 		bl	_test_assert
 122              	.LVL5:
 123 0038 000050E3 		cmp	r0, #0
 124 003c 0100000A 		beq	.L16
 125              	.L10:
 126              		.loc 1 280 0
 127 0040 1CD08DE2 		add	sp, sp, #28
 128 0044 0080BDE8 		ldmfd	sp!, {pc}
 129              	.L16:
 130              		.loc 1 262 0
 131 0048 18319FE5 		ldr	r3, .L19
 132              		.loc 1 261 0
 133 004c 0C008DE2 		add	r0, sp, #12
 134              		.loc 1 262 0
 135 0050 183093E5 		ldr	r3, [r3, #24]
 136              		.loc 1 261 0
 137 0054 461FA0E3 		mov	r1, #280
 138 0058 082093E5 		ldr	r2, [r3, #8]
 139 005c 00008DE5 		str	r0, [sp, #0]
 140 0060 04019FE5 		ldr	r0, .L19+4
 141 0064 012042E2 		sub	r2, r2, #1
 142 0068 00319FE5 		ldr	r3, .L19+8
 143 006c 000090E5 		ldr	r0, [r0, #0]
 144 0070 FEFFFFEB 		bl	chThdCreateStatic
 145              	.LVL6:
 146 0074 F8309FE5 		ldr	r3, .L19+12
 147 0078 000083E5 		str	r0, [r3, #0]
 148              		.loc 1 265 0
 149 007c 0C008DE2 		add	r0, sp, #12
 150 0080 FEFFFFEB 		bl	chSemWait
 151              	.LVL7:
 152              		.loc 1 268 0
 153 0084 14109DE5 		ldr	r1, [sp, #20]
 154 0088 0200A0E3 		mov	r0, #2
 155 008c 000051E3 		cmp	r1, #0
 156 0090 0010A0C3 		movgt	r1, #0
 157 0094 0110A0D3 		movle	r1, #1
 158 0098 FEFFFFEB 		bl	_test_assert
 159              	.LVL8:
 160 009c 000050E3 		cmp	r0, #0
 161 00a0 E6FFFF1A 		bne	.L10
 162              		.loc 1 272 0
 163              	@ 272 "../../test/testsem.c" 1
 164 00a4 9FF021E3 		msr     CPSR_c, #0x9F
 165              	@ 0 "" 2
 166 00a8 14309DE5 		ldr	r3, [sp, #20]
 167 00ac 000053E3 		cmp	r3, #0
 168 00b0 260000DA 		ble	.L17
 169              	.L12:
 170              		.loc 1 272 0 is_stmt 0 discriminator 2
 171 00b4 FEFFFFEB 		bl	chSchRescheduleS
ARM GAS  C:\Users\NICOMA~1\AppData\Local\Temp\ccroyi1e.s 			page 4


 172              	.LVL9:
 173              	@ 272 "../../test/testsem.c" 1
 174 00b8 1FF021E3 		msr     CPSR_c, #0x1F
 175              	@ 0 "" 2
 176              		.loc 1 273 0 is_stmt 1 discriminator 2
 177 00bc 14109DE5 		ldr	r1, [sp, #20]
 178 00c0 0300A0E3 		mov	r0, #3
 179 00c4 000051E3 		cmp	r1, #0
 180 00c8 0010A0D3 		movle	r1, #0
 181 00cc 0110A0C3 		movgt	r1, #1
 182 00d0 FEFFFFEB 		bl	_test_assert
 183              	.LVL10:
 184 00d4 000050E3 		cmp	r0, #0
 185 00d8 D8FFFF1A 		bne	.L10
 186              		.loc 1 274 0
 187 00dc 14109DE5 		ldr	r1, [sp, #20]
 188 00e0 0400A0E3 		mov	r0, #4
 189 00e4 012051E2 		subs	r2, r1, #1
 190 00e8 001072E2 		rsbs	r1, r2, #0
 191 00ec 0210B1E0 		adcs	r1, r1, r2
 192 00f0 FEFFFFEB 		bl	_test_assert
 193              	.LVL11:
 194 00f4 000050E3 		cmp	r0, #0
 195 00f8 D0FFFF1A 		bne	.L10
 196              		.loc 1 277 0
 197              	@ 277 "../../test/testsem.c" 1
 198 00fc 9FF021E3 		msr     CPSR_c, #0x9F
 199              	@ 0 "" 2
 200 0100 14309DE5 		ldr	r3, [sp, #20]
 201 0104 000053E3 		cmp	r3, #0
 202 0108 130000DA 		ble	.L18
 203              	.L13:
 204              		.loc 1 277 0 is_stmt 0 discriminator 2
 205 010c FEFFFFEB 		bl	chSchRescheduleS
 206              	.LVL12:
 207              	@ 277 "../../test/testsem.c" 1
 208 0110 1FF021E3 		msr     CPSR_c, #0x1F
 209              	@ 0 "" 2
 210              		.loc 1 278 0 is_stmt 1 discriminator 2
 211 0114 14109DE5 		ldr	r1, [sp, #20]
 212 0118 0300A0E3 		mov	r0, #3
 213 011c 000051E3 		cmp	r1, #0
 214 0120 0010A0D3 		movle	r1, #0
 215 0124 0110A0C3 		movgt	r1, #1
 216 0128 FEFFFFEB 		bl	_test_assert
 217              	.LVL13:
 218 012c 000050E3 		cmp	r0, #0
 219 0130 C2FFFF1A 		bne	.L10
 220              		.loc 1 279 0
 221 0134 14109DE5 		ldr	r1, [sp, #20]
 222 0138 0500A0E3 		mov	r0, #5
 223 013c 013051E2 		subs	r3, r1, #1
 224 0140 001073E2 		rsbs	r1, r3, #0
 225 0144 0310B1E0 		adcs	r1, r1, r3
 226 0148 FEFFFFEB 		bl	_test_assert
 227              	.LVL14:
 228 014c BBFFFFEA 		b	.L10
ARM GAS  C:\Users\NICOMA~1\AppData\Local\Temp\ccroyi1e.s 			page 5


 229              	.L17:
 230              		.loc 1 272 0 discriminator 1
 231 0150 0C008DE2 		add	r0, sp, #12
 232 0154 FEFFFFEB 		bl	chSemSignalI
 233              	.LVL15:
 234 0158 D5FFFFEA 		b	.L12
 235              	.L18:
 236              		.loc 1 277 0 discriminator 1
 237 015c 0C008DE2 		add	r0, sp, #12
 238 0160 FEFFFFEB 		bl	chSemSignalI
 239              	.LVL16:
 240 0164 E8FFFFEA 		b	.L13
 241              	.L20:
 242              		.align	2
 243              	.L19:
 244 0168 00000000 		.word	rlist
 245 016c 00000000 		.word	wa
 246 0170 00000000 		.word	thread4
 247 0174 00000000 		.word	threads
 248              		.cfi_endproc
 249              	.LFE17:
 250              		.size	sem4_execute, .-sem4_execute
 251              		.section	.text.thread4,"ax",%progbits
 252              		.align	2
 253              		.type	thread4, %function
 254              	thread4:
 255              	.LFB16:
 256              		.loc 1 246 0
 257              		.cfi_startproc
 258              		@ args = 0, pretend = 0, frame = 0
 259              		@ frame_needed = 0, uses_anonymous_args = 0
 260              	.LVL17:
 261 0000 08402DE9 		stmfd	sp!, {r3, lr}
 262              	.LCFI2:
 263              		.cfi_def_cfa_offset 8
 264              		.cfi_offset 3, -8
 265              		.cfi_offset 14, -4
 266              		.loc 1 248 0
 267              	@ 248 "../../test/testsem.c" 1
 268 0004 9FF021E3 		msr     CPSR_c, #0x9F
 269              	@ 0 "" 2
 270 0008 083090E5 		ldr	r3, [r0, #8]
 271 000c 000053E3 		cmp	r3, #0
 272 0010 030000DA 		ble	.L23
 273              	.LVL18:
 274              	.L22:
 275              		.loc 1 248 0 is_stmt 0 discriminator 2
 276 0014 FEFFFFEB 		bl	chSchRescheduleS
 277              	.LVL19:
 278              	@ 248 "../../test/testsem.c" 1
 279 0018 1FF021E3 		msr     CPSR_c, #0x1F
 280              	@ 0 "" 2
 281              		.loc 1 250 0 is_stmt 1 discriminator 2
 282 001c 0000A0E3 		mov	r0, #0
 283 0020 0880BDE8 		ldmfd	sp!, {r3, pc}
 284              	.LVL20:
 285              	.L23:
ARM GAS  C:\Users\NICOMA~1\AppData\Local\Temp\ccroyi1e.s 			page 6


 286              		.loc 1 248 0 discriminator 1
 287 0024 FEFFFFEB 		bl	chSemSignalI
 288              	.LVL21:
 289 0028 F9FFFFEA 		b	.L22
 290              		.cfi_endproc
 291              	.LFE16:
 292              		.size	thread4, .-thread4
 293              		.section	.text.thread3,"ax",%progbits
 294              		.align	2
 295              		.type	thread3, %function
 296              	thread3:
 297              	.LFB14:
 298              		.loc 1 210 0
 299              		.cfi_startproc
 300              		@ args = 0, pretend = 0, frame = 0
 301              		@ frame_needed = 0, uses_anonymous_args = 0
 302              	.LVL22:
 303 0000 10402DE9 		stmfd	sp!, {r4, lr}
 304              	.LCFI3:
 305              		.cfi_def_cfa_offset 8
 306              		.cfi_offset 4, -8
 307              		.cfi_offset 14, -4
 308              		.loc 1 213 0
 309 0004 14409FE5 		ldr	r4, .L25
 310 0008 0400A0E1 		mov	r0, r4
 311              	.LVL23:
 312 000c FEFFFFEB 		bl	chSemWait
 313              	.LVL24:
 314              		.loc 1 214 0
 315 0010 0400A0E1 		mov	r0, r4
 316 0014 FEFFFFEB 		bl	chSemSignal
 317              	.LVL25:
 318              		.loc 1 216 0
 319 0018 0000A0E3 		mov	r0, #0
 320 001c 1080BDE8 		ldmfd	sp!, {r4, pc}
 321              	.L26:
 322              		.align	2
 323              	.L25:
 324 0020 00000000 		.word	.LANCHOR0
 325              		.cfi_endproc
 326              	.LFE14:
 327              		.size	thread3, .-thread3
 328              		.section	.text.thread1,"ax",%progbits
 329              		.align	2
 330              		.type	thread1, %function
 331              	thread1:
 332              	.LFB8:
 333              		.loc 1 77 0
 334              		.cfi_startproc
 335              		@ args = 0, pretend = 0, frame = 0
 336              		@ frame_needed = 0, uses_anonymous_args = 0
 337              	.LVL26:
 338 0000 10402DE9 		stmfd	sp!, {r4, lr}
 339              	.LCFI4:
 340              		.cfi_def_cfa_offset 8
 341              		.cfi_offset 4, -8
 342              		.cfi_offset 14, -4
ARM GAS  C:\Users\NICOMA~1\AppData\Local\Temp\ccroyi1e.s 			page 7


 343              		.loc 1 77 0
 344 0004 0040A0E1 		mov	r4, r0
 345              		.loc 1 79 0
 346 0008 10009FE5 		ldr	r0, .L28
 347              	.LVL27:
 348 000c FEFFFFEB 		bl	chSemWait
 349              	.LVL28:
 350              		.loc 1 80 0
 351 0010 0000D4E5 		ldrb	r0, [r4, #0]	@ zero_extendqisi2
 352 0014 FEFFFFEB 		bl	test_emit_token
 353              	.LVL29:
 354              		.loc 1 82 0
 355 0018 0000A0E3 		mov	r0, #0
 356 001c 1080BDE8 		ldmfd	sp!, {r4, pc}
 357              	.L29:
 358              		.align	2
 359              	.L28:
 360 0020 00000000 		.word	.LANCHOR0
 361              		.cfi_endproc
 362              	.LFE8:
 363              		.size	thread1, .-thread1
 364              		.section	.text.thread2,"ax",%progbits
 365              		.align	2
 366              		.type	thread2, %function
 367              	thread2:
 368              	.LFB11:
 369              		.loc 1 134 0
 370              		.cfi_startproc
 371              		@ args = 0, pretend = 0, frame = 0
 372              		@ frame_needed = 0, uses_anonymous_args = 0
 373              	.LVL30:
 374 0000 08402DE9 		stmfd	sp!, {r3, lr}
 375              	.LCFI5:
 376              		.cfi_def_cfa_offset 8
 377              		.cfi_offset 3, -8
 378              		.cfi_offset 14, -4
 379              		.loc 1 137 0
 380 0004 3200A0E3 		mov	r0, #50
 381              	.LVL31:
 382 0008 FEFFFFEB 		bl	chThdSleep
 383              	.LVL32:
 384              		.loc 1 138 0
 385              	@ 138 "../../test/testsem.c" 1
 386 000c 9FF021E3 		msr     CPSR_c, #0x9F
 387              	@ 0 "" 2
 388              		.loc 1 139 0
 389 0010 10009FE5 		ldr	r0, .L31
 390 0014 FEFFFFEB 		bl	chSemSignalI
 391              	.LVL33:
 392              		.loc 1 140 0
 393 0018 FEFFFFEB 		bl	chSchRescheduleS
 394              	.LVL34:
 395              		.loc 1 141 0
 396              	@ 141 "../../test/testsem.c" 1
 397 001c 1FF021E3 		msr     CPSR_c, #0x1F
 398              	@ 0 "" 2
 399              		.loc 1 143 0
ARM GAS  C:\Users\NICOMA~1\AppData\Local\Temp\ccroyi1e.s 			page 8


 400 0020 0000A0E3 		mov	r0, #0
 401 0024 0880BDE8 		ldmfd	sp!, {r3, pc}
 402              	.L32:
 403              		.align	2
 404              	.L31:
 405 0028 00000000 		.word	.LANCHOR0
 406              		.cfi_endproc
 407              	.LFE11:
 408              		.size	thread2, .-thread2
 409              		.section	.text.sem1_execute,"ax",%progbits
 410              		.align	2
 411              		.type	sem1_execute, %function
 412              	sem1_execute:
 413              	.LFB9:
 414              		.loc 1 84 0
 415              		.cfi_startproc
 416              		@ args = 0, pretend = 0, frame = 0
 417              		@ frame_needed = 0, uses_anonymous_args = 0
 418 0000 F0412DE9 		stmfd	sp!, {r4, r5, r6, r7, r8, lr}
 419              	.LCFI6:
 420              		.cfi_def_cfa_offset 24
 421              		.cfi_offset 4, -24
 422              		.cfi_offset 5, -20
 423              		.cfi_offset 6, -16
 424              		.cfi_offset 7, -12
 425              		.cfi_offset 8, -8
 426              		.cfi_offset 14, -4
 427              		.loc 1 86 0
 428 0004 90619FE5 		ldr	r6, .L36
 429 0008 90419FE5 		ldr	r4, .L36+4
 430 000c 183096E5 		ldr	r3, [r6, #24]
 431 0010 007094E5 		ldr	r7, [r4, #0]
 432 0014 082093E5 		ldr	r2, [r3, #8]
 433 0018 84819FE5 		ldr	r8, .L36+8
 434              		.loc 1 84 0
 435 001c 08D04DE2 		sub	sp, sp, #8
 436              	.LCFI7:
 437              		.cfi_def_cfa_offset 32
 438              		.loc 1 86 0
 439 0020 461FA0E3 		mov	r1, #280
 440 0024 052082E2 		add	r2, r2, #5
 441 0028 78319FE5 		ldr	r3, .L36+12
 442 002c 00808DE5 		str	r8, [sp, #0]
 443 0030 0700A0E1 		mov	r0, r7
 444 0034 FEFFFFEB 		bl	chThdCreateStatic
 445              	.LVL35:
 446 0038 6C519FE5 		ldr	r5, .L36+16
 447              		.loc 1 87 0
 448 003c 183096E5 		ldr	r3, [r6, #24]
 449 0040 04C094E5 		ldr	ip, [r4, #4]
 450 0044 082093E5 		ldr	r2, [r3, #8]
 451              		.loc 1 86 0
 452 0048 000085E5 		str	r0, [r5, #0]
 453              		.loc 1 87 0
 454 004c 5C019FE5 		ldr	r0, .L36+20
 455 0050 461FA0E3 		mov	r1, #280
 456 0054 012082E2 		add	r2, r2, #1
ARM GAS  C:\Users\NICOMA~1\AppData\Local\Temp\ccroyi1e.s 			page 9


 457 0058 48319FE5 		ldr	r3, .L36+12
 458 005c 00008DE5 		str	r0, [sp, #0]
 459 0060 0C00A0E1 		mov	r0, ip
 460 0064 FEFFFFEB 		bl	chThdCreateStatic
 461              	.LVL36:
 462              		.loc 1 88 0
 463 0068 183096E5 		ldr	r3, [r6, #24]
 464 006c 08C094E5 		ldr	ip, [r4, #8]
 465 0070 082093E5 		ldr	r2, [r3, #8]
 466              		.loc 1 87 0
 467 0074 040085E5 		str	r0, [r5, #4]
 468              		.loc 1 88 0
 469 0078 34019FE5 		ldr	r0, .L36+24
 470 007c 461FA0E3 		mov	r1, #280
 471 0080 032082E2 		add	r2, r2, #3
 472 0084 1C319FE5 		ldr	r3, .L36+12
 473 0088 00008DE5 		str	r0, [sp, #0]
 474 008c 0C00A0E1 		mov	r0, ip
 475 0090 FEFFFFEB 		bl	chThdCreateStatic
 476              	.LVL37:
 477              		.loc 1 89 0
 478 0094 183096E5 		ldr	r3, [r6, #24]
 479 0098 0CC094E5 		ldr	ip, [r4, #12]
 480 009c 082093E5 		ldr	r2, [r3, #8]
 481              		.loc 1 88 0
 482 00a0 080085E5 		str	r0, [r5, #8]
 483              		.loc 1 89 0
 484 00a4 0C019FE5 		ldr	r0, .L36+28
 485 00a8 461FA0E3 		mov	r1, #280
 486 00ac 042082E2 		add	r2, r2, #4
 487 00b0 F0309FE5 		ldr	r3, .L36+12
 488 00b4 00008DE5 		str	r0, [sp, #0]
 489 00b8 0C00A0E1 		mov	r0, ip
 490 00bc FEFFFFEB 		bl	chThdCreateStatic
 491              	.LVL38:
 492              		.loc 1 90 0
 493 00c0 183096E5 		ldr	r3, [r6, #24]
 494 00c4 10C094E5 		ldr	ip, [r4, #16]
 495 00c8 082093E5 		ldr	r2, [r3, #8]
 496              		.loc 1 89 0
 497 00cc 0C0085E5 		str	r0, [r5, #12]
 498              		.loc 1 90 0
 499 00d0 E4009FE5 		ldr	r0, .L36+32
 500 00d4 461FA0E3 		mov	r1, #280
 501 00d8 022082E2 		add	r2, r2, #2
 502 00dc C4309FE5 		ldr	r3, .L36+12
 503 00e0 00008DE5 		str	r0, [sp, #0]
 504 00e4 0C00A0E1 		mov	r0, ip
 505 00e8 FEFFFFEB 		bl	chThdCreateStatic
 506              	.LVL39:
 507              		.loc 1 91 0
 508 00ec CC409FE5 		ldr	r4, .L36+36
 509              		.loc 1 90 0
 510 00f0 100085E5 		str	r0, [r5, #16]
 511              		.loc 1 91 0
 512 00f4 0400A0E1 		mov	r0, r4
 513 00f8 FEFFFFEB 		bl	chSemSignal
ARM GAS  C:\Users\NICOMA~1\AppData\Local\Temp\ccroyi1e.s 			page 10


 514              	.LVL40:
 515              		.loc 1 92 0
 516 00fc 0400A0E1 		mov	r0, r4
 517 0100 FEFFFFEB 		bl	chSemSignal
 518              	.LVL41:
 519              		.loc 1 93 0
 520 0104 0400A0E1 		mov	r0, r4
 521 0108 FEFFFFEB 		bl	chSemSignal
 522              	.LVL42:
 523              		.loc 1 94 0
 524 010c 0400A0E1 		mov	r0, r4
 525 0110 FEFFFFEB 		bl	chSemSignal
 526              	.LVL43:
 527              		.loc 1 95 0
 528 0114 0400A0E1 		mov	r0, r4
 529 0118 FEFFFFEB 		bl	chSemSignal
 530              	.LVL44:
 531              		.loc 1 96 0
 532 011c FEFFFFEB 		bl	test_wait_threads
 533              	.LVL45:
 534              		.loc 1 100 0
 535 0120 0100A0E3 		mov	r0, #1
 536 0124 98109FE5 		ldr	r1, .L36+40
 537 0128 FEFFFFEB 		bl	_test_assert_sequence
 538              	.LVL46:
 539 012c 000050E3 		cmp	r0, #0
 540 0130 0100000A 		beq	.L35
 541              		.loc 1 109 0
 542 0134 08D08DE2 		add	sp, sp, #8
 543 0138 F081BDE8 		ldmfd	sp!, {r4, r5, r6, r7, r8, pc}
 544              	.L35:
 545              		.loc 1 102 0
 546 013c 183096E5 		ldr	r3, [r6, #24]
 547 0140 0700A0E1 		mov	r0, r7
 548 0144 082093E5 		ldr	r2, [r3, #8]
 549 0148 461FA0E3 		mov	r1, #280
 550 014c 00808DE5 		str	r8, [sp, #0]
 551 0150 052082E2 		add	r2, r2, #5
 552 0154 4C309FE5 		ldr	r3, .L36+12
 553 0158 FEFFFFEB 		bl	chThdCreateStatic
 554              	.LVL47:
 555 015c 000085E5 		str	r0, [r5, #0]
 556              		.loc 1 103 0
 557              	@ 103 "../../test/testsem.c" 1
 558 0160 9FF021E3 		msr     CPSR_c, #0x9F
 559              	@ 0 "" 2
 560              		.loc 1 104 0
 561 0164 0210A0E3 		mov	r1, #2
 562 0168 0400A0E1 		mov	r0, r4
 563 016c FEFFFFEB 		bl	chSemAddCounterI
 564              	.LVL48:
 565              		.loc 1 105 0
 566 0170 FEFFFFEB 		bl	chSchRescheduleS
 567              	.LVL49:
 568              		.loc 1 106 0
 569              	@ 106 "../../test/testsem.c" 1
 570 0174 1FF021E3 		msr     CPSR_c, #0x1F
ARM GAS  C:\Users\NICOMA~1\AppData\Local\Temp\ccroyi1e.s 			page 11


 571              	@ 0 "" 2
 572              		.loc 1 107 0
 573 0178 FEFFFFEB 		bl	test_wait_threads
 574              	.LVL50:
 575              		.loc 1 108 0
 576 017c 081094E5 		ldr	r1, [r4, #8]
 577 0180 0200A0E3 		mov	r0, #2
 578 0184 01C051E2 		subs	ip, r1, #1
 579 0188 00107CE2 		rsbs	r1, ip, #0
 580 018c 0C10B1E0 		adcs	r1, r1, ip
 581              		.loc 1 109 0
 582 0190 08D08DE2 		add	sp, sp, #8
 583 0194 F041BDE8 		ldmfd	sp!, {r4, r5, r6, r7, r8, lr}
 584              		.loc 1 108 0
 585 0198 FEFFFFEA 		b	_test_assert
 586              	.LVL51:
 587              	.L37:
 588              		.align	2
 589              	.L36:
 590 019c 00000000 		.word	rlist
 591 01a0 00000000 		.word	wa
 592 01a4 00000000 		.word	.LC0
 593 01a8 00000000 		.word	thread1
 594 01ac 00000000 		.word	threads
 595 01b0 04000000 		.word	.LC1
 596 01b4 08000000 		.word	.LC2
 597 01b8 0C000000 		.word	.LC3
 598 01bc 10000000 		.word	.LC4
 599 01c0 00000000 		.word	.LANCHOR0
 600 01c4 14000000 		.word	.LC5
 601              		.cfi_endproc
 602              	.LFE9:
 603              		.size	sem1_execute, .-sem1_execute
 604              		.section	.text.sem3_execute,"ax",%progbits
 605              		.align	2
 606              		.type	sem3_execute, %function
 607              	sem3_execute:
 608              	.LFB15:
 609              		.loc 1 218 0
 610              		.cfi_startproc
 611              		@ args = 0, pretend = 0, frame = 0
 612              		@ frame_needed = 0, uses_anonymous_args = 0
 613 0000 10402DE9 		stmfd	sp!, {r4, lr}
 614              	.LCFI8:
 615              		.cfi_def_cfa_offset 8
 616              		.cfi_offset 4, -8
 617              		.cfi_offset 14, -4
 618              		.loc 1 220 0
 619 0004 CC309FE5 		ldr	r3, .L43
 620              		.loc 1 218 0
 621 0008 08D04DE2 		sub	sp, sp, #8
 622              	.LCFI9:
 623              		.cfi_def_cfa_offset 16
 624              		.loc 1 220 0
 625 000c 183093E5 		ldr	r3, [r3, #24]
 626 0010 0000A0E3 		mov	r0, #0
 627 0014 082093E5 		ldr	r2, [r3, #8]
ARM GAS  C:\Users\NICOMA~1\AppData\Local\Temp\ccroyi1e.s 			page 12


 628 0018 00008DE5 		str	r0, [sp, #0]
 629 001c B8009FE5 		ldr	r0, .L43+4
 630 0020 012082E2 		add	r2, r2, #1
 631 0024 B4309FE5 		ldr	r3, .L43+8
 632 0028 461FA0E3 		mov	r1, #280
 633 002c 000090E5 		ldr	r0, [r0, #0]
 634 0030 FEFFFFEB 		bl	chThdCreateStatic
 635              	.LVL52:
 636              		.loc 1 221 0
 637 0034 A8409FE5 		ldr	r4, .L43+12
 638              		.loc 1 220 0
 639 0038 A8309FE5 		ldr	r3, .L43+16
 640              		.loc 1 221 0
 641 003c 0410A0E1 		mov	r1, r4
 642              		.loc 1 220 0
 643 0040 000083E5 		str	r0, [r3, #0]
 644              		.loc 1 221 0
 645 0044 0400A0E1 		mov	r0, r4
 646 0048 FEFFFFEB 		bl	chSemSignalWait
 647              	.LVL53:
 648              		.loc 1 222 0
 649 004c 001094E5 		ldr	r1, [r4, #0]
 650 0050 0100A0E3 		mov	r0, #1
 651 0054 043051E0 		subs	r3, r1, r4
 652 0058 001073E2 		rsbs	r1, r3, #0
 653 005c 0310B1E0 		adcs	r1, r1, r3
 654 0060 FEFFFFEB 		bl	_test_assert
 655              	.LVL54:
 656 0064 000050E3 		cmp	r0, #0
 657 0068 0100000A 		beq	.L42
 658              	.L38:
 659              		.loc 1 228 0
 660 006c 08D08DE2 		add	sp, sp, #8
 661 0070 1080BDE8 		ldmfd	sp!, {r4, pc}
 662              	.L42:
 663              		.loc 1 223 0
 664 0074 081094E5 		ldr	r1, [r4, #8]
 665 0078 0200A0E3 		mov	r0, #2
 666 007c 011071E2 		rsbs	r1, r1, #1
 667 0080 0010A033 		movcc	r1, #0
 668 0084 FEFFFFEB 		bl	_test_assert
 669              	.LVL55:
 670 0088 000050E3 		cmp	r0, #0
 671 008c F6FFFF1A 		bne	.L38
 672              	.LBB4:
 673              	.LBB5:
 674              		.loc 1 225 0
 675 0090 0410A0E1 		mov	r1, r4
 676 0094 0400A0E1 		mov	r0, r4
 677 0098 FEFFFFEB 		bl	chSemSignalWait
 678              	.LVL56:
 679              		.loc 1 226 0
 680 009c 001094E5 		ldr	r1, [r4, #0]
 681 00a0 0300A0E3 		mov	r0, #3
 682 00a4 04E051E0 		subs	lr, r1, r4
 683 00a8 00107EE2 		rsbs	r1, lr, #0
 684 00ac 0E10B1E0 		adcs	r1, r1, lr
ARM GAS  C:\Users\NICOMA~1\AppData\Local\Temp\ccroyi1e.s 			page 13


 685 00b0 FEFFFFEB 		bl	_test_assert
 686              	.LVL57:
 687 00b4 000050E3 		cmp	r0, #0
 688 00b8 EBFFFF1A 		bne	.L38
 689              		.loc 1 227 0
 690 00bc 081094E5 		ldr	r1, [r4, #8]
 691 00c0 0400A0E3 		mov	r0, #4
 692 00c4 011071E2 		rsbs	r1, r1, #1
 693 00c8 0010A033 		movcc	r1, #0
 694              	.LBE5:
 695              	.LBE4:
 696              		.loc 1 228 0
 697 00cc 08D08DE2 		add	sp, sp, #8
 698 00d0 1040BDE8 		ldmfd	sp!, {r4, lr}
 699              	.LBB7:
 700              	.LBB6:
 701              		.loc 1 227 0
 702 00d4 FEFFFFEA 		b	_test_assert
 703              	.LVL58:
 704              	.L44:
 705              		.align	2
 706              	.L43:
 707 00d8 00000000 		.word	rlist
 708 00dc 00000000 		.word	wa
 709 00e0 00000000 		.word	thread3
 710 00e4 00000000 		.word	.LANCHOR0
 711 00e8 00000000 		.word	threads
 712              	.LBE6:
 713              	.LBE7:
 714              		.cfi_endproc
 715              	.LFE15:
 716              		.size	sem3_execute, .-sem3_execute
 717              		.section	.text.sem2_execute,"ax",%progbits
 718              		.align	2
 719              		.type	sem2_execute, %function
 720              	sem2_execute:
 721              	.LFB12:
 722              		.loc 1 145 0
 723              		.cfi_startproc
 724              		@ args = 0, pretend = 0, frame = 0
 725              		@ frame_needed = 0, uses_anonymous_args = 0
 726 0000 70402DE9 		stmfd	sp!, {r4, r5, r6, lr}
 727              	.LCFI10:
 728              		.cfi_def_cfa_offset 16
 729              		.cfi_offset 4, -16
 730              		.cfi_offset 5, -12
 731              		.cfi_offset 6, -8
 732              		.cfi_offset 14, -4
 733              		.loc 1 153 0
 734 0004 C0419FE5 		ldr	r4, .L52
 735 0008 0010A0E3 		mov	r1, #0
 736              		.loc 1 145 0
 737 000c 08D04DE2 		sub	sp, sp, #8
 738              	.LCFI11:
 739              		.cfi_def_cfa_offset 24
 740              		.loc 1 153 0
 741 0010 0400A0E1 		mov	r0, r4
ARM GAS  C:\Users\NICOMA~1\AppData\Local\Temp\ccroyi1e.s 			page 14


 742 0014 FEFFFFEB 		bl	chSemWaitTimeout
 743              	.LVL59:
 744              		.loc 1 154 0
 745 0018 010070E3 		cmn	r0, #1
 746 001c 0010A013 		movne	r1, #0
 747 0020 0110A003 		moveq	r1, #1
 748 0024 0100A0E3 		mov	r0, #1
 749              	.LVL60:
 750 0028 FEFFFFEB 		bl	_test_assert
 751              	.LVL61:
 752 002c 000050E3 		cmp	r0, #0
 753 0030 0100000A 		beq	.L51
 754              	.L45:
 755              		.loc 1 183 0
 756 0034 08D08DE2 		add	sp, sp, #8
 757 0038 7080BDE8 		ldmfd	sp!, {r4, r5, r6, pc}
 758              	.L51:
 759              		.loc 1 155 0
 760 003c 001094E5 		ldr	r1, [r4, #0]
 761 0040 0200A0E3 		mov	r0, #2
 762 0044 04E051E0 		subs	lr, r1, r4
 763 0048 00107EE2 		rsbs	r1, lr, #0
 764 004c 0E10B1E0 		adcs	r1, r1, lr
 765 0050 FEFFFFEB 		bl	_test_assert
 766              	.LVL62:
 767 0054 000050E3 		cmp	r0, #0
 768 0058 F5FFFF1A 		bne	.L45
 769              		.loc 1 156 0
 770 005c 081094E5 		ldr	r1, [r4, #8]
 771 0060 0300A0E3 		mov	r0, #3
 772 0064 011071E2 		rsbs	r1, r1, #1
 773 0068 0010A033 		movcc	r1, #0
 774 006c FEFFFFEB 		bl	_test_assert
 775              	.LVL63:
 776 0070 000050E3 		cmp	r0, #0
 777 0074 EEFFFF1A 		bne	.L45
 778              	.LBB10:
 779              	.LBB11:
 780              		.loc 1 161 0
 781 0078 50319FE5 		ldr	r3, .L52+4
 782 007c 461FA0E3 		mov	r1, #280
 783 0080 183093E5 		ldr	r3, [r3, #24]
 784 0084 082093E5 		ldr	r2, [r3, #8]
 785 0088 00008DE5 		str	r0, [sp, #0]
 786 008c 40019FE5 		ldr	r0, .L52+8
 787 0090 012042E2 		sub	r2, r2, #1
 788 0094 3C319FE5 		ldr	r3, .L52+12
 789 0098 000090E5 		ldr	r0, [r0, #0]
 790 009c FEFFFFEB 		bl	chThdCreateStatic
 791              	.LVL64:
 792 00a0 34319FE5 		ldr	r3, .L52+16
 793              		.loc 1 163 0
 794 00a4 7D1FA0E3 		mov	r1, #500
 795              		.loc 1 161 0
 796 00a8 000083E5 		str	r0, [r3, #0]
 797              		.loc 1 163 0
 798 00ac 0400A0E1 		mov	r0, r4
ARM GAS  C:\Users\NICOMA~1\AppData\Local\Temp\ccroyi1e.s 			page 15


 799 00b0 FEFFFFEB 		bl	chSemWaitTimeout
 800              	.LVL65:
 801 00b4 0050A0E1 		mov	r5, r0
 802              	.LVL66:
 803              		.loc 1 164 0
 804 00b8 FEFFFFEB 		bl	test_wait_threads
 805              	.LVL67:
 806              		.loc 1 165 0
 807 00bc 011075E2 		rsbs	r1, r5, #1
 808 00c0 0010A033 		movcc	r1, #0
 809 00c4 0400A0E3 		mov	r0, #4
 810 00c8 FEFFFFEB 		bl	_test_assert
 811              	.LVL68:
 812 00cc 000050E3 		cmp	r0, #0
 813 00d0 D7FFFF1A 		bne	.L45
 814              		.loc 1 166 0
 815 00d4 001094E5 		ldr	r1, [r4, #0]
 816 00d8 0500A0E3 		mov	r0, #5
 817 00dc 04C051E0 		subs	ip, r1, r4
 818 00e0 00107CE2 		rsbs	r1, ip, #0
 819 00e4 0C10B1E0 		adcs	r1, r1, ip
 820 00e8 FEFFFFEB 		bl	_test_assert
 821              	.LVL69:
 822 00ec 000050E3 		cmp	r0, #0
 823 00f0 CFFFFF1A 		bne	.L45
 824              		.loc 1 167 0
 825 00f4 081094E5 		ldr	r1, [r4, #8]
 826 00f8 0600A0E3 		mov	r0, #6
 827 00fc 011071E2 		rsbs	r1, r1, #1
 828 0100 0010A033 		movcc	r1, #0
 829 0104 FEFFFFEB 		bl	_test_assert
 830              	.LVL70:
 831 0108 000050E3 		cmp	r0, #0
 832 010c C8FFFF1A 		bne	.L45
 833              		.loc 1 172 0
 834 0110 FEFFFFEB 		bl	test_wait_tick
 835              	.LVL71:
 836              		.loc 1 173 0
 837 0114 C4309FE5 		ldr	r3, .L52+20
 838 0118 4150A0E3 		mov	r5, #65
 839              	.LVL72:
 840 011c 0C6093E5 		ldr	r6, [r3, #12]
 841              	.LVL73:
 842              	.L49:
 843              		.loc 1 175 0
 844 0120 0500A0E1 		mov	r0, r5
 845 0124 FEFFFFEB 		bl	test_emit_token
 846              	.LVL74:
 847              		.loc 1 176 0
 848 0128 7D1FA0E3 		mov	r1, #500
 849 012c 98009FE5 		ldr	r0, .L52
 850 0130 FEFFFFEB 		bl	chSemWaitTimeout
 851              	.LVL75:
 852              		.loc 1 177 0
 853 0134 010070E3 		cmn	r0, #1
 854 0138 0010A013 		movne	r1, #0
 855 013c 0110A003 		moveq	r1, #1
ARM GAS  C:\Users\NICOMA~1\AppData\Local\Temp\ccroyi1e.s 			page 16


 856 0140 0700A0E3 		mov	r0, #7
 857              	.LVL76:
 858 0144 FEFFFFEB 		bl	_test_assert
 859              	.LVL77:
 860 0148 000050E3 		cmp	r0, #0
 861              		.loc 1 178 0
 862 014c 0800A0E3 		mov	r0, #8
 863              		.loc 1 177 0
 864 0150 B7FFFF1A 		bne	.L45
 865              		.loc 1 178 0
 866 0154 001094E5 		ldr	r1, [r4, #0]
 867 0158 042051E0 		subs	r2, r1, r4
 868 015c 001072E2 		rsbs	r1, r2, #0
 869 0160 0210B1E0 		adcs	r1, r1, r2
 870 0164 FEFFFFEB 		bl	_test_assert
 871              	.LVL78:
 872 0168 000050E3 		cmp	r0, #0
 873              		.loc 1 179 0
 874 016c 0900A0E3 		mov	r0, #9
 875              		.loc 1 178 0
 876 0170 AFFFFF1A 		bne	.L45
 877              		.loc 1 179 0
 878 0174 081094E5 		ldr	r1, [r4, #8]
 879 0178 015085E2 		add	r5, r5, #1
 880 017c 011071E2 		rsbs	r1, r1, #1
 881 0180 0010A033 		movcc	r1, #0
 882 0184 FEFFFFEB 		bl	_test_assert
 883              	.LVL79:
 884 0188 000050E3 		cmp	r0, #0
 885 018c 7550EFE6 		uxtb	r5, r5
 886 0190 A7FFFF1A 		bne	.L45
 887              		.loc 1 174 0
 888 0194 460055E3 		cmp	r5, #70
 889 0198 E0FFFF1A 		bne	.L49
 890              		.loc 1 181 0
 891 019c 0A00A0E3 		mov	r0, #10
 892 01a0 3C109FE5 		ldr	r1, .L52+24
 893 01a4 FEFFFFEB 		bl	_test_assert_sequence
 894              	.LVL80:
 895 01a8 000050E3 		cmp	r0, #0
 896 01ac A0FFFF1A 		bne	.L45
 897              		.loc 1 173 0
 898 01b0 272D86E2 		add	r2, r6, #2496
 899              		.loc 1 182 0
 900 01b4 041082E2 		add	r1, r2, #4
 901 01b8 0B00A0E3 		mov	r0, #11
 902 01bc 092082E2 		add	r2, r2, #9
 903              	.LBE11:
 904              	.LBE10:
 905              		.loc 1 183 0
 906 01c0 08D08DE2 		add	sp, sp, #8
 907 01c4 7040BDE8 		ldmfd	sp!, {r4, r5, r6, lr}
 908              	.LBB13:
 909              	.LBB12:
 910              		.loc 1 182 0
 911 01c8 FEFFFFEA 		b	_test_assert_time_window
 912              	.LVL81:
ARM GAS  C:\Users\NICOMA~1\AppData\Local\Temp\ccroyi1e.s 			page 17


 913              	.L53:
 914              		.align	2
 915              	.L52:
 916 01cc 00000000 		.word	.LANCHOR0
 917 01d0 00000000 		.word	rlist
 918 01d4 00000000 		.word	wa
 919 01d8 00000000 		.word	thread2
 920 01dc 00000000 		.word	threads
 921 01e0 00000000 		.word	vtlist
 922 01e4 14000000 		.word	.LC5
 923              	.LBE12:
 924              	.LBE13:
 925              		.cfi_endproc
 926              	.LFE12:
 927              		.size	sem2_execute, .-sem2_execute
 928              		.global	patternsem
 929              		.global	testsem4
 930              		.global	testsem3
 931              		.global	testsem2
 932              		.global	testsem1
 933              		.section	.rodata.testsem1,"a",%progbits
 934              		.align	2
 935              		.type	testsem1, %object
 936              		.size	testsem1, 16
 937              	testsem1:
 938 0000 74000000 		.word	.LC9
 939 0004 00000000 		.word	sem1_setup
 940 0008 00000000 		.word	0
 941 000c 00000000 		.word	sem1_execute
 942              		.section	.rodata.testsem2,"a",%progbits
 943              		.align	2
 944              		.type	testsem2, %object
 945              		.size	testsem2, 16
 946              	testsem2:
 947 0000 60000000 		.word	.LC8
 948 0004 00000000 		.word	sem2_setup
 949 0008 00000000 		.word	0
 950 000c 00000000 		.word	sem2_execute
 951              		.section	.rodata.testsem3,"a",%progbits
 952              		.align	2
 953              		.type	testsem3, %object
 954              		.size	testsem3, 16
 955              	testsem3:
 956 0000 40000000 		.word	.LC7
 957 0004 00000000 		.word	sem3_setup
 958 0008 00000000 		.word	0
 959 000c 00000000 		.word	sem3_execute
 960              		.section	.rodata.testsem4,"a",%progbits
 961              		.align	2
 962              		.type	testsem4, %object
 963              		.size	testsem4, 16
 964              	testsem4:
 965 0000 1C000000 		.word	.LC6
 966 0004 00000000 		.word	0
 967 0008 00000000 		.word	0
 968 000c 00000000 		.word	sem4_execute
 969              		.section	.data.sem1,"aw",%progbits
ARM GAS  C:\Users\NICOMA~1\AppData\Local\Temp\ccroyi1e.s 			page 18


 970              		.align	2
 971              		.set	.LANCHOR0,. + 0
 972              		.type	sem1, %object
 973              		.size	sem1, 12
 974              	sem1:
 975 0000 00000000 		.word	sem1
 976 0004 00000000 		.word	sem1
 977 0008 00000000 		.word	0
 978              		.section	.rodata.patternsem,"a",%progbits
 979              		.align	2
 980              		.type	patternsem, %object
 981              		.size	patternsem, 20
 982              	patternsem:
 983 0000 00000000 		.word	testsem1
 984 0004 00000000 		.word	testsem2
 985 0008 00000000 		.word	testsem3
 986 000c 00000000 		.word	testsem4
 987 0010 00000000 		.word	0
 988              		.section	.rodata.str1.4,"aMS",%progbits,1
 989              		.align	2
 990              	.LC0:
 991 0000 4100     		.ascii	"A\000"
 992 0002 0000     		.space	2
 993              	.LC1:
 994 0004 4200     		.ascii	"B\000"
 995 0006 0000     		.space	2
 996              	.LC2:
 997 0008 4300     		.ascii	"C\000"
 998 000a 0000     		.space	2
 999              	.LC3:
 1000 000c 4400     		.ascii	"D\000"
 1001 000e 0000     		.space	2
 1002              	.LC4:
 1003 0010 4500     		.ascii	"E\000"
 1004 0012 0000     		.space	2
 1005              	.LC5:
 1006 0014 41424344 		.ascii	"ABCDE\000"
 1006      4500
 1007 001a 0000     		.space	2
 1008              	.LC6:
 1009 001c 42696E61 		.ascii	"Binary Semaphores, functionality\000"
 1009      72792053 
 1009      656D6170 
 1009      686F7265 
 1009      732C2066 
 1010 003d 000000   		.space	3
 1011              	.LC7:
 1012 0040 53656D61 		.ascii	"Semaphores, atomic signal-wait\000"
 1012      70686F72 
 1012      65732C20 
 1012      61746F6D 
 1012      69632073 
 1013 005f 00       		.space	1
 1014              	.LC8:
 1015 0060 53656D61 		.ascii	"Semaphores, timeout\000"
 1015      70686F72 
 1015      65732C20 
ARM GAS  C:\Users\NICOMA~1\AppData\Local\Temp\ccroyi1e.s 			page 19


 1015      74696D65 
 1015      6F757400 
 1016              	.LC9:
 1017 0074 53656D61 		.ascii	"Semaphores, enqueuing\000"
 1017      70686F72 
 1017      65732C20 
 1017      656E7175 
 1017      6575696E 
 1018 008a 0000     		.text
 1019              	.Letext0:
 1020              		.file 2 "c:\\yagarto-20121222\\bin\\../lib/gcc/arm-none-eabi/4.7.2/include/stddef.h"
 1021              		.file 3 "c:/yagarto-20121222/lib/gcc/../../arm-none-eabi/sys-include/stdint.h"
 1022              		.file 4 "../../os/ports/GCC/ARM/chtypes.h"
 1023              		.file 5 "../../os/kernel/include/chlists.h"
 1024              		.file 6 "../../os/kernel/include/chthreads.h"
 1025              		.file 7 "../../os/ports/GCC/ARM/chcore.h"
 1026              		.file 8 "../../os/kernel/include/chvt.h"
 1027              		.file 9 "../../os/kernel/include/chschd.h"
 1028              		.file 10 "../../os/kernel/include/chsem.h"
 1029              		.file 11 "../../os/kernel/include/chbsem.h"
 1030              		.file 12 "../../os/kernel/include/chmtx.h"
 1031              		.file 13 "../../test/test.h"