ARM GAS  C:\Users\NICOMA~1\AppData\Local\Temp\ccqMwJOe.s 			page 1


   1              		.cpu arm1176jz-s
   2              		.fpu softvfp
   3              		.eabi_attribute 20, 1
   4              		.eabi_attribute 21, 1
   5              		.eabi_attribute 23, 3
   6              		.eabi_attribute 24, 1
   7              		.eabi_attribute 25, 1
   8              		.eabi_attribute 26, 1
   9              		.eabi_attribute 30, 2
  10              		.eabi_attribute 34, 1
  11              		.eabi_attribute 18, 4
  12              		.file	"testbmk.c"
  13              		.text
  14              	.Ltext0:
  15              		.cfi_sections	.debug_frame
  16              		.section	.text.thread2,"ax",%progbits
  17              		.align	2
  18              		.type	thread2, %function
  19              	thread2:
  20              	.LFB11:
  21              		.file 1 "../../test/testbmk.c"
  22              		.loc 1 154 0
  23              		.cfi_startproc
  24              		@ args = 0, pretend = 0, frame = 0
  25              		@ frame_needed = 0, uses_anonymous_args = 0
  26              		@ link register save eliminated.
  27              	.LVL0:
  28              		.loc 1 157 0
  29 0000 1EFF2FE1 		bx	lr
  30              		.cfi_endproc
  31              	.LFE11:
  32              		.size	thread2, .-thread2
  33              		.section	.text.tmo,"ax",%progbits
  34              		.align	2
  35              		.type	tmo, %function
  36              	tmo:
  37              	.LFB23:
  38              		.loc 1 502 0
  39              		.cfi_startproc
  40              		@ args = 0, pretend = 0, frame = 0
  41              		@ frame_needed = 0, uses_anonymous_args = 0
  42              		@ link register save eliminated.
  43              	.LVL1:
  44 0000 1EFF2FE1 		bx	lr
  45              		.cfi_endproc
  46              	.LFE23:
  47              		.size	tmo, .-tmo
  48              		.section	.text.bmk13_execute,"ax",%progbits
  49              		.align	2
  50              		.type	bmk13_execute, %function
  51              	bmk13_execute:
  52              	.LFB29:
  53              		.loc 1 637 0
  54              		.cfi_startproc
  55              		@ args = 0, pretend = 0, frame = 0
  56              		@ frame_needed = 0, uses_anonymous_args = 0
  57              		.loc 1 637 0
ARM GAS  C:\Users\NICOMA~1\AppData\Local\Temp\ccqMwJOe.s 			page 2


  58 0000 10402DE9 		stmfd	sp!, {r4, lr}
  59              	.LCFI0:
  60              		.cfi_def_cfa_offset 8
  61              		.cfi_offset 4, -8
  62              		.cfi_offset 14, -4
  63              		.loc 1 639 0
  64 0004 F0009FE5 		ldr	r0, .L4
  65              		.loc 1 645 0
  66 0008 F0409FE5 		ldr	r4, .L4+4
  67              		.loc 1 639 0
  68 000c FEFFFFEB 		bl	test_print
  69              	.LVL2:
  70              		.loc 1 640 0
  71 0010 160EA0E3 		mov	r0, #352
  72 0014 FEFFFFEB 		bl	test_printn
  73              	.LVL3:
  74              		.loc 1 645 0
  75 0018 0400A0E1 		mov	r0, r4
  76 001c FEFFFFEB 		bl	test_println
  77              	.LVL4:
  78              		.loc 1 646 0
  79 0020 DC009FE5 		ldr	r0, .L4+8
  80 0024 FEFFFFEB 		bl	test_print
  81              	.LVL5:
  82              		.loc 1 647 0
  83 0028 4400A0E3 		mov	r0, #68
  84 002c FEFFFFEB 		bl	test_printn
  85              	.LVL6:
  86              		.loc 1 648 0
  87 0030 0400A0E1 		mov	r0, r4
  88 0034 FEFFFFEB 		bl	test_println
  89              	.LVL7:
  90              		.loc 1 649 0
  91 0038 C8009FE5 		ldr	r0, .L4+12
  92 003c FEFFFFEB 		bl	test_print
  93              	.LVL8:
  94              		.loc 1 650 0
  95 0040 1400A0E3 		mov	r0, #20
  96 0044 FEFFFFEB 		bl	test_printn
  97              	.LVL9:
  98              		.loc 1 651 0
  99 0048 0400A0E1 		mov	r0, r4
 100 004c FEFFFFEB 		bl	test_println
 101              	.LVL10:
 102              		.loc 1 653 0
 103 0050 B4009FE5 		ldr	r0, .L4+16
 104 0054 FEFFFFEB 		bl	test_print
 105              	.LVL11:
 106              		.loc 1 654 0
 107 0058 0C00A0E3 		mov	r0, #12
 108 005c FEFFFFEB 		bl	test_printn
 109              	.LVL12:
 110              		.loc 1 655 0
 111 0060 0400A0E1 		mov	r0, r4
 112 0064 FEFFFFEB 		bl	test_println
 113              	.LVL13:
 114              		.loc 1 658 0
ARM GAS  C:\Users\NICOMA~1\AppData\Local\Temp\ccqMwJOe.s 			page 3


 115 0068 A0009FE5 		ldr	r0, .L4+20
 116 006c FEFFFFEB 		bl	test_print
 117              	.LVL14:
 118              		.loc 1 659 0
 119 0070 0400A0E3 		mov	r0, #4
 120 0074 FEFFFFEB 		bl	test_printn
 121              	.LVL15:
 122              		.loc 1 660 0
 123 0078 0400A0E1 		mov	r0, r4
 124 007c FEFFFFEB 		bl	test_println
 125              	.LVL16:
 126              		.loc 1 661 0
 127 0080 8C009FE5 		ldr	r0, .L4+24
 128 0084 FEFFFFEB 		bl	test_print
 129              	.LVL17:
 130              		.loc 1 662 0
 131 0088 1000A0E3 		mov	r0, #16
 132 008c FEFFFFEB 		bl	test_printn
 133              	.LVL18:
 134              		.loc 1 663 0
 135 0090 0400A0E1 		mov	r0, r4
 136 0094 FEFFFFEB 		bl	test_println
 137              	.LVL19:
 138              		.loc 1 666 0
 139 0098 78009FE5 		ldr	r0, .L4+28
 140 009c FEFFFFEB 		bl	test_print
 141              	.LVL20:
 142              		.loc 1 667 0
 143 00a0 1000A0E3 		mov	r0, #16
 144 00a4 FEFFFFEB 		bl	test_printn
 145              	.LVL21:
 146              		.loc 1 668 0
 147 00a8 0400A0E1 		mov	r0, r4
 148 00ac FEFFFFEB 		bl	test_println
 149              	.LVL22:
 150              		.loc 1 671 0
 151 00b0 64009FE5 		ldr	r0, .L4+32
 152 00b4 FEFFFFEB 		bl	test_print
 153              	.LVL23:
 154              		.loc 1 672 0
 155 00b8 0800A0E3 		mov	r0, #8
 156 00bc FEFFFFEB 		bl	test_printn
 157              	.LVL24:
 158              		.loc 1 673 0
 159 00c0 0400A0E1 		mov	r0, r4
 160 00c4 FEFFFFEB 		bl	test_println
 161              	.LVL25:
 162              		.loc 1 676 0
 163 00c8 50009FE5 		ldr	r0, .L4+36
 164 00cc FEFFFFEB 		bl	test_print
 165              	.LVL26:
 166              		.loc 1 677 0
 167 00d0 2400A0E3 		mov	r0, #36
 168 00d4 FEFFFFEB 		bl	test_printn
 169              	.LVL27:
 170              		.loc 1 678 0
 171 00d8 0400A0E1 		mov	r0, r4
ARM GAS  C:\Users\NICOMA~1\AppData\Local\Temp\ccqMwJOe.s 			page 4


 172 00dc FEFFFFEB 		bl	test_println
 173              	.LVL28:
 174              		.loc 1 681 0
 175 00e0 3C009FE5 		ldr	r0, .L4+40
 176 00e4 FEFFFFEB 		bl	test_print
 177              	.LVL29:
 178              		.loc 1 682 0
 179 00e8 2800A0E3 		mov	r0, #40
 180 00ec FEFFFFEB 		bl	test_printn
 181              	.LVL30:
 182              		.loc 1 683 0
 183 00f0 0400A0E1 		mov	r0, r4
 184              		.loc 1 685 0
 185 00f4 1040BDE8 		ldmfd	sp!, {r4, lr}
 186              		.loc 1 683 0
 187 00f8 FEFFFFEA 		b	test_println
 188              	.LVL31:
 189              	.L5:
 190              		.align	2
 191              	.L4:
 192 00fc 00000000 		.word	.LC0
 193 0100 10000000 		.word	.LC1
 194 0104 18000000 		.word	.LC2
 195 0108 28000000 		.word	.LC3
 196 010c 38000000 		.word	.LC4
 197 0110 48000000 		.word	.LC5
 198 0114 58000000 		.word	.LC6
 199 0118 68000000 		.word	.LC7
 200 011c 78000000 		.word	.LC8
 201 0120 88000000 		.word	.LC9
 202 0124 98000000 		.word	.LC10
 203              		.cfi_endproc
 204              	.LFE29:
 205              		.size	bmk13_execute, .-bmk13_execute
 206              		.section	.text.bmk12_execute,"ax",%progbits
 207              		.align	2
 208              		.type	bmk12_execute, %function
 209              	bmk12_execute:
 210              	.LFB28:
 211              		.loc 1 598 0
 212              		.cfi_startproc
 213              		@ args = 0, pretend = 0, frame = 0
 214              		@ frame_needed = 0, uses_anonymous_args = 0
 215              	.LVL32:
 216 0000 38402DE9 		stmfd	sp!, {r3, r4, r5, lr}
 217              	.LCFI1:
 218              		.cfi_def_cfa_offset 16
 219              		.cfi_offset 3, -16
 220              		.cfi_offset 4, -12
 221              		.cfi_offset 5, -8
 222              		.cfi_offset 14, -4
 223              		.loc 1 601 0
 224 0004 FEFFFFEB 		bl	test_wait_tick
 225              	.LVL33:
 226              		.loc 1 602 0
 227 0008 FA0FA0E3 		mov	r0, #1000
 228 000c FEFFFFEB 		bl	test_start_timer
ARM GAS  C:\Users\NICOMA~1\AppData\Local\Temp\ccqMwJOe.s 			page 5


 229              	.LVL34:
 230 0010 5C509FE5 		ldr	r5, .L13
 231              		.loc 1 599 0
 232 0014 0040A0E3 		mov	r4, #0
 233              	.LVL35:
 234              	.L7:
 235              		.loc 1 604 0 discriminator 1
 236 0018 58009FE5 		ldr	r0, .L13+4
 237 001c FEFFFFEB 		bl	chMtxLock
 238              	.LVL36:
 239              		.loc 1 605 0 discriminator 1
 240 0020 FEFFFFEB 		bl	chMtxUnlock
 241              	.LVL37:
 242              		.loc 1 606 0 discriminator 1
 243 0024 4C009FE5 		ldr	r0, .L13+4
 244 0028 FEFFFFEB 		bl	chMtxLock
 245              	.LVL38:
 246              		.loc 1 607 0 discriminator 1
 247 002c FEFFFFEB 		bl	chMtxUnlock
 248              	.LVL39:
 249              		.loc 1 608 0 discriminator 1
 250 0030 40009FE5 		ldr	r0, .L13+4
 251 0034 FEFFFFEB 		bl	chMtxLock
 252              	.LVL40:
 253              		.loc 1 609 0 discriminator 1
 254 0038 FEFFFFEB 		bl	chMtxUnlock
 255              	.LVL41:
 256              		.loc 1 610 0 discriminator 1
 257 003c 34009FE5 		ldr	r0, .L13+4
 258 0040 FEFFFFEB 		bl	chMtxLock
 259              	.LVL42:
 260              		.loc 1 611 0 discriminator 1
 261 0044 FEFFFFEB 		bl	chMtxUnlock
 262              	.LVL43:
 263              		.loc 1 616 0 discriminator 1
 264 0048 0030D5E5 		ldrb	r3, [r5, #0]	@ zero_extendqisi2
 265              		.loc 1 612 0 discriminator 1
 266 004c 014084E2 		add	r4, r4, #1
 267              	.LVL44:
 268              		.loc 1 616 0 discriminator 1
 269 0050 000053E3 		cmp	r3, #0
 270 0054 EFFFFF0A 		beq	.L7
 271              		.loc 1 617 0
 272 0058 1C009FE5 		ldr	r0, .L13+8
 273 005c FEFFFFEB 		bl	test_print
 274              	.LVL45:
 275              		.loc 1 618 0
 276 0060 0401A0E1 		mov	r0, r4, asl #2
 277 0064 FEFFFFEB 		bl	test_printn
 278              	.LVL46:
 279              		.loc 1 619 0
 280 0068 10009FE5 		ldr	r0, .L13+12
 281              		.loc 1 620 0
 282 006c 3840BDE8 		ldmfd	sp!, {r3, r4, r5, lr}
 283              		.loc 1 619 0
 284 0070 FEFFFFEA 		b	test_println
 285              	.LVL47:
ARM GAS  C:\Users\NICOMA~1\AppData\Local\Temp\ccqMwJOe.s 			page 6


 286              	.L14:
 287              		.align	2
 288              	.L13:
 289 0074 00000000 		.word	test_timer_done
 290 0078 00000000 		.word	.LANCHOR0
 291 007c A8000000 		.word	.LC11
 292 0080 B8000000 		.word	.LC12
 293              		.cfi_endproc
 294              	.LFE28:
 295              		.size	bmk12_execute, .-bmk12_execute
 296              		.section	.text.bmk12_setup,"ax",%progbits
 297              		.align	2
 298              		.type	bmk12_setup, %function
 299              	bmk12_setup:
 300              	.LFB27:
 301              		.loc 1 593 0
 302              		.cfi_startproc
 303              		@ args = 0, pretend = 0, frame = 0
 304              		@ frame_needed = 0, uses_anonymous_args = 0
 305              		@ link register save eliminated.
 306              		.loc 1 595 0
 307 0000 00009FE5 		ldr	r0, .L16
 308              		.loc 1 596 0
 309              		.loc 1 595 0
 310 0004 FEFFFFEA 		b	chMtxInit
 311              	.LVL48:
 312              	.L17:
 313              		.align	2
 314              	.L16:
 315 0008 00000000 		.word	.LANCHOR0
 316              		.cfi_endproc
 317              	.LFE27:
 318              		.size	bmk12_setup, .-bmk12_setup
 319              		.section	.text.thread3,"ax",%progbits
 320              		.align	2
 321              		.type	thread3, %function
 322              	thread3:
 323              	.LFB17:
 324              		.loc 1 341 0
 325              		.cfi_startproc
 326              		@ args = 0, pretend = 0, frame = 0
 327              		@ frame_needed = 0, uses_anonymous_args = 0
 328              	.LVL49:
 329 0000 10402DE9 		stmfd	sp!, {r4, lr}
 330              	.LCFI2:
 331              		.cfi_def_cfa_offset 8
 332              		.cfi_offset 4, -8
 333              		.cfi_offset 14, -4
 334              		.loc 1 344 0
 335 0004 28409FE5 		ldr	r4, .L31
 336 0008 010000EA 		b	.L29
 337              	.LVL50:
 338              	.L30:
 339              		.loc 1 345 0
 340 000c 24009FE5 		ldr	r0, .L31+4
 341 0010 FEFFFFEB 		bl	chSemWait
 342              	.LVL51:
ARM GAS  C:\Users\NICOMA~1\AppData\Local\Temp\ccqMwJOe.s 			page 7


 343              	.L29:
 344              		.loc 1 344 0
 345 0014 183094E5 		ldr	r3, [r4, #24]
 346 0018 1D30D3E5 		ldrb	r3, [r3, #29]	@ zero_extendqisi2
 347 001c 043003E2 		and	r3, r3, #4
 348 0020 7330EFE6 		uxtb	r3, r3
 349 0024 000053E3 		cmp	r3, #0
 350 0028 F7FFFF0A 		beq	.L30
 351              		.loc 1 347 0
 352 002c 0000A0E3 		mov	r0, #0
 353 0030 1080BDE8 		ldmfd	sp!, {r4, pc}
 354              	.L32:
 355              		.align	2
 356              	.L31:
 357 0034 00000000 		.word	rlist
 358 0038 00000000 		.word	.LANCHOR1
 359              		.cfi_endproc
 360              	.LFE17:
 361              		.size	thread3, .-thread3
 362              		.section	.text.bmk11_execute,"ax",%progbits
 363              		.align	2
 364              		.type	bmk11_execute, %function
 365              	bmk11_execute:
 366              	.LFB26:
 367              		.loc 1 550 0
 368              		.cfi_startproc
 369              		@ args = 0, pretend = 0, frame = 0
 370              		@ frame_needed = 0, uses_anonymous_args = 0
 371              	.LVL52:
 372 0000 38402DE9 		stmfd	sp!, {r3, r4, r5, lr}
 373              	.LCFI3:
 374              		.cfi_def_cfa_offset 16
 375              		.cfi_offset 3, -16
 376              		.cfi_offset 4, -12
 377              		.cfi_offset 5, -8
 378              		.cfi_offset 14, -4
 379              		.loc 1 553 0
 380 0004 FEFFFFEB 		bl	test_wait_tick
 381              	.LVL53:
 382              		.loc 1 554 0
 383 0008 FA0FA0E3 		mov	r0, #1000
 384 000c FEFFFFEB 		bl	test_start_timer
 385              	.LVL54:
 386 0010 6C509FE5 		ldr	r5, .L39
 387              		.loc 1 551 0
 388 0014 0040A0E3 		mov	r4, #0
 389              	.LVL55:
 390              	.L34:
 391              		.loc 1 556 0 discriminator 1
 392 0018 68009FE5 		ldr	r0, .L39+4
 393 001c FEFFFFEB 		bl	chSemWait
 394              	.LVL56:
 395              		.loc 1 557 0 discriminator 1
 396 0020 60009FE5 		ldr	r0, .L39+4
 397 0024 FEFFFFEB 		bl	chSemSignal
 398              	.LVL57:
 399              		.loc 1 558 0 discriminator 1
ARM GAS  C:\Users\NICOMA~1\AppData\Local\Temp\ccqMwJOe.s 			page 8


 400 0028 58009FE5 		ldr	r0, .L39+4
 401 002c FEFFFFEB 		bl	chSemWait
 402              	.LVL58:
 403              		.loc 1 559 0 discriminator 1
 404 0030 50009FE5 		ldr	r0, .L39+4
 405 0034 FEFFFFEB 		bl	chSemSignal
 406              	.LVL59:
 407              		.loc 1 560 0 discriminator 1
 408 0038 48009FE5 		ldr	r0, .L39+4
 409 003c FEFFFFEB 		bl	chSemWait
 410              	.LVL60:
 411              		.loc 1 561 0 discriminator 1
 412 0040 40009FE5 		ldr	r0, .L39+4
 413 0044 FEFFFFEB 		bl	chSemSignal
 414              	.LVL61:
 415              		.loc 1 562 0 discriminator 1
 416 0048 38009FE5 		ldr	r0, .L39+4
 417 004c FEFFFFEB 		bl	chSemWait
 418              	.LVL62:
 419              		.loc 1 563 0 discriminator 1
 420 0050 30009FE5 		ldr	r0, .L39+4
 421 0054 FEFFFFEB 		bl	chSemSignal
 422              	.LVL63:
 423              		.loc 1 568 0 discriminator 1
 424 0058 0030D5E5 		ldrb	r3, [r5, #0]	@ zero_extendqisi2
 425              		.loc 1 564 0 discriminator 1
 426 005c 014084E2 		add	r4, r4, #1
 427              	.LVL64:
 428              		.loc 1 568 0 discriminator 1
 429 0060 000053E3 		cmp	r3, #0
 430 0064 EBFFFF0A 		beq	.L34
 431              		.loc 1 569 0
 432 0068 1C009FE5 		ldr	r0, .L39+8
 433 006c FEFFFFEB 		bl	test_print
 434              	.LVL65:
 435              		.loc 1 570 0
 436 0070 0401A0E1 		mov	r0, r4, asl #2
 437 0074 FEFFFFEB 		bl	test_printn
 438              	.LVL66:
 439              		.loc 1 571 0
 440 0078 10009FE5 		ldr	r0, .L39+12
 441              		.loc 1 572 0
 442 007c 3840BDE8 		ldmfd	sp!, {r3, r4, r5, lr}
 443              		.loc 1 571 0
 444 0080 FEFFFFEA 		b	test_println
 445              	.LVL67:
 446              	.L40:
 447              		.align	2
 448              	.L39:
 449 0084 00000000 		.word	test_timer_done
 450 0088 00000000 		.word	.LANCHOR1
 451 008c A8000000 		.word	.LC11
 452 0090 C8000000 		.word	.LC13
 453              		.cfi_endproc
 454              	.LFE26:
 455              		.size	bmk11_execute, .-bmk11_execute
 456              		.section	.text.bmk11_setup,"ax",%progbits
ARM GAS  C:\Users\NICOMA~1\AppData\Local\Temp\ccqMwJOe.s 			page 9


 457              		.align	2
 458              		.type	bmk11_setup, %function
 459              	bmk11_setup:
 460              	.LFB25:
 461              		.loc 1 545 0
 462              		.cfi_startproc
 463              		@ args = 0, pretend = 0, frame = 0
 464              		@ frame_needed = 0, uses_anonymous_args = 0
 465              		@ link register save eliminated.
 466              		.loc 1 547 0
 467 0000 04009FE5 		ldr	r0, .L42
 468 0004 0110A0E3 		mov	r1, #1
 469              		.loc 1 548 0
 470              		.loc 1 547 0
 471 0008 FEFFFFEA 		b	chSemInit
 472              	.LVL68:
 473              	.L43:
 474              		.align	2
 475              	.L42:
 476 000c 00000000 		.word	.LANCHOR1
 477              		.cfi_endproc
 478              	.LFE25:
 479              		.size	bmk11_setup, .-bmk11_setup
 480              		.section	.text.bmk7_setup,"ax",%progbits
 481              		.align	2
 482              		.type	bmk7_setup, %function
 483              	bmk7_setup:
 484              	.LFB18:
 485              		.loc 1 349 0
 486              		.cfi_startproc
 487              		@ args = 0, pretend = 0, frame = 0
 488              		@ frame_needed = 0, uses_anonymous_args = 0
 489              		@ link register save eliminated.
 490              		.loc 1 351 0
 491 0000 04009FE5 		ldr	r0, .L45
 492 0004 0010A0E3 		mov	r1, #0
 493              		.loc 1 352 0
 494              		.loc 1 351 0
 495 0008 FEFFFFEA 		b	chSemInit
 496              	.LVL69:
 497              	.L46:
 498              		.align	2
 499              	.L45:
 500 000c 00000000 		.word	.LANCHOR1
 501              		.cfi_endproc
 502              	.LFE18:
 503              		.size	bmk7_setup, .-bmk7_setup
 504              		.section	.text.bmk10_execute,"ax",%progbits
 505              		.align	2
 506              		.type	bmk10_execute, %function
 507              	bmk10_execute:
 508              	.LFB24:
 509              		.loc 1 504 0
 510              		.cfi_startproc
 511              		@ args = 0, pretend = 0, frame = 0
 512              		@ frame_needed = 0, uses_anonymous_args = 0
 513              	.LVL70:
ARM GAS  C:\Users\NICOMA~1\AppData\Local\Temp\ccqMwJOe.s 			page 10


 514 0000 38402DE9 		stmfd	sp!, {r3, r4, r5, lr}
 515              	.LCFI4:
 516              		.cfi_def_cfa_offset 16
 517              		.cfi_offset 3, -16
 518              		.cfi_offset 4, -12
 519              		.cfi_offset 5, -8
 520              		.cfi_offset 14, -4
 521              		.loc 1 508 0
 522 0004 FEFFFFEB 		bl	test_wait_tick
 523              	.LVL71:
 524              		.loc 1 509 0
 525 0008 FA0FA0E3 		mov	r0, #1000
 526 000c FEFFFFEB 		bl	test_start_timer
 527              	.LVL72:
 528 0010 6C509FE5 		ldr	r5, .L53
 529              		.loc 1 506 0
 530 0014 0040A0E3 		mov	r4, #0
 531              	.LVL73:
 532              	.L48:
 533              		.loc 1 511 0 discriminator 1
 534              	@ 511 "../../test/testbmk.c" 1
 535 0018 9FF021E3 		msr     CPSR_c, #0x9F
 536              	@ 0 "" 2
 537              		.loc 1 512 0 discriminator 1
 538 001c 64009FE5 		ldr	r0, .L53+4
 539 0020 0110A0E3 		mov	r1, #1
 540 0024 60209FE5 		ldr	r2, .L53+8
 541 0028 0030A0E3 		mov	r3, #0
 542 002c FEFFFFEB 		bl	chVTSetI
 543              	.LVL74:
 544              		.loc 1 513 0 discriminator 1
 545 0030 58109FE5 		ldr	r1, .L53+12
 546 0034 50209FE5 		ldr	r2, .L53+8
 547 0038 0030A0E3 		mov	r3, #0
 548 003c 50009FE5 		ldr	r0, .L53+16
 549 0040 FEFFFFEB 		bl	chVTSetI
 550              	.LVL75:
 551              		.loc 1 514 0 discriminator 1
 552 0044 3C009FE5 		ldr	r0, .L53+4
 553 0048 FEFFFFEB 		bl	chVTResetI
 554              	.LVL76:
 555              		.loc 1 515 0 discriminator 1
 556 004c 40009FE5 		ldr	r0, .L53+16
 557 0050 FEFFFFEB 		bl	chVTResetI
 558              	.LVL77:
 559              		.loc 1 516 0 discriminator 1
 560              	@ 516 "../../test/testbmk.c" 1
 561 0054 1FF021E3 		msr     CPSR_c, #0x1F
 562              	@ 0 "" 2
 563              		.loc 1 521 0 discriminator 1
 564 0058 0030D5E5 		ldrb	r3, [r5, #0]	@ zero_extendqisi2
 565              		.loc 1 517 0 discriminator 1
 566 005c 014084E2 		add	r4, r4, #1
 567              	.LVL78:
 568              		.loc 1 521 0 discriminator 1
 569 0060 000053E3 		cmp	r3, #0
 570 0064 EBFFFF0A 		beq	.L48
ARM GAS  C:\Users\NICOMA~1\AppData\Local\Temp\ccqMwJOe.s 			page 11


 571              		.loc 1 522 0
 572 0068 28009FE5 		ldr	r0, .L53+20
 573 006c FEFFFFEB 		bl	test_print
 574              	.LVL79:
 575              		.loc 1 523 0
 576 0070 8400A0E1 		mov	r0, r4, asl #1
 577 0074 FEFFFFEB 		bl	test_printn
 578              	.LVL80:
 579              		.loc 1 524 0
 580 0078 1C009FE5 		ldr	r0, .L53+24
 581              		.loc 1 525 0
 582 007c 3840BDE8 		ldmfd	sp!, {r3, r4, r5, lr}
 583              		.loc 1 524 0
 584 0080 FEFFFFEA 		b	test_println
 585              	.LVL81:
 586              	.L54:
 587              		.align	2
 588              	.L53:
 589 0084 00000000 		.word	test_timer_done
 590 0088 00000000 		.word	.LANCHOR2
 591 008c 00000000 		.word	tmo
 592 0090 10270000 		.word	10000
 593 0094 00000000 		.word	.LANCHOR3
 594 0098 A8000000 		.word	.LC11
 595 009c D8000000 		.word	.LC14
 596              		.cfi_endproc
 597              	.LFE24:
 598              		.size	bmk10_execute, .-bmk10_execute
 599              		.section	.text.bmk9_execute,"ax",%progbits
 600              		.align	2
 601              		.type	bmk9_execute, %function
 602              	bmk9_execute:
 603              	.LFB22:
 604              		.loc 1 455 0
 605              		.cfi_startproc
 606              		@ args = 0, pretend = 0, frame = 0
 607              		@ frame_needed = 0, uses_anonymous_args = 0
 608 0000 30402DE9 		stmfd	sp!, {r4, r5, lr}
 609              	.LCFI5:
 610              		.cfi_def_cfa_offset 12
 611              		.cfi_offset 4, -12
 612              		.cfi_offset 5, -8
 613              		.cfi_offset 14, -4
 614              		.loc 1 460 0
 615 0004 0040A0E3 		mov	r4, #0
 616              		.loc 1 455 0
 617 0008 0CD04DE2 		sub	sp, sp, #12
 618              	.LCFI6:
 619              		.cfi_def_cfa_offset 24
 620              		.loc 1 460 0
 621 000c B8109FE5 		ldr	r1, .L61
 622 0010 1020A0E3 		mov	r2, #16
 623 0014 0430A0E1 		mov	r3, r4
 624 0018 B0009FE5 		ldr	r0, .L61+4
 625 001c 00408DE5 		str	r4, [sp, #0]
 626 0020 FEFFFFEB 		bl	chIQInit
 627              	.LVL82:
ARM GAS  C:\Users\NICOMA~1\AppData\Local\Temp\ccqMwJOe.s 			page 12


 628              		.loc 1 462 0
 629 0024 FEFFFFEB 		bl	test_wait_tick
 630              	.LVL83:
 631              		.loc 1 463 0
 632 0028 FA0FA0E3 		mov	r0, #1000
 633 002c FEFFFFEB 		bl	test_start_timer
 634              	.LVL84:
 635 0030 9C509FE5 		ldr	r5, .L61+8
 636              	.LVL85:
 637              	.L56:
 638              		.loc 1 465 0 discriminator 1
 639              	@ 465 "../../test/testbmk.c" 1
 640 0034 9FF021E3 		msr     CPSR_c, #0x9F
 641              	@ 0 "" 2
 642              		.loc 1 466 0 discriminator 1
 643 0038 0010A0E3 		mov	r1, #0
 644 003c 8C009FE5 		ldr	r0, .L61+4
 645 0040 FEFFFFEB 		bl	chIQPutI
 646              	.LVL86:
 647              		.loc 1 467 0 discriminator 1
 648 0044 0110A0E3 		mov	r1, #1
 649 0048 80009FE5 		ldr	r0, .L61+4
 650 004c FEFFFFEB 		bl	chIQPutI
 651              	.LVL87:
 652              		.loc 1 468 0 discriminator 1
 653 0050 0210A0E3 		mov	r1, #2
 654 0054 74009FE5 		ldr	r0, .L61+4
 655 0058 FEFFFFEB 		bl	chIQPutI
 656              	.LVL88:
 657              		.loc 1 469 0 discriminator 1
 658 005c 0310A0E3 		mov	r1, #3
 659 0060 68009FE5 		ldr	r0, .L61+4
 660 0064 FEFFFFEB 		bl	chIQPutI
 661              	.LVL89:
 662              		.loc 1 470 0 discriminator 1
 663              	@ 470 "../../test/testbmk.c" 1
 664 0068 1FF021E3 		msr     CPSR_c, #0x1F
 665              	@ 0 "" 2
 666              		.loc 1 471 0 discriminator 1
 667 006c 0010E0E3 		mvn	r1, #0
 668 0070 58009FE5 		ldr	r0, .L61+4
 669 0074 FEFFFFEB 		bl	chIQGetTimeout
 670              	.LVL90:
 671              		.loc 1 472 0 discriminator 1
 672 0078 0010E0E3 		mvn	r1, #0
 673 007c 4C009FE5 		ldr	r0, .L61+4
 674 0080 FEFFFFEB 		bl	chIQGetTimeout
 675              	.LVL91:
 676              		.loc 1 473 0 discriminator 1
 677 0084 0010E0E3 		mvn	r1, #0
 678 0088 40009FE5 		ldr	r0, .L61+4
 679 008c FEFFFFEB 		bl	chIQGetTimeout
 680              	.LVL92:
 681              		.loc 1 474 0 discriminator 1
 682 0090 38009FE5 		ldr	r0, .L61+4
 683 0094 0010E0E3 		mvn	r1, #0
 684 0098 FEFFFFEB 		bl	chIQGetTimeout
ARM GAS  C:\Users\NICOMA~1\AppData\Local\Temp\ccqMwJOe.s 			page 13


 685              	.LVL93:
 686              		.loc 1 479 0 discriminator 1
 687 009c 0030D5E5 		ldrb	r3, [r5, #0]	@ zero_extendqisi2
 688              		.loc 1 475 0 discriminator 1
 689 00a0 014084E2 		add	r4, r4, #1
 690              	.LVL94:
 691              		.loc 1 479 0 discriminator 1
 692 00a4 000053E3 		cmp	r3, #0
 693 00a8 E1FFFF0A 		beq	.L56
 694              		.loc 1 480 0
 695 00ac 24009FE5 		ldr	r0, .L61+12
 696 00b0 FEFFFFEB 		bl	test_print
 697              	.LVL95:
 698              		.loc 1 481 0
 699 00b4 0401A0E1 		mov	r0, r4, asl #2
 700 00b8 FEFFFFEB 		bl	test_printn
 701              	.LVL96:
 702              		.loc 1 482 0
 703 00bc 18009FE5 		ldr	r0, .L61+16
 704              		.loc 1 483 0
 705 00c0 0CD08DE2 		add	sp, sp, #12
 706 00c4 3040BDE8 		ldmfd	sp!, {r4, r5, lr}
 707              		.loc 1 482 0
 708 00c8 FEFFFFEA 		b	test_println
 709              	.LVL97:
 710              	.L62:
 711              		.align	2
 712              	.L61:
 713 00cc 00000000 		.word	.LANCHOR5
 714 00d0 00000000 		.word	.LANCHOR4
 715 00d4 00000000 		.word	test_timer_done
 716 00d8 A8000000 		.word	.LC11
 717 00dc E4000000 		.word	.LC15
 718              		.cfi_endproc
 719              	.LFE22:
 720              		.size	bmk9_execute, .-bmk9_execute
 721              		.section	.text.bmk6_execute,"ax",%progbits
 722              		.align	2
 723              		.type	bmk6_execute, %function
 724              	bmk6_execute:
 725              	.LFB16:
 726              		.loc 1 304 0
 727              		.cfi_startproc
 728              		@ args = 0, pretend = 0, frame = 0
 729              		@ frame_needed = 0, uses_anonymous_args = 0
 730              	.LVL98:
 731 0000 F0412DE9 		stmfd	sp!, {r4, r5, r6, r7, r8, lr}
 732              	.LCFI7:
 733              		.cfi_def_cfa_offset 24
 734              		.cfi_offset 4, -24
 735              		.cfi_offset 5, -20
 736              		.cfi_offset 6, -16
 737              		.cfi_offset 7, -12
 738              		.cfi_offset 8, -8
 739              		.cfi_offset 14, -4
 740              		.loc 1 308 0
 741 0004 74309FE5 		ldr	r3, .L69
ARM GAS  C:\Users\NICOMA~1\AppData\Local\Temp\ccqMwJOe.s 			page 14


 742              		.loc 1 307 0
 743 0008 74209FE5 		ldr	r2, .L69+4
 744              		.loc 1 308 0
 745 000c 183093E5 		ldr	r3, [r3, #24]
 746              		.loc 1 304 0
 747 0010 08D04DE2 		sub	sp, sp, #8
 748              	.LCFI8:
 749              		.cfi_def_cfa_offset 32
 750              		.loc 1 308 0
 751 0014 087093E5 		ldr	r7, [r3, #8]
 752              		.loc 1 307 0
 753 0018 008092E5 		ldr	r8, [r2, #0]
 754              	.LVL99:
 755              		.loc 1 309 0
 756 001c FEFFFFEB 		bl	test_wait_tick
 757              	.LVL100:
 758              		.loc 1 310 0
 759 0020 FA0FA0E3 		mov	r0, #1000
 760 0024 FEFFFFEB 		bl	test_start_timer
 761              	.LVL101:
 762              		.loc 1 306 0
 763 0028 0040A0E3 		mov	r4, #0
 764 002c 54609FE5 		ldr	r6, .L69+8
 765              		.loc 1 308 0
 766 0030 017087E2 		add	r7, r7, #1
 767              	.LVL102:
 768              		.loc 1 312 0
 769 0034 0450A0E1 		mov	r5, r4
 770              	.LVL103:
 771              	.L64:
 772              		.loc 1 312 0 is_stmt 0 discriminator 1
 773 0038 4C309FE5 		ldr	r3, .L69+12
 774 003c 00508DE5 		str	r5, [sp, #0]
 775 0040 0800A0E1 		mov	r0, r8
 776 0044 461FA0E3 		mov	r1, #280
 777 0048 0720A0E1 		mov	r2, r7
 778 004c FEFFFFEB 		bl	chThdCreateStatic
 779              	.LVL104:
 780              		.loc 1 317 0 is_stmt 1 discriminator 1
 781 0050 0030D6E5 		ldrb	r3, [r6, #0]	@ zero_extendqisi2
 782              		.loc 1 313 0 discriminator 1
 783 0054 014084E2 		add	r4, r4, #1
 784              	.LVL105:
 785              		.loc 1 317 0 discriminator 1
 786 0058 000053E3 		cmp	r3, #0
 787 005c F5FFFF0A 		beq	.L64
 788              		.loc 1 318 0
 789 0060 28009FE5 		ldr	r0, .L69+16
 790 0064 FEFFFFEB 		bl	test_print
 791              	.LVL106:
 792              		.loc 1 319 0
 793 0068 0400A0E1 		mov	r0, r4
 794 006c FEFFFFEB 		bl	test_printn
 795              	.LVL107:
 796              		.loc 1 320 0
 797 0070 1C009FE5 		ldr	r0, .L69+20
 798              		.loc 1 321 0
ARM GAS  C:\Users\NICOMA~1\AppData\Local\Temp\ccqMwJOe.s 			page 15


 799 0074 08D08DE2 		add	sp, sp, #8
 800 0078 F041BDE8 		ldmfd	sp!, {r4, r5, r6, r7, r8, lr}
 801              		.loc 1 320 0
 802 007c FEFFFFEA 		b	test_println
 803              	.LVL108:
 804              	.L70:
 805              		.align	2
 806              	.L69:
 807 0080 00000000 		.word	rlist
 808 0084 00000000 		.word	wa
 809 0088 00000000 		.word	test_timer_done
 810 008c 00000000 		.word	thread2
 811 0090 A8000000 		.word	.LC11
 812 0094 F0000000 		.word	.LC16
 813              		.cfi_endproc
 814              	.LFE16:
 815              		.size	bmk6_execute, .-bmk6_execute
 816              		.section	.text.bmk8_execute,"ax",%progbits
 817              		.align	2
 818              		.type	bmk8_execute, %function
 819              	bmk8_execute:
 820              	.LFB21:
 821              		.loc 1 416 0
 822              		.cfi_startproc
 823              		@ args = 0, pretend = 0, frame = 8
 824              		@ frame_needed = 0, uses_anonymous_args = 0
 825 0000 F0412DE9 		stmfd	sp!, {r4, r5, r6, r7, r8, lr}
 826              	.LCFI9:
 827              		.cfi_def_cfa_offset 24
 828              		.cfi_offset 4, -24
 829              		.cfi_offset 5, -20
 830              		.cfi_offset 6, -16
 831              		.cfi_offset 7, -12
 832              		.cfi_offset 8, -8
 833              		.cfi_offset 14, -4
 834              		.loc 1 422 0
 835 0004 10819FE5 		ldr	r8, .L72
 836              		.loc 1 416 0
 837 0008 10D04DE2 		sub	sp, sp, #16
 838              	.LCFI10:
 839              		.cfi_def_cfa_offset 40
 840              		.loc 1 419 0
 841 000c 10408DE2 		add	r4, sp, #16
 842 0010 0030A0E3 		mov	r3, #0
 843 0014 043024E5 		str	r3, [r4, #-4]!
 844              	.LVL109:
 845              		.loc 1 420 0
 846 0018 FEFFFFEB 		bl	test_wait_tick
 847              	.LVL110:
 848              		.loc 1 422 0
 849 001c 183098E5 		ldr	r3, [r8, #24]
 850 0020 F8709FE5 		ldr	r7, .L72+4
 851 0024 F8609FE5 		ldr	r6, .L72+8
 852 0028 082093E5 		ldr	r2, [r3, #8]
 853 002c 000097E5 		ldr	r0, [r7, #0]
 854 0030 0630A0E1 		mov	r3, r6
 855 0034 461FA0E3 		mov	r1, #280
ARM GAS  C:\Users\NICOMA~1\AppData\Local\Temp\ccqMwJOe.s 			page 16


 856 0038 012042E2 		sub	r2, r2, #1
 857 003c 00408DE5 		str	r4, [sp, #0]
 858 0040 FEFFFFEB 		bl	chThdCreateStatic
 859              	.LVL111:
 860              		.loc 1 423 0
 861 0044 183098E5 		ldr	r3, [r8, #24]
 862              		.loc 1 422 0
 863 0048 D8509FE5 		ldr	r5, .L72+12
 864              		.loc 1 423 0
 865 004c 082093E5 		ldr	r2, [r3, #8]
 866 0050 04C097E5 		ldr	ip, [r7, #4]
 867              		.loc 1 422 0
 868 0054 000085E5 		str	r0, [r5, #0]
 869              		.loc 1 423 0
 870 0058 0630A0E1 		mov	r3, r6
 871 005c 461FA0E3 		mov	r1, #280
 872 0060 012042E2 		sub	r2, r2, #1
 873 0064 00408DE5 		str	r4, [sp, #0]
 874 0068 0C00A0E1 		mov	r0, ip
 875 006c FEFFFFEB 		bl	chThdCreateStatic
 876              	.LVL112:
 877              		.loc 1 424 0
 878 0070 183098E5 		ldr	r3, [r8, #24]
 879 0074 08C097E5 		ldr	ip, [r7, #8]
 880 0078 082093E5 		ldr	r2, [r3, #8]
 881 007c 461FA0E3 		mov	r1, #280
 882              		.loc 1 423 0
 883 0080 040085E5 		str	r0, [r5, #4]
 884              		.loc 1 424 0
 885 0084 0630A0E1 		mov	r3, r6
 886 0088 012042E2 		sub	r2, r2, #1
 887 008c 00408DE5 		str	r4, [sp, #0]
 888 0090 0C00A0E1 		mov	r0, ip
 889 0094 FEFFFFEB 		bl	chThdCreateStatic
 890              	.LVL113:
 891              		.loc 1 425 0
 892 0098 183098E5 		ldr	r3, [r8, #24]
 893 009c 0CC097E5 		ldr	ip, [r7, #12]
 894 00a0 082093E5 		ldr	r2, [r3, #8]
 895 00a4 461FA0E3 		mov	r1, #280
 896              		.loc 1 424 0
 897 00a8 080085E5 		str	r0, [r5, #8]
 898              		.loc 1 425 0
 899 00ac 0630A0E1 		mov	r3, r6
 900 00b0 012042E2 		sub	r2, r2, #1
 901 00b4 00408DE5 		str	r4, [sp, #0]
 902 00b8 0C00A0E1 		mov	r0, ip
 903 00bc FEFFFFEB 		bl	chThdCreateStatic
 904              	.LVL114:
 905              		.loc 1 426 0
 906 00c0 183098E5 		ldr	r3, [r8, #24]
 907 00c4 10C097E5 		ldr	ip, [r7, #16]
 908 00c8 082093E5 		ldr	r2, [r3, #8]
 909 00cc 461FA0E3 		mov	r1, #280
 910 00d0 012042E2 		sub	r2, r2, #1
 911 00d4 0630A0E1 		mov	r3, r6
 912              		.loc 1 425 0
ARM GAS  C:\Users\NICOMA~1\AppData\Local\Temp\ccqMwJOe.s 			page 17


 913 00d8 0C0085E5 		str	r0, [r5, #12]
 914              		.loc 1 426 0
 915 00dc 00408DE5 		str	r4, [sp, #0]
 916 00e0 0C00A0E1 		mov	r0, ip
 917 00e4 FEFFFFEB 		bl	chThdCreateStatic
 918              	.LVL115:
 919 00e8 100085E5 		str	r0, [r5, #16]
 920              		.loc 1 428 0
 921 00ec FA0FA0E3 		mov	r0, #1000
 922 00f0 FEFFFFEB 		bl	chThdSleep
 923              	.LVL116:
 924              		.loc 1 429 0
 925 00f4 FEFFFFEB 		bl	test_terminate_threads
 926              	.LVL117:
 927              		.loc 1 430 0
 928 00f8 FEFFFFEB 		bl	test_wait_threads
 929              	.LVL118:
 930              		.loc 1 432 0
 931 00fc 28009FE5 		ldr	r0, .L72+16
 932 0100 FEFFFFEB 		bl	test_print
 933              	.LVL119:
 934              		.loc 1 433 0
 935 0104 0C009DE5 		ldr	r0, [sp, #12]
 936 0108 FEFFFFEB 		bl	test_printn
 937              	.LVL120:
 938              		.loc 1 434 0
 939 010c 1C009FE5 		ldr	r0, .L72+20
 940 0110 FEFFFFEB 		bl	test_println
 941              	.LVL121:
 942              		.loc 1 435 0
 943 0114 10D08DE2 		add	sp, sp, #16
 944 0118 F081BDE8 		ldmfd	sp!, {r4, r5, r6, r7, r8, pc}
 945              	.L73:
 946              		.align	2
 947              	.L72:
 948 011c 00000000 		.word	rlist
 949 0120 00000000 		.word	wa
 950 0124 00000000 		.word	thread8
 951 0128 00000000 		.word	threads
 952 012c A8000000 		.word	.LC11
 953 0130 FC000000 		.word	.LC17
 954              		.cfi_endproc
 955              	.LFE21:
 956              		.size	bmk8_execute, .-bmk8_execute
 957              		.section	.text.thread8,"ax",%progbits
 958              		.align	2
 959              		.type	thread8, %function
 960              	thread8:
 961              	.LFB20:
 962              		.loc 1 401 0
 963              		.cfi_startproc
 964              		@ args = 0, pretend = 0, frame = 0
 965              		@ frame_needed = 0, uses_anonymous_args = 0
 966              	.LVL122:
 967 0000 38402DE9 		stmfd	sp!, {r3, r4, r5, lr}
 968              	.LCFI11:
 969              		.cfi_def_cfa_offset 16
ARM GAS  C:\Users\NICOMA~1\AppData\Local\Temp\ccqMwJOe.s 			page 18


 970              		.cfi_offset 3, -16
 971              		.cfi_offset 4, -12
 972              		.cfi_offset 5, -8
 973              		.cfi_offset 14, -4
 974 0004 3C509FE5 		ldr	r5, .L80
 975              		.loc 1 401 0
 976 0008 0040A0E1 		mov	r4, r0
 977              	.LVL123:
 978              	.L75:
 979              		.loc 1 404 0 discriminator 1
 980 000c FEFFFFEB 		bl	chThdYield
 981              	.LVL124:
 982              		.loc 1 405 0 discriminator 1
 983 0010 FEFFFFEB 		bl	chThdYield
 984              	.LVL125:
 985              		.loc 1 406 0 discriminator 1
 986 0014 FEFFFFEB 		bl	chThdYield
 987              	.LVL126:
 988              		.loc 1 407 0 discriminator 1
 989 0018 FEFFFFEB 		bl	chThdYield
 990              	.LVL127:
 991              		.loc 1 408 0 discriminator 1
 992 001c 002094E5 		ldr	r2, [r4, #0]
 993              		.loc 1 412 0 discriminator 1
 994 0020 183095E5 		ldr	r3, [r5, #24]
 995              		.loc 1 408 0 discriminator 1
 996 0024 042082E2 		add	r2, r2, #4
 997 0028 002084E5 		str	r2, [r4, #0]
 998              		.loc 1 412 0 discriminator 1
 999 002c 1D30D3E5 		ldrb	r3, [r3, #29]	@ zero_extendqisi2
 1000 0030 043003E2 		and	r3, r3, #4
 1001 0034 7330EFE6 		uxtb	r3, r3
 1002 0038 000053E3 		cmp	r3, #0
 1003 003c F2FFFF0A 		beq	.L75
 1004              		.loc 1 414 0
 1005 0040 0000A0E3 		mov	r0, #0
 1006 0044 3880BDE8 		ldmfd	sp!, {r3, r4, r5, pc}
 1007              	.L81:
 1008              		.align	2
 1009              	.L80:
 1010 0048 00000000 		.word	rlist
 1011              		.cfi_endproc
 1012              	.LFE20:
 1013              		.size	thread8, .-thread8
 1014              		.section	.text.bmk7_execute,"ax",%progbits
 1015              		.align	2
 1016              		.type	bmk7_execute, %function
 1017              	bmk7_execute:
 1018              	.LFB19:
 1019              		.loc 1 354 0
 1020              		.cfi_startproc
 1021              		@ args = 0, pretend = 0, frame = 0
 1022              		@ frame_needed = 0, uses_anonymous_args = 0
 1023 0000 F0402DE9 		stmfd	sp!, {r4, r5, r6, r7, lr}
 1024              	.LCFI12:
 1025              		.cfi_def_cfa_offset 20
 1026              		.cfi_offset 4, -20
ARM GAS  C:\Users\NICOMA~1\AppData\Local\Temp\ccqMwJOe.s 			page 19


 1027              		.cfi_offset 5, -16
 1028              		.cfi_offset 6, -12
 1029              		.cfi_offset 7, -8
 1030              		.cfi_offset 14, -4
 1031              		.loc 1 357 0
 1032 0004 44719FE5 		ldr	r7, .L88
 1033 0008 44619FE5 		ldr	r6, .L88+4
 1034 000c 183097E5 		ldr	r3, [r7, #24]
 1035              		.loc 1 354 0
 1036 0010 0CD04DE2 		sub	sp, sp, #12
 1037              	.LCFI13:
 1038              		.cfi_def_cfa_offset 32
 1039              		.loc 1 357 0
 1040 0014 082093E5 		ldr	r2, [r3, #8]
 1041 0018 0040A0E3 		mov	r4, #0
 1042 001c 461FA0E3 		mov	r1, #280
 1043 0020 052082E2 		add	r2, r2, #5
 1044 0024 2C319FE5 		ldr	r3, .L88+8
 1045 0028 000096E5 		ldr	r0, [r6, #0]
 1046 002c 00408DE5 		str	r4, [sp, #0]
 1047 0030 FEFFFFEB 		bl	chThdCreateStatic
 1048              	.LVL128:
 1049              		.loc 1 358 0
 1050 0034 183097E5 		ldr	r3, [r7, #24]
 1051              		.loc 1 357 0
 1052 0038 1C519FE5 		ldr	r5, .L88+12
 1053              		.loc 1 358 0
 1054 003c 082093E5 		ldr	r2, [r3, #8]
 1055 0040 04C096E5 		ldr	ip, [r6, #4]
 1056              		.loc 1 357 0
 1057 0044 000085E5 		str	r0, [r5, #0]
 1058              		.loc 1 358 0
 1059 0048 461FA0E3 		mov	r1, #280
 1060 004c 042082E2 		add	r2, r2, #4
 1061 0050 00319FE5 		ldr	r3, .L88+8
 1062 0054 0C00A0E1 		mov	r0, ip
 1063 0058 00408DE5 		str	r4, [sp, #0]
 1064 005c FEFFFFEB 		bl	chThdCreateStatic
 1065              	.LVL129:
 1066              		.loc 1 359 0
 1067 0060 183097E5 		ldr	r3, [r7, #24]
 1068 0064 08C096E5 		ldr	ip, [r6, #8]
 1069 0068 082093E5 		ldr	r2, [r3, #8]
 1070 006c 461FA0E3 		mov	r1, #280
 1071              		.loc 1 358 0
 1072 0070 040085E5 		str	r0, [r5, #4]
 1073              		.loc 1 359 0
 1074 0074 032082E2 		add	r2, r2, #3
 1075 0078 D8309FE5 		ldr	r3, .L88+8
 1076 007c 0C00A0E1 		mov	r0, ip
 1077 0080 00408DE5 		str	r4, [sp, #0]
 1078 0084 FEFFFFEB 		bl	chThdCreateStatic
 1079              	.LVL130:
 1080              		.loc 1 360 0
 1081 0088 183097E5 		ldr	r3, [r7, #24]
 1082 008c 0CC096E5 		ldr	ip, [r6, #12]
 1083 0090 082093E5 		ldr	r2, [r3, #8]
ARM GAS  C:\Users\NICOMA~1\AppData\Local\Temp\ccqMwJOe.s 			page 20


 1084 0094 461FA0E3 		mov	r1, #280
 1085              		.loc 1 359 0
 1086 0098 080085E5 		str	r0, [r5, #8]
 1087              		.loc 1 360 0
 1088 009c 022082E2 		add	r2, r2, #2
 1089 00a0 B0309FE5 		ldr	r3, .L88+8
 1090 00a4 0C00A0E1 		mov	r0, ip
 1091 00a8 00408DE5 		str	r4, [sp, #0]
 1092 00ac FEFFFFEB 		bl	chThdCreateStatic
 1093              	.LVL131:
 1094              		.loc 1 361 0
 1095 00b0 183097E5 		ldr	r3, [r7, #24]
 1096 00b4 10C096E5 		ldr	ip, [r6, #16]
 1097 00b8 082093E5 		ldr	r2, [r3, #8]
 1098 00bc 461FA0E3 		mov	r1, #280
 1099              		.loc 1 360 0
 1100 00c0 0C0085E5 		str	r0, [r5, #12]
 1101              		.loc 1 361 0
 1102 00c4 012082E2 		add	r2, r2, #1
 1103 00c8 88309FE5 		ldr	r3, .L88+8
 1104 00cc 0C00A0E1 		mov	r0, ip
 1105 00d0 00408DE5 		str	r4, [sp, #0]
 1106 00d4 FEFFFFEB 		bl	chThdCreateStatic
 1107              	.LVL132:
 1108 00d8 100085E5 		str	r0, [r5, #16]
 1109              	.LVL133:
 1110              		.loc 1 364 0
 1111 00dc FEFFFFEB 		bl	test_wait_tick
 1112              	.LVL134:
 1113              		.loc 1 365 0
 1114 00e0 FA0FA0E3 		mov	r0, #1000
 1115 00e4 FEFFFFEB 		bl	test_start_timer
 1116              	.LVL135:
 1117 00e8 70509FE5 		ldr	r5, .L88+16
 1118              	.LVL136:
 1119              	.L83:
 1120              		.loc 1 367 0 discriminator 1
 1121 00ec 70009FE5 		ldr	r0, .L88+20
 1122 00f0 0010A0E3 		mov	r1, #0
 1123 00f4 FEFFFFEB 		bl	chSemReset
 1124              	.LVL137:
 1125              		.loc 1 372 0 discriminator 1
 1126 00f8 0030D5E5 		ldrb	r3, [r5, #0]	@ zero_extendqisi2
 1127              		.loc 1 368 0 discriminator 1
 1128 00fc 014084E2 		add	r4, r4, #1
 1129              	.LVL138:
 1130              		.loc 1 372 0 discriminator 1
 1131 0100 000053E3 		cmp	r3, #0
 1132 0104 F8FFFF0A 		beq	.L83
 1133              		.loc 1 373 0
 1134 0108 FEFFFFEB 		bl	test_terminate_threads
 1135              	.LVL139:
 1136              		.loc 1 374 0
 1137 010c 0010A0E3 		mov	r1, #0
 1138 0110 4C009FE5 		ldr	r0, .L88+20
 1139 0114 FEFFFFEB 		bl	chSemReset
 1140              	.LVL140:
ARM GAS  C:\Users\NICOMA~1\AppData\Local\Temp\ccqMwJOe.s 			page 21


 1141              		.loc 1 375 0
 1142 0118 FEFFFFEB 		bl	test_wait_threads
 1143              	.LVL141:
 1144              		.loc 1 377 0
 1145 011c 44009FE5 		ldr	r0, .L88+24
 1146 0120 FEFFFFEB 		bl	test_print
 1147              	.LVL142:
 1148              		.loc 1 378 0
 1149 0124 0400A0E1 		mov	r0, r4
 1150 0128 FEFFFFEB 		bl	test_printn
 1151              	.LVL143:
 1152              		.loc 1 379 0
 1153 012c 38009FE5 		ldr	r0, .L88+28
 1154 0130 FEFFFFEB 		bl	test_print
 1155              	.LVL144:
 1156              		.loc 1 380 0
 1157 0134 840084E0 		add	r0, r4, r4, asl #1
 1158 0138 8000A0E1 		mov	r0, r0, asl #1
 1159 013c FEFFFFEB 		bl	test_printn
 1160              	.LVL145:
 1161              		.loc 1 381 0
 1162 0140 28009FE5 		ldr	r0, .L88+32
 1163              		.loc 1 382 0
 1164 0144 0CD08DE2 		add	sp, sp, #12
 1165 0148 F040BDE8 		ldmfd	sp!, {r4, r5, r6, r7, lr}
 1166              		.loc 1 381 0
 1167 014c FEFFFFEA 		b	test_println
 1168              	.LVL146:
 1169              	.L89:
 1170              		.align	2
 1171              	.L88:
 1172 0150 00000000 		.word	rlist
 1173 0154 00000000 		.word	wa
 1174 0158 00000000 		.word	thread3
 1175 015c 00000000 		.word	threads
 1176 0160 00000000 		.word	test_timer_done
 1177 0164 00000000 		.word	.LANCHOR1
 1178 0168 A8000000 		.word	.LC11
 1179 016c 08010000 		.word	.LC18
 1180 0170 FC000000 		.word	.LC17
 1181              		.cfi_endproc
 1182              	.LFE19:
 1183              		.size	bmk7_execute, .-bmk7_execute
 1184              		.section	.text.bmk5_execute,"ax",%progbits
 1185              		.align	2
 1186              		.type	bmk5_execute, %function
 1187              	bmk5_execute:
 1188              	.LFB15:
 1189              		.loc 1 265 0
 1190              		.cfi_startproc
 1191              		@ args = 0, pretend = 0, frame = 0
 1192              		@ frame_needed = 0, uses_anonymous_args = 0
 1193              	.LVL147:
 1194 0000 F0412DE9 		stmfd	sp!, {r4, r5, r6, r7, r8, lr}
 1195              	.LCFI14:
 1196              		.cfi_def_cfa_offset 24
 1197              		.cfi_offset 4, -24
ARM GAS  C:\Users\NICOMA~1\AppData\Local\Temp\ccqMwJOe.s 			page 22


 1198              		.cfi_offset 5, -20
 1199              		.cfi_offset 6, -16
 1200              		.cfi_offset 7, -12
 1201              		.cfi_offset 8, -8
 1202              		.cfi_offset 14, -4
 1203              		.loc 1 269 0
 1204 0004 78309FE5 		ldr	r3, .L96
 1205              		.loc 1 268 0
 1206 0008 78209FE5 		ldr	r2, .L96+4
 1207              		.loc 1 269 0
 1208 000c 183093E5 		ldr	r3, [r3, #24]
 1209              		.loc 1 265 0
 1210 0010 08D04DE2 		sub	sp, sp, #8
 1211              	.LCFI15:
 1212              		.cfi_def_cfa_offset 32
 1213              		.loc 1 269 0
 1214 0014 087093E5 		ldr	r7, [r3, #8]
 1215              		.loc 1 268 0
 1216 0018 008092E5 		ldr	r8, [r2, #0]
 1217              	.LVL148:
 1218              		.loc 1 270 0
 1219 001c FEFFFFEB 		bl	test_wait_tick
 1220              	.LVL149:
 1221              		.loc 1 271 0
 1222 0020 FA0FA0E3 		mov	r0, #1000
 1223 0024 FEFFFFEB 		bl	test_start_timer
 1224              	.LVL150:
 1225              		.loc 1 267 0
 1226 0028 0040A0E3 		mov	r4, #0
 1227 002c 58609FE5 		ldr	r6, .L96+8
 1228              		.loc 1 269 0
 1229 0030 017047E2 		sub	r7, r7, #1
 1230              	.LVL151:
 1231              		.loc 1 273 0
 1232 0034 0450A0E1 		mov	r5, r4
 1233              	.LVL152:
 1234              	.L91:
 1235              		.loc 1 273 0 is_stmt 0 discriminator 1
 1236 0038 50309FE5 		ldr	r3, .L96+12
 1237 003c 461FA0E3 		mov	r1, #280
 1238 0040 0720A0E1 		mov	r2, r7
 1239 0044 00508DE5 		str	r5, [sp, #0]
 1240 0048 0800A0E1 		mov	r0, r8
 1241 004c FEFFFFEB 		bl	chThdCreateStatic
 1242              	.LVL153:
 1243 0050 FEFFFFEB 		bl	chThdWait
 1244              	.LVL154:
 1245              		.loc 1 278 0 is_stmt 1 discriminator 1
 1246 0054 0030D6E5 		ldrb	r3, [r6, #0]	@ zero_extendqisi2
 1247              		.loc 1 274 0 discriminator 1
 1248 0058 014084E2 		add	r4, r4, #1
 1249              	.LVL155:
 1250              		.loc 1 278 0 discriminator 1
 1251 005c 000053E3 		cmp	r3, #0
 1252 0060 F4FFFF0A 		beq	.L91
 1253              		.loc 1 279 0
 1254 0064 28009FE5 		ldr	r0, .L96+16
ARM GAS  C:\Users\NICOMA~1\AppData\Local\Temp\ccqMwJOe.s 			page 23


 1255 0068 FEFFFFEB 		bl	test_print
 1256              	.LVL156:
 1257              		.loc 1 280 0
 1258 006c 0400A0E1 		mov	r0, r4
 1259 0070 FEFFFFEB 		bl	test_printn
 1260              	.LVL157:
 1261              		.loc 1 281 0
 1262 0074 1C009FE5 		ldr	r0, .L96+20
 1263              		.loc 1 282 0
 1264 0078 08D08DE2 		add	sp, sp, #8
 1265 007c F041BDE8 		ldmfd	sp!, {r4, r5, r6, r7, r8, lr}
 1266              		.loc 1 281 0
 1267 0080 FEFFFFEA 		b	test_println
 1268              	.LVL158:
 1269              	.L97:
 1270              		.align	2
 1271              	.L96:
 1272 0084 00000000 		.word	rlist
 1273 0088 00000000 		.word	wa
 1274 008c 00000000 		.word	test_timer_done
 1275 0090 00000000 		.word	thread2
 1276 0094 A8000000 		.word	.LC11
 1277 0098 F0000000 		.word	.LC16
 1278              		.cfi_endproc
 1279              	.LFE15:
 1280              		.size	bmk5_execute, .-bmk5_execute
 1281              		.section	.text.bmk4_execute,"ax",%progbits
 1282              		.align	2
 1283              		.type	bmk4_execute, %function
 1284              	bmk4_execute:
 1285              	.LFB14:
 1286              		.loc 1 217 0
 1287              		.cfi_startproc
 1288              		@ args = 0, pretend = 0, frame = 0
 1289              		@ frame_needed = 0, uses_anonymous_args = 0
 1290 0000 70402DE9 		stmfd	sp!, {r4, r5, r6, lr}
 1291              	.LCFI16:
 1292              		.cfi_def_cfa_offset 16
 1293              		.cfi_offset 4, -16
 1294              		.cfi_offset 5, -12
 1295              		.cfi_offset 6, -8
 1296              		.cfi_offset 14, -4
 1297              		.loc 1 221 0
 1298 0004 C4309FE5 		ldr	r3, .L104
 1299 0008 C4009FE5 		ldr	r0, .L104+4
 1300 000c 183093E5 		ldr	r3, [r3, #24]
 1301              		.loc 1 217 0
 1302 0010 08D04DE2 		sub	sp, sp, #8
 1303              	.LCFI17:
 1304              		.cfi_def_cfa_offset 24
 1305              		.loc 1 221 0
 1306 0014 082093E5 		ldr	r2, [r3, #8]
 1307 0018 0050A0E3 		mov	r5, #0
 1308 001c 461FA0E3 		mov	r1, #280
 1309 0020 012082E2 		add	r2, r2, #1
 1310 0024 AC309FE5 		ldr	r3, .L104+8
 1311 0028 00508DE5 		str	r5, [sp, #0]
ARM GAS  C:\Users\NICOMA~1\AppData\Local\Temp\ccqMwJOe.s 			page 24


 1312 002c 000090E5 		ldr	r0, [r0, #0]
 1313 0030 FEFFFFEB 		bl	chThdCreateStatic
 1314              	.LVL159:
 1315 0034 A0309FE5 		ldr	r3, .L104+12
 1316 0038 0040A0E1 		mov	r4, r0
 1317 003c 000083E5 		str	r0, [r3, #0]
 1318              	.LVL160:
 1319              		.loc 1 223 0
 1320 0040 FEFFFFEB 		bl	test_wait_tick
 1321              	.LVL161:
 1322              		.loc 1 224 0
 1323 0044 FA0FA0E3 		mov	r0, #1000
 1324 0048 90609FE5 		ldr	r6, .L104+16
 1325 004c FEFFFFEB 		bl	test_start_timer
 1326              	.LVL162:
 1327              	.L99:
 1328              		.loc 1 226 0 discriminator 1
 1329              	@ 226 "../../test/testbmk.c" 1
 1330 0050 9FF021E3 		msr     CPSR_c, #0x9F
 1331              	@ 0 "" 2
 1332              		.loc 1 227 0 discriminator 1
 1333 0054 0010A0E3 		mov	r1, #0
 1334 0058 0400A0E1 		mov	r0, r4
 1335 005c FEFFFFEB 		bl	chSchWakeupS
 1336              	.LVL163:
 1337              		.loc 1 228 0 discriminator 1
 1338 0060 0400A0E1 		mov	r0, r4
 1339 0064 0010A0E3 		mov	r1, #0
 1340 0068 FEFFFFEB 		bl	chSchWakeupS
 1341              	.LVL164:
 1342              		.loc 1 229 0 discriminator 1
 1343 006c 0400A0E1 		mov	r0, r4
 1344 0070 0010A0E3 		mov	r1, #0
 1345 0074 FEFFFFEB 		bl	chSchWakeupS
 1346              	.LVL165:
 1347              		.loc 1 230 0 discriminator 1
 1348 0078 0400A0E1 		mov	r0, r4
 1349 007c 0010A0E3 		mov	r1, #0
 1350 0080 FEFFFFEB 		bl	chSchWakeupS
 1351              	.LVL166:
 1352              		.loc 1 231 0 discriminator 1
 1353              	@ 231 "../../test/testbmk.c" 1
 1354 0084 1FF021E3 		msr     CPSR_c, #0x1F
 1355              	@ 0 "" 2
 1356              		.loc 1 236 0 discriminator 1
 1357 0088 0030D6E5 		ldrb	r3, [r6, #0]	@ zero_extendqisi2
 1358              		.loc 1 232 0 discriminator 1
 1359 008c 045085E2 		add	r5, r5, #4
 1360              	.LVL167:
 1361              		.loc 1 236 0 discriminator 1
 1362 0090 000053E3 		cmp	r3, #0
 1363 0094 EDFFFF0A 		beq	.L99
 1364              		.loc 1 237 0
 1365              	@ 237 "../../test/testbmk.c" 1
 1366 0098 9FF021E3 		msr     CPSR_c, #0x9F
 1367              	@ 0 "" 2
 1368              		.loc 1 238 0
ARM GAS  C:\Users\NICOMA~1\AppData\Local\Temp\ccqMwJOe.s 			page 25


 1369 009c 0010E0E3 		mvn	r1, #0
 1370 00a0 0400A0E1 		mov	r0, r4
 1371 00a4 FEFFFFEB 		bl	chSchWakeupS
 1372              	.LVL168:
 1373              		.loc 1 239 0
 1374              	@ 239 "../../test/testbmk.c" 1
 1375 00a8 1FF021E3 		msr     CPSR_c, #0x1F
 1376              	@ 0 "" 2
 1377              		.loc 1 241 0
 1378 00ac FEFFFFEB 		bl	test_wait_threads
 1379              	.LVL169:
 1380              		.loc 1 242 0
 1381 00b0 2C009FE5 		ldr	r0, .L104+20
 1382 00b4 FEFFFFEB 		bl	test_print
 1383              	.LVL170:
 1384              		.loc 1 243 0
 1385 00b8 8500A0E1 		mov	r0, r5, asl #1
 1386 00bc FEFFFFEB 		bl	test_printn
 1387              	.LVL171:
 1388              		.loc 1 244 0
 1389 00c0 20009FE5 		ldr	r0, .L104+24
 1390              		.loc 1 245 0
 1391 00c4 08D08DE2 		add	sp, sp, #8
 1392 00c8 7040BDE8 		ldmfd	sp!, {r4, r5, r6, lr}
 1393              		.loc 1 244 0
 1394 00cc FEFFFFEA 		b	test_println
 1395              	.LVL172:
 1396              	.L105:
 1397              		.align	2
 1398              	.L104:
 1399 00d0 00000000 		.word	rlist
 1400 00d4 00000000 		.word	wa
 1401 00d8 00000000 		.word	thread4
 1402 00dc 00000000 		.word	threads
 1403 00e0 00000000 		.word	test_timer_done
 1404 00e4 A8000000 		.word	.LC11
 1405 00e8 FC000000 		.word	.LC17
 1406              		.cfi_endproc
 1407              	.LFE14:
 1408              		.size	bmk4_execute, .-bmk4_execute
 1409              		.section	.text.msg_loop_test,"ax",%progbits
 1410              		.align	2
 1411              		.type	msg_loop_test, %function
 1412              	msg_loop_test:
 1413              	.LFB8:
 1414              		.loc 1 80 0
 1415              		.cfi_startproc
 1416              		@ args = 0, pretend = 0, frame = 0
 1417              		@ frame_needed = 0, uses_anonymous_args = 0
 1418              	.LVL173:
 1419 0000 70402DE9 		stmfd	sp!, {r4, r5, r6, lr}
 1420              	.LCFI18:
 1421              		.cfi_def_cfa_offset 16
 1422              		.cfi_offset 4, -16
 1423              		.cfi_offset 5, -12
 1424              		.cfi_offset 6, -8
 1425              		.cfi_offset 14, -4
ARM GAS  C:\Users\NICOMA~1\AppData\Local\Temp\ccqMwJOe.s 			page 26


 1426              		.loc 1 80 0
 1427 0004 0050A0E1 		mov	r5, r0
 1428              		.loc 1 83 0
 1429 0008 FEFFFFEB 		bl	test_wait_tick
 1430              	.LVL174:
 1431              		.loc 1 84 0
 1432 000c FA0FA0E3 		mov	r0, #1000
 1433 0010 FEFFFFEB 		bl	test_start_timer
 1434              	.LVL175:
 1435 0014 30609FE5 		ldr	r6, .L112
 1436              		.loc 1 82 0
 1437 0018 0040A0E3 		mov	r4, #0
 1438              	.LVL176:
 1439              	.L107:
 1440              		.loc 1 86 0 discriminator 1
 1441 001c 0500A0E1 		mov	r0, r5
 1442 0020 0110A0E3 		mov	r1, #1
 1443 0024 FEFFFFEB 		bl	chMsgSend
 1444              	.LVL177:
 1445              		.loc 1 91 0 discriminator 1
 1446 0028 0030D6E5 		ldrb	r3, [r6, #0]	@ zero_extendqisi2
 1447              		.loc 1 87 0 discriminator 1
 1448 002c 014084E2 		add	r4, r4, #1
 1449              	.LVL178:
 1450              		.loc 1 91 0 discriminator 1
 1451 0030 000053E3 		cmp	r3, #0
 1452 0034 F8FFFF0A 		beq	.L107
 1453              		.loc 1 92 0
 1454 0038 0500A0E1 		mov	r0, r5
 1455 003c 0010A0E3 		mov	r1, #0
 1456 0040 FEFFFFEB 		bl	chMsgSend
 1457              	.LVL179:
 1458              		.loc 1 94 0
 1459 0044 0400A0E1 		mov	r0, r4
 1460 0048 7080BDE8 		ldmfd	sp!, {r4, r5, r6, pc}
 1461              	.L113:
 1462              		.align	2
 1463              	.L112:
 1464 004c 00000000 		.word	test_timer_done
 1465              		.cfi_endproc
 1466              	.LFE8:
 1467              		.size	msg_loop_test, .-msg_loop_test
 1468              		.section	.text.bmk3_execute,"ax",%progbits
 1469              		.align	2
 1470              		.type	bmk3_execute, %function
 1471              	bmk3_execute:
 1472              	.LFB12:
 1473              		.loc 1 169 0
 1474              		.cfi_startproc
 1475              		@ args = 0, pretend = 0, frame = 0
 1476              		@ frame_needed = 0, uses_anonymous_args = 0
 1477 0000 F0412DE9 		stmfd	sp!, {r4, r5, r6, r7, r8, lr}
 1478              	.LCFI19:
 1479              		.cfi_def_cfa_offset 24
 1480              		.cfi_offset 4, -24
 1481              		.cfi_offset 5, -20
 1482              		.cfi_offset 6, -16
ARM GAS  C:\Users\NICOMA~1\AppData\Local\Temp\ccqMwJOe.s 			page 27


 1483              		.cfi_offset 7, -12
 1484              		.cfi_offset 8, -8
 1485              		.cfi_offset 14, -4
 1486              		.loc 1 172 0
 1487 0004 14719FE5 		ldr	r7, .L115
 1488 0008 14619FE5 		ldr	r6, .L115+4
 1489 000c 183097E5 		ldr	r3, [r7, #24]
 1490              		.loc 1 169 0
 1491 0010 08D04DE2 		sub	sp, sp, #8
 1492              	.LCFI20:
 1493              		.cfi_def_cfa_offset 32
 1494              		.loc 1 172 0
 1495 0014 082093E5 		ldr	r2, [r3, #8]
 1496 0018 0050A0E3 		mov	r5, #0
 1497 001c 000096E5 		ldr	r0, [r6, #0]
 1498 0020 461FA0E3 		mov	r1, #280
 1499 0024 012082E2 		add	r2, r2, #1
 1500 0028 F8309FE5 		ldr	r3, .L115+8
 1501 002c 00508DE5 		str	r5, [sp, #0]
 1502 0030 FEFFFFEB 		bl	chThdCreateStatic
 1503              	.LVL180:
 1504              		.loc 1 173 0
 1505 0034 183097E5 		ldr	r3, [r7, #24]
 1506              		.loc 1 172 0
 1507 0038 EC409FE5 		ldr	r4, .L115+12
 1508              		.loc 1 173 0
 1509 003c EC809FE5 		ldr	r8, .L115+16
 1510 0040 082093E5 		ldr	r2, [r3, #8]
 1511 0044 04C096E5 		ldr	ip, [r6, #4]
 1512              		.loc 1 172 0
 1513 0048 000084E5 		str	r0, [r4, #0]
 1514              		.loc 1 173 0
 1515 004c 0830A0E1 		mov	r3, r8
 1516 0050 461FA0E3 		mov	r1, #280
 1517 0054 022042E2 		sub	r2, r2, #2
 1518 0058 00508DE5 		str	r5, [sp, #0]
 1519 005c 0C00A0E1 		mov	r0, ip
 1520 0060 FEFFFFEB 		bl	chThdCreateStatic
 1521              	.LVL181:
 1522              		.loc 1 174 0
 1523 0064 183097E5 		ldr	r3, [r7, #24]
 1524 0068 08C096E5 		ldr	ip, [r6, #8]
 1525 006c 082093E5 		ldr	r2, [r3, #8]
 1526 0070 461FA0E3 		mov	r1, #280
 1527              		.loc 1 173 0
 1528 0074 040084E5 		str	r0, [r4, #4]
 1529              		.loc 1 174 0
 1530 0078 0830A0E1 		mov	r3, r8
 1531 007c 032042E2 		sub	r2, r2, #3
 1532 0080 00508DE5 		str	r5, [sp, #0]
 1533 0084 0C00A0E1 		mov	r0, ip
 1534 0088 FEFFFFEB 		bl	chThdCreateStatic
 1535              	.LVL182:
 1536              		.loc 1 175 0
 1537 008c 183097E5 		ldr	r3, [r7, #24]
 1538 0090 0CC096E5 		ldr	ip, [r6, #12]
 1539 0094 082093E5 		ldr	r2, [r3, #8]
ARM GAS  C:\Users\NICOMA~1\AppData\Local\Temp\ccqMwJOe.s 			page 28


 1540 0098 461FA0E3 		mov	r1, #280
 1541              		.loc 1 174 0
 1542 009c 080084E5 		str	r0, [r4, #8]
 1543              		.loc 1 175 0
 1544 00a0 0830A0E1 		mov	r3, r8
 1545 00a4 042042E2 		sub	r2, r2, #4
 1546 00a8 00508DE5 		str	r5, [sp, #0]
 1547 00ac 0C00A0E1 		mov	r0, ip
 1548 00b0 FEFFFFEB 		bl	chThdCreateStatic
 1549              	.LVL183:
 1550              		.loc 1 176 0
 1551 00b4 183097E5 		ldr	r3, [r7, #24]
 1552 00b8 10C096E5 		ldr	ip, [r6, #16]
 1553 00bc 082093E5 		ldr	r2, [r3, #8]
 1554 00c0 461FA0E3 		mov	r1, #280
 1555 00c4 052042E2 		sub	r2, r2, #5
 1556 00c8 0830A0E1 		mov	r3, r8
 1557              		.loc 1 175 0
 1558 00cc 0C0084E5 		str	r0, [r4, #12]
 1559              		.loc 1 176 0
 1560 00d0 0C00A0E1 		mov	r0, ip
 1561 00d4 00508DE5 		str	r5, [sp, #0]
 1562 00d8 FEFFFFEB 		bl	chThdCreateStatic
 1563              	.LVL184:
 1564 00dc 100084E5 		str	r0, [r4, #16]
 1565              		.loc 1 177 0
 1566 00e0 000094E5 		ldr	r0, [r4, #0]
 1567 00e4 FEFFFFEB 		bl	msg_loop_test
 1568              	.LVL185:
 1569 00e8 0040A0E1 		mov	r4, r0
 1570              	.LVL186:
 1571              		.loc 1 178 0
 1572 00ec FEFFFFEB 		bl	test_wait_threads
 1573              	.LVL187:
 1574              		.loc 1 179 0
 1575 00f0 3C009FE5 		ldr	r0, .L115+20
 1576 00f4 FEFFFFEB 		bl	test_print
 1577              	.LVL188:
 1578              		.loc 1 180 0
 1579 00f8 0400A0E1 		mov	r0, r4
 1580 00fc FEFFFFEB 		bl	test_printn
 1581              	.LVL189:
 1582              		.loc 1 181 0
 1583 0100 30009FE5 		ldr	r0, .L115+24
 1584 0104 FEFFFFEB 		bl	test_print
 1585              	.LVL190:
 1586              		.loc 1 182 0
 1587 0108 8400A0E1 		mov	r0, r4, asl #1
 1588 010c FEFFFFEB 		bl	test_printn
 1589              	.LVL191:
 1590              		.loc 1 183 0
 1591 0110 24009FE5 		ldr	r0, .L115+28
 1592              		.loc 1 184 0
 1593 0114 08D08DE2 		add	sp, sp, #8
 1594 0118 F041BDE8 		ldmfd	sp!, {r4, r5, r6, r7, r8, lr}
 1595              		.loc 1 183 0
 1596 011c FEFFFFEA 		b	test_println
ARM GAS  C:\Users\NICOMA~1\AppData\Local\Temp\ccqMwJOe.s 			page 29


 1597              	.LVL192:
 1598              	.L116:
 1599              		.align	2
 1600              	.L115:
 1601 0120 00000000 		.word	rlist
 1602 0124 00000000 		.word	wa
 1603 0128 00000000 		.word	thread1
 1604 012c 00000000 		.word	threads
 1605 0130 00000000 		.word	thread2
 1606 0134 A8000000 		.word	.LC11
 1607 0138 1C010000 		.word	.LC19
 1608 013c FC000000 		.word	.LC17
 1609              		.cfi_endproc
 1610              	.LFE12:
 1611              		.size	bmk3_execute, .-bmk3_execute
 1612              		.section	.text.bmk2_execute,"ax",%progbits
 1613              		.align	2
 1614              		.type	bmk2_execute, %function
 1615              	bmk2_execute:
 1616              	.LFB10:
 1617              		.loc 1 134 0
 1618              		.cfi_startproc
 1619              		@ args = 0, pretend = 0, frame = 0
 1620              		@ frame_needed = 0, uses_anonymous_args = 0
 1621 0000 10402DE9 		stmfd	sp!, {r4, lr}
 1622              	.LCFI21:
 1623              		.cfi_def_cfa_offset 8
 1624              		.cfi_offset 4, -8
 1625              		.cfi_offset 14, -4
 1626              		.loc 1 137 0
 1627 0004 6C309FE5 		ldr	r3, .L118
 1628 0008 6C209FE5 		ldr	r2, .L118+4
 1629 000c 183093E5 		ldr	r3, [r3, #24]
 1630 0010 000092E5 		ldr	r0, [r2, #0]
 1631 0014 082093E5 		ldr	r2, [r3, #8]
 1632              		.loc 1 134 0
 1633 0018 08D04DE2 		sub	sp, sp, #8
 1634              	.LCFI22:
 1635              		.cfi_def_cfa_offset 16
 1636              		.loc 1 137 0
 1637 001c 00C0A0E3 		mov	ip, #0
 1638 0020 461FA0E3 		mov	r1, #280
 1639 0024 012082E2 		add	r2, r2, #1
 1640 0028 00C08DE5 		str	ip, [sp, #0]
 1641 002c 4C309FE5 		ldr	r3, .L118+8
 1642 0030 FEFFFFEB 		bl	chThdCreateStatic
 1643              	.LVL193:
 1644 0034 48309FE5 		ldr	r3, .L118+12
 1645 0038 000083E5 		str	r0, [r3, #0]
 1646              		.loc 1 138 0
 1647 003c FEFFFFEB 		bl	msg_loop_test
 1648              	.LVL194:
 1649 0040 0040A0E1 		mov	r4, r0
 1650              	.LVL195:
 1651              		.loc 1 139 0
 1652 0044 FEFFFFEB 		bl	test_wait_threads
 1653              	.LVL196:
ARM GAS  C:\Users\NICOMA~1\AppData\Local\Temp\ccqMwJOe.s 			page 30


 1654              		.loc 1 140 0
 1655 0048 38009FE5 		ldr	r0, .L118+16
 1656 004c FEFFFFEB 		bl	test_print
 1657              	.LVL197:
 1658              		.loc 1 141 0
 1659 0050 0400A0E1 		mov	r0, r4
 1660 0054 FEFFFFEB 		bl	test_printn
 1661              	.LVL198:
 1662              		.loc 1 142 0
 1663 0058 2C009FE5 		ldr	r0, .L118+20
 1664 005c FEFFFFEB 		bl	test_print
 1665              	.LVL199:
 1666              		.loc 1 143 0
 1667 0060 8400A0E1 		mov	r0, r4, asl #1
 1668 0064 FEFFFFEB 		bl	test_printn
 1669              	.LVL200:
 1670              		.loc 1 144 0
 1671 0068 20009FE5 		ldr	r0, .L118+24
 1672              		.loc 1 145 0
 1673 006c 08D08DE2 		add	sp, sp, #8
 1674 0070 1040BDE8 		ldmfd	sp!, {r4, lr}
 1675              		.loc 1 144 0
 1676 0074 FEFFFFEA 		b	test_println
 1677              	.LVL201:
 1678              	.L119:
 1679              		.align	2
 1680              	.L118:
 1681 0078 00000000 		.word	rlist
 1682 007c 00000000 		.word	wa
 1683 0080 00000000 		.word	thread1
 1684 0084 00000000 		.word	threads
 1685 0088 A8000000 		.word	.LC11
 1686 008c 1C010000 		.word	.LC19
 1687 0090 FC000000 		.word	.LC17
 1688              		.cfi_endproc
 1689              	.LFE10:
 1690              		.size	bmk2_execute, .-bmk2_execute
 1691              		.section	.text.bmk1_execute,"ax",%progbits
 1692              		.align	2
 1693              		.type	bmk1_execute, %function
 1694              	bmk1_execute:
 1695              	.LFB9:
 1696              		.loc 1 105 0
 1697              		.cfi_startproc
 1698              		@ args = 0, pretend = 0, frame = 0
 1699              		@ frame_needed = 0, uses_anonymous_args = 0
 1700 0000 10402DE9 		stmfd	sp!, {r4, lr}
 1701              	.LCFI23:
 1702              		.cfi_def_cfa_offset 8
 1703              		.cfi_offset 4, -8
 1704              		.cfi_offset 14, -4
 1705              		.loc 1 108 0
 1706 0004 6C309FE5 		ldr	r3, .L121
 1707 0008 6C209FE5 		ldr	r2, .L121+4
 1708 000c 183093E5 		ldr	r3, [r3, #24]
 1709 0010 000092E5 		ldr	r0, [r2, #0]
 1710 0014 082093E5 		ldr	r2, [r3, #8]
ARM GAS  C:\Users\NICOMA~1\AppData\Local\Temp\ccqMwJOe.s 			page 31


 1711              		.loc 1 105 0
 1712 0018 08D04DE2 		sub	sp, sp, #8
 1713              	.LCFI24:
 1714              		.cfi_def_cfa_offset 16
 1715              		.loc 1 108 0
 1716 001c 00C0A0E3 		mov	ip, #0
 1717 0020 461FA0E3 		mov	r1, #280
 1718 0024 012042E2 		sub	r2, r2, #1
 1719 0028 00C08DE5 		str	ip, [sp, #0]
 1720 002c 4C309FE5 		ldr	r3, .L121+8
 1721 0030 FEFFFFEB 		bl	chThdCreateStatic
 1722              	.LVL202:
 1723 0034 48309FE5 		ldr	r3, .L121+12
 1724 0038 000083E5 		str	r0, [r3, #0]
 1725              		.loc 1 109 0
 1726 003c FEFFFFEB 		bl	msg_loop_test
 1727              	.LVL203:
 1728 0040 0040A0E1 		mov	r4, r0
 1729              	.LVL204:
 1730              		.loc 1 110 0
 1731 0044 FEFFFFEB 		bl	test_wait_threads
 1732              	.LVL205:
 1733              		.loc 1 111 0
 1734 0048 38009FE5 		ldr	r0, .L121+16
 1735 004c FEFFFFEB 		bl	test_print
 1736              	.LVL206:
 1737              		.loc 1 112 0
 1738 0050 0400A0E1 		mov	r0, r4
 1739 0054 FEFFFFEB 		bl	test_printn
 1740              	.LVL207:
 1741              		.loc 1 113 0
 1742 0058 2C009FE5 		ldr	r0, .L121+20
 1743 005c FEFFFFEB 		bl	test_print
 1744              	.LVL208:
 1745              		.loc 1 114 0
 1746 0060 8400A0E1 		mov	r0, r4, asl #1
 1747 0064 FEFFFFEB 		bl	test_printn
 1748              	.LVL209:
 1749              		.loc 1 115 0
 1750 0068 20009FE5 		ldr	r0, .L121+24
 1751              		.loc 1 116 0
 1752 006c 08D08DE2 		add	sp, sp, #8
 1753 0070 1040BDE8 		ldmfd	sp!, {r4, lr}
 1754              		.loc 1 115 0
 1755 0074 FEFFFFEA 		b	test_println
 1756              	.LVL210:
 1757              	.L122:
 1758              		.align	2
 1759              	.L121:
 1760 0078 00000000 		.word	rlist
 1761 007c 00000000 		.word	wa
 1762 0080 00000000 		.word	thread1
 1763 0084 00000000 		.word	threads
 1764 0088 A8000000 		.word	.LC11
 1765 008c 1C010000 		.word	.LC19
 1766 0090 FC000000 		.word	.LC17
 1767              		.cfi_endproc
ARM GAS  C:\Users\NICOMA~1\AppData\Local\Temp\ccqMwJOe.s 			page 32


 1768              	.LFE9:
 1769              		.size	bmk1_execute, .-bmk1_execute
 1770              		.section	.text.thread1,"ax",%progbits
 1771              		.align	2
 1772              		.type	thread1, %function
 1773              	thread1:
 1774              	.LFB7:
 1775              		.loc 1 64 0
 1776              		.cfi_startproc
 1777              		@ args = 0, pretend = 0, frame = 0
 1778              		@ frame_needed = 0, uses_anonymous_args = 0
 1779              	.LVL211:
 1780 0000 10402DE9 		stmfd	sp!, {r4, lr}
 1781              	.LCFI25:
 1782              		.cfi_def_cfa_offset 8
 1783              		.cfi_offset 4, -8
 1784              		.cfi_offset 14, -4
 1785              	.LVL212:
 1786              	.L124:
 1787              		.loc 1 70 0 discriminator 1
 1788 0004 FEFFFFEB 		bl	chMsgWait
 1789              	.LVL213:
 1790              		.loc 1 71 0 discriminator 1
 1791 0008 344090E5 		ldr	r4, [r0, #52]
 1792              	.LVL214:
 1793              		.loc 1 72 0 discriminator 1
 1794 000c 0410A0E1 		mov	r1, r4
 1795 0010 FEFFFFEB 		bl	chMsgRelease
 1796              	.LVL215:
 1797              		.loc 1 73 0 discriminator 1
 1798 0014 000054E3 		cmp	r4, #0
 1799 0018 F9FFFF1A 		bne	.L124
 1800              		.loc 1 75 0
 1801 001c 0400A0E1 		mov	r0, r4
 1802 0020 1080BDE8 		ldmfd	sp!, {r4, pc}
 1803              		.cfi_endproc
 1804              	.LFE7:
 1805              		.size	thread1, .-thread1
 1806              		.section	.text.thread4,"ax",%progbits
 1807              		.align	2
 1808              		.global	thread4
 1809              		.type	thread4, %function
 1810              	thread4:
 1811              	.LFB13:
 1812              		.loc 1 203 0
 1813              		.cfi_startproc
 1814              		@ args = 0, pretend = 0, frame = 0
 1815              		@ frame_needed = 0, uses_anonymous_args = 0
 1816              	.LVL216:
 1817              		.loc 1 205 0
 1818 0000 28309FE5 		ldr	r3, .L132
 1819              		.loc 1 203 0
 1820 0004 10402DE9 		stmfd	sp!, {r4, lr}
 1821              	.LCFI26:
 1822              		.cfi_def_cfa_offset 8
 1823              		.cfi_offset 4, -8
 1824              		.cfi_offset 14, -4
ARM GAS  C:\Users\NICOMA~1\AppData\Local\Temp\ccqMwJOe.s 			page 33


 1825              		.loc 1 205 0
 1826 0008 184093E5 		ldr	r4, [r3, #24]
 1827              	.LVL217:
 1828              		.loc 1 208 0
 1829              	@ 208 "../../test/testbmk.c" 1
 1830 000c 9FF021E3 		msr     CPSR_c, #0x9F
 1831              	@ 0 "" 2
 1832              	.LVL218:
 1833              	.L127:
 1834              		.loc 1 210 0 discriminator 1
 1835 0010 0200A0E3 		mov	r0, #2
 1836 0014 FEFFFFEB 		bl	chSchGoSleepS
 1837              	.LVL219:
 1838              		.loc 1 212 0 discriminator 1
 1839 0018 243094E5 		ldr	r3, [r4, #36]
 1840 001c 000053E3 		cmp	r3, #0
 1841 0020 FAFFFF0A 		beq	.L127
 1842              		.loc 1 213 0
 1843              	@ 213 "../../test/testbmk.c" 1
 1844 0024 1FF021E3 		msr     CPSR_c, #0x1F
 1845              	@ 0 "" 2
 1846              		.loc 1 215 0
 1847 0028 0000A0E3 		mov	r0, #0
 1848 002c 1080BDE8 		ldmfd	sp!, {r4, pc}
 1849              	.L133:
 1850              		.align	2
 1851              	.L132:
 1852 0030 00000000 		.word	rlist
 1853              		.cfi_endproc
 1854              	.LFE13:
 1855              		.size	thread4, .-thread4
 1856              		.global	patternbmk
 1857              		.global	testbmk13
 1858              		.global	testbmk12
 1859              		.global	testbmk11
 1860              		.global	testbmk10
 1861              		.global	testbmk9
 1862              		.global	testbmk8
 1863              		.global	testbmk7
 1864              		.global	testbmk6
 1865              		.global	testbmk5
 1866              		.global	testbmk4
 1867              		.global	testbmk3
 1868              		.global	testbmk2
 1869              		.global	testbmk1
 1870              		.section	.rodata.testbmk8,"a",%progbits
 1871              		.align	2
 1872              		.type	testbmk8, %object
 1873              		.size	testbmk8, 16
 1874              	testbmk8:
 1875 0000 D0010000 		.word	.LC25
 1876 0004 00000000 		.word	0
 1877 0008 00000000 		.word	0
 1878 000c 00000000 		.word	bmk8_execute
 1879              		.section	.bss.vt2.4807,"aw",%nobits
 1880              		.align	2
 1881              		.set	.LANCHOR3,. + 0
ARM GAS  C:\Users\NICOMA~1\AppData\Local\Temp\ccqMwJOe.s 			page 34


 1882              		.type	vt2.4807, %object
 1883              		.size	vt2.4807, 20
 1884              	vt2.4807:
 1885 0000 00000000 		.space	20
 1885      00000000 
 1885      00000000 
 1885      00000000 
 1885      00000000 
 1886              		.section	.rodata.testbmk4,"a",%progbits
 1887              		.align	2
 1888              		.type	testbmk4, %object
 1889              		.size	testbmk4, 16
 1890              	testbmk4:
 1891 0000 64020000 		.word	.LC29
 1892 0004 00000000 		.word	0
 1893 0008 00000000 		.word	0
 1894 000c 00000000 		.word	bmk4_execute
 1895              		.section	.rodata.testbmk3,"a",%progbits
 1896              		.align	2
 1897              		.type	testbmk3, %object
 1898              		.size	testbmk3, 16
 1899              	testbmk3:
 1900 0000 80020000 		.word	.LC30
 1901 0004 00000000 		.word	0
 1902 0008 00000000 		.word	0
 1903 000c 00000000 		.word	bmk3_execute
 1904              		.section	.rodata.testbmk10,"a",%progbits
 1905              		.align	2
 1906              		.type	testbmk10, %object
 1907              		.size	testbmk10, 16
 1908              	testbmk10:
 1909 0000 88010000 		.word	.LC23
 1910 0004 00000000 		.word	0
 1911 0008 00000000 		.word	0
 1912 000c 00000000 		.word	bmk10_execute
 1913              		.section	.rodata.testbmk11,"a",%progbits
 1914              		.align	2
 1915              		.type	testbmk11, %object
 1916              		.size	testbmk11, 16
 1917              	testbmk11:
 1918 0000 64010000 		.word	.LC22
 1919 0004 00000000 		.word	bmk11_setup
 1920 0008 00000000 		.word	0
 1921 000c 00000000 		.word	bmk11_execute
 1922              		.section	.bss.mtx1,"aw",%nobits
 1923              		.align	2
 1924              		.set	.LANCHOR0,. + 0
 1925              		.type	mtx1, %object
 1926              		.size	mtx1, 16
 1927              	mtx1:
 1928 0000 00000000 		.space	16
 1928      00000000 
 1928      00000000 
 1928      00000000 
 1929              		.section	.rodata.testbmk12,"a",%progbits
 1930              		.align	2
 1931              		.type	testbmk12, %object
ARM GAS  C:\Users\NICOMA~1\AppData\Local\Temp\ccqMwJOe.s 			page 35


 1932              		.size	testbmk12, 16
 1933              	testbmk12:
 1934 0000 44010000 		.word	.LC21
 1935 0004 00000000 		.word	bmk12_setup
 1936 0008 00000000 		.word	0
 1937 000c 00000000 		.word	bmk12_execute
 1938              		.section	.rodata.testbmk13,"a",%progbits
 1939              		.align	2
 1940              		.type	testbmk13, %object
 1941              		.size	testbmk13, 16
 1942              	testbmk13:
 1943 0000 28010000 		.word	.LC20
 1944 0004 00000000 		.word	0
 1945 0008 00000000 		.word	0
 1946 000c 00000000 		.word	bmk13_execute
 1947              		.section	.rodata.testbmk2,"a",%progbits
 1948              		.align	2
 1949              		.type	testbmk2, %object
 1950              		.size	testbmk2, 16
 1951              	testbmk2:
 1952 0000 98020000 		.word	.LC31
 1953 0004 00000000 		.word	0
 1954 0008 00000000 		.word	0
 1955 000c 00000000 		.word	bmk2_execute
 1956              		.section	.rodata.str1.4,"aMS",%progbits,1
 1957              		.align	2
 1958              	.LC0:
 1959 0000 2D2D2D20 		.ascii	"--- System: \000"
 1959      53797374 
 1959      656D3A20 
 1959      00
 1960 000d 000000   		.space	3
 1961              	.LC1:
 1962 0010 20627974 		.ascii	" bytes\000"
 1962      657300
 1963 0017 00       		.space	1
 1964              	.LC2:
 1965 0018 2D2D2D20 		.ascii	"--- Thread: \000"
 1965      54687265 
 1965      61643A20 
 1965      00
 1966 0025 000000   		.space	3
 1967              	.LC3:
 1968 0028 2D2D2D20 		.ascii	"--- Timer : \000"
 1968      54696D65 
 1968      72203A20 
 1968      00
 1969 0035 000000   		.space	3
 1970              	.LC4:
 1971 0038 2D2D2D20 		.ascii	"--- Semaph: \000"
 1971      53656D61 
 1971      70683A20 
 1971      00
 1972 0045 000000   		.space	3
 1973              	.LC5:
 1974 0048 2D2D2D20 		.ascii	"--- EventS: \000"
 1974      4576656E 
ARM GAS  C:\Users\NICOMA~1\AppData\Local\Temp\ccqMwJOe.s 			page 36


 1974      74533A20 
 1974      00
 1975 0055 000000   		.space	3
 1976              	.LC6:
 1977 0058 2D2D2D20 		.ascii	"--- EventL: \000"
 1977      4576656E 
 1977      744C3A20 
 1977      00
 1978 0065 000000   		.space	3
 1979              	.LC7:
 1980 0068 2D2D2D20 		.ascii	"--- Mutex : \000"
 1980      4D757465 
 1980      78203A20 
 1980      00
 1981 0075 000000   		.space	3
 1982              	.LC8:
 1983 0078 2D2D2D20 		.ascii	"--- CondV.: \000"
 1983      436F6E64 
 1983      562E3A20 
 1983      00
 1984 0085 000000   		.space	3
 1985              	.LC9:
 1986 0088 2D2D2D20 		.ascii	"--- Queue : \000"
 1986      51756575 
 1986      65203A20 
 1986      00
 1987 0095 000000   		.space	3
 1988              	.LC10:
 1989 0098 2D2D2D20 		.ascii	"--- MailB.: \000"
 1989      4D61696C 
 1989      422E3A20 
 1989      00
 1990 00a5 000000   		.space	3
 1991              	.LC11:
 1992 00a8 2D2D2D20 		.ascii	"--- Score : \000"
 1992      53636F72 
 1992      65203A20 
 1992      00
 1993 00b5 000000   		.space	3
 1994              	.LC12:
 1995 00b8 206C6F63 		.ascii	" lock+unlock/S\000"
 1995      6B2B756E 
 1995      6C6F636B 
 1995      2F5300
 1996 00c7 00       		.space	1
 1997              	.LC13:
 1998 00c8 20776169 		.ascii	" wait+signal/S\000"
 1998      742B7369 
 1998      676E616C 
 1998      2F5300
 1999 00d7 00       		.space	1
 2000              	.LC14:
 2001 00d8 2074696D 		.ascii	" timers/S\000"
 2001      6572732F 
 2001      5300
 2002 00e2 0000     		.space	2
 2003              	.LC15:
ARM GAS  C:\Users\NICOMA~1\AppData\Local\Temp\ccqMwJOe.s 			page 37


 2004 00e4 20627974 		.ascii	" bytes/S\000"
 2004      65732F53 
 2004      00
 2005 00ed 000000   		.space	3
 2006              	.LC16:
 2007 00f0 20746872 		.ascii	" threads/S\000"
 2007      65616473 
 2007      2F5300
 2008 00fb 00       		.space	1
 2009              	.LC17:
 2010 00fc 20637478 		.ascii	" ctxswc/S\000"
 2010      7377632F 
 2010      5300
 2011 0106 0000     		.space	2
 2012              	.LC18:
 2013 0108 20726573 		.ascii	" reschedules/S, \000"
 2013      63686564 
 2013      756C6573 
 2013      2F532C20 
 2013      00
 2014 0119 000000   		.space	3
 2015              	.LC19:
 2016 011c 206D7367 		.ascii	" msgs/S, \000"
 2016      732F532C 
 2016      2000
 2017 0126 0000     		.space	2
 2018              	.LC20:
 2019 0128 42656E63 		.ascii	"Benchmark, RAM footprint\000"
 2019      686D6172 
 2019      6B2C2052 
 2019      414D2066 
 2019      6F6F7470 
 2020 0141 000000   		.space	3
 2021              	.LC21:
 2022 0144 42656E63 		.ascii	"Benchmark, mutexes lock/unlock\000"
 2022      686D6172 
 2022      6B2C206D 
 2022      75746578 
 2022      6573206C 
 2023 0163 00       		.space	1
 2024              	.LC22:
 2025 0164 42656E63 		.ascii	"Benchmark, semaphores wait/signal\000"
 2025      686D6172 
 2025      6B2C2073 
 2025      656D6170 
 2025      686F7265 
 2026 0186 0000     		.space	2
 2027              	.LC23:
 2028 0188 42656E63 		.ascii	"Benchmark, virtual timers set/reset\000"
 2028      686D6172 
 2028      6B2C2076 
 2028      69727475 
 2028      616C2074 
 2029              	.LC24:
 2030 01ac 42656E63 		.ascii	"Benchmark, I/O Queues throughput\000"
 2030      686D6172 
 2030      6B2C2049 
ARM GAS  C:\Users\NICOMA~1\AppData\Local\Temp\ccqMwJOe.s 			page 38


 2030      2F4F2051 
 2030      75657565 
 2031 01cd 000000   		.space	3
 2032              	.LC25:
 2033 01d0 42656E63 		.ascii	"Benchmark, round robin context switching\000"
 2033      686D6172 
 2033      6B2C2072 
 2033      6F756E64 
 2033      20726F62 
 2034 01f9 000000   		.space	3
 2035              	.LC26:
 2036 01fc 42656E63 		.ascii	"Benchmark, mass reschedule, 5 threads\000"
 2036      686D6172 
 2036      6B2C206D 
 2036      61737320 
 2036      72657363 
 2037 0222 0000     		.space	2
 2038              	.LC27:
 2039 0224 42656E63 		.ascii	"Benchmark, threads, create only\000"
 2039      686D6172 
 2039      6B2C2074 
 2039      68726561 
 2039      64732C20 
 2040              	.LC28:
 2041 0244 42656E63 		.ascii	"Benchmark, threads, full cycle\000"
 2041      686D6172 
 2041      6B2C2074 
 2041      68726561 
 2041      64732C20 
 2042 0263 00       		.space	1
 2043              	.LC29:
 2044 0264 42656E63 		.ascii	"Benchmark, context switch\000"
 2044      686D6172 
 2044      6B2C2063 
 2044      6F6E7465 
 2044      78742073 
 2045 027e 0000     		.space	2
 2046              	.LC30:
 2047 0280 42656E63 		.ascii	"Benchmark, messages #3\000"
 2047      686D6172 
 2047      6B2C206D 
 2047      65737361 
 2047      67657320 
 2048 0297 00       		.space	1
 2049              	.LC31:
 2050 0298 42656E63 		.ascii	"Benchmark, messages #2\000"
 2050      686D6172 
 2050      6B2C206D 
 2050      65737361 
 2050      67657320 
 2051 02af 00       		.space	1
 2052              	.LC32:
 2053 02b0 42656E63 		.ascii	"Benchmark, messages #1\000"
 2053      686D6172 
 2053      6B2C206D 
 2053      65737361 
 2053      67657320 
ARM GAS  C:\Users\NICOMA~1\AppData\Local\Temp\ccqMwJOe.s 			page 39


 2054 02c7 00       		.section	.rodata.testbmk9,"a",%progbits
 2055              		.align	2
 2056              		.type	testbmk9, %object
 2057              		.size	testbmk9, 16
 2058              	testbmk9:
 2059 0000 AC010000 		.word	.LC24
 2060 0004 00000000 		.word	0
 2061 0008 00000000 		.word	0
 2062 000c 00000000 		.word	bmk9_execute
 2063              		.section	.bss.sem1,"aw",%nobits
 2064              		.align	2
 2065              		.set	.LANCHOR1,. + 0
 2066              		.type	sem1, %object
 2067              		.size	sem1, 12
 2068              	sem1:
 2069 0000 00000000 		.space	12
 2069      00000000 
 2069      00000000 
 2070              		.section	.bss.vt1.4806,"aw",%nobits
 2071              		.align	2
 2072              		.set	.LANCHOR2,. + 0
 2073              		.type	vt1.4806, %object
 2074              		.size	vt1.4806, 20
 2075              	vt1.4806:
 2076 0000 00000000 		.space	20
 2076      00000000 
 2076      00000000 
 2076      00000000 
 2076      00000000 
 2077              		.section	.rodata.testbmk1,"a",%progbits
 2078              		.align	2
 2079              		.type	testbmk1, %object
 2080              		.size	testbmk1, 16
 2081              	testbmk1:
 2082 0000 B0020000 		.word	.LC32
 2083 0004 00000000 		.word	0
 2084 0008 00000000 		.word	0
 2085 000c 00000000 		.word	bmk1_execute
 2086              		.section	.bss.ib.4795,"aw",%nobits
 2087              		.align	2
 2088              		.set	.LANCHOR5,. + 0
 2089              		.type	ib.4795, %object
 2090              		.size	ib.4795, 16
 2091              	ib.4795:
 2092 0000 00000000 		.space	16
 2092      00000000 
 2092      00000000 
 2092      00000000 
 2093              		.section	.bss.iq.4796,"aw",%nobits
 2094              		.align	2
 2095              		.set	.LANCHOR4,. + 0
 2096              		.type	iq.4796, %object
 2097              		.size	iq.4796, 36
 2098              	iq.4796:
 2099 0000 00000000 		.space	36
 2099      00000000 
 2099      00000000 
ARM GAS  C:\Users\NICOMA~1\AppData\Local\Temp\ccqMwJOe.s 			page 40


 2099      00000000 
 2099      00000000 
 2100              		.section	.rodata.patternbmk,"a",%progbits
 2101              		.align	2
 2102              		.type	patternbmk, %object
 2103              		.size	patternbmk, 56
 2104              	patternbmk:
 2105 0000 00000000 		.word	testbmk1
 2106 0004 00000000 		.word	testbmk2
 2107 0008 00000000 		.word	testbmk3
 2108 000c 00000000 		.word	testbmk4
 2109 0010 00000000 		.word	testbmk5
 2110 0014 00000000 		.word	testbmk6
 2111 0018 00000000 		.word	testbmk7
 2112 001c 00000000 		.word	testbmk8
 2113 0020 00000000 		.word	testbmk9
 2114 0024 00000000 		.word	testbmk10
 2115 0028 00000000 		.word	testbmk11
 2116 002c 00000000 		.word	testbmk12
 2117 0030 00000000 		.word	testbmk13
 2118 0034 00000000 		.word	0
 2119              		.section	.rodata.testbmk5,"a",%progbits
 2120              		.align	2
 2121              		.type	testbmk5, %object
 2122              		.size	testbmk5, 16
 2123              	testbmk5:
 2124 0000 44020000 		.word	.LC28
 2125 0004 00000000 		.word	0
 2126 0008 00000000 		.word	0
 2127 000c 00000000 		.word	bmk5_execute
 2128              		.section	.rodata.testbmk6,"a",%progbits
 2129              		.align	2
 2130              		.type	testbmk6, %object
 2131              		.size	testbmk6, 16
 2132              	testbmk6:
 2133 0000 24020000 		.word	.LC27
 2134 0004 00000000 		.word	0
 2135 0008 00000000 		.word	0
 2136 000c 00000000 		.word	bmk6_execute
 2137              		.section	.rodata.testbmk7,"a",%progbits
 2138              		.align	2
 2139              		.type	testbmk7, %object
 2140              		.size	testbmk7, 16
 2141              	testbmk7:
 2142 0000 FC010000 		.word	.LC26
 2143 0004 00000000 		.word	bmk7_setup
 2144 0008 00000000 		.word	0
 2145 000c 00000000 		.word	bmk7_execute
 2146              		.text
 2147              	.Letext0:
 2148              		.file 2 "c:\\yagarto-20121222\\bin\\../lib/gcc/arm-none-eabi/4.7.2/include/stddef.h"
 2149              		.file 3 "c:/yagarto-20121222/lib/gcc/../../arm-none-eabi/sys-include/stdint.h"
 2150              		.file 4 "../../os/ports/GCC/ARM/chtypes.h"
 2151              		.file 5 "../../os/kernel/include/chlists.h"
 2152              		.file 6 "../../os/kernel/include/chthreads.h"
 2153              		.file 7 "../../os/ports/GCC/ARM/chcore.h"
 2154              		.file 8 "../../os/kernel/include/chvt.h"
ARM GAS  C:\Users\NICOMA~1\AppData\Local\Temp\ccqMwJOe.s 			page 41


 2155              		.file 9 "../../os/kernel/include/chschd.h"
 2156              		.file 10 "../../os/kernel/include/chsem.h"
 2157              		.file 11 "../../os/kernel/include/chmtx.h"
 2158              		.file 12 "../../os/kernel/include/chqueues.h"
 2159              		.file 13 "../../test/test.h"
 2160              		.file 14 "../../os/kernel/include/chmsg.h"