ARM GAS  C:\Users\NICOMA~1\AppData\Local\Temp\ccXdiWHq.s 			page 1


   1              		.cpu arm1176jz-s
   2              		.fpu softvfp
   3              		.eabi_attribute 20, 1
   4              		.eabi_attribute 21, 1
   5              		.eabi_attribute 23, 3
   6              		.eabi_attribute 24, 1
   7              		.eabi_attribute 25, 1
   8              		.eabi_attribute 26, 1
   9              		.eabi_attribute 30, 2
  10              		.eabi_attribute 34, 1
  11              		.eabi_attribute 18, 4
  12              		.file	"tm.c"
  13              		.text
  14              	.Ltext0:
  15              		.cfi_sections	.debug_frame
  16              		.section	.text.tm_start,"ax",%progbits
  17              		.align	2
  18              		.type	tm_start, %function
  19              	tm_start:
  20              	.LFB7:
  21              		.file 1 "../../os/hal/src/tm.c"
  22              		.loc 1 69 0
  23              		.cfi_startproc
  24              		@ args = 0, pretend = 0, frame = 0
  25              		@ frame_needed = 0, uses_anonymous_args = 0
  26              		@ link register save eliminated.
  27              	.LVL0:
  28              		.loc 1 71 0
  29 0000 08309FE5 		ldr	r3, .L2
  30 0004 043093E5 		ldr	r3, [r3, #4]
  31 0008 083080E5 		str	r3, [r0, #8]
  32 000c 1EFF2FE1 		bx	lr
  33              	.L3:
  34              		.align	2
  35              	.L2:
  36 0010 00300020 		.word	536883200
  37              		.cfi_endproc
  38              	.LFE7:
  39              		.size	tm_start, .-tm_start
  40              		.section	.text.tm_stop,"ax",%progbits
  41              		.align	2
  42              		.type	tm_stop, %function
  43              	tm_stop:
  44              	.LFB8:
  45              		.loc 1 81 0
  46              		.cfi_startproc
  47              		@ args = 0, pretend = 0, frame = 0
  48              		@ frame_needed = 0, uses_anonymous_args = 0
  49              		@ link register save eliminated.
  50              	.LVL1:
  51              		.loc 1 83 0
  52 0000 38309FE5 		ldr	r3, .L8
  53              		.loc 1 84 0
  54 0004 38109FE5 		ldr	r1, .L8+4
  55              		.loc 1 83 0
  56 0008 042093E5 		ldr	r2, [r3, #4]
  57              	.LVL2:
ARM GAS  C:\Users\NICOMA~1\AppData\Local\Temp\ccXdiWHq.s 			page 2


  58              		.loc 1 84 0
  59 000c 083090E5 		ldr	r3, [r0, #8]
  60 0010 001091E5 		ldr	r1, [r1, #0]
  61 0014 023063E0 		rsb	r3, r3, r2
  62              		.loc 1 85 0
  63 0018 0C2090E5 		ldr	r2, [r0, #12]
  64              	.LVL3:
  65              		.loc 1 84 0
  66 001c 033061E0 		rsb	r3, r1, r3
  67              		.loc 1 85 0
  68 0020 020053E1 		cmp	r3, r2
  69              		.loc 1 84 0
  70 0024 083080E5 		str	r3, [r0, #8]
  71              		.loc 1 86 0
  72 0028 0C308085 		strhi	r3, [r0, #12]
  73              		.loc 1 85 0
  74 002c 1EFF2F81 		bxhi	lr
  75              		.loc 1 87 0
  76 0030 102090E5 		ldr	r2, [r0, #16]
  77 0034 020053E1 		cmp	r3, r2
  78              		.loc 1 88 0
  79 0038 10308035 		strcc	r3, [r0, #16]
  80 003c 1EFF2FE1 		bx	lr
  81              	.L9:
  82              		.align	2
  83              	.L8:
  84 0040 00300020 		.word	536883200
  85 0044 00000000 		.word	.LANCHOR0
  86              		.cfi_endproc
  87              	.LFE8:
  88              		.size	tm_stop, .-tm_stop
  89              		.section	.text.tmInit,"ax",%progbits
  90              		.align	2
  91              		.global	tmInit
  92              		.type	tmInit, %function
  93              	tmInit:
  94              	.LFB9:
  95              		.loc 1 104 0
  96              		.cfi_startproc
  97              		@ args = 0, pretend = 0, frame = 24
  98              		@ frame_needed = 0, uses_anonymous_args = 0
  99 0000 10402DE9 		stmfd	sp!, {r4, lr}
 100              	.LCFI0:
 101              		.cfi_def_cfa_offset 8
 102              		.cfi_offset 4, -8
 103              		.cfi_offset 14, -4
 104              	.LBB8:
 105              	.LBB9:
 106              		.loc 1 130 0
 107 0004 0020E0E3 		mvn	r2, #0
 108              	.LBE9:
 109              	.LBE8:
 110              		.loc 1 104 0
 111 0008 18D04DE2 		sub	sp, sp, #24
 112              	.LCFI1:
 113              		.cfi_def_cfa_offset 32
 114              		.loc 1 110 0
ARM GAS  C:\Users\NICOMA~1\AppData\Local\Temp\ccXdiWHq.s 			page 3


 115 000c 0030A0E3 		mov	r3, #0
 116              	.LBB15:
 117              	.LBB10:
 118              		.loc 1 130 0
 119 0010 14208DE5 		str	r2, [sp, #20]
 120              	.LBE10:
 121              	.LBE15:
 122              		.loc 1 110 0
 123 0014 3C409FE5 		ldr	r4, .L11
 124              	.LBB16:
 125              	.LBB17:
 126              		.loc 1 71 0
 127 0018 3C209FE5 		ldr	r2, .L11+4
 128              	.LBE17:
 129              	.LBE16:
 130              	.LBB20:
 131              	.LBB11:
 132              		.loc 1 128 0
 133 001c 0C308DE5 		str	r3, [sp, #12]
 134              		.loc 1 129 0
 135 0020 10308DE5 		str	r3, [sp, #16]
 136              	.LBE11:
 137              	.LBE20:
 138              	.LBB21:
 139              	.LBB18:
 140              		.loc 1 71 0
 141 0024 042092E5 		ldr	r2, [r2, #4]
 142              	.LBE18:
 143              	.LBE21:
 144              		.loc 1 110 0
 145 0028 003084E5 		str	r3, [r4, #0]
 146              	.LVL4:
 147              	.LBB22:
 148              	.LBB12:
 149              		.loc 1 126 0
 150 002c 2C309FE5 		ldr	r3, .L11+8
 151              	.LBE12:
 152              	.LBE22:
 153              		.loc 1 113 0
 154 0030 04008DE2 		add	r0, sp, #4
 155              	.LVL5:
 156              	.LBB23:
 157              	.LBB13:
 158              		.loc 1 126 0
 159 0034 04308DE5 		str	r3, [sp, #4]
 160              		.loc 1 127 0
 161 0038 24309FE5 		ldr	r3, .L11+12
 162              	.LBE13:
 163              	.LBE23:
 164              	.LBB24:
 165              	.LBB19:
 166              		.loc 1 71 0
 167 003c 0C208DE5 		str	r2, [sp, #12]
 168              	.LBE19:
 169              	.LBE24:
 170              	.LBB25:
 171              	.LBB14:
ARM GAS  C:\Users\NICOMA~1\AppData\Local\Temp\ccXdiWHq.s 			page 4


 172              		.loc 1 127 0
 173 0040 08308DE5 		str	r3, [sp, #8]
 174              	.LBE14:
 175              	.LBE25:
 176              		.loc 1 113 0
 177 0044 FEFFFFEB 		bl	tm_stop
 178              	.LVL6:
 179              		.loc 1 114 0
 180 0048 0C309DE5 		ldr	r3, [sp, #12]
 181 004c 003084E5 		str	r3, [r4, #0]
 182              		.loc 1 115 0
 183 0050 18D08DE2 		add	sp, sp, #24
 184 0054 1080BDE8 		ldmfd	sp!, {r4, pc}
 185              	.L12:
 186              		.align	2
 187              	.L11:
 188 0058 00000000 		.word	.LANCHOR0
 189 005c 00300020 		.word	536883200
 190 0060 00000000 		.word	tm_start
 191 0064 00000000 		.word	tm_stop
 192              		.cfi_endproc
 193              	.LFE9:
 194              		.size	tmInit, .-tmInit
 195              		.section	.text.tmObjectInit,"ax",%progbits
 196              		.align	2
 197              		.global	tmObjectInit
 198              		.type	tmObjectInit, %function
 199              	tmObjectInit:
 200              	.LFB10:
 201              		.loc 1 124 0
 202              		.cfi_startproc
 203              		@ args = 0, pretend = 0, frame = 0
 204              		@ frame_needed = 0, uses_anonymous_args = 0
 205              		@ link register save eliminated.
 206              	.LVL7:
 207              		.loc 1 126 0
 208 0000 1C209FE5 		ldr	r2, .L14
 209              		.loc 1 128 0
 210 0004 0030A0E3 		mov	r3, #0
 211              		.loc 1 126 0
 212 0008 002080E5 		str	r2, [r0, #0]
 213              		.loc 1 127 0
 214 000c 14209FE5 		ldr	r2, .L14+4
 215              		.loc 1 129 0
 216 0010 0C3080E5 		str	r3, [r0, #12]
 217              		.loc 1 128 0
 218 0014 0C0080E9 		stmib	r0, {r2, r3}
 219              		.loc 1 130 0
 220 0018 0030E0E3 		mvn	r3, #0
 221 001c 103080E5 		str	r3, [r0, #16]
 222 0020 1EFF2FE1 		bx	lr
 223              	.L15:
 224              		.align	2
 225              	.L14:
 226 0024 00000000 		.word	tm_start
 227 0028 00000000 		.word	tm_stop
 228              		.cfi_endproc
ARM GAS  C:\Users\NICOMA~1\AppData\Local\Temp\ccXdiWHq.s 			page 5


 229              	.LFE10:
 230              		.size	tmObjectInit, .-tmObjectInit
 231              		.section	.bss.measurement_offset,"aw",%nobits
 232              		.align	2
 233              		.set	.LANCHOR0,. + 0
 234              		.type	measurement_offset, %object
 235              		.size	measurement_offset, 4
 236              	measurement_offset:
 237 0000 00000000 		.space	4
 238              		.text
 239              	.Letext0:
 240              		.file 2 "c:/yagarto-20121222/lib/gcc/../../arm-none-eabi/sys-include/stdint.h"
 241              		.file 3 "../../os/hal/platforms/BCM2835/hal_lld.h"
 242              		.file 4 "../../os/hal/include/tm.h"